
os:     file format elf32-littleriscv


Disassembly of section .text:

00000000 <_start>:
# # generated - do not edit (see `configuration.py`)
# .global _start
# _start:
#     li sp, 0x200000
       0:	00200137          	lui	sp,0x200
#     j run
       4:	0040006f          	j	8 <run>

00000008 <run>:
# extern char __bss_start;
# extern char __bss_end;
# 
# // zero bss section
# static auto initiate_bss() -> void {
#   memset(&__bss_start, 0, &__bss_end - &__bss_start);
       8:	000037b7          	lui	a5,0x3
       c:	00003737          	lui	a4,0x3
# static auto input(command_buffer &cmd_buf) -> void;
# static auto handle_input(entity_id_t eid, command_buffer &cmd_buf) -> void;
# static auto strings_equal(char const *s1, char const *s2) -> bool;
# static auto string_copy(char const *src, size_t src_len, char *dst) -> void;
# 
# extern "C" auto run() -> void {
      10:	f8010113          	addi	sp,sp,-128 # 1fff80 <__bss_end+0x1fd36c>
      14:	c1478793          	addi	a5,a5,-1004 # 2c14 <__bss_end>
      18:	c0c70613          	addi	a2,a4,-1012 # 2c0c <_ZL21input_escape_sequence>
      1c:	06112e23          	sw	ra,124(sp)
      20:	06812c23          	sw	s0,120(sp)
      24:	06912a23          	sw	s1,116(sp)
      28:	07212823          	sw	s2,112(sp)
      2c:	07312623          	sw	s3,108(sp)
      30:	07412423          	sw	s4,104(sp)
      34:	07512223          	sw	s5,100(sp)
      38:	40c787b3          	sub	a5,a5,a2
#   while (n--) {
      3c:	0a078663          	beqz	a5,e8 <run+0xe0>
      40:	40c00833          	neg	a6,a2
      44:	fff78693          	addi	a3,a5,-1
      48:	00500593          	li	a1,5
      4c:	00387513          	andi	a0,a6,3
      50:	1ed5f263          	bgeu	a1,a3,234 <run+0x22c>
#   char *ptr = reinterpret_cast<char *>(str);
      54:	c0c70593          	addi	a1,a4,-1012
      58:	02050663          	beqz	a0,84 <run+0x7c>
#     *ptr++ = char(ch);
      5c:	c0070623          	sb	zero,-1012(a4)
#   while (n--) {
      60:	00287813          	andi	a6,a6,2
      64:	1a080863          	beqz	a6,214 <run+0x20c>
#     *ptr++ = char(ch);
      68:	000600a3          	sb	zero,1(a2)
#   while (n--) {
      6c:	00300713          	li	a4,3
      70:	1ae51a63          	bne	a0,a4,224 <run+0x21c>
      74:	000035b7          	lui	a1,0x3
#     *ptr++ = char(ch);
      78:	00060123          	sb	zero,2(a2)
#   while (n--) {
      7c:	c0f58593          	addi	a1,a1,-1009 # 2c0f <_ZL21input_escape_sequence+0x3>
      80:	ffc78693          	addi	a3,a5,-4
      84:	40a787b3          	sub	a5,a5,a0
      88:	00a60733          	add	a4,a2,a0
      8c:	ffc7f613          	andi	a2,a5,-4
      90:	00e60533          	add	a0,a2,a4
#     *ptr++ = char(ch);
      94:	00072023          	sw	zero,0(a4)
#   while (n--) {
      98:	00470713          	addi	a4,a4,4
      9c:	fea71ce3          	bne	a4,a0,94 <run+0x8c>
      a0:	40c686b3          	sub	a3,a3,a2
      a4:	00c58733          	add	a4,a1,a2
      a8:	04c78063          	beq	a5,a2,e8 <run+0xe0>
#     *ptr++ = char(ch);
      ac:	00070023          	sb	zero,0(a4)
#   while (n--) {
      b0:	02068c63          	beqz	a3,e8 <run+0xe0>
#     *ptr++ = char(ch);
      b4:	000700a3          	sb	zero,1(a4)
#   while (n--) {
      b8:	00100793          	li	a5,1
      bc:	02f68663          	beq	a3,a5,e8 <run+0xe0>
#     *ptr++ = char(ch);
      c0:	00070123          	sb	zero,2(a4)
#   while (n--) {
      c4:	00200793          	li	a5,2
      c8:	02f68063          	beq	a3,a5,e8 <run+0xe0>
#     *ptr++ = char(ch);
      cc:	000701a3          	sb	zero,3(a4)
#   while (n--) {
      d0:	00300793          	li	a5,3
      d4:	00f68a63          	beq	a3,a5,e8 <run+0xe0>
#     *ptr++ = char(ch);
      d8:	00070223          	sb	zero,4(a4)
#   while (n--) {
      dc:	00400793          	li	a5,4
      e0:	00f68463          	beq	a3,a5,e8 <run+0xe0>
#     *ptr++ = char(ch);
      e4:	000702a3          	sb	zero,5(a4)
# static auto led_set(uint8_t bits) -> void { *LED = bits; }
      e8:	fe000fa3          	sb	zero,-1(zero) # ffffffff <__bss_end+0xffffd3eb>
# 
#   led_set(0);
#   // turn all leds on
# 
#   entity_id_t active_entity = 1;
#   command_buffer cmd_buf{};
      ec:	00c10513          	addi	a0,sp,12
      f0:	05200613          	li	a2,82
      f4:	00000593          	li	a1,0
      f8:	405010ef          	jal	1cfc <memset>
# 
#   uart_send_str(ascii_art);
      fc:	000037b7          	lui	a5,0x3
     100:	c087a683          	lw	a3,-1016(a5) # 2c08 <_ZL9ascii_art>
#   while (*str) {
     104:	0006c703          	lbu	a4,0(a3)
     108:	00070e63          	beqz	a4,124 <run+0x11c>
#     while (*UART_OUT)
     10c:	ffe04783          	lbu	a5,-2(zero) # fffffffe <__bss_end+0xffffd3ea>
     110:	fe079ee3          	bnez	a5,10c <run+0x104>
#     *UART_OUT = *str++;
     114:	00168693          	addi	a3,a3,1
     118:	fee00f23          	sb	a4,-2(zero) # fffffffe <__bss_end+0xffffd3ea>
#   while (*str) {
     11c:	0006c703          	lbu	a4,0(a3)
     120:	fe0716e3          	bnez	a4,10c <run+0x104>
#   uart_send_str(hello);
     124:	000037b7          	lui	a5,0x3
     128:	c047a683          	lw	a3,-1020(a5) # 2c04 <_ZL5hello>
     12c:	0006c703          	lbu	a4,0(a3)
     130:	00070e63          	beqz	a4,14c <run+0x144>
#     while (*UART_OUT)
     134:	ffe04783          	lbu	a5,-2(zero) # fffffffe <__bss_end+0xffffd3ea>
     138:	fe079ee3          	bnez	a5,134 <run+0x12c>
#     *UART_OUT = *str++;
     13c:	00168693          	addi	a3,a3,1
     140:	fee00f23          	sb	a4,-2(zero) # fffffffe <__bss_end+0xffffd3ea>
#   while (*str) {
     144:	0006c703          	lbu	a4,0(a3)
     148:	fe0716e3          	bnez	a4,134 <run+0x12c>
     14c:	00003937          	lui	s2,0x3
     150:	000024b7          	lui	s1,0x2
     154:	00002437          	lui	s0,0x2
     158:	84890913          	addi	s2,s2,-1976 # 2848 <_ZL8entities>
     15c:	2b048493          	addi	s1,s1,688 # 22b0 <_ZL4exiti+0x3e4>
     160:	2b440413          	addi	s0,s0,692 # 22b4 <_ZL4exiti+0x3e8>
#   entity_id_t active_entity = 1;
     164:	00100a93          	li	s5,1
#     uart_send_str(ent.name);
#     uart_send_str(" > ");
#     input(cmd_buf);
#     uart_send_str("\r\n");
#     handle_input(active_entity, cmd_buf);
#     active_entity = active_entity == 1 ? 2 : 1;
     168:	00300993          	li	s3,3
#     print_location(ent.location, active_entity);
     16c:	001a9a13          	slli	s4,s5,0x1
     170:	015a0a33          	add	s4,s4,s5
     174:	002a1a13          	slli	s4,s4,0x2
     178:	415a0a33          	sub	s4,s4,s5
     17c:	002a1a13          	slli	s4,s4,0x2
     180:	01490a33          	add	s4,s2,s4
     184:	004a4503          	lbu	a0,4(s4)
     188:	000a8593          	mv	a1,s5
     18c:	44c000ef          	jal	5d8 <_ZL14print_locationhh>
#     uart_send_str(ent.name);
     190:	000a2683          	lw	a3,0(s4)
     194:	0006c703          	lbu	a4,0(a3)
     198:	00070e63          	beqz	a4,1b4 <run+0x1ac>
#     while (*UART_OUT)
     19c:	ffe04783          	lbu	a5,-2(zero) # fffffffe <__bss_end+0xffffd3ea>
     1a0:	fe079ee3          	bnez	a5,19c <run+0x194>
#     *UART_OUT = *str++;
     1a4:	00168693          	addi	a3,a3,1
     1a8:	fee00f23          	sb	a4,-2(zero) # fffffffe <__bss_end+0xffffd3ea>
#   while (*str) {
     1ac:	0006c703          	lbu	a4,0(a3)
     1b0:	fe0716e3          	bnez	a4,19c <run+0x194>
     1b4:	02000693          	li	a3,32
     1b8:	00048713          	mv	a4,s1
#     while (*UART_OUT)
     1bc:	ffe04783          	lbu	a5,-2(zero) # fffffffe <__bss_end+0xffffd3ea>
     1c0:	fe079ee3          	bnez	a5,1bc <run+0x1b4>
#     *UART_OUT = *str++;
     1c4:	00170713          	addi	a4,a4,1
     1c8:	fed00f23          	sb	a3,-2(zero) # fffffffe <__bss_end+0xffffd3ea>
#   while (*str) {
     1cc:	00074683          	lbu	a3,0(a4)
     1d0:	fe0696e3          	bnez	a3,1bc <run+0x1b4>
#     input(cmd_buf);
     1d4:	00c10513          	addi	a0,sp,12
     1d8:	384010ef          	jal	155c <_ZL5inputR14command_buffer>
     1dc:	00040693          	mv	a3,s0
     1e0:	00d00713          	li	a4,13
#     while (*UART_OUT)
     1e4:	ffe04783          	lbu	a5,-2(zero) # fffffffe <__bss_end+0xffffd3ea>
     1e8:	fe079ee3          	bnez	a5,1e4 <run+0x1dc>
#     *UART_OUT = *str++;
     1ec:	00168693          	addi	a3,a3,1
     1f0:	fee00f23          	sb	a4,-2(zero) # fffffffe <__bss_end+0xffffd3ea>
#   while (*str) {
     1f4:	0006c703          	lbu	a4,0(a3)
     1f8:	fe0716e3          	bnez	a4,1e4 <run+0x1dc>
#     handle_input(active_entity, cmd_buf);
     1fc:	000a8513          	mv	a0,s5
     200:	00c10593          	addi	a1,sp,12
#     active_entity = active_entity == 1 ? 2 : 1;
     204:	41598ab3          	sub	s5,s3,s5
#     handle_input(active_entity, cmd_buf);
     208:	034000ef          	jal	23c <_ZL12handle_inputhR14command_buffer>
#     active_entity = active_entity == 1 ? 2 : 1;
     20c:	0ffafa93          	zext.b	s5,s5
     210:	f5dff06f          	j	16c <run+0x164>
#     *ptr++ = char(ch);
     214:	000035b7          	lui	a1,0x3
     218:	c0d58593          	addi	a1,a1,-1011 # 2c0d <_ZL21input_escape_sequence+0x1>
#   while (n--) {
     21c:	ffe78693          	addi	a3,a5,-2
     220:	e65ff06f          	j	84 <run+0x7c>
#     *ptr++ = char(ch);
     224:	000035b7          	lui	a1,0x3
     228:	c0e58593          	addi	a1,a1,-1010 # 2c0e <_ZL21input_escape_sequence+0x2>
#   while (n--) {
     22c:	ffd78693          	addi	a3,a5,-3
     230:	e55ff06f          	j	84 <run+0x7c>
#   char *ptr = reinterpret_cast<char *>(str);
     234:	c0c70713          	addi	a4,a4,-1012
     238:	e75ff06f          	j	ac <run+0xa4>

0000023c <_ZL12handle_inputhR14command_buffer>:
#   }
# }
# 
# static auto handle_input(entity_id_t const eid,
#                          command_buffer &cmd_buf) -> void {
     23c:	fd010113          	addi	sp,sp,-48
     240:	02112623          	sw	ra,44(sp)
     244:	00010813          	mv	a6,sp
#   char const *words[8];
#   char *ptr = cmd_buf.command_line();
#   size_t nwords = 0;
     248:	00000613          	li	a2,0
#   while (true) {
#     words[nwords] = ptr;
#     ++nwords;
#     while (*ptr && *ptr != ' ') {
     24c:	02000693          	li	a3,32
#     if (!*ptr) {
#       break;
#     }
#     *ptr = '\0';
#     ++ptr;
#     if (nwords == sizeof(words) / sizeof(char const *)) {
     250:	00800893          	li	a7,8
#     while (*ptr && *ptr != ' ') {
     254:	0005c783          	lbu	a5,0(a1)
#     words[nwords] = ptr;
     258:	00b82023          	sw	a1,0(a6)
#     ++nwords;
     25c:	00160613          	addi	a2,a2,1
#     while (*ptr && *ptr != ' ') {
     260:	00079863          	bnez	a5,270 <_ZL12handle_inputhR14command_buffer+0x34>
     264:	0480006f          	j	2ac <_ZL12handle_inputhR14command_buffer+0x70>
     268:	0005c783          	lbu	a5,0(a1)
     26c:	04078063          	beqz	a5,2ac <_ZL12handle_inputhR14command_buffer+0x70>
     270:	00058713          	mv	a4,a1
#       ++ptr;
     274:	00158593          	addi	a1,a1,1
#     while (*ptr && *ptr != ' ') {
     278:	fed798e3          	bne	a5,a3,268 <_ZL12handle_inputhR14command_buffer+0x2c>
#     *ptr = '\0';
     27c:	00070023          	sb	zero,0(a4)
#     if (nwords == sizeof(words) / sizeof(char const *)) {
     280:	00480813          	addi	a6,a6,4
     284:	fd1618e3          	bne	a2,a7,254 <_ZL12handle_inputhR14command_buffer+0x18>
     288:	00002737          	lui	a4,0x2
     28c:	2b870713          	addi	a4,a4,696 # 22b8 <_ZL4exiti+0x3ec>
#   while (*str) {
     290:	07400693          	li	a3,116
#     while (*UART_OUT)
     294:	ffe04783          	lbu	a5,-2(zero) # fffffffe <__bss_end+0xffffd3ea>
     298:	fe079ee3          	bnez	a5,294 <_ZL12handle_inputhR14command_buffer+0x58>
#     *UART_OUT = *str++;
     29c:	00170713          	addi	a4,a4,1
     2a0:	fed00f23          	sb	a3,-2(zero) # fffffffe <__bss_end+0xffffd3ea>
#   while (*str) {
     2a4:	00074683          	lbu	a3,0(a4)
     2a8:	fe0696e3          	bnez	a3,294 <_ZL12handle_inputhR14command_buffer+0x58>
#   }
#   // for (size_t i = 0; i < nwords; i++) {
#   //   uart_send_str(words[i]);
#   //   uart_send_str("\r\n");
#   // }
#   if (strings_equal(words[0], "help")) {
     2ac:	00012783          	lw	a5,0(sp)
#   }
# }
# 
# static auto strings_equal(char const *s1, char const *s2) -> bool {
#   while (true) {
#     if (*s1 != *s2) {
     2b0:	06800693          	li	a3,104
     2b4:	0007c703          	lbu	a4,0(a5)
     2b8:	04d71a63          	bne	a4,a3,30c <_ZL12handle_inputhR14command_buffer+0xd0>
     2bc:	00002737          	lui	a4,0x2
     2c0:	2dc70713          	addi	a4,a4,732 # 22dc <_ZL4exiti+0x410>
     2c4:	0017c603          	lbu	a2,1(a5)
     2c8:	00174683          	lbu	a3,1(a4)
#       return false;
#     }
#     if (!*s1 && !*s2) {
#       return true;
#     }
#     ++s1;
     2cc:	00178793          	addi	a5,a5,1
#     ++s2;
     2d0:	00170713          	addi	a4,a4,1
#     if (*s1 != *s2) {
     2d4:	02c69663          	bne	a3,a2,300 <_ZL12handle_inputhR14command_buffer+0xc4>
#     if (!*s1 && !*s2) {
     2d8:	fe0696e3          	bnez	a3,2c4 <_ZL12handle_inputhR14command_buffer+0x88>
     2dc:	00002737          	lui	a4,0x2
     2e0:	2e470713          	addi	a4,a4,740 # 22e4 <_ZL4exiti+0x418>
     2e4:	00d00693          	li	a3,13
#     while (*UART_OUT)
     2e8:	ffe04783          	lbu	a5,-2(zero) # fffffffe <__bss_end+0xffffd3ea>
     2ec:	fe079ee3          	bnez	a5,2e8 <_ZL12handle_inputhR14command_buffer+0xac>
#     *UART_OUT = *str++;
     2f0:	00170713          	addi	a4,a4,1
     2f4:	fed00f23          	sb	a3,-2(zero) # fffffffe <__bss_end+0xffffd3ea>
#   while (*str) {
     2f8:	00074683          	lbu	a3,0(a4)
     2fc:	fe0696e3          	bnez	a3,2e8 <_ZL12handle_inputhR14command_buffer+0xac>
# }
     300:	02c12083          	lw	ra,44(sp)
     304:	03010113          	addi	sp,sp,48
     308:	00008067          	ret
#     if (*s1 != *s2) {
     30c:	06900693          	li	a3,105
     310:	04d71c63          	bne	a4,a3,368 <_ZL12handle_inputhR14command_buffer+0x12c>
     314:	00002737          	lui	a4,0x2
     318:	3c070713          	addi	a4,a4,960 # 23c0 <_ZL4exiti+0x4f4>
     31c:	0017c603          	lbu	a2,1(a5)
     320:	00174683          	lbu	a3,1(a4)
#     ++s1;
     324:	00178793          	addi	a5,a5,1
#     ++s2;
     328:	00170713          	addi	a4,a4,1
#     if (*s1 != *s2) {
     32c:	fcc69ae3          	bne	a3,a2,300 <_ZL12handle_inputhR14command_buffer+0xc4>
#     if (!*s1 && !*s2) {
     330:	fe0696e3          	bnez	a3,31c <_ZL12handle_inputhR14command_buffer+0xe0>
#     action_inventory(eid);
     334:	608000ef          	jal	93c <_ZL16action_inventoryh>
     338:	00002737          	lui	a4,0x2
     33c:	2b470713          	addi	a4,a4,692 # 22b4 <_ZL4exiti+0x3e8>
     340:	00d00693          	li	a3,13
#     while (*UART_OUT)
     344:	ffe04783          	lbu	a5,-2(zero) # fffffffe <__bss_end+0xffffd3ea>
     348:	fe079ee3          	bnez	a5,344 <_ZL12handle_inputhR14command_buffer+0x108>
#     *UART_OUT = *str++;
     34c:	00170713          	addi	a4,a4,1
     350:	fed00f23          	sb	a3,-2(zero) # fffffffe <__bss_end+0xffffd3ea>
#   while (*str) {
     354:	00074683          	lbu	a3,0(a4)
     358:	fe0696e3          	bnez	a3,344 <_ZL12handle_inputhR14command_buffer+0x108>
# }
     35c:	02c12083          	lw	ra,44(sp)
     360:	03010113          	addi	sp,sp,48
     364:	00008067          	ret
#     if (*s1 != *s2) {
     368:	07400693          	li	a3,116
     36c:	02d71e63          	bne	a4,a3,3a8 <_ZL12handle_inputhR14command_buffer+0x16c>
     370:	000026b7          	lui	a3,0x2
     374:	3c468693          	addi	a3,a3,964 # 23c4 <_ZL4exiti+0x4f8>
     378:	0017c803          	lbu	a6,1(a5)
     37c:	0016c583          	lbu	a1,1(a3)
#     ++s1;
     380:	00178793          	addi	a5,a5,1
#     ++s2;
     384:	00168693          	addi	a3,a3,1
#     if (*s1 != *s2) {
     388:	f7059ce3          	bne	a1,a6,300 <_ZL12handle_inputhR14command_buffer+0xc4>
#     if (!*s1 && !*s2) {
     38c:	fe0596e3          	bnez	a1,378 <_ZL12handle_inputhR14command_buffer+0x13c>
#     if (nwords < 2) {
     390:	00100793          	li	a5,1
     394:	08f60663          	beq	a2,a5,420 <_ZL12handle_inputhR14command_buffer+0x1e4>
#     action_take(eid, words[1]);
     398:	00412583          	lw	a1,4(sp)
# }
     39c:	02c12083          	lw	ra,44(sp)
     3a0:	03010113          	addi	sp,sp,48
#     action_take(eid, words[1]);
     3a4:	6ac0006f          	j	a50 <_ZL11action_takehPKc>
#     if (*s1 != *s2) {
     3a8:	06400693          	li	a3,100
     3ac:	02d71e63          	bne	a4,a3,3e8 <_ZL12handle_inputhR14command_buffer+0x1ac>
     3b0:	000026b7          	lui	a3,0x2
     3b4:	3d868693          	addi	a3,a3,984 # 23d8 <_ZL4exiti+0x50c>
     3b8:	0017c803          	lbu	a6,1(a5)
     3bc:	0016c583          	lbu	a1,1(a3)
#     ++s1;
     3c0:	00178793          	addi	a5,a5,1
#     ++s2;
     3c4:	00168693          	addi	a3,a3,1
#     if (*s1 != *s2) {
     3c8:	f3059ce3          	bne	a1,a6,300 <_ZL12handle_inputhR14command_buffer+0xc4>
#     if (!*s1 && !*s2) {
     3cc:	fe0596e3          	bnez	a1,3b8 <_ZL12handle_inputhR14command_buffer+0x17c>
#     if (nwords < 2) {
     3d0:	00100793          	li	a5,1
     3d4:	0ef60063          	beq	a2,a5,4b4 <_ZL12handle_inputhR14command_buffer+0x278>
#     action_drop(eid, words[1]);
     3d8:	00412583          	lw	a1,4(sp)
# }
     3dc:	02c12083          	lw	ra,44(sp)
     3e0:	03010113          	addi	sp,sp,48
#     action_drop(eid, words[1]);
     3e4:	0c50006f          	j	ca8 <_ZL11action_drophPKc>
#     if (*s1 != *s2) {
     3e8:	06e00693          	li	a3,110
     3ec:	04d71c63          	bne	a4,a3,444 <_ZL12handle_inputhR14command_buffer+0x208>
     3f0:	00002737          	lui	a4,0x2
     3f4:	3ec70713          	addi	a4,a4,1004 # 23ec <_ZL4exiti+0x520>
     3f8:	0017c603          	lbu	a2,1(a5)
     3fc:	00174683          	lbu	a3,1(a4)
#     ++s1;
     400:	00178793          	addi	a5,a5,1
#     ++s2;
     404:	00170713          	addi	a4,a4,1
#     if (*s1 != *s2) {
     408:	eec69ce3          	bne	a3,a2,300 <_ZL12handle_inputhR14command_buffer+0xc4>
#     if (!*s1 && !*s2) {
     40c:	fe0696e3          	bnez	a3,3f8 <_ZL12handle_inputhR14command_buffer+0x1bc>
# }
     410:	02c12083          	lw	ra,44(sp)
#     action_go(eid, 0);
     414:	00000593          	li	a1,0
# }
     418:	03010113          	addi	sp,sp,48
#     action_go(eid, 0);
     41c:	3010006f          	j	f1c <_ZL9action_gohh>
     420:	000026b7          	lui	a3,0x2
     424:	3c868693          	addi	a3,a3,968 # 23c8 <_ZL4exiti+0x4fc>
#     while (*UART_OUT)
     428:	ffe04783          	lbu	a5,-2(zero) # fffffffe <__bss_end+0xffffd3ea>
     42c:	fe079ee3          	bnez	a5,428 <_ZL12handle_inputhR14command_buffer+0x1ec>
#     *UART_OUT = *str++;
     430:	00168693          	addi	a3,a3,1
     434:	fee00f23          	sb	a4,-2(zero) # fffffffe <__bss_end+0xffffd3ea>
#   while (*str) {
     438:	0006c703          	lbu	a4,0(a3)
     43c:	fe0716e3          	bnez	a4,428 <_ZL12handle_inputhR14command_buffer+0x1ec>
     440:	ec1ff06f          	j	300 <_ZL12handle_inputhR14command_buffer+0xc4>
#     if (*s1 != *s2) {
     444:	06500693          	li	a3,101
     448:	02d71a63          	bne	a4,a3,47c <_ZL12handle_inputhR14command_buffer+0x240>
     44c:	00002737          	lui	a4,0x2
     450:	3f070713          	addi	a4,a4,1008 # 23f0 <_ZL4exiti+0x524>
     454:	0017c603          	lbu	a2,1(a5)
     458:	00174683          	lbu	a3,1(a4)
#     ++s1;
     45c:	00178793          	addi	a5,a5,1
#     ++s2;
     460:	00170713          	addi	a4,a4,1
#     if (*s1 != *s2) {
     464:	e8c69ee3          	bne	a3,a2,300 <_ZL12handle_inputhR14command_buffer+0xc4>
#     if (!*s1 && !*s2) {
     468:	fe0696e3          	bnez	a3,454 <_ZL12handle_inputhR14command_buffer+0x218>
# }
     46c:	02c12083          	lw	ra,44(sp)
#     action_go(eid, 1);
     470:	00100593          	li	a1,1
# }
     474:	03010113          	addi	sp,sp,48
#     action_go(eid, 1);
     478:	2a50006f          	j	f1c <_ZL9action_gohh>
#     if (*s1 != *s2) {
     47c:	07300693          	li	a3,115
     480:	04d71c63          	bne	a4,a3,4d8 <_ZL12handle_inputhR14command_buffer+0x29c>
     484:	00002737          	lui	a4,0x2
     488:	3f470713          	addi	a4,a4,1012 # 23f4 <_ZL4exiti+0x528>
     48c:	0017c603          	lbu	a2,1(a5)
     490:	00174683          	lbu	a3,1(a4)
#     ++s1;
     494:	00178793          	addi	a5,a5,1
#     ++s2;
     498:	00170713          	addi	a4,a4,1
#     if (*s1 != *s2) {
     49c:	e6c692e3          	bne	a3,a2,300 <_ZL12handle_inputhR14command_buffer+0xc4>
#     if (!*s1 && !*s2) {
     4a0:	fe0696e3          	bnez	a3,48c <_ZL12handle_inputhR14command_buffer+0x250>
# }
     4a4:	02c12083          	lw	ra,44(sp)
#     action_go(eid, 2);
     4a8:	00200593          	li	a1,2
# }
     4ac:	03010113          	addi	sp,sp,48
#     action_go(eid, 2);
     4b0:	26d0006f          	j	f1c <_ZL9action_gohh>
     4b4:	000026b7          	lui	a3,0x2
     4b8:	3dc68693          	addi	a3,a3,988 # 23dc <_ZL4exiti+0x510>
#     while (*UART_OUT)
     4bc:	ffe04783          	lbu	a5,-2(zero) # fffffffe <__bss_end+0xffffd3ea>
     4c0:	fe079ee3          	bnez	a5,4bc <_ZL12handle_inputhR14command_buffer+0x280>
#     *UART_OUT = *str++;
     4c4:	00168693          	addi	a3,a3,1
     4c8:	fee00f23          	sb	a4,-2(zero) # fffffffe <__bss_end+0xffffd3ea>
#   while (*str) {
     4cc:	0006c703          	lbu	a4,0(a3)
     4d0:	fe0716e3          	bnez	a4,4bc <_ZL12handle_inputhR14command_buffer+0x280>
     4d4:	e2dff06f          	j	300 <_ZL12handle_inputhR14command_buffer+0xc4>
#     if (*s1 != *s2) {
     4d8:	07700693          	li	a3,119
     4dc:	02d71a63          	bne	a4,a3,510 <_ZL12handle_inputhR14command_buffer+0x2d4>
     4e0:	00002737          	lui	a4,0x2
     4e4:	3f870713          	addi	a4,a4,1016 # 23f8 <_ZL4exiti+0x52c>
     4e8:	0017c603          	lbu	a2,1(a5)
     4ec:	00174683          	lbu	a3,1(a4)
#     ++s1;
     4f0:	00178793          	addi	a5,a5,1
#     ++s2;
     4f4:	00170713          	addi	a4,a4,1
#     if (*s1 != *s2) {
     4f8:	e0c694e3          	bne	a3,a2,300 <_ZL12handle_inputhR14command_buffer+0xc4>
#     if (!*s1 && !*s2) {
     4fc:	fe0696e3          	bnez	a3,4e8 <_ZL12handle_inputhR14command_buffer+0x2ac>
# }
     500:	02c12083          	lw	ra,44(sp)
#     action_go(eid, 3);
     504:	00300593          	li	a1,3
# }
     508:	03010113          	addi	sp,sp,48
#     action_go(eid, 3);
     50c:	2110006f          	j	f1c <_ZL9action_gohh>
#     if (*s1 != *s2) {
     510:	06700693          	li	a3,103
     514:	04d71463          	bne	a4,a3,55c <_ZL12handle_inputhR14command_buffer+0x320>
     518:	000026b7          	lui	a3,0x2
     51c:	3fc68693          	addi	a3,a3,1020 # 23fc <_ZL4exiti+0x530>
     520:	0017c803          	lbu	a6,1(a5)
     524:	0016c583          	lbu	a1,1(a3)
#     ++s1;
     528:	00178793          	addi	a5,a5,1
#     ++s2;
     52c:	00168693          	addi	a3,a3,1
#     if (*s1 != *s2) {
     530:	dd0598e3          	bne	a1,a6,300 <_ZL12handle_inputhR14command_buffer+0xc4>
#     if (!*s1 && !*s2) {
     534:	fe0596e3          	bnez	a1,520 <_ZL12handle_inputhR14command_buffer+0x2e4>
#     if (nwords < 2) {
     538:	00100793          	li	a5,1
     53c:	06f60c63          	beq	a2,a5,5b4 <_ZL12handle_inputhR14command_buffer+0x378>
#     if (nwords < 3) {
     540:	00200793          	li	a5,2
     544:	04f60663          	beq	a2,a5,590 <_ZL12handle_inputhR14command_buffer+0x354>
#     action_give(eid, words[1], words[2]);
     548:	00812603          	lw	a2,8(sp)
     54c:	00412583          	lw	a1,4(sp)
# }
     550:	02c12083          	lw	ra,44(sp)
     554:	03010113          	addi	sp,sp,48
#     action_give(eid, words[1], words[2]);
     558:	4850006f          	j	11dc <_ZL11action_givehPKcS0_>
#     if (*s1 != *s2) {
     55c:	06d00693          	li	a3,109
     560:	dad710e3          	bne	a4,a3,300 <_ZL12handle_inputhR14command_buffer+0xc4>
     564:	00002737          	lui	a4,0x2
     568:	42470713          	addi	a4,a4,1060 # 2424 <_ZL4exiti+0x558>
     56c:	0017c603          	lbu	a2,1(a5)
     570:	00174683          	lbu	a3,1(a4)
#     ++s1;
     574:	00178793          	addi	a5,a5,1
#     ++s2;
     578:	00170713          	addi	a4,a4,1
#     if (*s1 != *s2) {
     57c:	d8c692e3          	bne	a3,a2,300 <_ZL12handle_inputhR14command_buffer+0xc4>
#     if (!*s1 && !*s2) {
     580:	fe0696e3          	bnez	a3,56c <_ZL12handle_inputhR14command_buffer+0x330>
# }
     584:	02c12083          	lw	ra,44(sp)
     588:	03010113          	addi	sp,sp,48
#     action_mem_test();
     58c:	6980106f          	j	1c24 <_ZL15action_mem_testv>
     590:	000027b7          	lui	a5,0x2
     594:	41078793          	addi	a5,a5,1040 # 2410 <_ZL4exiti+0x544>
#     while (*UART_OUT)
     598:	ffe04683          	lbu	a3,-2(zero) # fffffffe <__bss_end+0xffffd3ea>
     59c:	fe069ee3          	bnez	a3,598 <_ZL12handle_inputhR14command_buffer+0x35c>
#     *UART_OUT = *str++;
     5a0:	00178793          	addi	a5,a5,1
     5a4:	fee00f23          	sb	a4,-2(zero) # fffffffe <__bss_end+0xffffd3ea>
#   while (*str) {
     5a8:	0007c703          	lbu	a4,0(a5)
     5ac:	fe0716e3          	bnez	a4,598 <_ZL12handle_inputhR14command_buffer+0x35c>
     5b0:	d51ff06f          	j	300 <_ZL12handle_inputhR14command_buffer+0xc4>
     5b4:	000027b7          	lui	a5,0x2
     5b8:	40078793          	addi	a5,a5,1024 # 2400 <_ZL4exiti+0x534>
#     while (*UART_OUT)
     5bc:	ffe04683          	lbu	a3,-2(zero) # fffffffe <__bss_end+0xffffd3ea>
     5c0:	fe069ee3          	bnez	a3,5bc <_ZL12handle_inputhR14command_buffer+0x380>
#     *UART_OUT = *str++;
     5c4:	00178793          	addi	a5,a5,1
     5c8:	fee00f23          	sb	a4,-2(zero) # fffffffe <__bss_end+0xffffd3ea>
#   while (*str) {
     5cc:	0007c703          	lbu	a4,0(a5)
     5d0:	fe0716e3          	bnez	a4,5bc <_ZL12handle_inputhR14command_buffer+0x380>
     5d4:	d2dff06f          	j	300 <_ZL12handle_inputhR14command_buffer+0xc4>

000005d8 <_ZL14print_locationhh>:
#   location &loc = locations[lid];
     5d8:	00002737          	lui	a4,0x2
#                            entity_id_t const eid_exclude_from_output) -> void {
     5dc:	00058893          	mv	a7,a1
#   location &loc = locations[lid];
     5e0:	42870713          	addi	a4,a4,1064 # 2428 <_ZL4exiti+0x55c>
     5e4:	07500693          	li	a3,117
#     while (*UART_OUT)
     5e8:	ffe04783          	lbu	a5,-2(zero) # fffffffe <__bss_end+0xffffd3ea>
     5ec:	fe079ee3          	bnez	a5,5e8 <_ZL14print_locationhh+0x10>
#     *UART_OUT = *str++;
     5f0:	00170713          	addi	a4,a4,1
     5f4:	fed00f23          	sb	a3,-2(zero) # fffffffe <__bss_end+0xffffd3ea>
#   while (*str) {
     5f8:	00074683          	lbu	a3,0(a4)
     5fc:	fe0696e3          	bnez	a3,5e8 <_ZL14print_locationhh+0x10>
#   uart_send_str(loc.name);
     600:	00251813          	slli	a6,a0,0x2
     604:	00a807b3          	add	a5,a6,a0
     608:	000035b7          	lui	a1,0x3
     60c:	00579793          	slli	a5,a5,0x5
     610:	8cc58593          	addi	a1,a1,-1844 # 28cc <_ZL9locations>
     614:	00f587b3          	add	a5,a1,a5
     618:	0007a683          	lw	a3,0(a5)
     61c:	0006c703          	lbu	a4,0(a3)
     620:	00070e63          	beqz	a4,63c <_ZL14print_locationhh+0x64>
#     while (*UART_OUT)
     624:	ffe04783          	lbu	a5,-2(zero) # fffffffe <__bss_end+0xffffd3ea>
     628:	fe079ee3          	bnez	a5,624 <_ZL14print_locationhh+0x4c>
#     *UART_OUT = *str++;
     62c:	00168693          	addi	a3,a3,1
     630:	fee00f23          	sb	a4,-2(zero) # fffffffe <__bss_end+0xffffd3ea>
#   while (*str) {
     634:	0006c703          	lbu	a4,0(a3)
     638:	fe0716e3          	bnez	a4,624 <_ZL14print_locationhh+0x4c>
     63c:	00002737          	lui	a4,0x2
     640:	43070713          	addi	a4,a4,1072 # 2430 <_ZL4exiti+0x564>
     644:	00d00693          	li	a3,13
#     while (*UART_OUT)
     648:	ffe04783          	lbu	a5,-2(zero) # fffffffe <__bss_end+0xffffd3ea>
     64c:	fe079ee3          	bnez	a5,648 <_ZL14print_locationhh+0x70>
#     *UART_OUT = *str++;
     650:	00170713          	addi	a4,a4,1
     654:	fed00f23          	sb	a3,-2(zero) # fffffffe <__bss_end+0xffffd3ea>
#   while (*str) {
     658:	00074683          	lbu	a3,0(a4)
     65c:	fe0696e3          	bnez	a3,648 <_ZL14print_locationhh+0x70>
#     for (size_t i = 0; i < len; ++i) {
     660:	00a80e33          	add	t3,a6,a0
     664:	005e1e13          	slli	t3,t3,0x5
     668:	01c58e33          	add	t3,a1,t3
     66c:	084e2783          	lw	a5,132(t3)
     670:	06078e63          	beqz	a5,6ec <_ZL14print_locationhh+0x114>
#       if (!f(data[i])) {
     674:	004e4603          	lbu	a2,4(t3)
#       if (counter++) {
     678:	00003eb7          	lui	t4,0x3
     67c:	838e8e93          	addi	t4,t4,-1992 # 2838 <_ZL7objects>
     680:	00100313          	li	t1,1
     684:	00002f37          	lui	t5,0x2
#       uart_send_str(objects[id].name);
     688:	00261793          	slli	a5,a2,0x2
     68c:	00fe87b3          	add	a5,t4,a5
     690:	0007a683          	lw	a3,0(a5)
     694:	0006c703          	lbu	a4,0(a3)
     698:	00070e63          	beqz	a4,6b4 <_ZL14print_locationhh+0xdc>
#     while (*UART_OUT)
     69c:	ffe04783          	lbu	a5,-2(zero) # fffffffe <__bss_end+0xffffd3ea>
     6a0:	fe079ee3          	bnez	a5,69c <_ZL14print_locationhh+0xc4>
#     *UART_OUT = *str++;
     6a4:	00168693          	addi	a3,a3,1
     6a8:	fee00f23          	sb	a4,-2(zero) # fffffffe <__bss_end+0xffffd3ea>
#   while (*str) {
     6ac:	0006c703          	lbu	a4,0(a3)
     6b0:	fe0716e3          	bnez	a4,69c <_ZL14print_locationhh+0xc4>
#     for (size_t i = 0; i < len; ++i) {
     6b4:	084e2783          	lw	a5,132(t3)
     6b8:	04f37c63          	bgeu	t1,a5,710 <_ZL14print_locationhh+0x138>
#       if (!f(data[i])) {
     6bc:	006e07b3          	add	a5,t3,t1
     6c0:	0047c603          	lbu	a2,4(a5)
#       if (counter++) {
     6c4:	00130313          	addi	t1,t1,1
     6c8:	02c00693          	li	a3,44
     6cc:	438f0713          	addi	a4,t5,1080 # 2438 <_ZL4exiti+0x56c>
#     while (*UART_OUT)
     6d0:	ffe04783          	lbu	a5,-2(zero) # fffffffe <__bss_end+0xffffd3ea>
     6d4:	fe079ee3          	bnez	a5,6d0 <_ZL14print_locationhh+0xf8>
#     *UART_OUT = *str++;
     6d8:	00170713          	addi	a4,a4,1
     6dc:	fed00f23          	sb	a3,-2(zero) # fffffffe <__bss_end+0xffffd3ea>
#   while (*str) {
     6e0:	00074683          	lbu	a3,0(a4)
     6e4:	fe0696e3          	bnez	a3,6d0 <_ZL14print_locationhh+0xf8>
     6e8:	fa1ff06f          	j	688 <_ZL14print_locationhh+0xb0>
#     for (size_t i = 0; i < len; ++i) {
     6ec:	00002737          	lui	a4,0x2
     6f0:	43c70713          	addi	a4,a4,1084 # 243c <_ZL4exiti+0x570>
     6f4:	06e00693          	li	a3,110
#     while (*UART_OUT)
     6f8:	ffe04783          	lbu	a5,-2(zero) # fffffffe <__bss_end+0xffffd3ea>
     6fc:	fe079ee3          	bnez	a5,6f8 <_ZL14print_locationhh+0x120>
#     *UART_OUT = *str++;
     700:	00170713          	addi	a4,a4,1
     704:	fed00f23          	sb	a3,-2(zero) # fffffffe <__bss_end+0xffffd3ea>
#   while (*str) {
     708:	00074683          	lbu	a3,0(a4)
     70c:	fe0696e3          	bnez	a3,6f8 <_ZL14print_locationhh+0x120>
     710:	00002737          	lui	a4,0x2
     714:	2b470e13          	addi	t3,a4,692 # 22b4 <_ZL4exiti+0x3e8>
     718:	00d00693          	li	a3,13
     71c:	2b470713          	addi	a4,a4,692
#     while (*UART_OUT)
     720:	ffe04783          	lbu	a5,-2(zero) # fffffffe <__bss_end+0xffffd3ea>
     724:	fe079ee3          	bnez	a5,720 <_ZL14print_locationhh+0x148>
#     *UART_OUT = *str++;
     728:	00170713          	addi	a4,a4,1
     72c:	fed00f23          	sb	a3,-2(zero) # fffffffe <__bss_end+0xffffd3ea>
#   while (*str) {
     730:	00074683          	lbu	a3,0(a4)
     734:	fe0696e3          	bnez	a3,720 <_ZL14print_locationhh+0x148>
     738:	00a80eb3          	add	t4,a6,a0
     73c:	005e9e93          	slli	t4,t4,0x5
     740:	01d58fb3          	add	t6,a1,t4
     744:	090fa683          	lw	a3,144(t6)
     748:	0c068263          	beqz	a3,80c <_ZL14print_locationhh+0x234>
#     uint32_t counter = 0;
     74c:	00000713          	li	a4,0
#     for (size_t i = 0; i < len; ++i) {
     750:	00000313          	li	t1,0
     754:	000022b7          	lui	t0,0x2
#       uart_send_str(entities[id].name);
     758:	00003f37          	lui	t5,0x3
#       if (!f(data[i])) {
     75c:	006e87b3          	add	a5,t4,t1
     760:	00f587b3          	add	a5,a1,a5
     764:	0887c603          	lbu	a2,136(a5)
#       if (id == eid_exclude_from_output) {
     768:	07160a63          	beq	a2,a7,7dc <_ZL14print_locationhh+0x204>
#       if (counter++) {
     76c:	00170393          	addi	t2,a4,1
     770:	02070263          	beqz	a4,794 <_ZL14print_locationhh+0x1bc>
     774:	02c00693          	li	a3,44
     778:	43828713          	addi	a4,t0,1080 # 2438 <_ZL4exiti+0x56c>
#     while (*UART_OUT)
     77c:	ffe04783          	lbu	a5,-2(zero) # fffffffe <__bss_end+0xffffd3ea>
     780:	fe079ee3          	bnez	a5,77c <_ZL14print_locationhh+0x1a4>
#     *UART_OUT = *str++;
     784:	00170713          	addi	a4,a4,1
     788:	fed00f23          	sb	a3,-2(zero) # fffffffe <__bss_end+0xffffd3ea>
#   while (*str) {
     78c:	00074683          	lbu	a3,0(a4)
     790:	fe0696e3          	bnez	a3,77c <_ZL14print_locationhh+0x1a4>
#       uart_send_str(entities[id].name);
     794:	00161793          	slli	a5,a2,0x1
     798:	00c787b3          	add	a5,a5,a2
     79c:	00279793          	slli	a5,a5,0x2
     7a0:	40c787b3          	sub	a5,a5,a2
     7a4:	848f0713          	addi	a4,t5,-1976 # 2848 <_ZL8entities>
     7a8:	00279793          	slli	a5,a5,0x2
     7ac:	00f707b3          	add	a5,a4,a5
     7b0:	0007a683          	lw	a3,0(a5)
     7b4:	0006c703          	lbu	a4,0(a3)
     7b8:	14070263          	beqz	a4,8fc <_ZL14print_locationhh+0x324>
#     while (*UART_OUT)
     7bc:	ffe04783          	lbu	a5,-2(zero) # fffffffe <__bss_end+0xffffd3ea>
     7c0:	fe079ee3          	bnez	a5,7bc <_ZL14print_locationhh+0x1e4>
#     *UART_OUT = *str++;
     7c4:	00168693          	addi	a3,a3,1
     7c8:	fee00f23          	sb	a4,-2(zero) # fffffffe <__bss_end+0xffffd3ea>
#   while (*str) {
     7cc:	0006c703          	lbu	a4,0(a3)
     7d0:	fe0716e3          	bnez	a4,7bc <_ZL14print_locationhh+0x1e4>
#     for (size_t i = 0; i < len; ++i) {
     7d4:	090fa683          	lw	a3,144(t6)
#       if (counter++) {
     7d8:	00038713          	mv	a4,t2
#     for (size_t i = 0; i < len; ++i) {
     7dc:	00130313          	addi	t1,t1,1
     7e0:	f6d36ee3          	bltu	t1,a3,75c <_ZL14print_locationhh+0x184>
#     if (counter != 0) {
     7e4:	02070463          	beqz	a4,80c <_ZL14print_locationhh+0x234>
     7e8:	00002737          	lui	a4,0x2
     7ec:	44470713          	addi	a4,a4,1092 # 2444 <_ZL4exiti+0x578>
     7f0:	02000693          	li	a3,32
#     while (*UART_OUT)
     7f4:	ffe04783          	lbu	a5,-2(zero) # fffffffe <__bss_end+0xffffd3ea>
     7f8:	fe079ee3          	bnez	a5,7f4 <_ZL14print_locationhh+0x21c>
#     *UART_OUT = *str++;
     7fc:	00170713          	addi	a4,a4,1
     800:	fed00f23          	sb	a3,-2(zero) # fffffffe <__bss_end+0xffffd3ea>
#   while (*str) {
     804:	00074683          	lbu	a3,0(a4)
     808:	fe0696e3          	bnez	a3,7f4 <_ZL14print_locationhh+0x21c>
     80c:	00002737          	lui	a4,0x2
     810:	45070713          	addi	a4,a4,1104 # 2450 <_ZL4exiti+0x584>
     814:	06500693          	li	a3,101
#     while (*UART_OUT)
     818:	ffe04783          	lbu	a5,-2(zero) # fffffffe <__bss_end+0xffffd3ea>
     81c:	fe079ee3          	bnez	a5,818 <_ZL14print_locationhh+0x240>
#     *UART_OUT = *str++;
     820:	00170713          	addi	a4,a4,1
     824:	fed00f23          	sb	a3,-2(zero) # fffffffe <__bss_end+0xffffd3ea>
#   while (*str) {
     828:	00074683          	lbu	a3,0(a4)
     82c:	fe0696e3          	bnez	a3,818 <_ZL14print_locationhh+0x240>
#   auto length() const -> size_t { return len; }
     830:	00a80833          	add	a6,a6,a0
     834:	00581893          	slli	a7,a6,0x5
     838:	01158333          	add	t1,a1,a7
     83c:	09c32803          	lw	a6,156(t1)
#     for (size_t i = 0; i < n; ++i) {
     840:	08080a63          	beqz	a6,8d4 <_ZL14print_locationhh+0x2fc>
     844:	00003537          	lui	a0,0x3
     848:	00080793          	mv	a5,a6
     84c:	00000713          	li	a4,0
     850:	bec50513          	addi	a0,a0,-1044 # 2bec <_ZL10exit_names>
#     uint32_t counter = 0;
     854:	00000e93          	li	t4,0
#     if (ix < len) {
     858:	00f76c63          	bltu	a4,a5,870 <_ZL14print_locationhh+0x298>
#     for (size_t i = 0; i < n; ++i) {
     85c:	00170713          	addi	a4,a4,1
     860:	00450513          	addi	a0,a0,4
     864:	05070663          	beq	a4,a6,8b0 <_ZL14print_locationhh+0x2d8>
#     if (ix < len) {
     868:	09c32783          	lw	a5,156(t1)
     86c:	fef778e3          	bgeu	a4,a5,85c <_ZL14print_locationhh+0x284>
#       return data[ix];
     870:	00e887b3          	add	a5,a7,a4
     874:	00f587b3          	add	a5,a1,a5
#       if (!lse.at(i)) {
     878:	0947c783          	lbu	a5,148(a5)
     87c:	fe0780e3          	beqz	a5,85c <_ZL14print_locationhh+0x284>
#       if (counter++) {
     880:	080e9a63          	bnez	t4,914 <_ZL14print_locationhh+0x33c>
#       uart_send_str(exit_names[i]);
     884:	00052603          	lw	a2,0(a0)
     888:	00064683          	lbu	a3,0(a2)
     88c:	00068e63          	beqz	a3,8a8 <_ZL14print_locationhh+0x2d0>
#     while (*UART_OUT)
     890:	ffe04783          	lbu	a5,-2(zero) # fffffffe <__bss_end+0xffffd3ea>
     894:	fe079ee3          	bnez	a5,890 <_ZL14print_locationhh+0x2b8>
#     *UART_OUT = *str++;
     898:	00160613          	addi	a2,a2,1
     89c:	fed00f23          	sb	a3,-2(zero) # fffffffe <__bss_end+0xffffd3ea>
#   while (*str) {
     8a0:	00064683          	lbu	a3,0(a2)
     8a4:	fe0696e3          	bnez	a3,890 <_ZL14print_locationhh+0x2b8>
#       if (counter++) {
     8a8:	001e8e93          	addi	t4,t4,1
     8ac:	fb1ff06f          	j	85c <_ZL14print_locationhh+0x284>
#     if (counter == 0) {
     8b0:	020e8263          	beqz	t4,8d4 <_ZL14print_locationhh+0x2fc>
     8b4:	00d00713          	li	a4,13
#     while (*UART_OUT)
     8b8:	ffe04783          	lbu	a5,-2(zero) # fffffffe <__bss_end+0xffffd3ea>
     8bc:	fe079ee3          	bnez	a5,8b8 <_ZL14print_locationhh+0x2e0>
#     *UART_OUT = *str++;
     8c0:	001e0e13          	addi	t3,t3,1
     8c4:	fee00f23          	sb	a4,-2(zero) # fffffffe <__bss_end+0xffffd3ea>
#   while (*str) {
     8c8:	000e4703          	lbu	a4,0(t3)
     8cc:	fe0716e3          	bnez	a4,8b8 <_ZL14print_locationhh+0x2e0>
# }
     8d0:	00008067          	ret
     8d4:	00002737          	lui	a4,0x2
     8d8:	45870713          	addi	a4,a4,1112 # 2458 <_ZL4exiti+0x58c>
     8dc:	06e00693          	li	a3,110
#     while (*UART_OUT)
     8e0:	ffe04783          	lbu	a5,-2(zero) # fffffffe <__bss_end+0xffffd3ea>
     8e4:	fe079ee3          	bnez	a5,8e0 <_ZL14print_locationhh+0x308>
#     *UART_OUT = *str++;
     8e8:	00170713          	addi	a4,a4,1
     8ec:	fed00f23          	sb	a3,-2(zero) # fffffffe <__bss_end+0xffffd3ea>
#   while (*str) {
     8f0:	00074683          	lbu	a3,0(a4)
     8f4:	fe0696e3          	bnez	a3,8e0 <_ZL14print_locationhh+0x308>
     8f8:	fbdff06f          	j	8b4 <_ZL14print_locationhh+0x2dc>
#     for (size_t i = 0; i < len; ++i) {
     8fc:	00a807b3          	add	a5,a6,a0
     900:	00579793          	slli	a5,a5,0x5
     904:	00f587b3          	add	a5,a1,a5
     908:	0907a683          	lw	a3,144(a5)
#       if (counter++) {
     90c:	00038713          	mv	a4,t2
     910:	ecdff06f          	j	7dc <_ZL14print_locationhh+0x204>
     914:	000026b7          	lui	a3,0x2
     918:	43868693          	addi	a3,a3,1080 # 2438 <_ZL4exiti+0x56c>
     91c:	02c00613          	li	a2,44
#     while (*UART_OUT)
     920:	ffe04783          	lbu	a5,-2(zero) # fffffffe <__bss_end+0xffffd3ea>
     924:	fe079ee3          	bnez	a5,920 <_ZL14print_locationhh+0x348>
#     *UART_OUT = *str++;
     928:	00168693          	addi	a3,a3,1
     92c:	fec00f23          	sb	a2,-2(zero) # fffffffe <__bss_end+0xffffd3ea>
#   while (*str) {
     930:	0006c603          	lbu	a2,0(a3)
     934:	fe0616e3          	bnez	a2,920 <_ZL14print_locationhh+0x348>
     938:	f4dff06f          	j	884 <_ZL14print_locationhh+0x2ac>

0000093c <_ZL16action_inventoryh>:
     93c:	00002737          	lui	a4,0x2
# static auto action_inventory(entity_id_t const eid) -> void {
     940:	00050613          	mv	a2,a0
     944:	46070713          	addi	a4,a4,1120 # 2460 <_ZL4exiti+0x594>
     948:	07500693          	li	a3,117
#     while (*UART_OUT)
     94c:	ffe04783          	lbu	a5,-2(zero) # fffffffe <__bss_end+0xffffd3ea>
     950:	fe079ee3          	bnez	a5,94c <_ZL16action_inventoryh+0x10>
#     *UART_OUT = *str++;
     954:	00170713          	addi	a4,a4,1
     958:	fed00f23          	sb	a3,-2(zero) # fffffffe <__bss_end+0xffffd3ea>
#   while (*str) {
     95c:	00074683          	lbu	a3,0(a4)
     960:	fe0696e3          	bnez	a3,94c <_ZL16action_inventoryh+0x10>
#     for (size_t i = 0; i < len; ++i) {
     964:	00161793          	slli	a5,a2,0x1
     968:	00c787b3          	add	a5,a5,a2
     96c:	00279793          	slli	a5,a5,0x2
     970:	40c787b3          	sub	a5,a5,a2
     974:	00003537          	lui	a0,0x3
     978:	00279793          	slli	a5,a5,0x2
     97c:	84850513          	addi	a0,a0,-1976 # 2848 <_ZL8entities>
     980:	00f50533          	add	a0,a0,a5
     984:	02852783          	lw	a5,40(a0)
     988:	06078e63          	beqz	a5,a04 <_ZL16action_inventoryh+0xc8>
#       if (!f(data[i])) {
     98c:	00854603          	lbu	a2,8(a0)
#     if (counter++) {
     990:	00003837          	lui	a6,0x3
     994:	83880813          	addi	a6,a6,-1992 # 2838 <_ZL7objects>
     998:	00100593          	li	a1,1
     99c:	000028b7          	lui	a7,0x2
#     uart_send_str(objects[id].name);
     9a0:	00261793          	slli	a5,a2,0x2
     9a4:	00f807b3          	add	a5,a6,a5
     9a8:	0007a683          	lw	a3,0(a5)
     9ac:	0006c703          	lbu	a4,0(a3)
     9b0:	00070e63          	beqz	a4,9cc <_ZL16action_inventoryh+0x90>
#     while (*UART_OUT)
     9b4:	ffe04783          	lbu	a5,-2(zero) # fffffffe <__bss_end+0xffffd3ea>
     9b8:	fe079ee3          	bnez	a5,9b4 <_ZL16action_inventoryh+0x78>
#     *UART_OUT = *str++;
     9bc:	00168693          	addi	a3,a3,1
     9c0:	fee00f23          	sb	a4,-2(zero) # fffffffe <__bss_end+0xffffd3ea>
#   while (*str) {
     9c4:	0006c703          	lbu	a4,0(a3)
     9c8:	fe0716e3          	bnez	a4,9b4 <_ZL16action_inventoryh+0x78>
#     for (size_t i = 0; i < len; ++i) {
     9cc:	02852783          	lw	a5,40(a0)
     9d0:	04f5fc63          	bgeu	a1,a5,a28 <_ZL16action_inventoryh+0xec>
#       if (!f(data[i])) {
     9d4:	00b507b3          	add	a5,a0,a1
     9d8:	0087c603          	lbu	a2,8(a5)
#     if (counter++) {
     9dc:	00158593          	addi	a1,a1,1
     9e0:	02c00693          	li	a3,44
     9e4:	43888713          	addi	a4,a7,1080 # 2438 <_ZL4exiti+0x56c>
#     while (*UART_OUT)
     9e8:	ffe04783          	lbu	a5,-2(zero) # fffffffe <__bss_end+0xffffd3ea>
     9ec:	fe079ee3          	bnez	a5,9e8 <_ZL16action_inventoryh+0xac>
#     *UART_OUT = *str++;
     9f0:	00170713          	addi	a4,a4,1
     9f4:	fed00f23          	sb	a3,-2(zero) # fffffffe <__bss_end+0xffffd3ea>
#   while (*str) {
     9f8:	00074683          	lbu	a3,0(a4)
     9fc:	fe0696e3          	bnez	a3,9e8 <_ZL16action_inventoryh+0xac>
     a00:	fa1ff06f          	j	9a0 <_ZL16action_inventoryh+0x64>
#     for (size_t i = 0; i < len; ++i) {
     a04:	00002737          	lui	a4,0x2
     a08:	43c70713          	addi	a4,a4,1084 # 243c <_ZL4exiti+0x570>
     a0c:	06e00693          	li	a3,110
#     while (*UART_OUT)
     a10:	ffe04783          	lbu	a5,-2(zero) # fffffffe <__bss_end+0xffffd3ea>
     a14:	fe079ee3          	bnez	a5,a10 <_ZL16action_inventoryh+0xd4>
#     *UART_OUT = *str++;
     a18:	00170713          	addi	a4,a4,1
     a1c:	fed00f23          	sb	a3,-2(zero) # fffffffe <__bss_end+0xffffd3ea>
#   while (*str) {
     a20:	00074683          	lbu	a3,0(a4)
     a24:	fe0696e3          	bnez	a3,a10 <_ZL16action_inventoryh+0xd4>
     a28:	00002737          	lui	a4,0x2
     a2c:	2b470713          	addi	a4,a4,692 # 22b4 <_ZL4exiti+0x3e8>
     a30:	00d00693          	li	a3,13
#     while (*UART_OUT)
     a34:	ffe04783          	lbu	a5,-2(zero) # fffffffe <__bss_end+0xffffd3ea>
     a38:	fe079ee3          	bnez	a5,a34 <_ZL16action_inventoryh+0xf8>
#     *UART_OUT = *str++;
     a3c:	00170713          	addi	a4,a4,1
     a40:	fed00f23          	sb	a3,-2(zero) # fffffffe <__bss_end+0xffffd3ea>
#   while (*str) {
     a44:	00074683          	lbu	a3,0(a4)
     a48:	fe0696e3          	bnez	a3,a34 <_ZL16action_inventoryh+0xf8>
# }
     a4c:	00008067          	ret

00000a50 <_ZL11action_takehPKc>:
#   auto &lso = locations[ent.location].objects;
     a50:	00151893          	slli	a7,a0,0x1
     a54:	00a887b3          	add	a5,a7,a0
     a58:	00279793          	slli	a5,a5,0x2
     a5c:	40a787b3          	sub	a5,a5,a0
     a60:	00003737          	lui	a4,0x3
     a64:	00279793          	slli	a5,a5,0x2
     a68:	84870f13          	addi	t5,a4,-1976 # 2848 <_ZL8entities>
     a6c:	00ff07b3          	add	a5,t5,a5
     a70:	0047ce83          	lbu	t4,4(a5)
#   auto length() const -> size_t { return len; }
     a74:	000037b7          	lui	a5,0x3
     a78:	8cc78813          	addi	a6,a5,-1844 # 28cc <_ZL9locations>
     a7c:	002e9e13          	slli	t3,t4,0x2
     a80:	01de0fb3          	add	t6,t3,t4
     a84:	005f9f93          	slli	t6,t6,0x5
     a88:	01f807b3          	add	a5,a6,t6
     a8c:	0847a283          	lw	t0,132(a5)
     a90:	0005c383          	lbu	t2,0(a1)
#   for (size_t i = 0; i < n; ++i) {
     a94:	1c028e63          	beqz	t0,c70 <_ZL11action_takehPKc+0x220>
# static auto action_take(entity_id_t const eid, name_t const obj_nm) -> void {
     a98:	ff010113          	addi	sp,sp,-16
     a9c:	00912423          	sw	s1,8(sp)
     aa0:	000034b7          	lui	s1,0x3
     aa4:	00812623          	sw	s0,12(sp)
     aa8:	83848493          	addi	s1,s1,-1992 # 2838 <_ZL7objects>
#   for (size_t i = 0; i < n; ++i) {
     aac:	00000313          	li	t1,0
#       return data[ix];
     ab0:	01f307b3          	add	a5,t1,t6
     ab4:	00f807b3          	add	a5,a6,a5
     ab8:	0047c403          	lbu	s0,4(a5)
#     if (!strings_equal(objects[oid].name, obj_nm)) {
     abc:	00241793          	slli	a5,s0,0x2
     ac0:	00f487b3          	add	a5,s1,a5
     ac4:	0007a783          	lw	a5,0(a5)
#     if (*s1 != *s2) {
     ac8:	0007c703          	lbu	a4,0(a5)
     acc:	10e39a63          	bne	t2,a4,be0 <_ZL11action_takehPKc+0x190>
     ad0:	00058693          	mv	a3,a1
     ad4:	0100006f          	j	ae4 <_ZL11action_takehPKc+0x94>
     ad8:	0007c703          	lbu	a4,0(a5)
     adc:	0006c603          	lbu	a2,0(a3)
     ae0:	10e61063          	bne	a2,a4,be0 <_ZL11action_takehPKc+0x190>
#     ++s1;
     ae4:	00178793          	addi	a5,a5,1
#     ++s2;
     ae8:	00168693          	addi	a3,a3,1
#     if (!*s1 && !*s2) {
     aec:	fe0716e3          	bnez	a4,ad8 <_ZL11action_takehPKc+0x88>
#     if (len == Size - 1) {
     af0:	00a887b3          	add	a5,a7,a0
     af4:	00279793          	slli	a5,a5,0x2
     af8:	40a787b3          	sub	a5,a5,a0
     afc:	00279793          	slli	a5,a5,0x2
     b00:	00ff0733          	add	a4,t5,a5
     b04:	02872683          	lw	a3,40(a4)
     b08:	01f00793          	li	a5,31
     b0c:	0cf68263          	beq	a3,a5,bd0 <_ZL11action_takehPKc+0x180>
#     --len;
     b10:	01de07b3          	add	a5,t3,t4
     b14:	00579793          	slli	a5,a5,0x5
#     data[len] = elem;
     b18:	00d70633          	add	a2,a4,a3
#     --len;
     b1c:	00f805b3          	add	a1,a6,a5
     b20:	fff28513          	addi	a0,t0,-1
#     ++len;
     b24:	00168693          	addi	a3,a3,1
#     --len;
     b28:	08a5a223          	sw	a0,132(a1)
#     data[len] = elem;
     b2c:	00860423          	sb	s0,8(a2)
#     ++len;
     b30:	02d72423          	sw	a3,40(a4)
#     for (size_t i = ix; i < len; ++i) {
     b34:	08a37e63          	bgeu	t1,a0,bd0 <_ZL11action_takehPKc+0x180>
     b38:	406286b3          	sub	a3,t0,t1
     b3c:	ffe68613          	addi	a2,a3,-2
     b40:	00500713          	li	a4,5
     b44:	0cc77063          	bgeu	a4,a2,c04 <_ZL11action_takehPKc+0x1b4>
     b48:	006787b3          	add	a5,a5,t1
     b4c:	00478713          	addi	a4,a5,4
     b50:	00578793          	addi	a5,a5,5
     b54:	00e80733          	add	a4,a6,a4
     b58:	00f807b3          	add	a5,a6,a5
     b5c:	00f76633          	or	a2,a4,a5
     b60:	00367613          	andi	a2,a2,3
     b64:	0a061063          	bnez	a2,c04 <_ZL11action_takehPKc+0x1b4>
     b68:	fff68593          	addi	a1,a3,-1
     b6c:	ffc5f893          	andi	a7,a1,-4
     b70:	01178633          	add	a2,a5,a7
#       data[i] = data[i + 1];
     b74:	0007a683          	lw	a3,0(a5)
     b78:	00478793          	addi	a5,a5,4
     b7c:	00470713          	addi	a4,a4,4
     b80:	fed72e23          	sw	a3,-4(a4)
#     for (size_t i = ix; i < len; ++i) {
     b84:	fec798e3          	bne	a5,a2,b74 <_ZL11action_takehPKc+0x124>
     b88:	01130333          	add	t1,t1,a7
     b8c:	05158263          	beq	a1,a7,bd0 <_ZL11action_takehPKc+0x180>
#       data[i] = data[i + 1];
     b90:	01de07b3          	add	a5,t3,t4
     b94:	00579793          	slli	a5,a5,0x5
     b98:	00f807b3          	add	a5,a6,a5
     b9c:	00130713          	addi	a4,t1,1
     ba0:	00e786b3          	add	a3,a5,a4
     ba4:	0046c583          	lbu	a1,4(a3)
     ba8:	00678633          	add	a2,a5,t1
     bac:	00b60223          	sb	a1,4(a2)
#     for (size_t i = ix; i < len; ++i) {
     bb0:	02a77063          	bgeu	a4,a0,bd0 <_ZL11action_takehPKc+0x180>
#       data[i] = data[i + 1];
     bb4:	00230313          	addi	t1,t1,2
     bb8:	006787b3          	add	a5,a5,t1
     bbc:	0047c703          	lbu	a4,4(a5)
     bc0:	00e68223          	sb	a4,4(a3)
#     for (size_t i = ix; i < len; ++i) {
     bc4:	00a37663          	bgeu	t1,a0,bd0 <_ZL11action_takehPKc+0x180>
#       data[i] = data[i + 1];
     bc8:	00764703          	lbu	a4,7(a2)
     bcc:	00e78223          	sb	a4,4(a5)
# }
     bd0:	00c12403          	lw	s0,12(sp)
     bd4:	00812483          	lw	s1,8(sp)
     bd8:	01010113          	addi	sp,sp,16
     bdc:	00008067          	ret
#   for (size_t i = 0; i < n; ++i) {
     be0:	00130313          	addi	t1,t1,1
     be4:	ec6296e3          	bne	t0,t1,ab0 <_ZL11action_takehPKc+0x60>
     be8:	04038a63          	beqz	t2,c3c <_ZL11action_takehPKc+0x1ec>
#     while (*UART_OUT)
     bec:	ffe04783          	lbu	a5,-2(zero) # fffffffe <__bss_end+0xffffd3ea>
     bf0:	fe079ee3          	bnez	a5,bec <_ZL11action_takehPKc+0x19c>
#     *UART_OUT = *str++;
     bf4:	00158593          	addi	a1,a1,1
     bf8:	fe700f23          	sb	t2,-2(zero) # fffffffe <__bss_end+0xffffd3ea>
#   while (*str) {
     bfc:	0005c383          	lbu	t2,0(a1)
     c00:	fe9ff06f          	j	be8 <_ZL11action_takehPKc+0x198>
     c04:	004f8793          	addi	a5,t6,4
     c08:	00380693          	addi	a3,a6,3
     c0c:	006787b3          	add	a5,a5,t1
     c10:	005686b3          	add	a3,a3,t0
     c14:	00f807b3          	add	a5,a6,a5
     c18:	01f686b3          	add	a3,a3,t6
#       data[i] = data[i + 1];
     c1c:	0017c703          	lbu	a4,1(a5)
#     for (size_t i = ix; i < len; ++i) {
     c20:	00178793          	addi	a5,a5,1
#       data[i] = data[i + 1];
     c24:	fee78fa3          	sb	a4,-1(a5)
#     for (size_t i = ix; i < len; ++i) {
     c28:	fef69ae3          	bne	a3,a5,c1c <_ZL11action_takehPKc+0x1cc>
# }
     c2c:	00c12403          	lw	s0,12(sp)
     c30:	00812483          	lw	s1,8(sp)
     c34:	01010113          	addi	sp,sp,16
     c38:	00008067          	ret
     c3c:	00002737          	lui	a4,0x2
     c40:	46c70713          	addi	a4,a4,1132 # 246c <_ZL4exiti+0x5a0>
     c44:	02000693          	li	a3,32
#     while (*UART_OUT)
     c48:	ffe04783          	lbu	a5,-2(zero) # fffffffe <__bss_end+0xffffd3ea>
     c4c:	fe079ee3          	bnez	a5,c48 <_ZL11action_takehPKc+0x1f8>
#     *UART_OUT = *str++;
     c50:	00170713          	addi	a4,a4,1
     c54:	fed00f23          	sb	a3,-2(zero) # fffffffe <__bss_end+0xffffd3ea>
#   while (*str) {
     c58:	00074683          	lbu	a3,0(a4)
     c5c:	fe0696e3          	bnez	a3,c48 <_ZL11action_takehPKc+0x1f8>
     c60:	f71ff06f          	j	bd0 <_ZL11action_takehPKc+0x180>
#     *UART_OUT = *str++;
     c64:	00158593          	addi	a1,a1,1
     c68:	fe700f23          	sb	t2,-2(zero) # fffffffe <__bss_end+0xffffd3ea>
#   while (*str) {
     c6c:	0005c383          	lbu	t2,0(a1)
     c70:	00038863          	beqz	t2,c80 <_ZL11action_takehPKc+0x230>
#     while (*UART_OUT)
     c74:	ffe04783          	lbu	a5,-2(zero) # fffffffe <__bss_end+0xffffd3ea>
     c78:	fe079ee3          	bnez	a5,c74 <_ZL11action_takehPKc+0x224>
     c7c:	fe9ff06f          	j	c64 <_ZL11action_takehPKc+0x214>
#   while (*str) {
     c80:	00002737          	lui	a4,0x2
     c84:	46c70713          	addi	a4,a4,1132 # 246c <_ZL4exiti+0x5a0>
     c88:	02000693          	li	a3,32
#     while (*UART_OUT)
     c8c:	ffe04783          	lbu	a5,-2(zero) # fffffffe <__bss_end+0xffffd3ea>
     c90:	fe079ee3          	bnez	a5,c8c <_ZL11action_takehPKc+0x23c>
#     *UART_OUT = *str++;
     c94:	00170713          	addi	a4,a4,1
     c98:	fed00f23          	sb	a3,-2(zero) # fffffffe <__bss_end+0xffffd3ea>
#   while (*str) {
     c9c:	00074683          	lbu	a3,0(a4)
     ca0:	fe0696e3          	bnez	a3,c8c <_ZL11action_takehPKc+0x23c>
     ca4:	00008067          	ret

00000ca8 <_ZL11action_drophPKc>:
#   auto length() const -> size_t { return len; }
     ca8:	00151e13          	slli	t3,a0,0x1
     cac:	00ae08b3          	add	a7,t3,a0
     cb0:	00289893          	slli	a7,a7,0x2
     cb4:	000037b7          	lui	a5,0x3
     cb8:	40a888b3          	sub	a7,a7,a0
     cbc:	00289893          	slli	a7,a7,0x2
     cc0:	84878813          	addi	a6,a5,-1976 # 2848 <_ZL8entities>
     cc4:	011807b3          	add	a5,a6,a7
     cc8:	0287ae83          	lw	t4,40(a5)
#   for (size_t i = 0; i < n; ++i) {
     ccc:	1e0e8263          	beqz	t4,eb0 <_ZL11action_drophPKc+0x208>
#     if (*s1 != *s2) {
     cd0:	0005c283          	lbu	t0,0(a1)
     cd4:	00003f37          	lui	t5,0x3
     cd8:	838f0f13          	addi	t5,t5,-1992 # 2838 <_ZL7objects>
#   for (size_t i = 0; i < n; ++i) {
     cdc:	00000313          	li	t1,0
#       return data[ix];
     ce0:	011307b3          	add	a5,t1,a7
     ce4:	00f807b3          	add	a5,a6,a5
     ce8:	0087cf83          	lbu	t6,8(a5)
#     if (!strings_equal(objects[oid].name, obj_nm)) {
     cec:	002f9793          	slli	a5,t6,0x2
     cf0:	00ff07b3          	add	a5,t5,a5
     cf4:	0007a783          	lw	a5,0(a5)
#     if (*s1 != *s2) {
     cf8:	0007c703          	lbu	a4,0(a5)
     cfc:	1a571663          	bne	a4,t0,ea8 <_ZL11action_drophPKc+0x200>
     d00:	00058693          	mv	a3,a1
     d04:	0100006f          	j	d14 <_ZL11action_drophPKc+0x6c>
     d08:	0007c703          	lbu	a4,0(a5)
     d0c:	0006c603          	lbu	a2,0(a3)
     d10:	18e61c63          	bne	a2,a4,ea8 <_ZL11action_drophPKc+0x200>
#     ++s1;
     d14:	00178793          	addi	a5,a5,1
#     ++s2;
     d18:	00168693          	addi	a3,a3,1
#     if (!*s1 && !*s2) {
     d1c:	fe0716e3          	bnez	a4,d08 <_ZL11action_drophPKc+0x60>
#     if (locations[ent.location].objects.add(oid)) {
     d20:	00ae0733          	add	a4,t3,a0
     d24:	00271713          	slli	a4,a4,0x2
     d28:	40a70733          	sub	a4,a4,a0
     d2c:	00271713          	slli	a4,a4,0x2
     d30:	00e80f33          	add	t5,a6,a4
     d34:	004f4603          	lbu	a2,4(t5)
#     if (len == Size - 1) {
     d38:	000036b7          	lui	a3,0x3
     d3c:	8cc68693          	addi	a3,a3,-1844 # 28cc <_ZL9locations>
     d40:	00261793          	slli	a5,a2,0x2
     d44:	00c787b3          	add	a5,a5,a2
     d48:	00579793          	slli	a5,a5,0x5
     d4c:	00f686b3          	add	a3,a3,a5
     d50:	0846a783          	lw	a5,132(a3)
     d54:	07f00613          	li	a2,127
     d58:	14c78663          	beq	a5,a2,ea4 <_ZL11action_drophPKc+0x1fc>
#     data[len] = elem;
     d5c:	00f68633          	add	a2,a3,a5
#     --len;
     d60:	fffe8593          	addi	a1,t4,-1
#     ++len;
     d64:	00178793          	addi	a5,a5,1
#     data[len] = elem;
     d68:	01f60223          	sb	t6,4(a2)
#     ++len;
     d6c:	08f6a223          	sw	a5,132(a3)
#     --len;
     d70:	02bf2423          	sw	a1,40(t5)
#     for (size_t i = ix; i < len; ++i) {
     d74:	12b37863          	bgeu	t1,a1,ea4 <_ZL11action_drophPKc+0x1fc>
     d78:	406e8633          	sub	a2,t4,t1
     d7c:	ffe60793          	addi	a5,a2,-2
     d80:	00500f13          	li	t5,5
     d84:	16ff7663          	bgeu	t5,a5,ef0 <_ZL11action_drophPKc+0x248>
     d88:	00670733          	add	a4,a4,t1
     d8c:	00870693          	addi	a3,a4,8
     d90:	00970713          	addi	a4,a4,9
     d94:	00d806b3          	add	a3,a6,a3
     d98:	00e807b3          	add	a5,a6,a4
     d9c:	00f6e733          	or	a4,a3,a5
     da0:	00377713          	andi	a4,a4,3
     da4:	14071663          	bnez	a4,ef0 <_ZL11action_drophPKc+0x248>
#       data[i] = data[i + 1];
     da8:	0007a883          	lw	a7,0(a5)
     dac:	fff60713          	addi	a4,a2,-1
     db0:	00275613          	srli	a2,a4,0x2
     db4:	0116a023          	sw	a7,0(a3)
#     for (size_t i = ix; i < len; ++i) {
     db8:	00100893          	li	a7,1
     dbc:	07160463          	beq	a2,a7,e24 <_ZL11action_drophPKc+0x17c>
#       data[i] = data[i + 1];
     dc0:	0047ae83          	lw	t4,4(a5)
     dc4:	00200893          	li	a7,2
     dc8:	01d6a223          	sw	t4,4(a3)
#     for (size_t i = ix; i < len; ++i) {
     dcc:	05160c63          	beq	a2,a7,e24 <_ZL11action_drophPKc+0x17c>
#       data[i] = data[i + 1];
     dd0:	0087ae83          	lw	t4,8(a5)
     dd4:	00300893          	li	a7,3
     dd8:	01d6a423          	sw	t4,8(a3)
#     for (size_t i = ix; i < len; ++i) {
     ddc:	05160463          	beq	a2,a7,e24 <_ZL11action_drophPKc+0x17c>
#       data[i] = data[i + 1];
     de0:	00c7ae83          	lw	t4,12(a5)
     de4:	00400893          	li	a7,4
     de8:	01d6a623          	sw	t4,12(a3)
#     for (size_t i = ix; i < len; ++i) {
     dec:	03160c63          	beq	a2,a7,e24 <_ZL11action_drophPKc+0x17c>
#       data[i] = data[i + 1];
     df0:	0107a883          	lw	a7,16(a5)
     df4:	0116a823          	sw	a7,16(a3)
#     for (size_t i = ix; i < len; ++i) {
     df8:	03e60663          	beq	a2,t5,e24 <_ZL11action_drophPKc+0x17c>
#       data[i] = data[i + 1];
     dfc:	0147ae83          	lw	t4,20(a5)
     e00:	00600893          	li	a7,6
     e04:	01d6aa23          	sw	t4,20(a3)
#     for (size_t i = ix; i < len; ++i) {
     e08:	01160e63          	beq	a2,a7,e24 <_ZL11action_drophPKc+0x17c>
#       data[i] = data[i + 1];
     e0c:	0187ae83          	lw	t4,24(a5)
     e10:	00700893          	li	a7,7
     e14:	01d6ac23          	sw	t4,24(a3)
#     for (size_t i = ix; i < len; ++i) {
     e18:	01160663          	beq	a2,a7,e24 <_ZL11action_drophPKc+0x17c>
#       data[i] = data[i + 1];
     e1c:	01c7a783          	lw	a5,28(a5)
     e20:	00f6ae23          	sw	a5,28(a3)
#     for (size_t i = ix; i < len; ++i) {
     e24:	ffc77693          	andi	a3,a4,-4
     e28:	00377713          	andi	a4,a4,3
     e2c:	006686b3          	add	a3,a3,t1
     e30:	06070a63          	beqz	a4,ea4 <_ZL11action_drophPKc+0x1fc>
#       data[i] = data[i + 1];
     e34:	00ae07b3          	add	a5,t3,a0
     e38:	00279793          	slli	a5,a5,0x2
     e3c:	40a787b3          	sub	a5,a5,a0
     e40:	00279793          	slli	a5,a5,0x2
     e44:	00f807b3          	add	a5,a6,a5
     e48:	00168713          	addi	a4,a3,1
     e4c:	00e78633          	add	a2,a5,a4
     e50:	00864803          	lbu	a6,8(a2)
     e54:	00d78533          	add	a0,a5,a3
     e58:	01050423          	sb	a6,8(a0)
#     for (size_t i = ix; i < len; ++i) {
     e5c:	04b77463          	bgeu	a4,a1,ea4 <_ZL11action_drophPKc+0x1fc>
#       data[i] = data[i + 1];
     e60:	00268693          	addi	a3,a3,2
     e64:	00d787b3          	add	a5,a5,a3
     e68:	0087c703          	lbu	a4,8(a5)
     e6c:	00e60423          	sb	a4,8(a2)
#     for (size_t i = ix; i < len; ++i) {
     e70:	02b6fa63          	bgeu	a3,a1,ea4 <_ZL11action_drophPKc+0x1fc>
#       data[i] = data[i + 1];
     e74:	00b54703          	lbu	a4,11(a0)
     e78:	00e78423          	sb	a4,8(a5)
#     for (size_t i = ix; i < len; ++i) {
     e7c:	00008067          	ret
     e80:	00002737          	lui	a4,0x2
     e84:	ef870713          	addi	a4,a4,-264 # 1ef8 <_ZL4exiti+0x2c>
     e88:	00d00693          	li	a3,13
#     while (*UART_OUT)
     e8c:	ffe04783          	lbu	a5,-2(zero) # fffffffe <__bss_end+0xffffd3ea>
     e90:	fe079ee3          	bnez	a5,e8c <_ZL11action_drophPKc+0x1e4>
#     *UART_OUT = *str++;
     e94:	00170713          	addi	a4,a4,1
     e98:	fed00f23          	sb	a3,-2(zero) # fffffffe <__bss_end+0xffffd3ea>
#   while (*str) {
     e9c:	00074683          	lbu	a3,0(a4)
     ea0:	fe0696e3          	bnez	a3,e8c <_ZL11action_drophPKc+0x1e4>
# }
     ea4:	00008067          	ret
#   for (size_t i = 0; i < n; ++i) {
     ea8:	00130313          	addi	t1,t1,1
     eac:	e26e9ae3          	bne	t4,t1,ce0 <_ZL11action_drophPKc+0x38>
     eb0:	00002737          	lui	a4,0x2
     eb4:	47c70713          	addi	a4,a4,1148 # 247c <_ZL4exiti+0x5b0>
     eb8:	07500693          	li	a3,117
#     while (*UART_OUT)
     ebc:	ffe04783          	lbu	a5,-2(zero) # fffffffe <__bss_end+0xffffd3ea>
     ec0:	fe079ee3          	bnez	a5,ebc <_ZL11action_drophPKc+0x214>
#     *UART_OUT = *str++;
     ec4:	00170713          	addi	a4,a4,1
     ec8:	fed00f23          	sb	a3,-2(zero) # fffffffe <__bss_end+0xffffd3ea>
#   while (*str) {
     ecc:	00074683          	lbu	a3,0(a4)
     ed0:	fe0696e3          	bnez	a3,ebc <_ZL11action_drophPKc+0x214>
     ed4:	0005c703          	lbu	a4,0(a1)
     ed8:	fa0704e3          	beqz	a4,e80 <_ZL11action_drophPKc+0x1d8>
#     while (*UART_OUT)
     edc:	ffe04783          	lbu	a5,-2(zero) # fffffffe <__bss_end+0xffffd3ea>
     ee0:	fe079ee3          	bnez	a5,edc <_ZL11action_drophPKc+0x234>
#     *UART_OUT = *str++;
     ee4:	00158593          	addi	a1,a1,1
     ee8:	fee00f23          	sb	a4,-2(zero) # fffffffe <__bss_end+0xffffd3ea>
     eec:	fe9ff06f          	j	ed4 <_ZL11action_drophPKc+0x22c>
     ef0:	00888793          	addi	a5,a7,8
     ef4:	00780693          	addi	a3,a6,7
     ef8:	006787b3          	add	a5,a5,t1
     efc:	01d686b3          	add	a3,a3,t4
     f00:	00f807b3          	add	a5,a6,a5
     f04:	011686b3          	add	a3,a3,a7
#       data[i] = data[i + 1];
     f08:	0017c703          	lbu	a4,1(a5)
#     for (size_t i = ix; i < len; ++i) {
     f0c:	00178793          	addi	a5,a5,1
#       data[i] = data[i + 1];
     f10:	fee78fa3          	sb	a4,-1(a5)
#     for (size_t i = ix; i < len; ++i) {
     f14:	fef69ae3          	bne	a3,a5,f08 <_ZL11action_drophPKc+0x260>
     f18:	00008067          	ret

00000f1c <_ZL9action_gohh>:
#   location &loc = locations[ent.location];
     f1c:	00151713          	slli	a4,a0,0x1
     f20:	00a707b3          	add	a5,a4,a0
     f24:	00279793          	slli	a5,a5,0x2
     f28:	40a787b3          	sub	a5,a5,a0
     f2c:	000038b7          	lui	a7,0x3
     f30:	00279793          	slli	a5,a5,0x2
     f34:	84888893          	addi	a7,a7,-1976 # 2848 <_ZL8entities>
     f38:	00f887b3          	add	a5,a7,a5
     f3c:	0047ce03          	lbu	t3,4(a5)
#     if (ix < len) {
     f40:	00003637          	lui	a2,0x3
     f44:	8cc60613          	addi	a2,a2,-1844 # 28cc <_ZL9locations>
     f48:	002e1813          	slli	a6,t3,0x2
     f4c:	01c807b3          	add	a5,a6,t3
     f50:	00579793          	slli	a5,a5,0x5
     f54:	00f607b3          	add	a5,a2,a5
     f58:	09c7a683          	lw	a3,156(a5)
     f5c:	02d5e663          	bltu	a1,a3,f88 <_ZL9action_gohh+0x6c>
     f60:	00002737          	lui	a4,0x2
     f64:	48c70713          	addi	a4,a4,1164 # 248c <_ZL4exiti+0x5c0>
     f68:	06300693          	li	a3,99
#     while (*UART_OUT)
     f6c:	ffe04783          	lbu	a5,-2(zero) # fffffffe <__bss_end+0xffffd3ea>
     f70:	fe079ee3          	bnez	a5,f6c <_ZL9action_gohh+0x50>
#     *UART_OUT = *str++;
     f74:	00170713          	addi	a4,a4,1
     f78:	fed00f23          	sb	a3,-2(zero) # fffffffe <__bss_end+0xffffd3ea>
#   while (*str) {
     f7c:	00074683          	lbu	a3,0(a4)
     f80:	fe0696e3          	bnez	a3,f6c <_ZL9action_gohh+0x50>
     f84:	00008067          	ret
#       return data[ix];
     f88:	00b785b3          	add	a1,a5,a1
     f8c:	0945c303          	lbu	t1,148(a1)
#   if (!to) {
     f90:	fc0308e3          	beqz	t1,f60 <_ZL9action_gohh+0x44>
#     if (len == Size - 1) {
     f94:	00231693          	slli	a3,t1,0x2
     f98:	006686b3          	add	a3,a3,t1
     f9c:	00569693          	slli	a3,a3,0x5
     fa0:	00d606b3          	add	a3,a2,a3
     fa4:	0906ae83          	lw	t4,144(a3)
     fa8:	00700593          	li	a1,7
     fac:	10be8263          	beq	t4,a1,10b0 <_ZL9action_gohh+0x194>
#     ++len;
     fb0:	001e8593          	addi	a1,t4,1
     fb4:	08b6a823          	sw	a1,144(a3)
#     for (size_t i = 0; i < len; ++i) {
     fb8:	0907a583          	lw	a1,144(a5)
#     data[len] = elem;
     fbc:	01d686b3          	add	a3,a3,t4
     fc0:	08a68423          	sb	a0,136(a3)
#     for (size_t i = 0; i < len; ++i) {
     fc4:	0c058863          	beqz	a1,1094 <_ZL9action_gohh+0x178>
#       if (data[i] != elem) {
     fc8:	0887c683          	lbu	a3,136(a5)
#     for (size_t i = 0; i < len; ++i) {
     fcc:	00000e93          	li	t4,0
#       if (data[i] != elem) {
     fd0:	00a68a63          	beq	a3,a0,fe4 <_ZL9action_gohh+0xc8>
#     for (size_t i = 0; i < len; ++i) {
     fd4:	00100e93          	li	t4,1
     fd8:	0bd58e63          	beq	a1,t4,1094 <_ZL9action_gohh+0x178>
#       if (data[i] != elem) {
     fdc:	0897c683          	lbu	a3,137(a5)
     fe0:	0ea69063          	bne	a3,a0,10c0 <_ZL9action_gohh+0x1a4>
#       --len;
     fe4:	01c807b3          	add	a5,a6,t3
     fe8:	00579793          	slli	a5,a5,0x5
     fec:	00f606b3          	add	a3,a2,a5
     ff0:	fff58f13          	addi	t5,a1,-1
     ff4:	09e6a823          	sw	t5,144(a3)
#       for (size_t j = i; j < len; ++j) {
     ff8:	09eefe63          	bgeu	t4,t5,1094 <_ZL9action_gohh+0x178>
     ffc:	41d585b3          	sub	a1,a1,t4
    1000:	ffe58f93          	addi	t6,a1,-2
    1004:	00500693          	li	a3,5
    1008:	13f6f663          	bgeu	a3,t6,1134 <_ZL9action_gohh+0x218>
    100c:	01d787b3          	add	a5,a5,t4
    1010:	08878f93          	addi	t6,a5,136
    1014:	08978793          	addi	a5,a5,137
    1018:	01f60fb3          	add	t6,a2,t6
    101c:	00f606b3          	add	a3,a2,a5
    1020:	00dfe7b3          	or	a5,t6,a3
    1024:	0037f793          	andi	a5,a5,3
    1028:	10079663          	bnez	a5,1134 <_ZL9action_gohh+0x218>
#         data[j] = data[j + 1];
    102c:	0006a383          	lw	t2,0(a3)
    1030:	fff58793          	addi	a5,a1,-1
    1034:	0027d293          	srli	t0,a5,0x2
    1038:	007fa023          	sw	t2,0(t6)
#       for (size_t j = i; j < len; ++j) {
    103c:	00100593          	li	a1,1
    1040:	06b29a63          	bne	t0,a1,10b4 <_ZL9action_gohh+0x198>
    1044:	0037f693          	andi	a3,a5,3
    1048:	04068663          	beqz	a3,1094 <_ZL9action_gohh+0x178>
#         data[j] = data[j + 1];
    104c:	01c806b3          	add	a3,a6,t3
    1050:	ffc7f793          	andi	a5,a5,-4
    1054:	01d787b3          	add	a5,a5,t4
    1058:	00569693          	slli	a3,a3,0x5
    105c:	00d606b3          	add	a3,a2,a3
    1060:	00178613          	addi	a2,a5,1
    1064:	00c685b3          	add	a1,a3,a2
    1068:	0885ce03          	lbu	t3,136(a1)
    106c:	00f68833          	add	a6,a3,a5
    1070:	09c80423          	sb	t3,136(a6)
#       for (size_t j = i; j < len; ++j) {
    1074:	03e67063          	bgeu	a2,t5,1094 <_ZL9action_gohh+0x178>
#         data[j] = data[j + 1];
    1078:	00278793          	addi	a5,a5,2
    107c:	00f686b3          	add	a3,a3,a5
    1080:	0886c603          	lbu	a2,136(a3)
    1084:	08c58423          	sb	a2,136(a1)
#       for (size_t j = i; j < len; ++j) {
    1088:	01e7f663          	bgeu	a5,t5,1094 <_ZL9action_gohh+0x178>
#         data[j] = data[j + 1];
    108c:	08b84783          	lbu	a5,139(a6)
    1090:	08f68423          	sb	a5,136(a3)
#     ent.location = to;
    1094:	00a707b3          	add	a5,a4,a0
    1098:	00279793          	slli	a5,a5,0x2
    109c:	40a787b3          	sub	a5,a5,a0
    10a0:	00279793          	slli	a5,a5,0x2
    10a4:	00f887b3          	add	a5,a7,a5
    10a8:	00678223          	sb	t1,4(a5)
    10ac:	00008067          	ret
# }
    10b0:	00008067          	ret
#         data[j] = data[j + 1];
    10b4:	0046a683          	lw	a3,4(a3)
    10b8:	00dfa223          	sw	a3,4(t6)
#       for (size_t j = i; j < len; ++j) {
    10bc:	f89ff06f          	j	1044 <_ZL9action_gohh+0x128>
#     for (size_t i = 0; i < len; ++i) {
    10c0:	00200e93          	li	t4,2
    10c4:	fdd588e3          	beq	a1,t4,1094 <_ZL9action_gohh+0x178>
#       if (data[i] != elem) {
    10c8:	08a7c783          	lbu	a5,138(a5)
    10cc:	f0a78ce3          	beq	a5,a0,fe4 <_ZL9action_gohh+0xc8>
#     for (size_t i = 0; i < len; ++i) {
    10d0:	00300793          	li	a5,3
    10d4:	fcf580e3          	beq	a1,a5,1094 <_ZL9action_gohh+0x178>
#       if (data[i] != elem) {
    10d8:	01c807b3          	add	a5,a6,t3
    10dc:	00579793          	slli	a5,a5,0x5
    10e0:	00f607b3          	add	a5,a2,a5
    10e4:	08b7c683          	lbu	a3,139(a5)
#     for (size_t i = 0; i < len; ++i) {
    10e8:	00300e93          	li	t4,3
#       if (data[i] != elem) {
    10ec:	eea68ce3          	beq	a3,a0,fe4 <_ZL9action_gohh+0xc8>
#     for (size_t i = 0; i < len; ++i) {
    10f0:	00400e93          	li	t4,4
    10f4:	fbd580e3          	beq	a1,t4,1094 <_ZL9action_gohh+0x178>
#       if (data[i] != elem) {
    10f8:	08c7c683          	lbu	a3,140(a5)
    10fc:	eea684e3          	beq	a3,a0,fe4 <_ZL9action_gohh+0xc8>
#     for (size_t i = 0; i < len; ++i) {
    1100:	00500e93          	li	t4,5
    1104:	f9d588e3          	beq	a1,t4,1094 <_ZL9action_gohh+0x178>
#       if (data[i] != elem) {
    1108:	08d7c683          	lbu	a3,141(a5)
    110c:	eca68ce3          	beq	a3,a0,fe4 <_ZL9action_gohh+0xc8>
#     for (size_t i = 0; i < len; ++i) {
    1110:	00600e93          	li	t4,6
    1114:	f9d580e3          	beq	a1,t4,1094 <_ZL9action_gohh+0x178>
#       if (data[i] != elem) {
    1118:	08e7c683          	lbu	a3,142(a5)
    111c:	eca684e3          	beq	a3,a0,fe4 <_ZL9action_gohh+0xc8>
#     for (size_t i = 0; i < len; ++i) {
    1120:	00700e93          	li	t4,7
    1124:	f7d588e3          	beq	a1,t4,1094 <_ZL9action_gohh+0x178>
#       if (data[i] != elem) {
    1128:	08f7c783          	lbu	a5,143(a5)
    112c:	eaa78ce3          	beq	a5,a0,fe4 <_ZL9action_gohh+0xc8>
    1130:	f65ff06f          	j	1094 <_ZL9action_gohh+0x178>
#         data[j] = data[j + 1];
    1134:	01c807b3          	add	a5,a6,t3
    1138:	00579793          	slli	a5,a5,0x5
    113c:	00f60633          	add	a2,a2,a5
    1140:	001e8793          	addi	a5,t4,1
    1144:	00f606b3          	add	a3,a2,a5
    1148:	0886c803          	lbu	a6,136(a3)
    114c:	01d605b3          	add	a1,a2,t4
    1150:	09058423          	sb	a6,136(a1)
#       for (size_t j = i; j < len; ++j) {
    1154:	f5e7f0e3          	bgeu	a5,t5,1094 <_ZL9action_gohh+0x178>
#         data[j] = data[j + 1];
    1158:	002e8793          	addi	a5,t4,2
    115c:	00f60e33          	add	t3,a2,a5
    1160:	088e4803          	lbu	a6,136(t3)
    1164:	09068423          	sb	a6,136(a3)
#       for (size_t j = i; j < len; ++j) {
    1168:	f3e7f6e3          	bgeu	a5,t5,1094 <_ZL9action_gohh+0x178>
#         data[j] = data[j + 1];
    116c:	003e8793          	addi	a5,t4,3
    1170:	00f60833          	add	a6,a2,a5
    1174:	08884683          	lbu	a3,136(a6)
    1178:	08de0423          	sb	a3,136(t3)
#       for (size_t j = i; j < len; ++j) {
    117c:	f1e7fce3          	bgeu	a5,t5,1094 <_ZL9action_gohh+0x178>
#         data[j] = data[j + 1];
    1180:	004e8793          	addi	a5,t4,4
    1184:	00f606b3          	add	a3,a2,a5
    1188:	0886ce03          	lbu	t3,136(a3)
    118c:	09c80423          	sb	t3,136(a6)
#       for (size_t j = i; j < len; ++j) {
    1190:	f1e7f2e3          	bgeu	a5,t5,1094 <_ZL9action_gohh+0x178>
#         data[j] = data[j + 1];
    1194:	005e8793          	addi	a5,t4,5
    1198:	00f60833          	add	a6,a2,a5
    119c:	08884e03          	lbu	t3,136(a6)
    11a0:	09c68423          	sb	t3,136(a3)
#       for (size_t j = i; j < len; ++j) {
    11a4:	efe7f8e3          	bgeu	a5,t5,1094 <_ZL9action_gohh+0x178>
#         data[j] = data[j + 1];
    11a8:	006e8693          	addi	a3,t4,6
    11ac:	00d607b3          	add	a5,a2,a3
    11b0:	0887ce03          	lbu	t3,136(a5)
    11b4:	09c80423          	sb	t3,136(a6)
#       for (size_t j = i; j < len; ++j) {
    11b8:	ede6fee3          	bgeu	a3,t5,1094 <_ZL9action_gohh+0x178>
#         data[j] = data[j + 1];
    11bc:	007e8e93          	addi	t4,t4,7
    11c0:	01d60633          	add	a2,a2,t4
    11c4:	08864683          	lbu	a3,136(a2)
    11c8:	08d78423          	sb	a3,136(a5)
#       for (size_t j = i; j < len; ++j) {
    11cc:	edeef4e3          	bgeu	t4,t5,1094 <_ZL9action_gohh+0x178>
#         data[j] = data[j + 1];
    11d0:	0905c783          	lbu	a5,144(a1)
    11d4:	08f60423          	sb	a5,136(a2)
#       for (size_t j = i; j < len; ++j) {
    11d8:	ebdff06f          	j	1094 <_ZL9action_gohh+0x178>

000011dc <_ZL11action_givehPKcS0_>:
#   location &loc = locations[ent.location];
    11dc:	00151e13          	slli	t3,a0,0x1
    11e0:	00ae07b3          	add	a5,t3,a0
    11e4:	00279793          	slli	a5,a5,0x2
    11e8:	40a787b3          	sub	a5,a5,a0
    11ec:	00003337          	lui	t1,0x3
    11f0:	00279793          	slli	a5,a5,0x2
    11f4:	84830313          	addi	t1,t1,-1976 # 2848 <_ZL8entities>
    11f8:	00f307b3          	add	a5,t1,a5
    11fc:	0047c703          	lbu	a4,4(a5)
#   auto length() const -> size_t { return len; }
    1200:	000036b7          	lui	a3,0x3
    1204:	8cc68693          	addi	a3,a3,-1844 # 28cc <_ZL9locations>
    1208:	00271793          	slli	a5,a4,0x2
    120c:	00e787b3          	add	a5,a5,a4
    1210:	00579793          	slli	a5,a5,0x5
    1214:	00f68eb3          	add	t4,a3,a5
    1218:	090ea703          	lw	a4,144(t4)
    121c:	00064283          	lbu	t0,0(a2)
#   for (size_t i = 0; i < n; ++i) {
    1220:	24070063          	beqz	a4,1460 <_ZL11action_givehPKcS0_+0x284>
    1224:	00d70733          	add	a4,a4,a3
    1228:	00f70f33          	add	t5,a4,a5
#     entity &to = entities[lse.at(i)];
    122c:	088ecf83          	lbu	t6,136(t4)
#     if (!strings_equal(to.name, to_ent_nm)) {
    1230:	001f9893          	slli	a7,t6,0x1
    1234:	01f887b3          	add	a5,a7,t6
    1238:	00279793          	slli	a5,a5,0x2
    123c:	41f787b3          	sub	a5,a5,t6
    1240:	00279793          	slli	a5,a5,0x2
    1244:	00f307b3          	add	a5,t1,a5
    1248:	0007a783          	lw	a5,0(a5)
#     if (*s1 != *s2) {
    124c:	0007c703          	lbu	a4,0(a5)
    1250:	22e29e63          	bne	t0,a4,148c <_ZL11action_givehPKcS0_+0x2b0>
    1254:	00060693          	mv	a3,a2
    1258:	0100006f          	j	1268 <_ZL11action_givehPKcS0_+0x8c>
    125c:	0007c703          	lbu	a4,0(a5)
    1260:	0006c803          	lbu	a6,0(a3)
    1264:	22e81463          	bne	a6,a4,148c <_ZL11action_givehPKcS0_+0x2b0>
#     ++s1;
    1268:	00178793          	addi	a5,a5,1
#     ++s2;
    126c:	00168693          	addi	a3,a3,1
#     if (!*s1 && !*s2) {
    1270:	fe0716e3          	bnez	a4,125c <_ZL11action_givehPKcS0_+0x80>
#   auto length() const -> size_t { return len; }
    1274:	00ae0833          	add	a6,t3,a0
    1278:	00281813          	slli	a6,a6,0x2
    127c:	40a80833          	sub	a6,a6,a0
    1280:	00281813          	slli	a6,a6,0x2
#                         name_t const to_ent_nm) -> void {
    1284:	ff010113          	addi	sp,sp,-16
#   auto length() const -> size_t { return len; }
    1288:	010307b3          	add	a5,t1,a6
#                         name_t const to_ent_nm) -> void {
    128c:	00812623          	sw	s0,12(sp)
#   auto length() const -> size_t { return len; }
    1290:	0287a403          	lw	s0,40(a5)
    1294:	0005cf03          	lbu	t5,0(a1)
#     for (size_t j = 0; j < m; j++) {
    1298:	1e040263          	beqz	s0,147c <_ZL11action_givehPKcS0_+0x2a0>
    129c:	000032b7          	lui	t0,0x3
    12a0:	83828293          	addi	t0,t0,-1992 # 2838 <_ZL7objects>
    12a4:	00000e93          	li	t4,0
#       return data[ix];
    12a8:	010e87b3          	add	a5,t4,a6
    12ac:	00f307b3          	add	a5,t1,a5
    12b0:	0087c383          	lbu	t2,8(a5)
#       if (!strings_equal(objects[oid].name, obj_nm)) {
    12b4:	00239793          	slli	a5,t2,0x2
    12b8:	00f287b3          	add	a5,t0,a5
    12bc:	0007a783          	lw	a5,0(a5)
#     if (*s1 != *s2) {
    12c0:	0007c703          	lbu	a4,0(a5)
    12c4:	1cef1a63          	bne	t5,a4,1498 <_ZL11action_givehPKcS0_+0x2bc>
    12c8:	00058693          	mv	a3,a1
    12cc:	0100006f          	j	12dc <_ZL11action_givehPKcS0_+0x100>
    12d0:	0007c703          	lbu	a4,0(a5)
    12d4:	0006c603          	lbu	a2,0(a3)
    12d8:	1ce61063          	bne	a2,a4,1498 <_ZL11action_givehPKcS0_+0x2bc>
#     ++s1;
    12dc:	00178793          	addi	a5,a5,1
#     ++s2;
    12e0:	00168693          	addi	a3,a3,1
#     if (!*s1 && !*s2) {
    12e4:	fe0716e3          	bnez	a4,12d0 <_ZL11action_givehPKcS0_+0xf4>
#     if (len == Size - 1) {
    12e8:	01f887b3          	add	a5,a7,t6
    12ec:	00279793          	slli	a5,a5,0x2
    12f0:	41f787b3          	sub	a5,a5,t6
    12f4:	00279793          	slli	a5,a5,0x2
    12f8:	00f307b3          	add	a5,t1,a5
    12fc:	0287a683          	lw	a3,40(a5)
    1300:	01f00713          	li	a4,31
    1304:	14e68263          	beq	a3,a4,1448 <_ZL11action_givehPKcS0_+0x26c>
#     if (len == 0) {
    1308:	00ae0733          	add	a4,t3,a0
    130c:	00271713          	slli	a4,a4,0x2
    1310:	40a70733          	sub	a4,a4,a0
#     ++len;
    1314:	00168593          	addi	a1,a3,1
#     if (len == 0) {
    1318:	00271713          	slli	a4,a4,0x2
#     ++len;
    131c:	02b7a423          	sw	a1,40(a5)
#     if (len == 0) {
    1320:	00e30633          	add	a2,t1,a4
    1324:	02862583          	lw	a1,40(a2)
#     data[len] = elem;
    1328:	00d787b3          	add	a5,a5,a3
    132c:	00778423          	sb	t2,8(a5)
#     if (len == 0) {
    1330:	10058c63          	beqz	a1,1448 <_ZL11action_givehPKcS0_+0x26c>
#     --len;
    1334:	fff58893          	addi	a7,a1,-1
    1338:	03162423          	sw	a7,40(a2)
#     for (size_t i = ix; i < len; ++i) {
    133c:	111ef663          	bgeu	t4,a7,1448 <_ZL11action_givehPKcS0_+0x26c>
    1340:	41d58633          	sub	a2,a1,t4
    1344:	ffe60693          	addi	a3,a2,-2
    1348:	00500793          	li	a5,5
    134c:	18d7f063          	bgeu	a5,a3,14cc <_ZL11action_givehPKcS0_+0x2f0>
    1350:	01d70733          	add	a4,a4,t4
    1354:	00870693          	addi	a3,a4,8
    1358:	00970713          	addi	a4,a4,9
    135c:	00d306b3          	add	a3,t1,a3
    1360:	00e307b3          	add	a5,t1,a4
    1364:	00f6e733          	or	a4,a3,a5
    1368:	00377713          	andi	a4,a4,3
    136c:	16071063          	bnez	a4,14cc <_ZL11action_givehPKcS0_+0x2f0>
#       data[i] = data[i + 1];
    1370:	0007a583          	lw	a1,0(a5)
    1374:	fff60713          	addi	a4,a2,-1
    1378:	00275613          	srli	a2,a4,0x2
    137c:	00b6a023          	sw	a1,0(a3)
#     for (size_t i = ix; i < len; ++i) {
    1380:	00100593          	li	a1,1
    1384:	06b60663          	beq	a2,a1,13f0 <_ZL11action_givehPKcS0_+0x214>
#       data[i] = data[i + 1];
    1388:	0047a803          	lw	a6,4(a5)
    138c:	00200593          	li	a1,2
    1390:	0106a223          	sw	a6,4(a3)
#     for (size_t i = ix; i < len; ++i) {
    1394:	04b60e63          	beq	a2,a1,13f0 <_ZL11action_givehPKcS0_+0x214>
#       data[i] = data[i + 1];
    1398:	0087a803          	lw	a6,8(a5)
    139c:	00300593          	li	a1,3
    13a0:	0106a423          	sw	a6,8(a3)
#     for (size_t i = ix; i < len; ++i) {
    13a4:	04b60663          	beq	a2,a1,13f0 <_ZL11action_givehPKcS0_+0x214>
#       data[i] = data[i + 1];
    13a8:	00c7a803          	lw	a6,12(a5)
    13ac:	00400593          	li	a1,4
    13b0:	0106a623          	sw	a6,12(a3)
#     for (size_t i = ix; i < len; ++i) {
    13b4:	02b60e63          	beq	a2,a1,13f0 <_ZL11action_givehPKcS0_+0x214>
#       data[i] = data[i + 1];
    13b8:	0107a803          	lw	a6,16(a5)
    13bc:	00500593          	li	a1,5
    13c0:	0106a823          	sw	a6,16(a3)
#     for (size_t i = ix; i < len; ++i) {
    13c4:	02b60663          	beq	a2,a1,13f0 <_ZL11action_givehPKcS0_+0x214>
#       data[i] = data[i + 1];
    13c8:	0147a803          	lw	a6,20(a5)
    13cc:	00600593          	li	a1,6
    13d0:	0106aa23          	sw	a6,20(a3)
#     for (size_t i = ix; i < len; ++i) {
    13d4:	00b60e63          	beq	a2,a1,13f0 <_ZL11action_givehPKcS0_+0x214>
#       data[i] = data[i + 1];
    13d8:	0187a803          	lw	a6,24(a5)
    13dc:	00700593          	li	a1,7
    13e0:	0106ac23          	sw	a6,24(a3)
#     for (size_t i = ix; i < len; ++i) {
    13e4:	00b60663          	beq	a2,a1,13f0 <_ZL11action_givehPKcS0_+0x214>
#       data[i] = data[i + 1];
    13e8:	01c7a783          	lw	a5,28(a5)
    13ec:	00f6ae23          	sw	a5,28(a3)
#     for (size_t i = ix; i < len; ++i) {
    13f0:	ffc77693          	andi	a3,a4,-4
    13f4:	00377713          	andi	a4,a4,3
    13f8:	01d686b3          	add	a3,a3,t4
    13fc:	04070663          	beqz	a4,1448 <_ZL11action_givehPKcS0_+0x26c>
#       data[i] = data[i + 1];
    1400:	00ae07b3          	add	a5,t3,a0
    1404:	00279793          	slli	a5,a5,0x2
    1408:	40a787b3          	sub	a5,a5,a0
    140c:	00279793          	slli	a5,a5,0x2
    1410:	00f307b3          	add	a5,t1,a5
    1414:	00168713          	addi	a4,a3,1
    1418:	00e78633          	add	a2,a5,a4
    141c:	00864503          	lbu	a0,8(a2)
    1420:	00d785b3          	add	a1,a5,a3
    1424:	00a58423          	sb	a0,8(a1)
#     for (size_t i = ix; i < len; ++i) {
    1428:	03177063          	bgeu	a4,a7,1448 <_ZL11action_givehPKcS0_+0x26c>
#       data[i] = data[i + 1];
    142c:	00268693          	addi	a3,a3,2
    1430:	00d787b3          	add	a5,a5,a3
    1434:	0087c703          	lbu	a4,8(a5)
    1438:	00e60423          	sb	a4,8(a2)
#     for (size_t i = ix; i < len; ++i) {
    143c:	0116f663          	bgeu	a3,a7,1448 <_ZL11action_givehPKcS0_+0x26c>
#       data[i] = data[i + 1];
    1440:	00b5c703          	lbu	a4,11(a1)
    1444:	00e78423          	sb	a4,8(a5)
# }
    1448:	00c12403          	lw	s0,12(sp)
    144c:	01010113          	addi	sp,sp,16
    1450:	00008067          	ret
#     *UART_OUT = *str++;
    1454:	00160613          	addi	a2,a2,1
    1458:	fe500f23          	sb	t0,-2(zero) # fffffffe <__bss_end+0xffffd3ea>
#   while (*str) {
    145c:	00064283          	lbu	t0,0(a2)
    1460:	04028263          	beqz	t0,14a4 <_ZL11action_givehPKcS0_+0x2c8>
#     while (*UART_OUT)
    1464:	ffe04783          	lbu	a5,-2(zero) # fffffffe <__bss_end+0xffffd3ea>
    1468:	fe079ee3          	bnez	a5,1464 <_ZL11action_givehPKcS0_+0x288>
    146c:	fe9ff06f          	j	1454 <_ZL11action_givehPKcS0_+0x278>
#     *UART_OUT = *str++;
    1470:	00158593          	addi	a1,a1,1
    1474:	ffe00f23          	sb	t5,-2(zero) # fffffffe <__bss_end+0xffffd3ea>
#   while (*str) {
    1478:	0005cf03          	lbu	t5,0(a1)
    147c:	060f0e63          	beqz	t5,14f8 <_ZL11action_givehPKcS0_+0x31c>
#     while (*UART_OUT)
    1480:	ffe04783          	lbu	a5,-2(zero) # fffffffe <__bss_end+0xffffd3ea>
    1484:	fe079ee3          	bnez	a5,1480 <_ZL11action_givehPKcS0_+0x2a4>
    1488:	fe9ff06f          	j	1470 <_ZL11action_givehPKcS0_+0x294>
#   for (size_t i = 0; i < n; ++i) {
    148c:	001e8e93          	addi	t4,t4,1
    1490:	d9ee9ee3          	bne	t4,t5,122c <_ZL11action_givehPKcS0_+0x50>
    1494:	fcdff06f          	j	1460 <_ZL11action_givehPKcS0_+0x284>
#     for (size_t j = 0; j < m; j++) {
    1498:	001e8e93          	addi	t4,t4,1
    149c:	e08e96e3          	bne	t4,s0,12a8 <_ZL11action_givehPKcS0_+0xcc>
    14a0:	fddff06f          	j	147c <_ZL11action_givehPKcS0_+0x2a0>
#   while (*str) {
    14a4:	00002737          	lui	a4,0x2
    14a8:	4b870713          	addi	a4,a4,1208 # 24b8 <_ZL4exiti+0x5ec>
    14ac:	02000693          	li	a3,32
#     while (*UART_OUT)
    14b0:	ffe04783          	lbu	a5,-2(zero) # fffffffe <__bss_end+0xffffd3ea>
    14b4:	fe079ee3          	bnez	a5,14b0 <_ZL11action_givehPKcS0_+0x2d4>
#     *UART_OUT = *str++;
    14b8:	00170713          	addi	a4,a4,1
    14bc:	fed00f23          	sb	a3,-2(zero) # fffffffe <__bss_end+0xffffd3ea>
#   while (*str) {
    14c0:	00074683          	lbu	a3,0(a4)
    14c4:	fe0696e3          	bnez	a3,14b0 <_ZL11action_givehPKcS0_+0x2d4>
    14c8:	00008067          	ret
    14cc:	00730713          	addi	a4,t1,7
    14d0:	00880793          	addi	a5,a6,8
    14d4:	01d787b3          	add	a5,a5,t4
    14d8:	00b70733          	add	a4,a4,a1
    14dc:	00f30333          	add	t1,t1,a5
    14e0:	01070733          	add	a4,a4,a6
#       data[i] = data[i + 1];
    14e4:	00134783          	lbu	a5,1(t1)
#     for (size_t i = ix; i < len; ++i) {
    14e8:	00130313          	addi	t1,t1,1
#       data[i] = data[i + 1];
    14ec:	fef30fa3          	sb	a5,-1(t1)
#     for (size_t i = ix; i < len; ++i) {
    14f0:	fe671ae3          	bne	a4,t1,14e4 <_ZL11action_givehPKcS0_+0x308>
    14f4:	f55ff06f          	j	1448 <_ZL11action_givehPKcS0_+0x26c>
    14f8:	00002737          	lui	a4,0x2
    14fc:	4a070713          	addi	a4,a4,1184 # 24a0 <_ZL4exiti+0x5d4>
    1500:	02000693          	li	a3,32
#     while (*UART_OUT)
    1504:	ffe04783          	lbu	a5,-2(zero) # fffffffe <__bss_end+0xffffd3ea>
    1508:	fe079ee3          	bnez	a5,1504 <_ZL11action_givehPKcS0_+0x328>
#     *UART_OUT = *str++;
    150c:	00170713          	addi	a4,a4,1
    1510:	fed00f23          	sb	a3,-2(zero) # fffffffe <__bss_end+0xffffd3ea>
#   while (*str) {
    1514:	00074683          	lbu	a3,0(a4)
    1518:	fe0696e3          	bnez	a3,1504 <_ZL11action_givehPKcS0_+0x328>
    151c:	f2dff06f          	j	1448 <_ZL11action_givehPKcS0_+0x26c>

00001520 <_ZL10print_helpv>:
    1520:	00002737          	lui	a4,0x2
    1524:	2e470713          	addi	a4,a4,740 # 22e4 <_ZL4exiti+0x418>
    1528:	00d00693          	li	a3,13
#     while (*UART_OUT)
    152c:	ffe04783          	lbu	a5,-2(zero) # fffffffe <__bss_end+0xffffd3ea>
    1530:	fe079ee3          	bnez	a5,152c <_ZL10print_helpv+0xc>
#     *UART_OUT = *str++;
    1534:	00170713          	addi	a4,a4,1
    1538:	fed00f23          	sb	a3,-2(zero) # fffffffe <__bss_end+0xffffd3ea>
#   while (*str) {
    153c:	00074683          	lbu	a3,0(a4)
    1540:	fe0696e3          	bnez	a3,152c <_ZL10print_helpv+0xc>
# }
    1544:	00008067          	ret

00001548 <_ZL27input_escape_sequence_clearv>:
#     input_escape_sequence[i] = '\0';
    1548:	000037b7          	lui	a5,0x3
    154c:	c0c78713          	addi	a4,a5,-1012 # 2c0c <_ZL21input_escape_sequence>
    1550:	c007a623          	sw	zero,-1012(a5)
    1554:	00072223          	sw	zero,4(a4)
# }
    1558:	00008067          	ret

0000155c <_ZL5inputR14command_buffer>:
# static auto input(command_buffer &cmd_buf) -> void {
    155c:	fe010113          	addi	sp,sp,-32
    1560:	00812e23          	sw	s0,28(sp)
    1564:	00912c23          	sw	s1,24(sp)
    1568:	01212a23          	sw	s2,20(sp)
    156c:	01312823          	sw	s3,16(sp)
    1570:	01412623          	sw	s4,12(sp)
    1574:	01512423          	sw	s5,8(sp)
    1578:	01612223          	sw	s6,4(sp)
    157c:	01712023          	sw	s7,0(sp)
    1580:	000033b7          	lui	t2,0x3
    1584:	00050693          	mv	a3,a0
#   auto reset() -> void { cursor_ = end_ = 0; }
    1588:	040508a3          	sb	zero,81(a0)
    158c:	04050823          	sb	zero,80(a0)
    1590:	c0c38813          	addi	a6,t2,-1012 # 2c0c <_ZL21input_escape_sequence>
#     if (ch == 0x1B) {
    1594:	01b00513          	li	a0,27
#     if (ch == CHAR_BACKSPACE) {
    1598:	07f00893          	li	a7,127
#     } else if (ch == CHAR_TAB) {
    159c:	00900e13          	li	t3,9
#     } else if (ch == CHAR_CARRIAGE_RETURN || cmd_buf.is_full()) {
    15a0:	00d00f13          	li	t5,13
    15a4:	04f00313          	li	t1,79
#   *UART_OUT = ch;
    15a8:	00800593          	li	a1,8
#       if (ch == 0x5B) {
    15ac:	05b00e93          	li	t4,91
#         if (ch == 0x44) {
    15b0:	04400293          	li	t0,68
#         if (ch == 0x43) {
    15b4:	04300413          	li	s0,67
#         if (ch == 0x33) {
    15b8:	03300f93          	li	t6,51
#   while ((ch = *UART_IN) == 0)
    15bc:	ffd04783          	lbu	a5,-3(zero) # fffffffd <__bss_end+0xffffd3e9>
    15c0:	0ff7f713          	zext.b	a4,a5
    15c4:	fe078ce3          	beqz	a5,15bc <_ZL5inputR14command_buffer+0x60>
#     if (ch == 0x1B) {
    15c8:	10a70863          	beq	a4,a0,16d8 <_ZL5inputR14command_buffer+0x17c>
#     if (input_escape_sequence[0] == 0x1B) {
    15cc:	00084783          	lbu	a5,0(a6)
    15d0:	0ca78e63          	beq	a5,a0,16ac <_ZL5inputR14command_buffer+0x150>
#     if (cursor_ == end_) {
    15d4:	0516c783          	lbu	a5,81(a3)
#     if (ch == CHAR_BACKSPACE) {
    15d8:	11170463          	beq	a4,a7,16e0 <_ZL5inputR14command_buffer+0x184>
#     } else if (ch == CHAR_TAB) {
    15dc:	0dc70063          	beq	a4,t3,169c <_ZL5inputR14command_buffer+0x140>
#     } else if (ch == CHAR_CARRIAGE_RETURN || cmd_buf.is_full()) {
    15e0:	29e70063          	beq	a4,t5,1860 <_ZL5inputR14command_buffer+0x304>
    15e4:	26678e63          	beq	a5,t1,1860 <_ZL5inputR14command_buffer+0x304>
#   while (*UART_OUT)
    15e8:	ffe04783          	lbu	a5,-2(zero) # fffffffe <__bss_end+0xffffd3ea>
    15ec:	fe079ee3          	bnez	a5,15e8 <_ZL5inputR14command_buffer+0x8c>
#   *UART_OUT = ch;
    15f0:	fee00f23          	sb	a4,-2(zero) # fffffffe <__bss_end+0xffffd3ea>
#     if (end_ == sizeof(line_) - 1) {
    15f4:	0516c783          	lbu	a5,81(a3)
#     if (cursor_ == end_) {
    15f8:	0506c483          	lbu	s1,80(a3)
    15fc:	00078993          	mv	s3,a5
#     if (end_ == sizeof(line_) - 1) {
    1600:	04678663          	beq	a5,t1,164c <_ZL5inputR14command_buffer+0xf0>
#       ++end_;
    1604:	00178993          	addi	s3,a5,1
    1608:	0ff9fa93          	zext.b	s5,s3
#       ++cursor_;
    160c:	00148a13          	addi	s4,s1,1
#     for (size_t i = end_; i > cursor_; --i) {
    1610:	000a8993          	mv	s3,s5
#       ++cursor_;
    1614:	0ffa7a13          	zext.b	s4,s4
#     if (cursor_ == end_) {
    1618:	22978a63          	beq	a5,s1,184c <_ZL5inputR14command_buffer+0x2f0>
#     ++end_;
    161c:	055688a3          	sb	s5,81(a3)
#     for (size_t i = end_; i > cursor_; --i) {
    1620:	015687b3          	add	a5,a3,s5
    1624:	00968933          	add	s2,a3,s1
    1628:	0154fa63          	bgeu	s1,s5,163c <_ZL5inputR14command_buffer+0xe0>
#       line_[i] = line_[i - 1];
    162c:	fff7c603          	lbu	a2,-1(a5)
#     for (size_t i = end_; i > cursor_; --i) {
    1630:	fff78793          	addi	a5,a5,-1
#       line_[i] = line_[i - 1];
    1634:	00c780a3          	sb	a2,1(a5)
#     for (size_t i = end_; i > cursor_; --i) {
    1638:	fef91ae3          	bne	s2,a5,162c <_ZL5inputR14command_buffer+0xd0>
#     line_[cursor_] = ch;
    163c:	00e90023          	sb	a4,0(s2)
#     ++cursor_;
    1640:	05468823          	sb	s4,80(a3)
#     return true;
    1644:	000a8793          	mv	a5,s5
    1648:	000a0493          	mv	s1,s4
#     for (size_t i = cursor_; i < end_; ++i) {
    164c:	00048713          	mv	a4,s1
    1650:	0334f463          	bgeu	s1,s3,1678 <_ZL5inputR14command_buffer+0x11c>
#       f(line_[i]);
    1654:	00e687b3          	add	a5,a3,a4
    1658:	0007c603          	lbu	a2,0(a5)
#   while (*UART_OUT)
    165c:	ffe04783          	lbu	a5,-2(zero) # fffffffe <__bss_end+0xffffd3ea>
    1660:	fe079ee3          	bnez	a5,165c <_ZL5inputR14command_buffer+0x100>
#   *UART_OUT = ch;
    1664:	fec00f23          	sb	a2,-2(zero) # fffffffe <__bss_end+0xffffd3ea>
#     for (size_t i = cursor_; i < end_; ++i) {
    1668:	0516c783          	lbu	a5,81(a3)
    166c:	00170713          	addi	a4,a4,1
    1670:	fef762e3          	bltu	a4,a5,1654 <_ZL5inputR14command_buffer+0xf8>
#   auto characters_after_cursor() const -> size_t { return end_ - cursor_; }
    1674:	0506c483          	lbu	s1,80(a3)
    1678:	40978633          	sub	a2,a5,s1
#     uart_send_char('A' + (nibble - 10));
#   }
# }
# 
# static auto uart_send_move_back(size_t const n) -> void {
#   for (size_t i = 0; i < n; ++i) {
    167c:	02978063          	beq	a5,s1,169c <_ZL5inputR14command_buffer+0x140>
    1680:	00000713          	li	a4,0
#   while (*UART_OUT)
    1684:	ffe04783          	lbu	a5,-2(zero) # fffffffe <__bss_end+0xffffd3ea>
    1688:	fe079ee3          	bnez	a5,1684 <_ZL5inputR14command_buffer+0x128>
#   *UART_OUT = ch;
    168c:	feb00f23          	sb	a1,-2(zero) # fffffffe <__bss_end+0xffffd3ea>
    1690:	00170713          	addi	a4,a4,1
    1694:	fec718e3          	bne	a4,a2,1684 <_ZL5inputR14command_buffer+0x128>
#   auto input_length() const -> size_t { return end_; }
    1698:	0516c783          	lbu	a5,81(a3)
#     led_set(~uint8_t(cmd_buf.input_length()));
    169c:	fff7c793          	not	a5,a5
    16a0:	0ff7f793          	zext.b	a5,a5
# static auto led_set(uint8_t bits) -> void { *LED = bits; }
    16a4:	fef00fa3          	sb	a5,-1(zero) # ffffffff <__bss_end+0xffffd3eb>
#   while ((ch = *UART_IN) == 0)
    16a8:	f15ff06f          	j	15bc <_ZL5inputR14command_buffer+0x60>
#       if (ch == 0x5B) {
    16ac:	19d70c63          	beq	a4,t4,1844 <_ZL5inputR14command_buffer+0x2e8>
#       if (input_escape_sequence[1] == 0x5B) {
    16b0:	00184603          	lbu	a2,1(a6)
    16b4:	f3d610e3          	bne	a2,t4,15d4 <_ZL5inputR14command_buffer+0x78>
#         if (ch == 0x44) {
    16b8:	30570463          	beq	a4,t0,19c0 <_ZL5inputR14command_buffer+0x464>
#         if (ch == 0x43) {
    16bc:	32870c63          	beq	a4,s0,19f4 <_ZL5inputR14command_buffer+0x498>
#         if (ch == 0x33) {
    16c0:	2ff70c63          	beq	a4,t6,19b8 <_ZL5inputR14command_buffer+0x45c>
#         if (input_escape_sequence[2] == 0x33) {
    16c4:	00284783          	lbu	a5,2(a6)
    16c8:	1df78a63          	beq	a5,t6,189c <_ZL5inputR14command_buffer+0x340>
#     input_escape_sequence[i] = '\0';
    16cc:	c003a623          	sw	zero,-1012(t2)
    16d0:	00082223          	sw	zero,4(a6)
#   for (size_t i = 0; i < sizeof(input_escape_sequence); ++i) {
    16d4:	ee9ff06f          	j	15bc <_ZL5inputR14command_buffer+0x60>
#       input_escape_sequence[0] = 0x1B;
    16d8:	00a80023          	sb	a0,0(a6)
#       continue;
    16dc:	ee1ff06f          	j	15bc <_ZL5inputR14command_buffer+0x60>
#     if (cursor_ == 0) {
    16e0:	0506c703          	lbu	a4,80(a3)
    16e4:	fa070ce3          	beqz	a4,169c <_ZL5inputR14command_buffer+0x140>
#       --cursor_;
    16e8:	fff70a13          	addi	s4,a4,-1
#       --end_;
    16ec:	fff78993          	addi	s3,a5,-1
#       --cursor_;
    16f0:	0ffa7a93          	zext.b	s5,s4
#       --end_;
    16f4:	0ff9f993          	zext.b	s3,s3
#     if (cursor_ == end_) {
    16f8:	18f70c63          	beq	a4,a5,1890 <_ZL5inputR14command_buffer+0x334>
#     for (size_t i = cursor_ - 1; i < end_; ++i) {
    16fc:	08fa7263          	bgeu	s4,a5,1780 <_ZL5inputR14command_buffer+0x224>
    1700:	40e78b33          	sub	s6,a5,a4
    1704:	10e7e463          	bltu	a5,a4,180c <_ZL5inputR14command_buffer+0x2b0>
    1708:	006b3613          	sltiu	a2,s6,6
    170c:	00e68733          	add	a4,a3,a4
    1710:	10061063          	bnez	a2,1810 <_ZL5inputR14command_buffer+0x2b4>
    1714:	01468633          	add	a2,a3,s4
    1718:	00e664b3          	or	s1,a2,a4
    171c:	0034f493          	andi	s1,s1,3
    1720:	0e049863          	bnez	s1,1810 <_ZL5inputR14command_buffer+0x2b4>
    1724:	001b0b13          	addi	s6,s6,1
    1728:	ffcb7b93          	andi	s7,s6,-4
    172c:	01770933          	add	s2,a4,s7
#       line_[i] = line_[i + 1];
    1730:	00072483          	lw	s1,0(a4)
    1734:	00470713          	addi	a4,a4,4
    1738:	00460613          	addi	a2,a2,4
    173c:	fe962e23          	sw	s1,-4(a2)
#     for (size_t i = cursor_ - 1; i < end_; ++i) {
    1740:	fee918e3          	bne	s2,a4,1730 <_ZL5inputR14command_buffer+0x1d4>
    1744:	037b0e63          	beq	s6,s7,1780 <_ZL5inputR14command_buffer+0x224>
    1748:	017a0a33          	add	s4,s4,s7
#       line_[i] = line_[i + 1];
    174c:	001a0713          	addi	a4,s4,1
    1750:	00e684b3          	add	s1,a3,a4
    1754:	0004c903          	lbu	s2,0(s1)
    1758:	01468633          	add	a2,a3,s4
    175c:	01260023          	sb	s2,0(a2)
#     for (size_t i = cursor_ - 1; i < end_; ++i) {
    1760:	02f77063          	bgeu	a4,a5,1780 <_ZL5inputR14command_buffer+0x224>
#       line_[i] = line_[i + 1];
    1764:	002a0a13          	addi	s4,s4,2
    1768:	01468733          	add	a4,a3,s4
    176c:	00074903          	lbu	s2,0(a4)
    1770:	01248023          	sb	s2,0(s1)
#     for (size_t i = cursor_ - 1; i < end_; ++i) {
    1774:	00fa7663          	bgeu	s4,a5,1780 <_ZL5inputR14command_buffer+0x224>
#       line_[i] = line_[i + 1];
    1778:	00364783          	lbu	a5,3(a2)
    177c:	00f70023          	sb	a5,0(a4)
#     --cursor_;
    1780:	05568823          	sb	s5,80(a3)
#     --end_;
    1784:	053688a3          	sb	s3,81(a3)
#   while (*UART_OUT)
    1788:	ffe04783          	lbu	a5,-2(zero) # fffffffe <__bss_end+0xffffd3ea>
    178c:	fe079ee3          	bnez	a5,1788 <_ZL5inputR14command_buffer+0x22c>
#   *UART_OUT = ch;
    1790:	07f00793          	li	a5,127
    1794:	fef00f23          	sb	a5,-2(zero) # fffffffe <__bss_end+0xffffd3ea>
#     for (size_t i = cursor_; i < end_; ++i) {
    1798:	0506c703          	lbu	a4,80(a3)
    179c:	0516c783          	lbu	a5,81(a3)
    17a0:	02f77263          	bgeu	a4,a5,17c4 <_ZL5inputR14command_buffer+0x268>
#       f(line_[i]);
    17a4:	00e687b3          	add	a5,a3,a4
    17a8:	0007c603          	lbu	a2,0(a5)
#   while (*UART_OUT)
    17ac:	ffe04783          	lbu	a5,-2(zero) # fffffffe <__bss_end+0xffffd3ea>
    17b0:	fe079ee3          	bnez	a5,17ac <_ZL5inputR14command_buffer+0x250>
#   *UART_OUT = ch;
    17b4:	fec00f23          	sb	a2,-2(zero) # fffffffe <__bss_end+0xffffd3ea>
#     for (size_t i = cursor_; i < end_; ++i) {
    17b8:	0516c783          	lbu	a5,81(a3)
    17bc:	00170713          	addi	a4,a4,1
    17c0:	fef762e3          	bltu	a4,a5,17a4 <_ZL5inputR14command_buffer+0x248>
#   while (*UART_OUT)
    17c4:	ffe04783          	lbu	a5,-2(zero) # fffffffe <__bss_end+0xffffd3ea>
    17c8:	fe079ee3          	bnez	a5,17c4 <_ZL5inputR14command_buffer+0x268>
#   *UART_OUT = ch;
    17cc:	02000793          	li	a5,32
    17d0:	fef00f23          	sb	a5,-2(zero) # fffffffe <__bss_end+0xffffd3ea>
#   auto characters_after_cursor() const -> size_t { return end_ - cursor_; }
    17d4:	0516c783          	lbu	a5,81(a3)
    17d8:	0506c603          	lbu	a2,80(a3)
#   for (size_t i = 0; i < n; ++i) {
    17dc:	fff00713          	li	a4,-1
#   auto characters_after_cursor() const -> size_t { return end_ - cursor_; }
    17e0:	40c78633          	sub	a2,a5,a2
#   for (size_t i = 0; i < n; ++i) {
    17e4:	eae60ce3          	beq	a2,a4,169c <_ZL5inputR14command_buffer+0x140>
    17e8:	00000713          	li	a4,0
    17ec:	00800493          	li	s1,8
#   while (*UART_OUT)
    17f0:	ffe04783          	lbu	a5,-2(zero) # fffffffe <__bss_end+0xffffd3ea>
    17f4:	fe079ee3          	bnez	a5,17f0 <_ZL5inputR14command_buffer+0x294>
#   *UART_OUT = ch;
    17f8:	fe900f23          	sb	s1,-2(zero) # fffffffe <__bss_end+0xffffd3ea>
    17fc:	00170793          	addi	a5,a4,1
    1800:	e8e60ce3          	beq	a2,a4,1698 <_ZL5inputR14command_buffer+0x13c>
    1804:	00078713          	mv	a4,a5
    1808:	fe9ff06f          	j	17f0 <_ZL5inputR14command_buffer+0x294>
    180c:	00e68733          	add	a4,a3,a4
#       line_[i] = line_[i + 1];
    1810:	00074603          	lbu	a2,0(a4)
#     for (size_t i = cursor_ - 1; i < end_; ++i) {
    1814:	00170713          	addi	a4,a4,1
#       line_[i] = line_[i + 1];
    1818:	fec70f23          	sb	a2,-2(a4)
#     for (size_t i = cursor_ - 1; i < end_; ++i) {
    181c:	40d70633          	sub	a2,a4,a3
    1820:	fff60613          	addi	a2,a2,-1
    1824:	f4f67ee3          	bgeu	a2,a5,1780 <_ZL5inputR14command_buffer+0x224>
#       line_[i] = line_[i + 1];
    1828:	00074603          	lbu	a2,0(a4)
#     for (size_t i = cursor_ - 1; i < end_; ++i) {
    182c:	00170713          	addi	a4,a4,1
#       line_[i] = line_[i + 1];
    1830:	fec70f23          	sb	a2,-2(a4)
#     for (size_t i = cursor_ - 1; i < end_; ++i) {
    1834:	40d70633          	sub	a2,a4,a3
    1838:	fff60613          	addi	a2,a2,-1
    183c:	fcf66ae3          	bltu	a2,a5,1810 <_ZL5inputR14command_buffer+0x2b4>
    1840:	f41ff06f          	j	1780 <_ZL5inputR14command_buffer+0x224>
#         input_escape_sequence[1] = 0x5B;
    1844:	01d800a3          	sb	t4,1(a6)
#         continue;
    1848:	d75ff06f          	j	15bc <_ZL5inputR14command_buffer+0x60>
#       line_[cursor_] = ch;
    184c:	00f687b3          	add	a5,a3,a5
    1850:	00e78023          	sb	a4,0(a5)
#       ++cursor_;
    1854:	05468823          	sb	s4,80(a3)
#       ++end_;
    1858:	055688a3          	sb	s5,81(a3)
#       return true;
    185c:	de9ff06f          	j	1644 <_ZL5inputR14command_buffer+0xe8>
#   auto set_eos() -> void { line_[end_] = '\0'; }
    1860:	00f686b3          	add	a3,a3,a5
    1864:	00068023          	sb	zero,0(a3)
# }
    1868:	01c12403          	lw	s0,28(sp)
    186c:	01812483          	lw	s1,24(sp)
    1870:	01412903          	lw	s2,20(sp)
    1874:	01012983          	lw	s3,16(sp)
    1878:	00c12a03          	lw	s4,12(sp)
    187c:	00812a83          	lw	s5,8(sp)
    1880:	00412b03          	lw	s6,4(sp)
    1884:	00012b83          	lw	s7,0(sp)
    1888:	02010113          	addi	sp,sp,32
    188c:	00008067          	ret
#       --end_;
    1890:	053688a3          	sb	s3,81(a3)
#       --cursor_;
    1894:	05568823          	sb	s5,80(a3)
#       return true;
    1898:	ef1ff06f          	j	1788 <_ZL5inputR14command_buffer+0x22c>
#           if (ch == 0x7e) {
    189c:	07e00793          	li	a5,126
    18a0:	e2f716e3          	bne	a4,a5,16cc <_ZL5inputR14command_buffer+0x170>
#     if (cursor_ == end_) {
    18a4:	0506c703          	lbu	a4,80(a3)
    18a8:	0516c603          	lbu	a2,81(a3)
    18ac:	0ac70063          	beq	a4,a2,194c <_ZL5inputR14command_buffer+0x3f0>
#     for (size_t i = cursor_ + 1; i < end_; ++i) {
    18b0:	00170493          	addi	s1,a4,1
    18b4:	08c4f663          	bgeu	s1,a2,1940 <_ZL5inputR14command_buffer+0x3e4>
    18b8:	40e609b3          	sub	s3,a2,a4
    18bc:	ffe98793          	addi	a5,s3,-2
    18c0:	0067b793          	sltiu	a5,a5,6
    18c4:	16079463          	bnez	a5,1a2c <_ZL5inputR14command_buffer+0x4d0>
    18c8:	00270793          	addi	a5,a4,2
    18cc:	16f66063          	bltu	a2,a5,1a2c <_ZL5inputR14command_buffer+0x4d0>
    18d0:	00e687b3          	add	a5,a3,a4
    18d4:	00968933          	add	s2,a3,s1
    18d8:	00f96a33          	or	s4,s2,a5
    18dc:	003a7a13          	andi	s4,s4,3
    18e0:	140a1863          	bnez	s4,1a30 <_ZL5inputR14command_buffer+0x4d4>
    18e4:	fff98993          	addi	s3,s3,-1
    18e8:	ffc9fa13          	andi	s4,s3,-4
    18ec:	01490ab3          	add	s5,s2,s4
#       line_[i - 1] = line_[i];
    18f0:	00092b03          	lw	s6,0(s2)
    18f4:	00490913          	addi	s2,s2,4
    18f8:	00478793          	addi	a5,a5,4
    18fc:	ff67ae23          	sw	s6,-4(a5)
#     for (size_t i = cursor_ + 1; i < end_; ++i) {
    1900:	ff2a98e3          	bne	s5,s2,18f0 <_ZL5inputR14command_buffer+0x394>
    1904:	014487b3          	add	a5,s1,s4
    1908:	033a0c63          	beq	s4,s3,1940 <_ZL5inputR14command_buffer+0x3e4>
#       line_[i - 1] = line_[i];
    190c:	00f68933          	add	s2,a3,a5
    1910:	00094983          	lbu	s3,0(s2)
#     for (size_t i = cursor_ + 1; i < end_; ++i) {
    1914:	00178493          	addi	s1,a5,1
#       line_[i - 1] = line_[i];
    1918:	ff390fa3          	sb	s3,-1(s2)
#     for (size_t i = cursor_ + 1; i < end_; ++i) {
    191c:	02c4f263          	bgeu	s1,a2,1940 <_ZL5inputR14command_buffer+0x3e4>
#       line_[i - 1] = line_[i];
    1920:	009684b3          	add	s1,a3,s1
    1924:	0004c983          	lbu	s3,0(s1)
#     for (size_t i = cursor_ + 1; i < end_; ++i) {
    1928:	00278793          	addi	a5,a5,2
#       line_[i - 1] = line_[i];
    192c:	01390023          	sb	s3,0(s2)
#     for (size_t i = cursor_ + 1; i < end_; ++i) {
    1930:	00c7f863          	bgeu	a5,a2,1940 <_ZL5inputR14command_buffer+0x3e4>
#       line_[i - 1] = line_[i];
    1934:	00f687b3          	add	a5,a3,a5
    1938:	0007c783          	lbu	a5,0(a5)
    193c:	00f48023          	sb	a5,0(s1)
#     --end_;
    1940:	fff60613          	addi	a2,a2,-1
    1944:	0ff67613          	zext.b	a2,a2
    1948:	04c688a3          	sb	a2,81(a3)
#     for (size_t i = cursor_; i < end_; ++i) {
    194c:	02c77263          	bgeu	a4,a2,1970 <_ZL5inputR14command_buffer+0x414>
#       f(line_[i]);
    1950:	00e687b3          	add	a5,a3,a4
    1954:	0007c603          	lbu	a2,0(a5)
#   while (*UART_OUT)
    1958:	ffe04783          	lbu	a5,-2(zero) # fffffffe <__bss_end+0xffffd3ea>
    195c:	fe079ee3          	bnez	a5,1958 <_ZL5inputR14command_buffer+0x3fc>
#   *UART_OUT = ch;
    1960:	fec00f23          	sb	a2,-2(zero) # fffffffe <__bss_end+0xffffd3ea>
#     for (size_t i = cursor_; i < end_; ++i) {
    1964:	0516c783          	lbu	a5,81(a3)
    1968:	00170713          	addi	a4,a4,1
    196c:	fef762e3          	bltu	a4,a5,1950 <_ZL5inputR14command_buffer+0x3f4>
#   while (*UART_OUT)
    1970:	ffe04783          	lbu	a5,-2(zero) # fffffffe <__bss_end+0xffffd3ea>
    1974:	fe079ee3          	bnez	a5,1970 <_ZL5inputR14command_buffer+0x414>
#   *UART_OUT = ch;
    1978:	02000793          	li	a5,32
    197c:	fef00f23          	sb	a5,-2(zero) # fffffffe <__bss_end+0xffffd3ea>
#   auto characters_after_cursor() const -> size_t { return end_ - cursor_; }
    1980:	0516c703          	lbu	a4,81(a3)
    1984:	0506c603          	lbu	a2,80(a3)
#   for (size_t i = 0; i < n; ++i) {
    1988:	fff00793          	li	a5,-1
#   auto characters_after_cursor() const -> size_t { return end_ - cursor_; }
    198c:	40c70733          	sub	a4,a4,a2
#   for (size_t i = 0; i < n; ++i) {
    1990:	d2f70ee3          	beq	a4,a5,16cc <_ZL5inputR14command_buffer+0x170>
    1994:	00000613          	li	a2,0
    1998:	00800493          	li	s1,8
#   while (*UART_OUT)
    199c:	ffe04783          	lbu	a5,-2(zero) # fffffffe <__bss_end+0xffffd3ea>
    19a0:	fe079ee3          	bnez	a5,199c <_ZL5inputR14command_buffer+0x440>
#   *UART_OUT = ch;
    19a4:	fe900f23          	sb	s1,-2(zero) # fffffffe <__bss_end+0xffffd3ea>
    19a8:	00160793          	addi	a5,a2,1
    19ac:	d2c700e3          	beq	a4,a2,16cc <_ZL5inputR14command_buffer+0x170>
    19b0:	00078613          	mv	a2,a5
    19b4:	fe9ff06f          	j	199c <_ZL5inputR14command_buffer+0x440>
#           input_escape_sequence[2] = 0x33;
    19b8:	01f80123          	sb	t6,2(a6)
#           continue;
    19bc:	c01ff06f          	j	15bc <_ZL5inputR14command_buffer+0x60>
#     if (cursor_ == 0) {
    19c0:	0506c703          	lbu	a4,80(a3)
    19c4:	d00704e3          	beqz	a4,16cc <_ZL5inputR14command_buffer+0x170>
#     --cursor_;
    19c8:	fff70713          	addi	a4,a4,-1
    19cc:	00002637          	lui	a2,0x2
    19d0:	04e68823          	sb	a4,80(a3)
    19d4:	4cc60613          	addi	a2,a2,1228 # 24cc <_ZL4exiti+0x600>
#     while (*UART_OUT)
    19d8:	ffe04703          	lbu	a4,-2(zero) # fffffffe <__bss_end+0xffffd3ea>
    19dc:	fe071ee3          	bnez	a4,19d8 <_ZL5inputR14command_buffer+0x47c>
#     *UART_OUT = *str++;
    19e0:	00160613          	addi	a2,a2,1
    19e4:	fef00f23          	sb	a5,-2(zero) # fffffffe <__bss_end+0xffffd3ea>
#   while (*str) {
    19e8:	00064783          	lbu	a5,0(a2)
    19ec:	fe0796e3          	bnez	a5,19d8 <_ZL5inputR14command_buffer+0x47c>
    19f0:	cddff06f          	j	16cc <_ZL5inputR14command_buffer+0x170>
#     if (cursor_ == end_) {
    19f4:	0506c703          	lbu	a4,80(a3)
    19f8:	0516c603          	lbu	a2,81(a3)
    19fc:	cce608e3          	beq	a2,a4,16cc <_ZL5inputR14command_buffer+0x170>
#     ++cursor_;
    1a00:	00170713          	addi	a4,a4,1
    1a04:	00002637          	lui	a2,0x2
    1a08:	04e68823          	sb	a4,80(a3)
    1a0c:	4d060613          	addi	a2,a2,1232 # 24d0 <_ZL4exiti+0x604>
#     while (*UART_OUT)
    1a10:	ffe04703          	lbu	a4,-2(zero) # fffffffe <__bss_end+0xffffd3ea>
    1a14:	fe071ee3          	bnez	a4,1a10 <_ZL5inputR14command_buffer+0x4b4>
#     *UART_OUT = *str++;
    1a18:	00160613          	addi	a2,a2,1
    1a1c:	fef00f23          	sb	a5,-2(zero) # fffffffe <__bss_end+0xffffd3ea>
#   while (*str) {
    1a20:	00064783          	lbu	a5,0(a2)
    1a24:	fe0796e3          	bnez	a5,1a10 <_ZL5inputR14command_buffer+0x4b4>
    1a28:	ca5ff06f          	j	16cc <_ZL5inputR14command_buffer+0x170>
    1a2c:	00e687b3          	add	a5,a3,a4
#     for (size_t i = cursor_ + 1; i < end_; ++i) {
    1a30:	00100493          	li	s1,1
    1a34:	40d484b3          	sub	s1,s1,a3
#       line_[i - 1] = line_[i];
    1a38:	0017c903          	lbu	s2,1(a5)
#     for (size_t i = cursor_ + 1; i < end_; ++i) {
    1a3c:	00178793          	addi	a5,a5,1
#       line_[i - 1] = line_[i];
    1a40:	ff278fa3          	sb	s2,-1(a5)
#     for (size_t i = cursor_ + 1; i < end_; ++i) {
    1a44:	00f48933          	add	s2,s1,a5
    1a48:	fec968e3          	bltu	s2,a2,1a38 <_ZL5inputR14command_buffer+0x4dc>
    1a4c:	ef5ff06f          	j	1940 <_ZL5inputR14command_buffer+0x3e4>

00001a50 <_ZL13strings_equalPKcS0_>:
#     if (*s1 != *s2) {
    1a50:	00054783          	lbu	a5,0(a0)
    1a54:	0005c703          	lbu	a4,0(a1)
    1a58:	00f71c63          	bne	a4,a5,1a70 <_ZL13strings_equalPKcS0_+0x20>
#     ++s1;
    1a5c:	00150513          	addi	a0,a0,1
#     ++s2;
    1a60:	00158593          	addi	a1,a1,1
#     if (!*s1 && !*s2) {
    1a64:	fe0796e3          	bnez	a5,1a50 <_ZL13strings_equalPKcS0_>
#       return true;
    1a68:	00100513          	li	a0,1
# }
    1a6c:	00008067          	ret
#       return false;
    1a70:	00000513          	li	a0,0
    1a74:	00008067          	ret

00001a78 <_ZL11string_copyPKcjPc>:
#   while (src_len--) {
    1a78:	fff58813          	addi	a6,a1,-1
    1a7c:	08058e63          	beqz	a1,1b18 <_ZL11string_copyPKcjPc+0xa0>
    1a80:	00600793          	li	a5,6
    1a84:	0707fa63          	bgeu	a5,a6,1af8 <_ZL11string_copyPKcjPc+0x80>
    1a88:	00c567b3          	or	a5,a0,a2
    1a8c:	0037f793          	andi	a5,a5,3
    1a90:	06079463          	bnez	a5,1af8 <_ZL11string_copyPKcjPc+0x80>
    1a94:	00150793          	addi	a5,a0,1
    1a98:	40f60733          	sub	a4,a2,a5
    1a9c:	00373713          	sltiu	a4,a4,3
    1aa0:	04071e63          	bnez	a4,1afc <_ZL11string_copyPKcjPc+0x84>
    1aa4:	ffc5f893          	andi	a7,a1,-4
    1aa8:	011506b3          	add	a3,a0,a7
    1aac:	00060793          	mv	a5,a2
#     *dst++ = *src++;
    1ab0:	00052703          	lw	a4,0(a0)
    1ab4:	00450513          	addi	a0,a0,4
    1ab8:	00478793          	addi	a5,a5,4
    1abc:	fee7ae23          	sw	a4,-4(a5)
#   while (src_len--) {
    1ac0:	fea698e3          	bne	a3,a0,1ab0 <_ZL11string_copyPKcjPc+0x38>
    1ac4:	41180833          	sub	a6,a6,a7
    1ac8:	01160633          	add	a2,a2,a7
    1acc:	05158663          	beq	a1,a7,1b18 <_ZL11string_copyPKcjPc+0xa0>
#     *dst++ = *src++;
    1ad0:	0006c783          	lbu	a5,0(a3)
    1ad4:	00f60023          	sb	a5,0(a2)
#   while (src_len--) {
    1ad8:	04080063          	beqz	a6,1b18 <_ZL11string_copyPKcjPc+0xa0>
#     *dst++ = *src++;
    1adc:	0016c703          	lbu	a4,1(a3)
#   while (src_len--) {
    1ae0:	00100793          	li	a5,1
#     *dst++ = *src++;
    1ae4:	00e600a3          	sb	a4,1(a2)
#   while (src_len--) {
    1ae8:	02f80863          	beq	a6,a5,1b18 <_ZL11string_copyPKcjPc+0xa0>
#     *dst++ = *src++;
    1aec:	0026c783          	lbu	a5,2(a3)
    1af0:	00f60123          	sb	a5,2(a2)
#   while (src_len--) {
    1af4:	00008067          	ret
    1af8:	00150793          	addi	a5,a0,1
    1afc:	00b50533          	add	a0,a0,a1
    1b00:	0080006f          	j	1b08 <_ZL11string_copyPKcjPc+0x90>
    1b04:	00178793          	addi	a5,a5,1
#     *dst++ = *src++;
    1b08:	fff7c703          	lbu	a4,-1(a5)
    1b0c:	00160613          	addi	a2,a2,1
    1b10:	fee60fa3          	sb	a4,-1(a2)
#   while (src_len--) {
    1b14:	fea798e3          	bne	a5,a0,1b04 <_ZL11string_copyPKcjPc+0x8c>
# }
    1b18:	00008067          	ret

00001b1c <_ZL18uart_send_hex_bytec>:
#   uart_send_hex_nibble(ch >> 4);
    1b1c:	00455793          	srli	a5,a0,0x4
#   if (nibble < 10) {
    1b20:	00900713          	li	a4,9
    1b24:	04f76463          	bltu	a4,a5,1b6c <_ZL18uart_send_hex_bytec+0x50>
#     uart_send_char('0' + nibble);
    1b28:	03078713          	addi	a4,a5,48
#   while (*UART_OUT)
    1b2c:	ffe04783          	lbu	a5,-2(zero) # fffffffe <__bss_end+0xffffd3ea>
    1b30:	fe079ee3          	bnez	a5,1b2c <_ZL18uart_send_hex_bytec+0x10>
#   *UART_OUT = ch;
    1b34:	fee00f23          	sb	a4,-2(zero) # fffffffe <__bss_end+0xffffd3ea>
#   uart_send_hex_nibble(ch & 0x0f);
    1b38:	00f57513          	andi	a0,a0,15
#   if (nibble < 10) {
    1b3c:	00900793          	li	a5,9
    1b40:	00a7ec63          	bltu	a5,a0,1b58 <_ZL18uart_send_hex_bytec+0x3c>
#     uart_send_char('0' + nibble);
    1b44:	03050513          	addi	a0,a0,48
#   while (*UART_OUT)
    1b48:	ffe04783          	lbu	a5,-2(zero) # fffffffe <__bss_end+0xffffd3ea>
    1b4c:	fe079ee3          	bnez	a5,1b48 <_ZL18uart_send_hex_bytec+0x2c>
#   *UART_OUT = ch;
    1b50:	fea00f23          	sb	a0,-2(zero) # fffffffe <__bss_end+0xffffd3ea>
# }
    1b54:	00008067          	ret
#     uart_send_char('A' + (nibble - 10));
    1b58:	03750513          	addi	a0,a0,55
#   while (*UART_OUT)
    1b5c:	ffe04783          	lbu	a5,-2(zero) # fffffffe <__bss_end+0xffffd3ea>
    1b60:	fe079ee3          	bnez	a5,1b5c <_ZL18uart_send_hex_bytec+0x40>
#   *UART_OUT = ch;
    1b64:	fea00f23          	sb	a0,-2(zero) # fffffffe <__bss_end+0xffffd3ea>
# }
    1b68:	00008067          	ret
#     uart_send_char('A' + (nibble - 10));
    1b6c:	03778713          	addi	a4,a5,55
#   while (*UART_OUT)
    1b70:	ffe04783          	lbu	a5,-2(zero) # fffffffe <__bss_end+0xffffd3ea>
    1b74:	fe079ee3          	bnez	a5,1b70 <_ZL18uart_send_hex_bytec+0x54>
    1b78:	fbdff06f          	j	1b34 <_ZL18uart_send_hex_bytec+0x18>

00001b7c <_ZL20uart_send_hex_nibblec>:
#   if (nibble < 10) {
    1b7c:	00900793          	li	a5,9
    1b80:	00a7ee63          	bltu	a5,a0,1b9c <_ZL20uart_send_hex_nibblec+0x20>
#     uart_send_char('0' + nibble);
    1b84:	03050513          	addi	a0,a0,48
    1b88:	0ff57513          	zext.b	a0,a0
    1b8c:	ffe04783          	lbu	a5,-2(zero) # fffffffe <__bss_end+0xffffd3ea>
    1b90:	fe079ee3          	bnez	a5,1b8c <_ZL20uart_send_hex_nibblec+0x10>
#   *UART_OUT = ch;
    1b94:	fea00f23          	sb	a0,-2(zero) # fffffffe <__bss_end+0xffffd3ea>
# }
    1b98:	00008067          	ret
#     uart_send_char('A' + (nibble - 10));
    1b9c:	03750513          	addi	a0,a0,55
    1ba0:	0ff57513          	zext.b	a0,a0
#   while (*UART_OUT)
    1ba4:	ffe04783          	lbu	a5,-2(zero) # fffffffe <__bss_end+0xffffd3ea>
    1ba8:	fe079ee3          	bnez	a5,1ba4 <_ZL20uart_send_hex_nibblec+0x28>
#   *UART_OUT = ch;
    1bac:	fea00f23          	sb	a0,-2(zero) # fffffffe <__bss_end+0xffffd3ea>
# }
    1bb0:	00008067          	ret

00001bb4 <_ZL19uart_send_move_backj>:
#   for (size_t i = 0; i < n; ++i) {
    1bb4:	02050063          	beqz	a0,1bd4 <_ZL19uart_send_move_backj+0x20>
    1bb8:	00000713          	li	a4,0
    1bbc:	00800693          	li	a3,8
#   while (*UART_OUT)
    1bc0:	ffe04783          	lbu	a5,-2(zero) # fffffffe <__bss_end+0xffffd3ea>
    1bc4:	fe079ee3          	bnez	a5,1bc0 <_ZL19uart_send_move_backj+0xc>
#   *UART_OUT = ch;
    1bc8:	fed00f23          	sb	a3,-2(zero) # fffffffe <__bss_end+0xffffd3ea>
    1bcc:	00170713          	addi	a4,a4,1
    1bd0:	fee518e3          	bne	a0,a4,1bc0 <_ZL19uart_send_move_backj+0xc>
#     uart_send_char('\b');
#   }
# }
    1bd4:	00008067          	ret

00001bd8 <_ZL7led_seth>:
# static auto led_set(uint8_t bits) -> void { *LED = bits; }
    1bd8:	fea00fa3          	sb	a0,-1(zero) # ffffffff <__bss_end+0xffffd3eb>
    1bdc:	00008067          	ret

00001be0 <_ZL13uart_send_strPKc>:
#   while (*str) {
    1be0:	00054703          	lbu	a4,0(a0)
    1be4:	00070e63          	beqz	a4,1c00 <_ZL13uart_send_strPKc+0x20>
#     while (*UART_OUT)
    1be8:	ffe04783          	lbu	a5,-2(zero) # fffffffe <__bss_end+0xffffd3ea>
    1bec:	fe079ee3          	bnez	a5,1be8 <_ZL13uart_send_strPKc+0x8>
#     *UART_OUT = *str++;
    1bf0:	00150513          	addi	a0,a0,1
    1bf4:	fee00f23          	sb	a4,-2(zero) # fffffffe <__bss_end+0xffffd3ea>
#   while (*str) {
    1bf8:	00054703          	lbu	a4,0(a0)
    1bfc:	fe0716e3          	bnez	a4,1be8 <_ZL13uart_send_strPKc+0x8>
# }
    1c00:	00008067          	ret

00001c04 <_ZL14uart_send_charc>:
#   while (*UART_OUT)
    1c04:	ffe04783          	lbu	a5,-2(zero) # fffffffe <__bss_end+0xffffd3ea>
    1c08:	fe079ee3          	bnez	a5,1c04 <_ZL14uart_send_charc>
#   *UART_OUT = ch;
    1c0c:	fea00f23          	sb	a0,-2(zero) # fffffffe <__bss_end+0xffffd3ea>
# }
    1c10:	00008067          	ret

00001c14 <_ZL14uart_read_charv>:
#   while ((ch = *UART_IN) == 0)
    1c14:	ffd04783          	lbu	a5,-3(zero) # fffffffd <__bss_end+0xffffd3e9>
    1c18:	0ff7f513          	zext.b	a0,a5
    1c1c:	fe078ce3          	beqz	a5,1c14 <_ZL14uart_read_charv>
# }
    1c20:	00008067          	ret

00001c24 <_ZL15action_mem_testv>:
#   while (*str) {
    1c24:	00002737          	lui	a4,0x2
    1c28:	4d470713          	addi	a4,a4,1236 # 24d4 <_ZL4exiti+0x608>
    1c2c:	07400693          	li	a3,116
#     while (*UART_OUT)
    1c30:	ffe04783          	lbu	a5,-2(zero) # fffffffe <__bss_end+0xffffd3ea>
    1c34:	fe079ee3          	bnez	a5,1c30 <_ZL15action_mem_testv+0xc>
#     *UART_OUT = *str++;
    1c38:	00170713          	addi	a4,a4,1
    1c3c:	fed00f23          	sb	a3,-2(zero) # fffffffe <__bss_end+0xffffd3ea>
#   while (*str) {
    1c40:	00074683          	lbu	a3,0(a4)
    1c44:	fe0696e3          	bnez	a3,1c30 <_ZL15action_mem_testv+0xc>
#   while (ptr < end) {
    1c48:	00200637          	lui	a2,0x200
    1c4c:	c0060613          	addi	a2,a2,-1024 # 1ffc00 <__bss_end+0x1fcfec>
#   char *ptr = reinterpret_cast<char *>(0x10000);
    1c50:	000107b7          	lui	a5,0x10
    1c54:	0ff7f693          	zext.b	a3,a5
#     *ptr++ = ch++;
    1c58:	00d78023          	sb	a3,0(a5) # 10000 <__bss_end+0xd3ec>
    1c5c:	00178793          	addi	a5,a5,1
#   while (ptr < end) {
    1c60:	fec79ae3          	bne	a5,a2,1c54 <_ZL15action_mem_testv+0x30>
    1c64:	00002737          	lui	a4,0x2
    1c68:	4f070713          	addi	a4,a4,1264 # 24f0 <_ZL4exiti+0x624>
#   while (*str) {
    1c6c:	07400693          	li	a3,116
#     while (*UART_OUT)
    1c70:	ffe04783          	lbu	a5,-2(zero) # fffffffe <__bss_end+0xffffd3ea>
    1c74:	fe079ee3          	bnez	a5,1c70 <_ZL15action_mem_testv+0x4c>
#     *UART_OUT = *str++;
    1c78:	00170713          	addi	a4,a4,1
    1c7c:	fed00f23          	sb	a3,-2(zero) # fffffffe <__bss_end+0xffffd3ea>
#   while (*str) {
    1c80:	00074683          	lbu	a3,0(a4)
    1c84:	fe0696e3          	bnez	a3,1c70 <_ZL15action_mem_testv+0x4c>
#   while (ptr < end) {
    1c88:	00200637          	lui	a2,0x200
    1c8c:	c0060613          	addi	a2,a2,-1024 # 1ffc00 <__bss_end+0x1fcfec>
    1c90:	000107b7          	lui	a5,0x10
    1c94:	0080006f          	j	1c9c <_ZL15action_mem_testv+0x78>
    1c98:	02c78e63          	beq	a5,a2,1cd4 <_ZL15action_mem_testv+0xb0>
#     if (*ptr++ != ch++) {
    1c9c:	0007c683          	lbu	a3,0(a5) # 10000 <__bss_end+0xd3ec>
    1ca0:	0ff7f713          	zext.b	a4,a5
#   while (ptr < end) {
    1ca4:	00178793          	addi	a5,a5,1
#     if (*ptr++ != ch++) {
    1ca8:	fee688e3          	beq	a3,a4,1c98 <_ZL15action_mem_testv+0x74>
    1cac:	00002737          	lui	a4,0x2
    1cb0:	50870713          	addi	a4,a4,1288 # 2508 <_ZL4exiti+0x63c>
#   while (*str) {
    1cb4:	02100693          	li	a3,33
#     while (*UART_OUT)
    1cb8:	ffe04783          	lbu	a5,-2(zero) # fffffffe <__bss_end+0xffffd3ea>
    1cbc:	fe079ee3          	bnez	a5,1cb8 <_ZL15action_mem_testv+0x94>
#     *UART_OUT = *str++;
    1cc0:	00170713          	addi	a4,a4,1
    1cc4:	fed00f23          	sb	a3,-2(zero) # fffffffe <__bss_end+0xffffd3ea>
#   while (*str) {
    1cc8:	00074683          	lbu	a3,0(a4)
    1ccc:	fe0696e3          	bnez	a3,1cb8 <_ZL15action_mem_testv+0x94>
    1cd0:	00008067          	ret
    1cd4:	00002737          	lui	a4,0x2
    1cd8:	52470713          	addi	a4,a4,1316 # 2524 <_ZL4exiti+0x658>
    1cdc:	07400693          	li	a3,116
#     while (*UART_OUT)
    1ce0:	ffe04783          	lbu	a5,-2(zero) # fffffffe <__bss_end+0xffffd3ea>
    1ce4:	fe079ee3          	bnez	a5,1ce0 <_ZL15action_mem_testv+0xbc>
#     *UART_OUT = *str++;
    1ce8:	00170713          	addi	a4,a4,1
    1cec:	fed00f23          	sb	a3,-2(zero) # fffffffe <__bss_end+0xffffd3ea>
#   while (*str) {
    1cf0:	00074683          	lbu	a3,0(a4)
    1cf4:	fe0696e3          	bnez	a3,1ce0 <_ZL15action_mem_testv+0xbc>
# }
    1cf8:	00008067          	ret

00001cfc <memset>:
#   while (n--) {
    1cfc:	fff60813          	addi	a6,a2,-1
    1d00:	0c060863          	beqz	a2,1dd0 <memset+0xd4>
    1d04:	40a00733          	neg	a4,a0
    1d08:	00500893          	li	a7,5
#     *ptr++ = char(ch);
    1d0c:	0ff5f693          	zext.b	a3,a1
    1d10:	00377793          	andi	a5,a4,3
    1d14:	0d08f063          	bgeu	a7,a6,1dd4 <memset+0xd8>
#   char *ptr = reinterpret_cast<char *>(str);
    1d18:	00050893          	mv	a7,a0
    1d1c:	02078c63          	beqz	a5,1d54 <memset+0x58>
#     *ptr++ = char(ch);
    1d20:	00d50023          	sb	a3,0(a0)
#   while (n--) {
    1d24:	00277713          	andi	a4,a4,2
#     *ptr++ = char(ch);
    1d28:	00150893          	addi	a7,a0,1
#   while (n--) {
    1d2c:	ffe60813          	addi	a6,a2,-2
    1d30:	02070263          	beqz	a4,1d54 <memset+0x58>
#     *ptr++ = char(ch);
    1d34:	00d500a3          	sb	a3,1(a0)
#   while (n--) {
    1d38:	00300713          	li	a4,3
#     *ptr++ = char(ch);
    1d3c:	00250893          	addi	a7,a0,2
#   while (n--) {
    1d40:	ffd60813          	addi	a6,a2,-3
    1d44:	00e79863          	bne	a5,a4,1d54 <memset+0x58>
#     *ptr++ = char(ch);
    1d48:	00d50123          	sb	a3,2(a0)
    1d4c:	00350893          	addi	a7,a0,3
#   while (n--) {
    1d50:	ffc60813          	addi	a6,a2,-4
    1d54:	00869713          	slli	a4,a3,0x8
    1d58:	40f60633          	sub	a2,a2,a5
    1d5c:	01069593          	slli	a1,a3,0x10
    1d60:	00e6e733          	or	a4,a3,a4
    1d64:	00b76733          	or	a4,a4,a1
    1d68:	00f507b3          	add	a5,a0,a5
    1d6c:	01869593          	slli	a1,a3,0x18
    1d70:	ffc67313          	andi	t1,a2,-4
    1d74:	00b76733          	or	a4,a4,a1
    1d78:	006785b3          	add	a1,a5,t1
#     *ptr++ = char(ch);
    1d7c:	00e7a023          	sw	a4,0(a5)
#   while (n--) {
    1d80:	00478793          	addi	a5,a5,4
    1d84:	feb79ce3          	bne	a5,a1,1d7c <memset+0x80>
    1d88:	04660463          	beq	a2,t1,1dd0 <memset+0xd4>
    1d8c:	40680833          	sub	a6,a6,t1
    1d90:	006887b3          	add	a5,a7,t1
#     *ptr++ = char(ch);
    1d94:	00d78023          	sb	a3,0(a5)
#   while (n--) {
    1d98:	02080c63          	beqz	a6,1dd0 <memset+0xd4>
#     *ptr++ = char(ch);
    1d9c:	00d780a3          	sb	a3,1(a5)
#   while (n--) {
    1da0:	00100713          	li	a4,1
    1da4:	02e80663          	beq	a6,a4,1dd0 <memset+0xd4>
#     *ptr++ = char(ch);
    1da8:	00d78123          	sb	a3,2(a5)
#   while (n--) {
    1dac:	00200713          	li	a4,2
    1db0:	02e80063          	beq	a6,a4,1dd0 <memset+0xd4>
#     *ptr++ = char(ch);
    1db4:	00d781a3          	sb	a3,3(a5)
#   while (n--) {
    1db8:	00300713          	li	a4,3
    1dbc:	00e80a63          	beq	a6,a4,1dd0 <memset+0xd4>
#     *ptr++ = char(ch);
    1dc0:	00d78223          	sb	a3,4(a5)
#   while (n--) {
    1dc4:	00400713          	li	a4,4
    1dc8:	00e80463          	beq	a6,a4,1dd0 <memset+0xd4>
#     *ptr++ = char(ch);
    1dcc:	00d782a3          	sb	a3,5(a5)
# }
    1dd0:	00008067          	ret
#   char *ptr = reinterpret_cast<char *>(str);
    1dd4:	00050793          	mv	a5,a0
    1dd8:	fbdff06f          	j	1d94 <memset+0x98>

00001ddc <_ZL12initiate_bssv>:
#   memset(&__bss_start, 0, &__bss_end - &__bss_start);
    1ddc:	00003737          	lui	a4,0x3
    1de0:	00003837          	lui	a6,0x3
    1de4:	c1470713          	addi	a4,a4,-1004 # 2c14 <__bss_end>
    1de8:	c0c80793          	addi	a5,a6,-1012 # 2c0c <_ZL21input_escape_sequence>
    1dec:	40f70733          	sub	a4,a4,a5
#   while (n--) {
    1df0:	fff70593          	addi	a1,a4,-1
    1df4:	0a070463          	beqz	a4,1e9c <_ZL12initiate_bssv+0xc0>
    1df8:	40f00533          	neg	a0,a5
    1dfc:	00500613          	li	a2,5
    1e00:	00357693          	andi	a3,a0,3
    1e04:	0ab67e63          	bgeu	a2,a1,1ec0 <_ZL12initiate_bssv+0xe4>
#   char *ptr = reinterpret_cast<char *>(str);
    1e08:	c0c80613          	addi	a2,a6,-1012
    1e0c:	02068663          	beqz	a3,1e38 <_ZL12initiate_bssv+0x5c>
#     *ptr++ = char(ch);
    1e10:	c0080623          	sb	zero,-1012(a6)
#   while (n--) {
    1e14:	00257513          	andi	a0,a0,2
    1e18:	08050463          	beqz	a0,1ea0 <_ZL12initiate_bssv+0xc4>
#     *ptr++ = char(ch);
    1e1c:	000780a3          	sb	zero,1(a5)
#   while (n--) {
    1e20:	00300613          	li	a2,3
    1e24:	08c69663          	bne	a3,a2,1eb0 <_ZL12initiate_bssv+0xd4>
    1e28:	00003637          	lui	a2,0x3
#     *ptr++ = char(ch);
    1e2c:	00078123          	sb	zero,2(a5)
#   while (n--) {
    1e30:	c0f60613          	addi	a2,a2,-1009 # 2c0f <_ZL21input_escape_sequence+0x3>
    1e34:	ffc70593          	addi	a1,a4,-4
    1e38:	40d70733          	sub	a4,a4,a3
    1e3c:	00d787b3          	add	a5,a5,a3
    1e40:	ffc77513          	andi	a0,a4,-4
    1e44:	00a786b3          	add	a3,a5,a0
#     *ptr++ = char(ch);
    1e48:	0007a023          	sw	zero,0(a5)
#   while (n--) {
    1e4c:	00478793          	addi	a5,a5,4
    1e50:	fed79ce3          	bne	a5,a3,1e48 <_ZL12initiate_bssv+0x6c>
    1e54:	04a70463          	beq	a4,a0,1e9c <_ZL12initiate_bssv+0xc0>
    1e58:	40a585b3          	sub	a1,a1,a0
    1e5c:	00a607b3          	add	a5,a2,a0
#     *ptr++ = char(ch);
    1e60:	00078023          	sb	zero,0(a5)
#   while (n--) {
    1e64:	02058c63          	beqz	a1,1e9c <_ZL12initiate_bssv+0xc0>
#     *ptr++ = char(ch);
    1e68:	000780a3          	sb	zero,1(a5)
#   while (n--) {
    1e6c:	00100713          	li	a4,1
    1e70:	02e58663          	beq	a1,a4,1e9c <_ZL12initiate_bssv+0xc0>
#     *ptr++ = char(ch);
    1e74:	00078123          	sb	zero,2(a5)
#   while (n--) {
    1e78:	00200713          	li	a4,2
    1e7c:	02e58063          	beq	a1,a4,1e9c <_ZL12initiate_bssv+0xc0>
#     *ptr++ = char(ch);
    1e80:	000781a3          	sb	zero,3(a5)
#   while (n--) {
    1e84:	00300713          	li	a4,3
    1e88:	00e58a63          	beq	a1,a4,1e9c <_ZL12initiate_bssv+0xc0>
#     *ptr++ = char(ch);
    1e8c:	00078223          	sb	zero,4(a5)
#   while (n--) {
    1e90:	00400713          	li	a4,4
    1e94:	00e58463          	beq	a1,a4,1e9c <_ZL12initiate_bssv+0xc0>
#     *ptr++ = char(ch);
    1e98:	000782a3          	sb	zero,5(a5)
# }
    1e9c:	00008067          	ret
#     *ptr++ = char(ch);
    1ea0:	00003637          	lui	a2,0x3
    1ea4:	c0d60613          	addi	a2,a2,-1011 # 2c0d <_ZL21input_escape_sequence+0x1>
#   while (n--) {
    1ea8:	ffe70593          	addi	a1,a4,-2
    1eac:	f8dff06f          	j	1e38 <_ZL12initiate_bssv+0x5c>
#     *ptr++ = char(ch);
    1eb0:	00003637          	lui	a2,0x3
    1eb4:	c0e60613          	addi	a2,a2,-1010 # 2c0e <_ZL21input_escape_sequence+0x2>
#   while (n--) {
    1eb8:	ffd70593          	addi	a1,a4,-3
    1ebc:	f7dff06f          	j	1e38 <_ZL12initiate_bssv+0x5c>
#   char *ptr = reinterpret_cast<char *>(str);
    1ec0:	c0c80793          	addi	a5,a6,-1012
    1ec4:	f9dff06f          	j	1e60 <_ZL12initiate_bssv+0x84>

00001ec8 <_ZL16initiate_staticsv>:
# 
# static auto initiate_statics() -> void {}
    1ec8:	00008067          	ret

00001ecc <_ZL4exiti>:
# 
    1ecc:	00008067          	ret
