
os:     file format elf32-littleriscv


Disassembly of section .text:

00000000 <_start>:
# # generated - do not edit (see `configuration.py`)
# .global _start
# _start:
#     li sp, 0x200000
       0:	00200137          	lui	sp,0x200
#     j run
       4:	0040006f          	j	8 <run>

00000008 <run>:
       8:	f8010113          	addi	sp,sp,-128 # 1fff80 <__bss_end+0x1fe314>
       c:	06112e23          	sw	ra,124(sp)
      10:	06812c23          	sw	s0,120(sp)
      14:	07212823          	sw	s2,112(sp)
      18:	07312623          	sw	s3,108(sp)
      1c:	07412423          	sw	s4,104(sp)
      20:	07512223          	sw	s5,100(sp)
      24:	06912a23          	sw	s1,116(sp)
      28:	15c010ef          	jal	1184 <_ZL12initiate_bssv>
# 
#   led_set(0);
#   // turn all leds on
# 
#   entity_id_t active_entity = 1;
#   command_buffer cmd_buf{};
      2c:	05200613          	li	a2,82
      30:	00000593          	li	a1,0
# static auto led_set(uint8_t bits) -> void { *LED = bits; }
      34:	fe000fa3          	sb	zero,-1(zero) # ffffffff <__bss_end+0xffffe393>
      38:	00c10513          	addi	a0,sp,12
      3c:	12c010ef          	jal	1168 <memset>
# 
#   uart_send_str(ascii_art);
      40:	000027b7          	lui	a5,0x2
      44:	c607a503          	lw	a0,-928(a5) # 1c60 <_ZL9ascii_art>
#   entity_id_t active_entity = 1;
      48:	00100413          	li	s0,1
#   uart_send_str(hello);
# 
#   while (true) {
#     entity const &ent = entities[active_entity];
#     print_location(ent.location, active_entity);
      4c:	00002ab7          	lui	s5,0x2
#   uart_send_str(ascii_art);
      50:	038010ef          	jal	1088 <_ZL13uart_send_strPKc>
#   uart_send_str(hello);
      54:	000027b7          	lui	a5,0x2
      58:	c5c7a503          	lw	a0,-932(a5) # 1c5c <_ZL5hello>
#     uart_send_str(ent.name);
#     uart_send_str(" > ");
      5c:	00001a37          	lui	s4,0x1
#     input(cmd_buf);
#     uart_send_str("\r\n");
      60:	000019b7          	lui	s3,0x1
#   uart_send_str(hello);
      64:	024010ef          	jal	1088 <_ZL13uart_send_strPKc>
#     handle_input(active_entity, cmd_buf);
#     active_entity = active_entity == 1 ? 2 : 1;
      68:	00300913          	li	s2,3
#     print_location(ent.location, active_entity);
      6c:	00141793          	slli	a5,s0,0x1
      70:	008787b3          	add	a5,a5,s0
      74:	00279793          	slli	a5,a5,0x2
      78:	408787b3          	sub	a5,a5,s0
      7c:	00279793          	slli	a5,a5,0x2
      80:	8a0a8493          	addi	s1,s5,-1888 # 18a0 <_ZL8entities>
      84:	00f484b3          	add	s1,s1,a5
      88:	0044c503          	lbu	a0,4(s1)
      8c:	00040593          	mv	a1,s0
      90:	2d4000ef          	jal	364 <_ZL14print_locationhh>
#     uart_send_str(ent.name);
      94:	0004a503          	lw	a0,0(s1)
      98:	7f1000ef          	jal	1088 <_ZL13uart_send_strPKc>
#     uart_send_str(" > ");
      9c:	5d4a0513          	addi	a0,s4,1492 # 15d4 <_ZNK14command_buffer33apply_on_chars_from_cursor_to_endIZL5inputRS_EUlcE_EEvOT_.isra.0+0x428>
      a0:	7e9000ef          	jal	1088 <_ZL13uart_send_strPKc>
#     input(cmd_buf);
      a4:	00c10513          	addi	a0,sp,12
      a8:	43d000ef          	jal	ce4 <_ZL5inputR14command_buffer>
#     uart_send_str("\r\n");
      ac:	5d898513          	addi	a0,s3,1496 # 15d8 <_ZNK14command_buffer33apply_on_chars_from_cursor_to_endIZL5inputRS_EUlcE_EEvOT_.isra.0+0x42c>
      b0:	7d9000ef          	jal	1088 <_ZL13uart_send_strPKc>
#     handle_input(active_entity, cmd_buf);
      b4:	00040513          	mv	a0,s0
      b8:	00c10593          	addi	a1,sp,12
#     active_entity = active_entity == 1 ? 2 : 1;
      bc:	40890433          	sub	s0,s2,s0
#     handle_input(active_entity, cmd_buf);
      c0:	00c000ef          	jal	cc <_ZL12handle_inputhR14command_buffer>
#     active_entity = active_entity == 1 ? 2 : 1;
      c4:	0ff47413          	zext.b	s0,s0
      c8:	fa5ff06f          	j	6c <run+0x64>

000000cc <_ZL12handle_inputhR14command_buffer>:
#   }
# }
# 
# static auto handle_input(entity_id_t const eid,
#                          command_buffer &cmd_buf) -> void {
      cc:	fd010113          	addi	sp,sp,-48
      d0:	02912223          	sw	s1,36(sp)
      d4:	03212023          	sw	s2,32(sp)
      d8:	00050493          	mv	s1,a0
      dc:	02112623          	sw	ra,44(sp)
      e0:	02812423          	sw	s0,40(sp)
      e4:	00010793          	mv	a5,sp
#   char const *words[8];
#   char *ptr = cmd_buf.command_line();
#   size_t nwords = 0;
      e8:	00000913          	li	s2,0
#   while (true) {
#     words[nwords] = ptr;
#     ++nwords;
#     while (*ptr && *ptr != ' ') {
      ec:	02000513          	li	a0,32
#     if (!*ptr) {
#       break;
#     }
#     *ptr = '\0';
#     ++ptr;
#     if (nwords == sizeof(words) / sizeof(char const *)) {
      f0:	00800613          	li	a2,8
#     words[nwords] = ptr;
      f4:	00b7a023          	sw	a1,0(a5)
#     ++nwords;
      f8:	00190913          	addi	s2,s2,1
#     while (*ptr && *ptr != ' ') {
      fc:	0005c683          	lbu	a3,0(a1)
#       ++ptr;
     100:	00058713          	mv	a4,a1
#     while (*ptr && *ptr != ' ') {
     104:	02068263          	beqz	a3,128 <_ZL12handle_inputhR14command_buffer+0x5c>
#       ++ptr;
     108:	00158593          	addi	a1,a1,1
#     while (*ptr && *ptr != ' ') {
     10c:	fea698e3          	bne	a3,a0,fc <_ZL12handle_inputhR14command_buffer+0x30>
#     *ptr = '\0';
     110:	00070023          	sb	zero,0(a4)
#     if (nwords == sizeof(words) / sizeof(char const *)) {
     114:	00478793          	addi	a5,a5,4
     118:	fcc91ee3          	bne	s2,a2,f4 <_ZL12handle_inputhR14command_buffer+0x28>
#       uart_send_str("too many words, some ignored\r\n\r\n");
     11c:	00001537          	lui	a0,0x1
     120:	5dc50513          	addi	a0,a0,1500 # 15dc <_ZNK14command_buffer33apply_on_chars_from_cursor_to_endIZL5inputRS_EUlcE_EEvOT_.isra.0+0x430>
     124:	765000ef          	jal	1088 <_ZL13uart_send_strPKc>
#   }
#   // for (size_t i = 0; i < nwords; i++) {
#   //   uart_send_str(words[i]);
#   //   uart_send_str("\r\n");
#   // }
#   if (strings_equal(words[0], "help")) {
     128:	00012403          	lw	s0,0(sp)
     12c:	000015b7          	lui	a1,0x1
     130:	60058593          	addi	a1,a1,1536 # 1600 <_ZNK14command_buffer33apply_on_chars_from_cursor_to_endIZL5inputRS_EUlcE_EEvOT_.isra.0+0x454>
     134:	00040513          	mv	a0,s0
     138:	671000ef          	jal	fa8 <_ZL13strings_equalPKcS0_>
     13c:	00050e63          	beqz	a0,158 <_ZL12handle_inputhR14command_buffer+0x8c>
#   } else if (strings_equal(words[0], "q")) {
#     exit(0);
#   } else {
#     uart_send_str("not understood\r\n\r\n");
#   }
# }
     140:	02812403          	lw	s0,40(sp)
     144:	02c12083          	lw	ra,44(sp)
     148:	02412483          	lw	s1,36(sp)
     14c:	02012903          	lw	s2,32(sp)
     150:	03010113          	addi	sp,sp,48
#     print_help();
     154:	3710006f          	j	cc4 <_ZL10print_helpv>
#   } else if (strings_equal(words[0], "i")) {
     158:	000015b7          	lui	a1,0x1
     15c:	60858593          	addi	a1,a1,1544 # 1608 <_ZNK14command_buffer33apply_on_chars_from_cursor_to_endIZL5inputRS_EUlcE_EEvOT_.isra.0+0x45c>
     160:	00040513          	mv	a0,s0
     164:	645000ef          	jal	fa8 <_ZL13strings_equalPKcS0_>
     168:	02050663          	beqz	a0,194 <_ZL12handle_inputhR14command_buffer+0xc8>
#     action_inventory(eid);
     16c:	00048513          	mv	a0,s1
     170:	41c000ef          	jal	58c <_ZL16action_inventoryh>
#     uart_send_str("\r\n");
     174:	00001537          	lui	a0,0x1
     178:	5d850513          	addi	a0,a0,1496 # 15d8 <_ZNK14command_buffer33apply_on_chars_from_cursor_to_endIZL5inputRS_EUlcE_EEvOT_.isra.0+0x42c>
# }
     17c:	02812403          	lw	s0,40(sp)
     180:	02c12083          	lw	ra,44(sp)
     184:	02412483          	lw	s1,36(sp)
     188:	02012903          	lw	s2,32(sp)
     18c:	03010113          	addi	sp,sp,48
#     uart_send_str("not understood\r\n\r\n");
     190:	6f90006f          	j	1088 <_ZL13uart_send_strPKc>
#   } else if (strings_equal(words[0], "t")) {
     194:	000015b7          	lui	a1,0x1
     198:	60c58593          	addi	a1,a1,1548 # 160c <_ZNK14command_buffer33apply_on_chars_from_cursor_to_endIZL5inputRS_EUlcE_EEvOT_.isra.0+0x460>
     19c:	00040513          	mv	a0,s0
     1a0:	609000ef          	jal	fa8 <_ZL13strings_equalPKcS0_>
     1a4:	02050c63          	beqz	a0,1dc <_ZL12handle_inputhR14command_buffer+0x110>
#     if (nwords < 2) {
     1a8:	00100793          	li	a5,1
     1ac:	00f91863          	bne	s2,a5,1bc <_ZL12handle_inputhR14command_buffer+0xf0>
#       uart_send_str("take what\r\n\r\n");
     1b0:	00001537          	lui	a0,0x1
     1b4:	61050513          	addi	a0,a0,1552 # 1610 <_ZNK14command_buffer33apply_on_chars_from_cursor_to_endIZL5inputRS_EUlcE_EEvOT_.isra.0+0x464>
     1b8:	fc5ff06f          	j	17c <_ZL12handle_inputhR14command_buffer+0xb0>
# }
     1bc:	02812403          	lw	s0,40(sp)
#     action_take(eid, words[1]);
     1c0:	00412583          	lw	a1,4(sp)
# }
     1c4:	02c12083          	lw	ra,44(sp)
     1c8:	02012903          	lw	s2,32(sp)
#     action_take(eid, words[1]);
     1cc:	00048513          	mv	a0,s1
# }
     1d0:	02412483          	lw	s1,36(sp)
     1d4:	03010113          	addi	sp,sp,48
#     action_take(eid, words[1]);
     1d8:	4880006f          	j	660 <_ZL11action_takehPKc>
#   } else if (strings_equal(words[0], "d")) {
     1dc:	000015b7          	lui	a1,0x1
     1e0:	62058593          	addi	a1,a1,1568 # 1620 <_ZNK14command_buffer33apply_on_chars_from_cursor_to_endIZL5inputRS_EUlcE_EEvOT_.isra.0+0x474>
     1e4:	00040513          	mv	a0,s0
     1e8:	5c1000ef          	jal	fa8 <_ZL13strings_equalPKcS0_>
     1ec:	02050c63          	beqz	a0,224 <_ZL12handle_inputhR14command_buffer+0x158>
#     if (nwords < 2) {
     1f0:	00100793          	li	a5,1
     1f4:	00f91863          	bne	s2,a5,204 <_ZL12handle_inputhR14command_buffer+0x138>
#       uart_send_str("drop what\r\n\r\n");
     1f8:	00001537          	lui	a0,0x1
     1fc:	62450513          	addi	a0,a0,1572 # 1624 <_ZNK14command_buffer33apply_on_chars_from_cursor_to_endIZL5inputRS_EUlcE_EEvOT_.isra.0+0x478>
     200:	f7dff06f          	j	17c <_ZL12handle_inputhR14command_buffer+0xb0>
# }
     204:	02812403          	lw	s0,40(sp)
#     action_drop(eid, words[1]);
     208:	00412583          	lw	a1,4(sp)
# }
     20c:	02c12083          	lw	ra,44(sp)
     210:	02012903          	lw	s2,32(sp)
#     action_drop(eid, words[1]);
     214:	00048513          	mv	a0,s1
# }
     218:	02412483          	lw	s1,36(sp)
     21c:	03010113          	addi	sp,sp,48
#     action_drop(eid, words[1]);
     220:	5ec0006f          	j	80c <_ZL11action_drophPKc>
#   } else if (strings_equal(words[0], "n")) {
     224:	000015b7          	lui	a1,0x1
     228:	63458593          	addi	a1,a1,1588 # 1634 <_ZNK14command_buffer33apply_on_chars_from_cursor_to_endIZL5inputRS_EUlcE_EEvOT_.isra.0+0x488>
     22c:	00040513          	mv	a0,s0
     230:	579000ef          	jal	fa8 <_ZL13strings_equalPKcS0_>
#     action_go(eid, 0);
     234:	00000593          	li	a1,0
#   } else if (strings_equal(words[0], "n")) {
     238:	00051e63          	bnez	a0,254 <_ZL12handle_inputhR14command_buffer+0x188>
#   } else if (strings_equal(words[0], "e")) {
     23c:	000015b7          	lui	a1,0x1
     240:	63858593          	addi	a1,a1,1592 # 1638 <_ZNK14command_buffer33apply_on_chars_from_cursor_to_endIZL5inputRS_EUlcE_EEvOT_.isra.0+0x48c>
     244:	00040513          	mv	a0,s0
     248:	561000ef          	jal	fa8 <_ZL13strings_equalPKcS0_>
     24c:	02050263          	beqz	a0,270 <_ZL12handle_inputhR14command_buffer+0x1a4>
#     action_go(eid, 1);
     250:	00100593          	li	a1,1
# }
     254:	02812403          	lw	s0,40(sp)
     258:	02c12083          	lw	ra,44(sp)
     25c:	02012903          	lw	s2,32(sp)
#     action_go(eid, 1);
     260:	00048513          	mv	a0,s1
# }
     264:	02412483          	lw	s1,36(sp)
     268:	03010113          	addi	sp,sp,48
#     action_go(eid, 1);
     26c:	7300006f          	j	99c <_ZL9action_gohh>
#   } else if (strings_equal(words[0], "s")) {
     270:	000015b7          	lui	a1,0x1
     274:	63c58593          	addi	a1,a1,1596 # 163c <_ZNK14command_buffer33apply_on_chars_from_cursor_to_endIZL5inputRS_EUlcE_EEvOT_.isra.0+0x490>
     278:	00040513          	mv	a0,s0
     27c:	52d000ef          	jal	fa8 <_ZL13strings_equalPKcS0_>
#     action_go(eid, 2);
     280:	00200593          	li	a1,2
#   } else if (strings_equal(words[0], "s")) {
     284:	fc0518e3          	bnez	a0,254 <_ZL12handle_inputhR14command_buffer+0x188>
#   } else if (strings_equal(words[0], "w")) {
     288:	000015b7          	lui	a1,0x1
     28c:	64058593          	addi	a1,a1,1600 # 1640 <_ZNK14command_buffer33apply_on_chars_from_cursor_to_endIZL5inputRS_EUlcE_EEvOT_.isra.0+0x494>
     290:	00040513          	mv	a0,s0
     294:	515000ef          	jal	fa8 <_ZL13strings_equalPKcS0_>
#     action_go(eid, 3);
     298:	00300593          	li	a1,3
#   } else if (strings_equal(words[0], "w")) {
     29c:	fa051ce3          	bnez	a0,254 <_ZL12handle_inputhR14command_buffer+0x188>
#   } else if (strings_equal(words[0], "g")) {
     2a0:	000015b7          	lui	a1,0x1
     2a4:	64458593          	addi	a1,a1,1604 # 1644 <_ZNK14command_buffer33apply_on_chars_from_cursor_to_endIZL5inputRS_EUlcE_EEvOT_.isra.0+0x498>
     2a8:	00040513          	mv	a0,s0
     2ac:	4fd000ef          	jal	fa8 <_ZL13strings_equalPKcS0_>
     2b0:	04050863          	beqz	a0,300 <_ZL12handle_inputhR14command_buffer+0x234>
#     if (nwords < 2) {
     2b4:	00100793          	li	a5,1
     2b8:	00f91863          	bne	s2,a5,2c8 <_ZL12handle_inputhR14command_buffer+0x1fc>
#       uart_send_str("give what\r\n\r\n");
     2bc:	00001537          	lui	a0,0x1
     2c0:	64850513          	addi	a0,a0,1608 # 1648 <_ZNK14command_buffer33apply_on_chars_from_cursor_to_endIZL5inputRS_EUlcE_EEvOT_.isra.0+0x49c>
     2c4:	eb9ff06f          	j	17c <_ZL12handle_inputhR14command_buffer+0xb0>
#     if (nwords < 3) {
     2c8:	00200793          	li	a5,2
     2cc:	00f91863          	bne	s2,a5,2dc <_ZL12handle_inputhR14command_buffer+0x210>
#       uart_send_str("give to whom\r\n\r\n");
     2d0:	00001537          	lui	a0,0x1
     2d4:	65850513          	addi	a0,a0,1624 # 1658 <_ZNK14command_buffer33apply_on_chars_from_cursor_to_endIZL5inputRS_EUlcE_EEvOT_.isra.0+0x4ac>
     2d8:	ea5ff06f          	j	17c <_ZL12handle_inputhR14command_buffer+0xb0>
# }
     2dc:	02812403          	lw	s0,40(sp)
#     action_give(eid, words[1], words[2]);
     2e0:	00812603          	lw	a2,8(sp)
     2e4:	00412583          	lw	a1,4(sp)
# }
     2e8:	02c12083          	lw	ra,44(sp)
     2ec:	02012903          	lw	s2,32(sp)
#     action_give(eid, words[1], words[2]);
     2f0:	00048513          	mv	a0,s1
# }
     2f4:	02412483          	lw	s1,36(sp)
     2f8:	03010113          	addi	sp,sp,48
#     action_give(eid, words[1], words[2]);
     2fc:	7a00006f          	j	a9c <_ZL11action_givehPKcS0_>
#   } else if (strings_equal(words[0], "m")) {
     300:	000015b7          	lui	a1,0x1
     304:	66c58593          	addi	a1,a1,1644 # 166c <_ZNK14command_buffer33apply_on_chars_from_cursor_to_endIZL5inputRS_EUlcE_EEvOT_.isra.0+0x4c0>
     308:	00040513          	mv	a0,s0
     30c:	49d000ef          	jal	fa8 <_ZL13strings_equalPKcS0_>
     310:	00050e63          	beqz	a0,32c <_ZL12handle_inputhR14command_buffer+0x260>
# }
     314:	02812403          	lw	s0,40(sp)
     318:	02c12083          	lw	ra,44(sp)
     31c:	02412483          	lw	s1,36(sp)
     320:	02012903          	lw	s2,32(sp)
     324:	03010113          	addi	sp,sp,48
#     action_mem_test();
     328:	5a10006f          	j	10c8 <_ZL15action_mem_testv>
#   } else if (strings_equal(words[0], "q")) {
     32c:	000015b7          	lui	a1,0x1
     330:	67058593          	addi	a1,a1,1648 # 1670 <_ZNK14command_buffer33apply_on_chars_from_cursor_to_endIZL5inputRS_EUlcE_EEvOT_.isra.0+0x4c4>
     334:	00040513          	mv	a0,s0
     338:	471000ef          	jal	fa8 <_ZL13strings_equalPKcS0_>
     33c:	00051863          	bnez	a0,34c <_ZL12handle_inputhR14command_buffer+0x280>
#     uart_send_str("not understood\r\n\r\n");
     340:	00001537          	lui	a0,0x1
     344:	67450513          	addi	a0,a0,1652 # 1674 <_ZNK14command_buffer33apply_on_chars_from_cursor_to_endIZL5inputRS_EUlcE_EEvOT_.isra.0+0x4c8>
     348:	e35ff06f          	j	17c <_ZL12handle_inputhR14command_buffer+0xb0>
# }
     34c:	02c12083          	lw	ra,44(sp)
     350:	02812403          	lw	s0,40(sp)
     354:	02412483          	lw	s1,36(sp)
     358:	02012903          	lw	s2,32(sp)
     35c:	03010113          	addi	sp,sp,48
     360:	00008067          	ret

00000364 <_ZL14print_locationhh>:
# 
# static auto print_location(location_id_t const lid,
#                            entity_id_t const eid_exclude_from_output) -> void {
     364:	fb010113          	addi	sp,sp,-80
     368:	03312e23          	sw	s3,60(sp)
     36c:	00050993          	mv	s3,a0
#   location &loc = locations[lid];
#   uart_send_str("u r in ");
     370:	00001537          	lui	a0,0x1
     374:	68850513          	addi	a0,a0,1672 # 1688 <_ZNK14command_buffer33apply_on_chars_from_cursor_to_endIZL5inputRS_EUlcE_EEvOT_.isra.0+0x4dc>
#                            entity_id_t const eid_exclude_from_output) -> void {
     378:	04112623          	sw	ra,76(sp)
     37c:	00b12623          	sw	a1,12(sp)
     380:	04812423          	sw	s0,72(sp)
     384:	04912223          	sw	s1,68(sp)
     388:	05212023          	sw	s2,64(sp)
     38c:	03412c23          	sw	s4,56(sp)
     390:	03512a23          	sw	s5,52(sp)
     394:	03712623          	sw	s7,44(sp)
     398:	03812423          	sw	s8,40(sp)
     39c:	03912223          	sw	s9,36(sp)
     3a0:	03612823          	sw	s6,48(sp)
     3a4:	03a12023          	sw	s10,32(sp)
     3a8:	01b12e23          	sw	s11,28(sp)
#   uart_send_str(loc.name);
     3ac:	00299913          	slli	s2,s3,0x2
#   uart_send_str("u r in ");
     3b0:	4d9000ef          	jal	1088 <_ZL13uart_send_strPKc>
#   uart_send_str(loc.name);
     3b4:	000024b7          	lui	s1,0x2
     3b8:	013907b3          	add	a5,s2,s3
     3bc:	00579793          	slli	a5,a5,0x5
     3c0:	92448413          	addi	s0,s1,-1756 # 1924 <_ZL9locations>
     3c4:	00f40433          	add	s0,s0,a5
     3c8:	00042503          	lw	a0,0(s0)
     3cc:	00040a93          	mv	s5,s0
#     for (size_t i = 0; i < len; ++i) {
     3d0:	00040b93          	mv	s7,s0
#   uart_send_str(loc.name);
     3d4:	4b5000ef          	jal	1088 <_ZL13uart_send_strPKc>
#   uart_send_str("\r\nu c: ");
     3d8:	00001537          	lui	a0,0x1
     3dc:	69050513          	addi	a0,a0,1680 # 1690 <_ZNK14command_buffer33apply_on_chars_from_cursor_to_endIZL5inputRS_EUlcE_EEvOT_.isra.0+0x4e4>
     3e0:	4a9000ef          	jal	1088 <_ZL13uart_send_strPKc>
#     for (size_t i = 0; i < len; ++i) {
     3e4:	00000a13          	li	s4,0
     3e8:	92448493          	addi	s1,s1,-1756
#   // print objects at location
#   {
#     uint32_t counter = 0;
#     loc.objects.for_each_until_false([&](object_id_t const id) {
#       if (counter++) {
#         uart_send_str(", ");
     3ec:	00001c37          	lui	s8,0x1
#       }
#       uart_send_str(objects[id].name);
     3f0:	00002cb7          	lui	s9,0x2
#     for (size_t i = 0; i < len; ++i) {
     3f4:	08442783          	lw	a5,132(s0)
     3f8:	0cfa6a63          	bltu	s4,a5,4cc <_ZL14print_locationhh+0x168>
#       return true;
#     });
#     if (!counter) {
     3fc:	000a1863          	bnez	s4,40c <_ZL14print_locationhh+0xa8>
#       uart_send_str("nothing");
     400:	00001537          	lui	a0,0x1
     404:	69c50513          	addi	a0,a0,1692 # 169c <_ZNK14command_buffer33apply_on_chars_from_cursor_to_endIZL5inputRS_EUlcE_EEvOT_.isra.0+0x4f0>
     408:	481000ef          	jal	1088 <_ZL13uart_send_strPKc>
#     }
#     uart_send_str("\r\n");
     40c:	00001bb7          	lui	s7,0x1
     410:	5d8b8513          	addi	a0,s7,1496 # 15d8 <_ZNK14command_buffer33apply_on_chars_from_cursor_to_endIZL5inputRS_EUlcE_EEvOT_.isra.0+0x42c>
#     for (size_t i = 0; i < len; ++i) {
     414:	01390a33          	add	s4,s2,s3
#     uart_send_str("\r\n");
     418:	471000ef          	jal	1088 <_ZL13uart_send_strPKc>
#     for (size_t i = 0; i < len; ++i) {
     41c:	005a1a13          	slli	s4,s4,0x5
#   }
# 
#   // print entities in location
#   {
#     uint32_t counter = 0;
     420:	00000793          	li	a5,0
#     for (size_t i = 0; i < len; ++i) {
     424:	00000b13          	li	s6,0
     428:	01448a33          	add	s4,s1,s4
#         return true;
#       }
#       if (counter++) {
#         uart_send_str(", ");
#       }
#       uart_send_str(entities[id].name);
     42c:	00002c37          	lui	s8,0x2
#         uart_send_str(", ");
     430:	00001cb7          	lui	s9,0x1
#     for (size_t i = 0; i < len; ++i) {
     434:	090a2683          	lw	a3,144(s4)
     438:	0cdb6263          	bltu	s6,a3,4fc <_ZL14print_locationhh+0x198>
#       return true;
#     });
#     if (counter != 0) {
     43c:	00078863          	beqz	a5,44c <_ZL14print_locationhh+0xe8>
#       uart_send_str(" is here\r\n");
     440:	00001537          	lui	a0,0x1
     444:	6a450513          	addi	a0,a0,1700 # 16a4 <_ZNK14command_buffer33apply_on_chars_from_cursor_to_endIZL5inputRS_EUlcE_EEvOT_.isra.0+0x4f8>
     448:	441000ef          	jal	1088 <_ZL13uart_send_strPKc>
#   auto length() const -> size_t { return len; }
     44c:	01390933          	add	s2,s2,s3
     450:	00591913          	slli	s2,s2,0x5
#   }
# 
#   // print exits from location
#   {
#     uint32_t counter = 0;
#     uart_send_str("exits: ");
     454:	00001537          	lui	a0,0x1
#   auto length() const -> size_t { return len; }
     458:	012484b3          	add	s1,s1,s2
#     uart_send_str("exits: ");
     45c:	6b050513          	addi	a0,a0,1712 # 16b0 <_ZNK14command_buffer33apply_on_chars_from_cursor_to_endIZL5inputRS_EUlcE_EEvOT_.isra.0+0x504>
     460:	429000ef          	jal	1088 <_ZL13uart_send_strPKc>
#   auto length() const -> size_t { return len; }
     464:	09c4a983          	lw	s3,156(s1)
#     auto &lse = loc.exits;
#     size_t const n = lse.length();
#     for (size_t i = 0; i < n; ++i) {
     468:	00002437          	lui	s0,0x2
     46c:	c4440413          	addi	s0,s0,-956 # 1c44 <_ZL10exit_names>
     470:	00000913          	li	s2,0
#     uint32_t counter = 0;
     474:	00000793          	li	a5,0
#     for (size_t i = 0; i < n; ++i) {
     478:	0d391a63          	bne	s2,s3,54c <_ZL14print_locationhh+0x1e8>
#       if (counter++) {
#         uart_send_str(", ");
#       }
#       uart_send_str(exit_names[i]);
#     }
#     if (counter == 0) {
     47c:	00079863          	bnez	a5,48c <_ZL14print_locationhh+0x128>
#       uart_send_str("none");
     480:	00001537          	lui	a0,0x1
     484:	6b850513          	addi	a0,a0,1720 # 16b8 <_ZNK14command_buffer33apply_on_chars_from_cursor_to_endIZL5inputRS_EUlcE_EEvOT_.isra.0+0x50c>
     488:	401000ef          	jal	1088 <_ZL13uart_send_strPKc>
#     }
#     uart_send_str("\r\n");
#   }
# }
     48c:	04812403          	lw	s0,72(sp)
     490:	04c12083          	lw	ra,76(sp)
     494:	04412483          	lw	s1,68(sp)
     498:	04012903          	lw	s2,64(sp)
     49c:	03c12983          	lw	s3,60(sp)
     4a0:	03812a03          	lw	s4,56(sp)
     4a4:	03412a83          	lw	s5,52(sp)
     4a8:	03012b03          	lw	s6,48(sp)
     4ac:	02812c03          	lw	s8,40(sp)
     4b0:	02412c83          	lw	s9,36(sp)
     4b4:	02012d03          	lw	s10,32(sp)
     4b8:	01c12d83          	lw	s11,28(sp)
#     uart_send_str("\r\n");
     4bc:	5d8b8513          	addi	a0,s7,1496
# }
     4c0:	02c12b83          	lw	s7,44(sp)
     4c4:	05010113          	addi	sp,sp,80
#     uart_send_str("\r\n");
     4c8:	3c10006f          	j	1088 <_ZL13uart_send_strPKc>
#       if (!f(data[i])) {
     4cc:	004bcd03          	lbu	s10,4(s7)
#       if (counter++) {
     4d0:	000a0663          	beqz	s4,4dc <_ZL14print_locationhh+0x178>
#         uart_send_str(", ");
     4d4:	698c0513          	addi	a0,s8,1688 # 2698 <__bss_end+0xa2c>
     4d8:	3b1000ef          	jal	1088 <_ZL13uart_send_strPKc>
#       uart_send_str(objects[id].name);
     4dc:	890c8793          	addi	a5,s9,-1904 # 890 <_ZL11action_drophPKc+0x84>
     4e0:	002d1d13          	slli	s10,s10,0x2
     4e4:	01a787b3          	add	a5,a5,s10
     4e8:	0007a503          	lw	a0,0(a5)
     4ec:	001a0a13          	addi	s4,s4,1
     4f0:	001b8b93          	addi	s7,s7,1
     4f4:	395000ef          	jal	1088 <_ZL13uart_send_strPKc>
#     for (size_t i = 0; i < len; ++i) {
     4f8:	efdff06f          	j	3f4 <_ZL14print_locationhh+0x90>
#       if (!f(data[i])) {
     4fc:	08844d83          	lbu	s11,136(s0)
#       if (id == eid_exclude_from_output) {
     500:	00c12703          	lw	a4,12(sp)
     504:	03b70e63          	beq	a4,s11,540 <_ZL14print_locationhh+0x1dc>
#       if (counter++) {
     508:	00178d13          	addi	s10,a5,1
     50c:	00078663          	beqz	a5,518 <_ZL14print_locationhh+0x1b4>
#         uart_send_str(", ");
     510:	698c8513          	addi	a0,s9,1688
     514:	375000ef          	jal	1088 <_ZL13uart_send_strPKc>
#       uart_send_str(entities[id].name);
     518:	001d9793          	slli	a5,s11,0x1
     51c:	01b787b3          	add	a5,a5,s11
     520:	00279793          	slli	a5,a5,0x2
     524:	41b787b3          	sub	a5,a5,s11
     528:	8a0c0693          	addi	a3,s8,-1888
     52c:	00279793          	slli	a5,a5,0x2
     530:	00f687b3          	add	a5,a3,a5
     534:	0007a503          	lw	a0,0(a5)
     538:	351000ef          	jal	1088 <_ZL13uart_send_strPKc>
#       if (counter++) {
     53c:	000d0793          	mv	a5,s10
#     for (size_t i = 0; i < len; ++i) {
     540:	001b0b13          	addi	s6,s6,1
     544:	00140413          	addi	s0,s0,1
     548:	eedff06f          	j	434 <_ZL14print_locationhh+0xd0>
#     if (ix < len) {
     54c:	09c4a703          	lw	a4,156(s1)
     550:	02e97663          	bgeu	s2,a4,57c <_ZL14print_locationhh+0x218>
#       if (!lse.at(i)) {
     554:	094ac703          	lbu	a4,148(s5)
     558:	02070263          	beqz	a4,57c <_ZL14print_locationhh+0x218>
#       if (counter++) {
     55c:	00178a13          	addi	s4,a5,1
     560:	00078863          	beqz	a5,570 <_ZL14print_locationhh+0x20c>
#         uart_send_str(", ");
     564:	00001537          	lui	a0,0x1
     568:	69850513          	addi	a0,a0,1688 # 1698 <_ZNK14command_buffer33apply_on_chars_from_cursor_to_endIZL5inputRS_EUlcE_EEvOT_.isra.0+0x4ec>
     56c:	31d000ef          	jal	1088 <_ZL13uart_send_strPKc>
#       uart_send_str(exit_names[i]);
     570:	00042503          	lw	a0,0(s0)
     574:	315000ef          	jal	1088 <_ZL13uart_send_strPKc>
#       if (counter++) {
     578:	000a0793          	mv	a5,s4
#     for (size_t i = 0; i < n; ++i) {
     57c:	00190913          	addi	s2,s2,1
     580:	00440413          	addi	s0,s0,4
     584:	001a8a93          	addi	s5,s5,1
     588:	ef1ff06f          	j	478 <_ZL14print_locationhh+0x114>

0000058c <_ZL16action_inventoryh>:
# 
# static auto action_inventory(entity_id_t const eid) -> void {
     58c:	fe010113          	addi	sp,sp,-32
     590:	00912a23          	sw	s1,20(sp)
     594:	00050493          	mv	s1,a0
     598:	00812c23          	sw	s0,24(sp)
#   uart_send_str("u have: ");
     59c:	00001537          	lui	a0,0x1
     5a0:	00149413          	slli	s0,s1,0x1
     5a4:	00940433          	add	s0,s0,s1
     5a8:	6c050513          	addi	a0,a0,1728 # 16c0 <_ZNK14command_buffer33apply_on_chars_from_cursor_to_endIZL5inputRS_EUlcE_EEvOT_.isra.0+0x514>
# static auto action_inventory(entity_id_t const eid) -> void {
     5ac:	01312623          	sw	s3,12(sp)
     5b0:	01412423          	sw	s4,8(sp)
     5b4:	01512223          	sw	s5,4(sp)
     5b8:	00112e23          	sw	ra,28(sp)
     5bc:	01212823          	sw	s2,16(sp)
     5c0:	00241413          	slli	s0,s0,0x2
#   uart_send_str("u have: ");
     5c4:	2c5000ef          	jal	1088 <_ZL13uart_send_strPKc>
#   uint32_t counter = 0;
#   entities[eid].objects.for_each_until_false([&](object_id_t const id) {
     5c8:	40940433          	sub	s0,s0,s1
     5cc:	000027b7          	lui	a5,0x2
     5d0:	00241413          	slli	s0,s0,0x2
     5d4:	8a078793          	addi	a5,a5,-1888 # 18a0 <_ZL8entities>
     5d8:	00f40433          	add	s0,s0,a5
#     for (size_t i = 0; i < len; ++i) {
     5dc:	00000493          	li	s1,0
     5e0:	00040993          	mv	s3,s0
#     if (counter++) {
#       uart_send_str(", ");
     5e4:	00001a37          	lui	s4,0x1
#     }
#     uart_send_str(objects[id].name);
     5e8:	00002ab7          	lui	s5,0x2
#     for (size_t i = 0; i < len; ++i) {
     5ec:	0289a783          	lw	a5,40(s3)
     5f0:	04f4e063          	bltu	s1,a5,630 <_ZL16action_inventoryh+0xa4>
#     return true;
#   });
#   if (counter == 0) {
     5f4:	00049863          	bnez	s1,604 <_ZL16action_inventoryh+0x78>
#     uart_send_str("nothing");
     5f8:	00001537          	lui	a0,0x1
     5fc:	69c50513          	addi	a0,a0,1692 # 169c <_ZNK14command_buffer33apply_on_chars_from_cursor_to_endIZL5inputRS_EUlcE_EEvOT_.isra.0+0x4f0>
     600:	289000ef          	jal	1088 <_ZL13uart_send_strPKc>
#   }
#   uart_send_str("\r\n");
# }
     604:	01812403          	lw	s0,24(sp)
     608:	01c12083          	lw	ra,28(sp)
     60c:	01412483          	lw	s1,20(sp)
     610:	01012903          	lw	s2,16(sp)
     614:	00c12983          	lw	s3,12(sp)
     618:	00812a03          	lw	s4,8(sp)
     61c:	00412a83          	lw	s5,4(sp)
#   uart_send_str("\r\n");
     620:	00001537          	lui	a0,0x1
     624:	5d850513          	addi	a0,a0,1496 # 15d8 <_ZNK14command_buffer33apply_on_chars_from_cursor_to_endIZL5inputRS_EUlcE_EEvOT_.isra.0+0x42c>
# }
     628:	02010113          	addi	sp,sp,32
#   uart_send_str("\r\n");
     62c:	25d0006f          	j	1088 <_ZL13uart_send_strPKc>
#       if (!f(data[i])) {
     630:	00844903          	lbu	s2,8(s0)
#     if (counter++) {
     634:	00048663          	beqz	s1,640 <_ZL16action_inventoryh+0xb4>
#       uart_send_str(", ");
     638:	698a0513          	addi	a0,s4,1688 # 1698 <_ZNK14command_buffer33apply_on_chars_from_cursor_to_endIZL5inputRS_EUlcE_EEvOT_.isra.0+0x4ec>
     63c:	24d000ef          	jal	1088 <_ZL13uart_send_strPKc>
#     uart_send_str(objects[id].name);
     640:	890a8793          	addi	a5,s5,-1904 # 1890 <_ZL7objects>
     644:	00291913          	slli	s2,s2,0x2
     648:	012787b3          	add	a5,a5,s2
     64c:	0007a503          	lw	a0,0(a5)
     650:	00148493          	addi	s1,s1,1
     654:	00140413          	addi	s0,s0,1
     658:	231000ef          	jal	1088 <_ZL13uart_send_strPKc>
#     for (size_t i = 0; i < len; ++i) {
     65c:	f91ff06f          	j	5ec <_ZL16action_inventoryh+0x60>

00000660 <_ZL11action_takehPKc>:
# 
# static auto action_take(entity_id_t const eid, name_t const obj_nm) -> void {
     660:	fb010113          	addi	sp,sp,-80
     664:	04812423          	sw	s0,72(sp)
#   entity &ent = entities[eid];
#   auto &lso = locations[ent.location].objects;
     668:	00151413          	slli	s0,a0,0x1
     66c:	00a40733          	add	a4,s0,a0
     670:	00271713          	slli	a4,a4,0x2
     674:	000027b7          	lui	a5,0x2
     678:	40a70733          	sub	a4,a4,a0
     67c:	8a078693          	addi	a3,a5,-1888 # 18a0 <_ZL8entities>
     680:	00271713          	slli	a4,a4,0x2
     684:	00e68733          	add	a4,a3,a4
# static auto action_take(entity_id_t const eid, name_t const obj_nm) -> void {
     688:	04912223          	sw	s1,68(sp)
     68c:	03312e23          	sw	s3,60(sp)
     690:	03412c23          	sw	s4,56(sp)
     694:	03512a23          	sw	s5,52(sp)
     698:	03612823          	sw	s6,48(sp)
     69c:	03712623          	sw	s7,44(sp)
     6a0:	03812423          	sw	s8,40(sp)
     6a4:	03a12023          	sw	s10,32(sp)
     6a8:	01b12e23          	sw	s11,28(sp)
     6ac:	04112623          	sw	ra,76(sp)
     6b0:	05212023          	sw	s2,64(sp)
     6b4:	03912223          	sw	s9,36(sp)
#   auto &lso = locations[ent.location].objects;
     6b8:	00474903          	lbu	s2,4(a4)
#   auto length() const -> size_t { return len; }
     6bc:	000026b7          	lui	a3,0x2
     6c0:	92468a93          	addi	s5,a3,-1756 # 1924 <_ZL9locations>
     6c4:	00291d13          	slli	s10,s2,0x2
     6c8:	012d0733          	add	a4,s10,s2
     6cc:	00571713          	slli	a4,a4,0x5
     6d0:	00ea8ab3          	add	s5,s5,a4
     6d4:	084aa983          	lw	s3,132(s5)
# static auto action_take(entity_id_t const eid, name_t const obj_nm) -> void {
     6d8:	00050a13          	mv	s4,a0
#   size_t const n = lso.length();
#   for (size_t i = 0; i < n; ++i) {
     6dc:	000a8c13          	mv	s8,s5
     6e0:	00000b13          	li	s6,0
     6e4:	8a078493          	addi	s1,a5,-1888
     6e8:	92468d93          	addi	s11,a3,-1756
#     object_id_t const oid = lso.at(i);
#     if (!strings_equal(objects[oid].name, obj_nm)) {
     6ec:	00002bb7          	lui	s7,0x2
#   for (size_t i = 0; i < n; ++i) {
     6f0:	053b1863          	bne	s6,s3,740 <_ZL11action_takehPKc+0xe0>
#     if (ent.objects.add(oid)) {
#       lso.remove_at_index(i);
#     }
#     return;
#   }
#   uart_send_str(obj_nm);
     6f4:	00058513          	mv	a0,a1
     6f8:	191000ef          	jal	1088 <_ZL13uart_send_strPKc>
#   uart_send_str(" not here\r\n\r\n");
# }
     6fc:	04812403          	lw	s0,72(sp)
     700:	04c12083          	lw	ra,76(sp)
     704:	04412483          	lw	s1,68(sp)
     708:	04012903          	lw	s2,64(sp)
     70c:	03c12983          	lw	s3,60(sp)
     710:	03812a03          	lw	s4,56(sp)
     714:	03412a83          	lw	s5,52(sp)
     718:	03012b03          	lw	s6,48(sp)
     71c:	02c12b83          	lw	s7,44(sp)
     720:	02812c03          	lw	s8,40(sp)
     724:	02412c83          	lw	s9,36(sp)
     728:	02012d03          	lw	s10,32(sp)
     72c:	01c12d83          	lw	s11,28(sp)
#   uart_send_str(" not here\r\n\r\n");
     730:	00001537          	lui	a0,0x1
     734:	6cc50513          	addi	a0,a0,1740 # 16cc <_ZNK14command_buffer33apply_on_chars_from_cursor_to_endIZL5inputRS_EUlcE_EEvOT_.isra.0+0x520>
# }
     738:	05010113          	addi	sp,sp,80
#   uart_send_str(" not here\r\n\r\n");
     73c:	14d0006f          	j	1088 <_ZL13uart_send_strPKc>
#       return data[ix];
     740:	004c4c83          	lbu	s9,4(s8)
#     if (!strings_equal(objects[oid].name, obj_nm)) {
     744:	890b8793          	addi	a5,s7,-1904 # 1890 <_ZL7objects>
     748:	00b12623          	sw	a1,12(sp)
     74c:	002c9693          	slli	a3,s9,0x2
     750:	00d787b3          	add	a5,a5,a3
     754:	0007a503          	lw	a0,0(a5)
     758:	051000ef          	jal	fa8 <_ZL13strings_equalPKcS0_>
     75c:	00051a63          	bnez	a0,770 <_ZL11action_takehPKc+0x110>
     760:	00c12583          	lw	a1,12(sp)
     764:	001c0c13          	addi	s8,s8,1
#   for (size_t i = 0; i < n; ++i) {
     768:	001b0b13          	addi	s6,s6,1
     76c:	f85ff06f          	j	6f0 <_ZL11action_takehPKc+0x90>
#     if (len == Size - 1) {
     770:	01440433          	add	s0,s0,s4
     774:	00241413          	slli	s0,s0,0x2
     778:	41440433          	sub	s0,s0,s4
     77c:	00241413          	slli	s0,s0,0x2
     780:	008487b3          	add	a5,s1,s0
     784:	0287a703          	lw	a4,40(a5)
     788:	01f00693          	li	a3,31
     78c:	02d70a63          	beq	a4,a3,7c0 <_ZL11action_takehPKc+0x160>
#     --len;
     790:	012d0933          	add	s2,s10,s2
     794:	00591913          	slli	s2,s2,0x5
#     data[len] = elem;
     798:	00e786b3          	add	a3,a5,a4
#     --len;
     79c:	fff98993          	addi	s3,s3,-1
#     ++len;
     7a0:	00170713          	addi	a4,a4,1
#     --len;
     7a4:	012d8933          	add	s2,s11,s2
#     ++len;
     7a8:	02e7a423          	sw	a4,40(a5)
#     data[len] = elem;
     7ac:	01968423          	sb	s9,8(a3)
#     --len;
     7b0:	09392223          	sw	s3,132(s2)
     7b4:	016a87b3          	add	a5,s5,s6
#     for (size_t i = ix; i < len; ++i) {
     7b8:	00178793          	addi	a5,a5,1
     7bc:	053b6063          	bltu	s6,s3,7fc <_ZL11action_takehPKc+0x19c>
# }
     7c0:	04c12083          	lw	ra,76(sp)
     7c4:	04812403          	lw	s0,72(sp)
     7c8:	04412483          	lw	s1,68(sp)
     7cc:	04012903          	lw	s2,64(sp)
     7d0:	03c12983          	lw	s3,60(sp)
     7d4:	03812a03          	lw	s4,56(sp)
     7d8:	03412a83          	lw	s5,52(sp)
     7dc:	03012b03          	lw	s6,48(sp)
     7e0:	02c12b83          	lw	s7,44(sp)
     7e4:	02812c03          	lw	s8,40(sp)
     7e8:	02412c83          	lw	s9,36(sp)
     7ec:	02012d03          	lw	s10,32(sp)
     7f0:	01c12d83          	lw	s11,28(sp)
     7f4:	05010113          	addi	sp,sp,80
     7f8:	00008067          	ret
#       data[i] = data[i + 1];
     7fc:	0047c703          	lbu	a4,4(a5)
     800:	001b0b13          	addi	s6,s6,1
     804:	00e781a3          	sb	a4,3(a5)
#     for (size_t i = ix; i < len; ++i) {
     808:	fb1ff06f          	j	7b8 <_ZL11action_takehPKc+0x158>

0000080c <_ZL11action_drophPKc>:
# 
# static auto action_drop(entity_id_t const eid, name_t const obj_nm) -> void {
     80c:	fd010113          	addi	sp,sp,-48
     810:	02812423          	sw	s0,40(sp)
#   auto length() const -> size_t { return len; }
     814:	00151413          	slli	s0,a0,0x1
     818:	00a40733          	add	a4,s0,a0
     81c:	00271713          	slli	a4,a4,0x2
     820:	000027b7          	lui	a5,0x2
     824:	40a70733          	sub	a4,a4,a0
# static auto action_drop(entity_id_t const eid, name_t const obj_nm) -> void {
     828:	01412c23          	sw	s4,24(sp)
#   auto length() const -> size_t { return len; }
     82c:	00271713          	slli	a4,a4,0x2
     830:	8a078a13          	addi	s4,a5,-1888 # 18a0 <_ZL8entities>
     834:	00ea0a33          	add	s4,s4,a4
# static auto action_drop(entity_id_t const eid, name_t const obj_nm) -> void {
     838:	01312e23          	sw	s3,28(sp)
#   auto length() const -> size_t { return len; }
     83c:	028a2983          	lw	s3,40(s4)
# static auto action_drop(entity_id_t const eid, name_t const obj_nm) -> void {
     840:	02912223          	sw	s1,36(sp)
     844:	03212023          	sw	s2,32(sp)
     848:	01512a23          	sw	s5,20(sp)
     84c:	01612823          	sw	s6,16(sp)
     850:	01712623          	sw	s7,12(sp)
     854:	01912223          	sw	s9,4(sp)
     858:	02112623          	sw	ra,44(sp)
     85c:	01812423          	sw	s8,8(sp)
     860:	00050493          	mv	s1,a0
     864:	00058b13          	mv	s6,a1
#   entity &ent = entities[eid];
#   auto &lso = ent.objects;
#   size_t const n = lso.length();
#   for (size_t i = 0; i < n; ++i) {
     868:	000a0b93          	mv	s7,s4
     86c:	00000a93          	li	s5,0
     870:	8a078913          	addi	s2,a5,-1888
#     object_id_t const oid = lso.at(i);
#     if (!strings_equal(objects[oid].name, obj_nm)) {
     874:	00002cb7          	lui	s9,0x2
#   for (size_t i = 0; i < n; ++i) {
     878:	053a9a63          	bne	s5,s3,8cc <_ZL11action_drophPKc+0xc0>
#     if (locations[ent.location].objects.add(oid)) {
#       lso.remove_at_index(i);
#     }
#     return;
#   }
#   uart_send_str("u don't have ");
     87c:	00001537          	lui	a0,0x1
     880:	6dc50513          	addi	a0,a0,1756 # 16dc <_ZNK14command_buffer33apply_on_chars_from_cursor_to_endIZL5inputRS_EUlcE_EEvOT_.isra.0+0x530>
     884:	005000ef          	jal	1088 <_ZL13uart_send_strPKc>
#   uart_send_str(obj_nm);
     888:	000b0513          	mv	a0,s6
     88c:	7fc000ef          	jal	1088 <_ZL13uart_send_strPKc>
#   uart_send_str("\r\n\r\n");
# }
     890:	02812403          	lw	s0,40(sp)
     894:	02c12083          	lw	ra,44(sp)
     898:	02412483          	lw	s1,36(sp)
     89c:	02012903          	lw	s2,32(sp)
     8a0:	01c12983          	lw	s3,28(sp)
     8a4:	01812a03          	lw	s4,24(sp)
     8a8:	01412a83          	lw	s5,20(sp)
     8ac:	01012b03          	lw	s6,16(sp)
     8b0:	00c12b83          	lw	s7,12(sp)
     8b4:	00812c03          	lw	s8,8(sp)
     8b8:	00412c83          	lw	s9,4(sp)
#   uart_send_str("\r\n\r\n");
     8bc:	00001537          	lui	a0,0x1
     8c0:	21c50513          	addi	a0,a0,540 # 121c <_ZNK14command_buffer33apply_on_chars_from_cursor_to_endIZL5inputRS_EUlcE_EEvOT_.isra.0+0x70>
# }
     8c4:	03010113          	addi	sp,sp,48
#   uart_send_str("\r\n\r\n");
     8c8:	7c00006f          	j	1088 <_ZL13uart_send_strPKc>
#       return data[ix];
     8cc:	008bcc03          	lbu	s8,8(s7)
#     if (!strings_equal(objects[oid].name, obj_nm)) {
     8d0:	890c8793          	addi	a5,s9,-1904 # 1890 <_ZL7objects>
     8d4:	000b0593          	mv	a1,s6
     8d8:	002c1713          	slli	a4,s8,0x2
     8dc:	00e787b3          	add	a5,a5,a4
     8e0:	0007a503          	lw	a0,0(a5)
     8e4:	6c4000ef          	jal	fa8 <_ZL13strings_equalPKcS0_>
     8e8:	00051863          	bnez	a0,8f8 <_ZL11action_drophPKc+0xec>
     8ec:	001b8b93          	addi	s7,s7,1
#   for (size_t i = 0; i < n; ++i) {
     8f0:	001a8a93          	addi	s5,s5,1
     8f4:	f85ff06f          	j	878 <_ZL11action_drophPKc+0x6c>
#     if (locations[ent.location].objects.add(oid)) {
     8f8:	00940433          	add	s0,s0,s1
     8fc:	00241413          	slli	s0,s0,0x2
     900:	40940433          	sub	s0,s0,s1
     904:	00241413          	slli	s0,s0,0x2
     908:	008907b3          	add	a5,s2,s0
     90c:	0047c603          	lbu	a2,4(a5)
#     if (len == Size - 1) {
     910:	00002737          	lui	a4,0x2
     914:	92470713          	addi	a4,a4,-1756 # 1924 <_ZL9locations>
     918:	00261693          	slli	a3,a2,0x2
     91c:	00c686b3          	add	a3,a3,a2
     920:	00569693          	slli	a3,a3,0x5
     924:	00d70733          	add	a4,a4,a3
     928:	08472683          	lw	a3,132(a4)
     92c:	07f00613          	li	a2,127
     930:	02c68463          	beq	a3,a2,958 <_ZL11action_drophPKc+0x14c>
#     data[len] = elem;
     934:	00d70633          	add	a2,a4,a3
#     --len;
     938:	fff98993          	addi	s3,s3,-1
#     ++len;
     93c:	00168693          	addi	a3,a3,1
#     --len;
     940:	0337a423          	sw	s3,40(a5)
#     data[len] = elem;
     944:	01860223          	sb	s8,4(a2)
#     ++len;
     948:	08d72223          	sw	a3,132(a4)
#       lso.remove_at_index(i);
     94c:	015a07b3          	add	a5,s4,s5
#     for (size_t i = ix; i < len; ++i) {
     950:	00178793          	addi	a5,a5,1
     954:	033aec63          	bltu	s5,s3,98c <_ZL11action_drophPKc+0x180>
# }
     958:	02c12083          	lw	ra,44(sp)
     95c:	02812403          	lw	s0,40(sp)
     960:	02412483          	lw	s1,36(sp)
     964:	02012903          	lw	s2,32(sp)
     968:	01c12983          	lw	s3,28(sp)
     96c:	01812a03          	lw	s4,24(sp)
     970:	01412a83          	lw	s5,20(sp)
     974:	01012b03          	lw	s6,16(sp)
     978:	00c12b83          	lw	s7,12(sp)
     97c:	00812c03          	lw	s8,8(sp)
     980:	00412c83          	lw	s9,4(sp)
     984:	03010113          	addi	sp,sp,48
     988:	00008067          	ret
#       data[i] = data[i + 1];
     98c:	0087c703          	lbu	a4,8(a5)
     990:	001a8a93          	addi	s5,s5,1
     994:	00e783a3          	sb	a4,7(a5)
#     for (size_t i = ix; i < len; ++i) {
     998:	fb9ff06f          	j	950 <_ZL11action_drophPKc+0x144>

0000099c <_ZL9action_gohh>:
# 
# static auto action_go(entity_id_t const eid, direction_t const dir) -> void {
#   entity &ent = entities[eid];
#   location &loc = locations[ent.location];
     99c:	00151793          	slli	a5,a0,0x1
     9a0:	00a78733          	add	a4,a5,a0
     9a4:	00271713          	slli	a4,a4,0x2
     9a8:	000028b7          	lui	a7,0x2
     9ac:	40a70733          	sub	a4,a4,a0
     9b0:	8a088693          	addi	a3,a7,-1888 # 18a0 <_ZL8entities>
     9b4:	00271713          	slli	a4,a4,0x2
     9b8:	00e68733          	add	a4,a3,a4
     9bc:	00474683          	lbu	a3,4(a4)
#     if (ix < len) {
     9c0:	00002637          	lui	a2,0x2
     9c4:	92460713          	addi	a4,a2,-1756 # 1924 <_ZL9locations>
     9c8:	00269813          	slli	a6,a3,0x2
     9cc:	00d80833          	add	a6,a6,a3
     9d0:	00581693          	slli	a3,a6,0x5
     9d4:	00d70733          	add	a4,a4,a3
     9d8:	09c72683          	lw	a3,156(a4)
     9dc:	8a088e13          	addi	t3,a7,-1888
     9e0:	92460613          	addi	a2,a2,-1756
     9e4:	00d5f863          	bgeu	a1,a3,9f4 <_ZL9action_gohh+0x58>
#       return data[ix];
     9e8:	00b705b3          	add	a1,a4,a1
     9ec:	0945c883          	lbu	a7,148(a1)
#   location_id_t const to = loc.exits.at(dir);
#   if (!to) {
     9f0:	00089863          	bnez	a7,a00 <_ZL9action_gohh+0x64>
#     uart_send_str("cannot go there\r\n\r\n");
     9f4:	00001537          	lui	a0,0x1
     9f8:	6ec50513          	addi	a0,a0,1772 # 16ec <_ZNK14command_buffer33apply_on_chars_from_cursor_to_endIZL5inputRS_EUlcE_EEvOT_.isra.0+0x540>
     9fc:	68c0006f          	j	1088 <_ZL13uart_send_strPKc>
#     if (len == Size - 1) {
     a00:	00289693          	slli	a3,a7,0x2
     a04:	011686b3          	add	a3,a3,a7
     a08:	00569693          	slli	a3,a3,0x5
     a0c:	00d606b3          	add	a3,a2,a3
     a10:	0906a583          	lw	a1,144(a3)
     a14:	00700313          	li	t1,7
     a18:	08658063          	beq	a1,t1,a98 <_ZL9action_gohh+0xfc>
#     data[len] = elem;
     a1c:	00b68333          	add	t1,a3,a1
#     ++len;
     a20:	00158593          	addi	a1,a1,1
#     data[len] = elem;
     a24:	08a30423          	sb	a0,136(t1)
#     ++len;
     a28:	08b6a823          	sw	a1,144(a3)
     a2c:	00070313          	mv	t1,a4
#     for (size_t i = 0; i < len; ++i) {
     a30:	00000693          	li	a3,0
     a34:	09072583          	lw	a1,144(a4)
     a38:	02b6fa63          	bgeu	a3,a1,a6c <_ZL9action_gohh+0xd0>
#       if (data[i] != elem) {
     a3c:	08834e83          	lbu	t4,136(t1)
     a40:	00130313          	addi	t1,t1,1
     a44:	00ae8663          	beq	t4,a0,a50 <_ZL9action_gohh+0xb4>
#     for (size_t i = 0; i < len; ++i) {
     a48:	00168693          	addi	a3,a3,1
     a4c:	fe9ff06f          	j	a34 <_ZL9action_gohh+0x98>
#       --len;
     a50:	00581813          	slli	a6,a6,0x5
     a54:	fff58593          	addi	a1,a1,-1
     a58:	01060633          	add	a2,a2,a6
     a5c:	08b62823          	sw	a1,144(a2)
     a60:	00d70733          	add	a4,a4,a3
#       for (size_t j = i; j < len; ++j) {
     a64:	00170713          	addi	a4,a4,1
     a68:	02b6e063          	bltu	a3,a1,a88 <_ZL9action_gohh+0xec>
#     return;
#   }
#   if (locations[to].entities.add(eid)) {
#     loc.entities.remove(eid);
#     ent.location = to;
     a6c:	00a787b3          	add	a5,a5,a0
     a70:	00279793          	slli	a5,a5,0x2
     a74:	40a787b3          	sub	a5,a5,a0
     a78:	00279793          	slli	a5,a5,0x2
     a7c:	00fe07b3          	add	a5,t3,a5
     a80:	01178223          	sb	a7,4(a5)
     a84:	00008067          	ret
#         data[j] = data[j + 1];
     a88:	08874603          	lbu	a2,136(a4)
     a8c:	00168693          	addi	a3,a3,1
     a90:	08c703a3          	sb	a2,135(a4)
#       for (size_t j = i; j < len; ++j) {
     a94:	fd1ff06f          	j	a64 <_ZL9action_gohh+0xc8>
#   }
# }
     a98:	00008067          	ret

00000a9c <_ZL11action_givehPKcS0_>:
# 
# static auto action_give(entity_id_t const eid, name_t const obj_nm,
#                         name_t const to_ent_nm) -> void {
     a9c:	fc010113          	addi	sp,sp,-64
     aa0:	03512223          	sw	s5,36(sp)
#   entity &ent = entities[eid];
#   location &loc = locations[ent.location];
     aa4:	00151a93          	slli	s5,a0,0x1
     aa8:	00aa87b3          	add	a5,s5,a0
     aac:	00279793          	slli	a5,a5,0x2
#                         name_t const to_ent_nm) -> void {
     ab0:	03612023          	sw	s6,32(sp)
#   location &loc = locations[ent.location];
     ab4:	40a787b3          	sub	a5,a5,a0
     ab8:	00002b37          	lui	s6,0x2
     abc:	8a0b0713          	addi	a4,s6,-1888 # 18a0 <_ZL8entities>
     ac0:	00279793          	slli	a5,a5,0x2
#                         name_t const to_ent_nm) -> void {
     ac4:	02812c23          	sw	s0,56(sp)
     ac8:	02912a23          	sw	s1,52(sp)
     acc:	03312623          	sw	s3,44(sp)
     ad0:	03412423          	sw	s4,40(sp)
     ad4:	01812c23          	sw	s8,24(sp)
     ad8:	01912a23          	sw	s9,20(sp)
#   location &loc = locations[ent.location];
     adc:	00f707b3          	add	a5,a4,a5
#                         name_t const to_ent_nm) -> void {
     ae0:	02112e23          	sw	ra,60(sp)
     ae4:	03212823          	sw	s2,48(sp)
     ae8:	01712e23          	sw	s7,28(sp)
     aec:	01a12823          	sw	s10,16(sp)
     af0:	01b12623          	sw	s11,12(sp)
#   location &loc = locations[ent.location];
     af4:	0047c703          	lbu	a4,4(a5)
#   auto length() const -> size_t { return len; }
     af8:	00002437          	lui	s0,0x2
     afc:	92440413          	addi	s0,s0,-1756 # 1924 <_ZL9locations>
     b00:	00271793          	slli	a5,a4,0x2
     b04:	00e787b3          	add	a5,a5,a4
     b08:	00579793          	slli	a5,a5,0x5
     b0c:	00f40433          	add	s0,s0,a5
     b10:	09042c83          	lw	s9,144(s0)
#                         name_t const to_ent_nm) -> void {
     b14:	00050993          	mv	s3,a0
     b18:	00058493          	mv	s1,a1
     b1c:	00060a13          	mv	s4,a2
#   auto &lse = loc.entities;
#   size_t const n = lse.length();
#   for (size_t i = 0; i < n; ++i) {
     b20:	00000c13          	li	s8,0
     b24:	8a0b0b13          	addi	s6,s6,-1888
     b28:	019c1c63          	bne	s8,s9,b40 <_ZL11action_givehPKcS0_+0xa4>
#     }
#     uart_send_str(obj_nm);
#     uart_send_str(" not in inventory\r\n\r\n");
#     return;
#   }
#   uart_send_str(to_ent_nm);
     b2c:	000a0513          	mv	a0,s4
     b30:	558000ef          	jal	1088 <_ZL13uart_send_strPKc>
#   uart_send_str(" is not here\r\n\r\n");
     b34:	00001537          	lui	a0,0x1
     b38:	71850513          	addi	a0,a0,1816 # 1718 <_ZNK14command_buffer33apply_on_chars_from_cursor_to_endIZL5inputRS_EUlcE_EEvOT_.isra.0+0x56c>
     b3c:	0740006f          	j	bb0 <_ZL11action_givehPKcS0_+0x114>
#     entity &to = entities[lse.at(i)];
     b40:	08844b83          	lbu	s7,136(s0)
#     if (!strings_equal(to.name, to_ent_nm)) {
     b44:	000a0593          	mv	a1,s4
     b48:	001b9913          	slli	s2,s7,0x1
     b4c:	017907b3          	add	a5,s2,s7
     b50:	00279793          	slli	a5,a5,0x2
     b54:	417787b3          	sub	a5,a5,s7
     b58:	00279793          	slli	a5,a5,0x2
     b5c:	00fb07b3          	add	a5,s6,a5
     b60:	0007a503          	lw	a0,0(a5)
     b64:	444000ef          	jal	fa8 <_ZL13strings_equalPKcS0_>
     b68:	00051863          	bnez	a0,b78 <_ZL11action_givehPKcS0_+0xdc>
     b6c:	00140413          	addi	s0,s0,1
#   for (size_t i = 0; i < n; ++i) {
     b70:	001c0c13          	addi	s8,s8,1
     b74:	fb5ff06f          	j	b28 <_ZL11action_givehPKcS0_+0x8c>
#   auto length() const -> size_t { return len; }
     b78:	013a87b3          	add	a5,s5,s3
     b7c:	00279793          	slli	a5,a5,0x2
     b80:	413787b3          	sub	a5,a5,s3
     b84:	00279793          	slli	a5,a5,0x2
     b88:	00fb0433          	add	s0,s6,a5
     b8c:	02842d03          	lw	s10,40(s0)
#     for (size_t j = 0; j < m; j++) {
     b90:	00040c13          	mv	s8,s0
     b94:	00000a13          	li	s4,0
#       if (!strings_equal(objects[oid].name, obj_nm)) {
     b98:	00002db7          	lui	s11,0x2
#     for (size_t j = 0; j < m; j++) {
     b9c:	05aa1863          	bne	s4,s10,bec <_ZL11action_givehPKcS0_+0x150>
#     uart_send_str(obj_nm);
     ba0:	00048513          	mv	a0,s1
     ba4:	4e4000ef          	jal	1088 <_ZL13uart_send_strPKc>
#     uart_send_str(" not in inventory\r\n\r\n");
     ba8:	00001537          	lui	a0,0x1
     bac:	70050513          	addi	a0,a0,1792 # 1700 <_ZNK14command_buffer33apply_on_chars_from_cursor_to_endIZL5inputRS_EUlcE_EEvOT_.isra.0+0x554>
# }
     bb0:	03812403          	lw	s0,56(sp)
     bb4:	03c12083          	lw	ra,60(sp)
     bb8:	03412483          	lw	s1,52(sp)
     bbc:	03012903          	lw	s2,48(sp)
     bc0:	02c12983          	lw	s3,44(sp)
     bc4:	02812a03          	lw	s4,40(sp)
     bc8:	02412a83          	lw	s5,36(sp)
     bcc:	02012b03          	lw	s6,32(sp)
     bd0:	01c12b83          	lw	s7,28(sp)
     bd4:	01812c03          	lw	s8,24(sp)
     bd8:	01412c83          	lw	s9,20(sp)
     bdc:	01012d03          	lw	s10,16(sp)
     be0:	00c12d83          	lw	s11,12(sp)
     be4:	04010113          	addi	sp,sp,64
#   uart_send_str(" is not here\r\n\r\n");
     be8:	4a00006f          	j	1088 <_ZL13uart_send_strPKc>
#       return data[ix];
     bec:	008c4c83          	lbu	s9,8(s8)
#       if (!strings_equal(objects[oid].name, obj_nm)) {
     bf0:	890d8793          	addi	a5,s11,-1904 # 1890 <_ZL7objects>
     bf4:	00048593          	mv	a1,s1
     bf8:	002c9713          	slli	a4,s9,0x2
     bfc:	00e787b3          	add	a5,a5,a4
     c00:	0007a503          	lw	a0,0(a5)
     c04:	3a4000ef          	jal	fa8 <_ZL13strings_equalPKcS0_>
     c08:	00051863          	bnez	a0,c18 <_ZL11action_givehPKcS0_+0x17c>
     c0c:	001c0c13          	addi	s8,s8,1
#     for (size_t j = 0; j < m; j++) {
     c10:	001a0a13          	addi	s4,s4,1
     c14:	f89ff06f          	j	b9c <_ZL11action_givehPKcS0_+0x100>
#     if (len == Size - 1) {
     c18:	017907b3          	add	a5,s2,s7
     c1c:	00279793          	slli	a5,a5,0x2
     c20:	417787b3          	sub	a5,a5,s7
     c24:	00279793          	slli	a5,a5,0x2
     c28:	00fb07b3          	add	a5,s6,a5
     c2c:	0287a703          	lw	a4,40(a5)
     c30:	01f00693          	li	a3,31
     c34:	04d70263          	beq	a4,a3,c78 <_ZL11action_givehPKcS0_+0x1dc>
#     if (len == 0) {
     c38:	013a8533          	add	a0,s5,s3
     c3c:	00251513          	slli	a0,a0,0x2
     c40:	41350533          	sub	a0,a0,s3
#     data[len] = elem;
     c44:	00e786b3          	add	a3,a5,a4
#     if (len == 0) {
     c48:	00251513          	slli	a0,a0,0x2
#     ++len;
     c4c:	00170713          	addi	a4,a4,1
     c50:	02e7a423          	sw	a4,40(a5)
#     if (len == 0) {
     c54:	00ab0533          	add	a0,s6,a0
     c58:	02852703          	lw	a4,40(a0)
#     data[len] = elem;
     c5c:	01968423          	sb	s9,8(a3)
#     if (len == 0) {
     c60:	00070c63          	beqz	a4,c78 <_ZL11action_givehPKcS0_+0x1dc>
#     --len;
     c64:	fff70713          	addi	a4,a4,-1
     c68:	02e52423          	sw	a4,40(a0)
     c6c:	014407b3          	add	a5,s0,s4
#     for (size_t i = ix; i < len; ++i) {
     c70:	00178793          	addi	a5,a5,1
     c74:	04ea6063          	bltu	s4,a4,cb4 <_ZL11action_givehPKcS0_+0x218>
# }
     c78:	03c12083          	lw	ra,60(sp)
     c7c:	03812403          	lw	s0,56(sp)
     c80:	03412483          	lw	s1,52(sp)
     c84:	03012903          	lw	s2,48(sp)
     c88:	02c12983          	lw	s3,44(sp)
     c8c:	02812a03          	lw	s4,40(sp)
     c90:	02412a83          	lw	s5,36(sp)
     c94:	02012b03          	lw	s6,32(sp)
     c98:	01c12b83          	lw	s7,28(sp)
     c9c:	01812c03          	lw	s8,24(sp)
     ca0:	01412c83          	lw	s9,20(sp)
     ca4:	01012d03          	lw	s10,16(sp)
     ca8:	00c12d83          	lw	s11,12(sp)
     cac:	04010113          	addi	sp,sp,64
     cb0:	00008067          	ret
#       data[i] = data[i + 1];
     cb4:	0087c683          	lbu	a3,8(a5)
     cb8:	001a0a13          	addi	s4,s4,1
     cbc:	00d783a3          	sb	a3,7(a5)
#     for (size_t i = ix; i < len; ++i) {
     cc0:	fb1ff06f          	j	c70 <_ZL11action_givehPKcS0_+0x1d4>

00000cc4 <_ZL10print_helpv>:
# 
# static auto print_help() -> void {
#   uart_send_str(
     cc4:	00001537          	lui	a0,0x1
     cc8:	72c50513          	addi	a0,a0,1836 # 172c <_ZNK14command_buffer33apply_on_chars_from_cursor_to_endIZL5inputRS_EUlcE_EEvOT_.isra.0+0x580>
     ccc:	3bc0006f          	j	1088 <_ZL13uart_send_strPKc>

00000cd0 <_ZL27input_escape_sequence_clearv>:
# }
# 
# static char input_escape_sequence[8];
# static auto input_escape_sequence_clear() -> void {
#   for (size_t i = 0; i < sizeof(input_escape_sequence); ++i) {
#     input_escape_sequence[i] = '\0';
     cd0:	000027b7          	lui	a5,0x2
     cd4:	c607a223          	sw	zero,-924(a5) # 1c64 <_ZL21input_escape_sequence>
     cd8:	c6478793          	addi	a5,a5,-924
     cdc:	0007a223          	sw	zero,4(a5)
#   }
# }
     ce0:	00008067          	ret

00000ce4 <_ZL5inputR14command_buffer>:
# 
# enum class input_state { normal, escape, escape_bracket };
# 
# static auto input(command_buffer &cmd_buf) -> void {
     ce4:	fd010113          	addi	sp,sp,-48
     ce8:	02812423          	sw	s0,40(sp)
     cec:	03212023          	sw	s2,32(sp)
     cf0:	01312e23          	sw	s3,28(sp)
     cf4:	01412c23          	sw	s4,24(sp)
     cf8:	01512a23          	sw	s5,20(sp)
     cfc:	01612823          	sw	s6,16(sp)
     d00:	01712623          	sw	s7,12(sp)
     d04:	01812423          	sw	s8,8(sp)
     d08:	01912223          	sw	s9,4(sp)
     d0c:	01a12023          	sw	s10,0(sp)
     d10:	02112623          	sw	ra,44(sp)
     d14:	02912223          	sw	s1,36(sp)
     d18:	00050413          	mv	s0,a0
#   auto reset() -> void { cursor_ = end_ = 0; }
     d1c:	040508a3          	sb	zero,81(a0)
     d20:	04050823          	sb	zero,80(a0)
#   cmd_buf.reset();
#   input_state state = input_state::normal;
#   int escape_sequence_parameter = 0;
     d24:	00000993          	li	s3,0
#   input_state state = input_state::normal;
     d28:	00000913          	li	s2,0
# 
#   while (true) {
#     char const ch = uart_read_char();
# 
#     switch (state) {
     d2c:	00100a13          	li	s4,1
     d30:	00200a93          	li	s5,2
#         state = input_state::normal;
#       }
#       break;
# 
#     case input_state::escape_bracket:
#       if (ch >= '0' && ch <= '9') {
     d34:	00900b13          	li	s6,9
#         escape_sequence_parameter = escape_sequence_parameter * 10 + (ch - '0');
#       } else {
#         switch (ch) {
     d38:	04400b93          	li	s7,68
#         case 'D': // arrow left
#           if (cmd_buf.move_cursor_left()) {
#             uart_send_str("\x1B\x5B\x44");
     d3c:	00002c37          	lui	s8,0x2
#         switch (ch) {
     d40:	07e00c93          	li	s9,126
#             uart_send_str("\x1B\x5B\x43");
#           }
#           break;
# 
#         case '~': // delete
#           if (escape_sequence_parameter == 3) {
     d44:	00300d13          	li	s10,3
#     char const ch = uart_read_char();
     d48:	370000ef          	jal	10b8 <_ZL14uart_read_charv>
     d4c:	00050493          	mv	s1,a0
#     switch (state) {
     d50:	17490263          	beq	s2,s4,eb4 <_ZL5inputR14command_buffer+0x1d0>
     d54:	19590063          	beq	s2,s5,ed4 <_ZL5inputR14command_buffer+0x1f0>
#       if (ch == 0x1B) {
     d58:	01b00793          	li	a5,27
     d5c:	24f50263          	beq	a0,a5,fa0 <_ZL5inputR14command_buffer+0x2bc>
#       } else if (ch == CHAR_BACKSPACE) {
     d60:	07f00713          	li	a4,127
#     if (cursor_ == end_) {
     d64:	05144783          	lbu	a5,81(s0)
#       } else if (ch == CHAR_BACKSPACE) {
     d68:	08e51263          	bne	a0,a4,dec <_ZL5inputR14command_buffer+0x108>
#     if (cursor_ == 0) {
     d6c:	05044583          	lbu	a1,80(s0)
     d70:	04058863          	beqz	a1,dc0 <_ZL5inputR14command_buffer+0xdc>
#       --cursor_;
     d74:	fff58613          	addi	a2,a1,-1
#       --end_;
     d78:	fff78693          	addi	a3,a5,-1
#       --cursor_;
     d7c:	0ff67613          	zext.b	a2,a2
#       --end_;
     d80:	0ff6f693          	zext.b	a3,a3
     d84:	00b40733          	add	a4,s0,a1
#     if (cursor_ == end_) {
     d88:	04f59663          	bne	a1,a5,dd4 <_ZL5inputR14command_buffer+0xf0>
#       --end_;
     d8c:	04d408a3          	sb	a3,81(s0)
#       --cursor_;
     d90:	04c40823          	sb	a2,80(s0)
#           uart_send_char(ch);
     d94:	07f00513          	li	a0,127
     d98:	310000ef          	jal	10a8 <_ZL14uart_send_charc>
#           cmd_buf.apply_on_chars_from_cursor_to_end(
     d9c:	00040513          	mv	a0,s0
     da0:	40c000ef          	jal	11ac <_ZNK14command_buffer33apply_on_chars_from_cursor_to_endIZL5inputRS_EUlcE_EEvOT_.isra.0>
#           uart_send_char(' ');
     da4:	02000513          	li	a0,32
     da8:	300000ef          	jal	10a8 <_ZL14uart_send_charc>
#   auto characters_after_cursor() const -> size_t { return end_ - cursor_; }
     dac:	05144503          	lbu	a0,81(s0)
     db0:	05044783          	lbu	a5,80(s0)
     db4:	40f50533          	sub	a0,a0,a5
#           uart_send_move_back(cmd_buf.characters_after_cursor() + 1);
     db8:	00150513          	addi	a0,a0,1
#         uart_send_move_back(cmd_buf.characters_after_cursor());
     dbc:	284000ef          	jal	1040 <_ZL19uart_send_move_backj>
# 
#         default:
#           break;
#         }
# 
#         state = input_state::normal;
     dc0:	00000913          	li	s2,0
     dc4:	0fc0006f          	j	ec0 <_ZL5inputR14command_buffer+0x1dc>
#       line_[i] = line_[i + 1];
     dc8:	00074583          	lbu	a1,0(a4)
     dcc:	00170713          	addi	a4,a4,1
     dd0:	feb70f23          	sb	a1,-2(a4)
#     for (size_t i = cursor_ - 1; i < end_; ++i) {
     dd4:	408705b3          	sub	a1,a4,s0
     dd8:	fff58593          	addi	a1,a1,-1
     ddc:	fef5e6e3          	bltu	a1,a5,dc8 <_ZL5inputR14command_buffer+0xe4>
#     --cursor_;
     de0:	04c40823          	sb	a2,80(s0)
#     --end_;
     de4:	04d408a3          	sb	a3,81(s0)
#     return true;
     de8:	fadff06f          	j	d94 <_ZL5inputR14command_buffer+0xb0>
#       } else if (ch == CHAR_CARRIAGE_RETURN || cmd_buf.is_full()) {
     dec:	00d00713          	li	a4,13
     df0:	00e50663          	beq	a0,a4,dfc <_ZL5inputR14command_buffer+0x118>
     df4:	04f00913          	li	s2,79
     df8:	05279263          	bne	a5,s2,e3c <_ZL5inputR14command_buffer+0x158>
#   auto set_eos() -> void { line_[end_] = '\0'; }
     dfc:	00f407b3          	add	a5,s0,a5
     e00:	00078023          	sb	zero,0(a5)
#       break;
#     }
# 
#     led_set(~uint8_t(cmd_buf.input_length()));
#   }
# }
     e04:	02c12083          	lw	ra,44(sp)
     e08:	02812403          	lw	s0,40(sp)
     e0c:	02412483          	lw	s1,36(sp)
     e10:	02012903          	lw	s2,32(sp)
     e14:	01c12983          	lw	s3,28(sp)
     e18:	01812a03          	lw	s4,24(sp)
     e1c:	01412a83          	lw	s5,20(sp)
     e20:	01012b03          	lw	s6,16(sp)
     e24:	00c12b83          	lw	s7,12(sp)
     e28:	00812c03          	lw	s8,8(sp)
     e2c:	00412c83          	lw	s9,4(sp)
     e30:	00012d03          	lw	s10,0(sp)
     e34:	03010113          	addi	sp,sp,48
     e38:	00008067          	ret
#         uart_send_char(ch);
     e3c:	26c000ef          	jal	10a8 <_ZL14uart_send_charc>
#     if (end_ == sizeof(line_) - 1) {
     e40:	05144683          	lbu	a3,81(s0)
     e44:	03268663          	beq	a3,s2,e70 <_ZL5inputR14command_buffer+0x18c>
#     if (cursor_ == end_) {
     e48:	05044703          	lbu	a4,80(s0)
#       ++end_;
     e4c:	00168793          	addi	a5,a3,1
     e50:	0ff7f793          	zext.b	a5,a5
#       ++cursor_;
     e54:	00170613          	addi	a2,a4,1
     e58:	0ff67613          	zext.b	a2,a2
#     if (cursor_ == end_) {
     e5c:	02e69663          	bne	a3,a4,e88 <_ZL5inputR14command_buffer+0x1a4>
#       line_[cursor_] = ch;
     e60:	00d406b3          	add	a3,s0,a3
     e64:	00968023          	sb	s1,0(a3)
#       ++cursor_;
     e68:	04c40823          	sb	a2,80(s0)
#       ++end_;
     e6c:	04f408a3          	sb	a5,81(s0)
#         cmd_buf.apply_on_chars_from_cursor_to_end(
     e70:	00040513          	mv	a0,s0
     e74:	338000ef          	jal	11ac <_ZNK14command_buffer33apply_on_chars_from_cursor_to_endIZL5inputRS_EUlcE_EEvOT_.isra.0>
#   auto characters_after_cursor() const -> size_t { return end_ - cursor_; }
     e78:	05144503          	lbu	a0,81(s0)
     e7c:	05044783          	lbu	a5,80(s0)
#         uart_send_move_back(cmd_buf.characters_after_cursor());
     e80:	40f50533          	sub	a0,a0,a5
     e84:	f39ff06f          	j	dbc <_ZL5inputR14command_buffer+0xd8>
#     ++end_;
     e88:	04f408a3          	sb	a5,81(s0)
#     for (size_t i = end_; i > cursor_; --i) {
     e8c:	00f76a63          	bltu	a4,a5,ea0 <_ZL5inputR14command_buffer+0x1bc>
#     line_[cursor_] = ch;
     e90:	00e40733          	add	a4,s0,a4
     e94:	00970023          	sb	s1,0(a4)
#     ++cursor_;
     e98:	04c40823          	sb	a2,80(s0)
#     return true;
     e9c:	fd5ff06f          	j	e70 <_ZL5inputR14command_buffer+0x18c>
#       line_[i] = line_[i - 1];
     ea0:	fff78793          	addi	a5,a5,-1
     ea4:	00f406b3          	add	a3,s0,a5
     ea8:	0006c583          	lbu	a1,0(a3)
     eac:	00b680a3          	sb	a1,1(a3)
#     for (size_t i = end_; i > cursor_; --i) {
     eb0:	fddff06f          	j	e8c <_ZL5inputR14command_buffer+0x1a8>
#       if (ch == 0x5B) {
     eb4:	fa550913          	addi	s2,a0,-91
     eb8:	00193913          	seqz	s2,s2
     ebc:	00191913          	slli	s2,s2,0x1
#     led_set(~uint8_t(cmd_buf.input_length()));
     ec0:	05144783          	lbu	a5,81(s0)
     ec4:	fff7c793          	not	a5,a5
     ec8:	0ff7f793          	zext.b	a5,a5
     ecc:	fef00fa3          	sb	a5,-1(zero) # ffffffff <__bss_end+0xffffe393>
     ed0:	e79ff06f          	j	d48 <_ZL5inputR14command_buffer+0x64>
#       if (ch >= '0' && ch <= '9') {
     ed4:	fd050713          	addi	a4,a0,-48
     ed8:	0ff77793          	zext.b	a5,a4
     edc:	00fb6c63          	bltu	s6,a5,ef4 <_ZL5inputR14command_buffer+0x210>
#         escape_sequence_parameter = escape_sequence_parameter * 10 + (ch - '0');
     ee0:	00299793          	slli	a5,s3,0x2
     ee4:	013787b3          	add	a5,a5,s3
     ee8:	00179793          	slli	a5,a5,0x1
     eec:	00f709b3          	add	s3,a4,a5
     ef0:	fd1ff06f          	j	ec0 <_ZL5inputR14command_buffer+0x1dc>
#         switch (ch) {
     ef4:	01750e63          	beq	a0,s7,f10 <_ZL5inputR14command_buffer+0x22c>
     ef8:	05144703          	lbu	a4,81(s0)
     efc:	05950663          	beq	a0,s9,f48 <_ZL5inputR14command_buffer+0x264>
     f00:	04300793          	li	a5,67
     f04:	02f50463          	beq	a0,a5,f2c <_ZL5inputR14command_buffer+0x248>
#         escape_sequence_parameter = 0;
     f08:	00000993          	li	s3,0
     f0c:	eb5ff06f          	j	dc0 <_ZL5inputR14command_buffer+0xdc>
#     if (cursor_ == 0) {
     f10:	05044783          	lbu	a5,80(s0)
     f14:	fe078ae3          	beqz	a5,f08 <_ZL5inputR14command_buffer+0x224>
#     --cursor_;
     f18:	fff78793          	addi	a5,a5,-1
     f1c:	04f40823          	sb	a5,80(s0)
#             uart_send_str("\x1B\x5B\x44");
     f20:	808c0513          	addi	a0,s8,-2040 # 1808 <_ZNK14command_buffer33apply_on_chars_from_cursor_to_endIZL5inputRS_EUlcE_EEvOT_.isra.0+0x65c>
#             uart_send_str("\x1B\x5B\x43");
     f24:	164000ef          	jal	1088 <_ZL13uart_send_strPKc>
     f28:	fe1ff06f          	j	f08 <_ZL5inputR14command_buffer+0x224>
#     if (cursor_ == end_) {
     f2c:	05044783          	lbu	a5,80(s0)
     f30:	fcf70ce3          	beq	a4,a5,f08 <_ZL5inputR14command_buffer+0x224>
#     ++cursor_;
     f34:	00178793          	addi	a5,a5,1
#             uart_send_str("\x1B\x5B\x43");
     f38:	00002537          	lui	a0,0x2
#     ++cursor_;
     f3c:	04f40823          	sb	a5,80(s0)
#             uart_send_str("\x1B\x5B\x43");
     f40:	80c50513          	addi	a0,a0,-2036 # 180c <_ZNK14command_buffer33apply_on_chars_from_cursor_to_endIZL5inputRS_EUlcE_EEvOT_.isra.0+0x660>
     f44:	fe1ff06f          	j	f24 <_ZL5inputR14command_buffer+0x240>
#           if (escape_sequence_parameter == 3) {
     f48:	fda990e3          	bne	s3,s10,f08 <_ZL5inputR14command_buffer+0x224>
#     if (cursor_ == end_) {
     f4c:	05044783          	lbu	a5,80(s0)
     f50:	00f70e63          	beq	a4,a5,f6c <_ZL5inputR14command_buffer+0x288>
#     for (size_t i = cursor_ + 1; i < end_; ++i) {
     f54:	00f407b3          	add	a5,s0,a5
     f58:	00178793          	addi	a5,a5,1
     f5c:	408786b3          	sub	a3,a5,s0
     f60:	02e6ea63          	bltu	a3,a4,f94 <_ZL5inputR14command_buffer+0x2b0>
#     --end_;
     f64:	fff70713          	addi	a4,a4,-1
     f68:	04e408a3          	sb	a4,81(s0)
#             cmd_buf.apply_on_chars_from_cursor_to_end(
     f6c:	00040513          	mv	a0,s0
     f70:	23c000ef          	jal	11ac <_ZNK14command_buffer33apply_on_chars_from_cursor_to_endIZL5inputRS_EUlcE_EEvOT_.isra.0>
#             uart_send_char(' ');
     f74:	02000513          	li	a0,32
     f78:	130000ef          	jal	10a8 <_ZL14uart_send_charc>
#   auto characters_after_cursor() const -> size_t { return end_ - cursor_; }
     f7c:	05144503          	lbu	a0,81(s0)
     f80:	05044783          	lbu	a5,80(s0)
     f84:	40f50533          	sub	a0,a0,a5
#             uart_send_move_back(cmd_buf.characters_after_cursor() + 1);
     f88:	00150513          	addi	a0,a0,1
     f8c:	0b4000ef          	jal	1040 <_ZL19uart_send_move_backj>
     f90:	f79ff06f          	j	f08 <_ZL5inputR14command_buffer+0x224>
#       line_[i - 1] = line_[i];
     f94:	0007c683          	lbu	a3,0(a5)
     f98:	fed78fa3          	sb	a3,-1(a5)
#     for (size_t i = cursor_ + 1; i < end_; ++i) {
     f9c:	fbdff06f          	j	f58 <_ZL5inputR14command_buffer+0x274>
#         state = input_state::escape;
     fa0:	00100913          	li	s2,1
     fa4:	f1dff06f          	j	ec0 <_ZL5inputR14command_buffer+0x1dc>

00000fa8 <_ZL13strings_equalPKcS0_>:
# 
# static auto strings_equal(char const *s1, char const *s2) -> bool {
#   while (true) {
#     if (*s1 != *s2) {
     fa8:	00054703          	lbu	a4,0(a0)
     fac:	0005c783          	lbu	a5,0(a1)
     fb0:	00e79a63          	bne	a5,a4,fc4 <_ZL13strings_equalPKcS0_+0x1c>
#       return false;
#     }
#     if (!*s1 && !*s2) {
     fb4:	00078c63          	beqz	a5,fcc <_ZL13strings_equalPKcS0_+0x24>
#       return true;
#     }
#     ++s1;
     fb8:	00150513          	addi	a0,a0,1
#     ++s2;
     fbc:	00158593          	addi	a1,a1,1
#     if (*s1 != *s2) {
     fc0:	fe9ff06f          	j	fa8 <_ZL13strings_equalPKcS0_>
#       return false;
     fc4:	00000513          	li	a0,0
     fc8:	00008067          	ret
#       return true;
     fcc:	00100513          	li	a0,1
#   }
# }
     fd0:	00008067          	ret

00000fd4 <_ZL11string_copyPKcjPc>:
# 
# static auto string_copy(char const *src, size_t src_len, char *dst) -> void {
#   while (src_len--) {
     fd4:	00000793          	li	a5,0
     fd8:	00f59463          	bne	a1,a5,fe0 <_ZL11string_copyPKcjPc+0xc>
#     *dst++ = *src++;
#   }
# }
     fdc:	00008067          	ret
#     *dst++ = *src++;
     fe0:	00f50733          	add	a4,a0,a5
     fe4:	00074683          	lbu	a3,0(a4)
     fe8:	00f60733          	add	a4,a2,a5
     fec:	00178793          	addi	a5,a5,1
     ff0:	00d70023          	sb	a3,0(a4)
     ff4:	fe5ff06f          	j	fd8 <_ZL11string_copyPKcjPc+0x4>

00000ff8 <_ZL18uart_send_hex_bytec>:
# 
# static auto uart_send_hex_byte(char const ch) -> void {
     ff8:	ff010113          	addi	sp,sp,-16
     ffc:	00812423          	sw	s0,8(sp)
    1000:	00050413          	mv	s0,a0
#   uart_send_hex_nibble(ch >> 4);
    1004:	00455513          	srli	a0,a0,0x4
# static auto uart_send_hex_byte(char const ch) -> void {
    1008:	00112623          	sw	ra,12(sp)
#   uart_send_hex_nibble(ch >> 4);
    100c:	018000ef          	jal	1024 <_ZL20uart_send_hex_nibblec>
#   uart_send_hex_nibble(ch & 0x0f);
    1010:	00f47513          	andi	a0,s0,15
# }
    1014:	00812403          	lw	s0,8(sp)
    1018:	00c12083          	lw	ra,12(sp)
    101c:	01010113          	addi	sp,sp,16
#   uart_send_hex_nibble(ch & 0x0f);
    1020:	0040006f          	j	1024 <_ZL20uart_send_hex_nibblec>

00001024 <_ZL20uart_send_hex_nibblec>:
# 
# static auto uart_send_hex_nibble(char const nibble) -> void {
#   if (nibble < 10) {
    1024:	00900793          	li	a5,9
    1028:	00a7e863          	bltu	a5,a0,1038 <_ZL20uart_send_hex_nibblec+0x14>
#     uart_send_char('0' + nibble);
    102c:	03050513          	addi	a0,a0,48
#   } else {
#     uart_send_char('A' + (nibble - 10));
    1030:	0ff57513          	zext.b	a0,a0
    1034:	0740006f          	j	10a8 <_ZL14uart_send_charc>
    1038:	03750513          	addi	a0,a0,55
    103c:	ff5ff06f          	j	1030 <_ZL20uart_send_hex_nibblec+0xc>

00001040 <_ZL19uart_send_move_backj>:
#   }
# }
# 
# static auto uart_send_move_back(size_t const n) -> void {
    1040:	ff010113          	addi	sp,sp,-16
    1044:	00812423          	sw	s0,8(sp)
    1048:	00912223          	sw	s1,4(sp)
    104c:	00112623          	sw	ra,12(sp)
    1050:	00050413          	mv	s0,a0
#   for (size_t i = 0; i < n; ++i) {
    1054:	00000493          	li	s1,0
    1058:	00849c63          	bne	s1,s0,1070 <_ZL19uart_send_move_backj+0x30>
#     uart_send_char('\b');
#   }
# }
    105c:	00c12083          	lw	ra,12(sp)
    1060:	00812403          	lw	s0,8(sp)
    1064:	00412483          	lw	s1,4(sp)
    1068:	01010113          	addi	sp,sp,16
    106c:	00008067          	ret
#     uart_send_char('\b');
    1070:	00800513          	li	a0,8
    1074:	034000ef          	jal	10a8 <_ZL14uart_send_charc>
#   for (size_t i = 0; i < n; ++i) {
    1078:	00148493          	addi	s1,s1,1
    107c:	fddff06f          	j	1058 <_ZL19uart_send_move_backj+0x18>

00001080 <_ZL7led_seth>:
    1080:	fea00fa3          	sb	a0,-1(zero) # ffffffff <__bss_end+0xffffe393>
    1084:	00008067          	ret

00001088 <_ZL13uart_send_strPKc>:
#   while (*str) {
    1088:	00054783          	lbu	a5,0(a0)
    108c:	00079463          	bnez	a5,1094 <_ZL13uart_send_strPKc+0xc>
# }
    1090:	00008067          	ret
#     while (*UART_OUT)
    1094:	ffe04703          	lbu	a4,-2(zero) # fffffffe <__bss_end+0xffffe392>
    1098:	fe071ee3          	bnez	a4,1094 <_ZL13uart_send_strPKc+0xc>
#     *UART_OUT = *str++;
    109c:	00150513          	addi	a0,a0,1
    10a0:	fef00f23          	sb	a5,-2(zero) # fffffffe <__bss_end+0xffffe392>
    10a4:	fe5ff06f          	j	1088 <_ZL13uart_send_strPKc>

000010a8 <_ZL14uart_send_charc>:
#   while (*UART_OUT)
    10a8:	ffe04783          	lbu	a5,-2(zero) # fffffffe <__bss_end+0xffffe392>
    10ac:	fe079ee3          	bnez	a5,10a8 <_ZL14uart_send_charc>
#   *UART_OUT = ch;
    10b0:	fea00f23          	sb	a0,-2(zero) # fffffffe <__bss_end+0xffffe392>
# }
    10b4:	00008067          	ret

000010b8 <_ZL14uart_read_charv>:
#   while ((ch = *UART_IN) == 0)
    10b8:	ffd04783          	lbu	a5,-3(zero) # fffffffd <__bss_end+0xffffe391>
    10bc:	0ff7f513          	zext.b	a0,a5
    10c0:	fe078ce3          	beqz	a5,10b8 <_ZL14uart_read_charv>
# }
    10c4:	00008067          	ret

000010c8 <_ZL15action_mem_testv>:
#   uart_send_str("testing memory (write)\r\n");
    10c8:	00002537          	lui	a0,0x2
# static auto action_mem_test() -> void {
    10cc:	ff010113          	addi	sp,sp,-16
#   uart_send_str("testing memory (write)\r\n");
    10d0:	81050513          	addi	a0,a0,-2032 # 1810 <_ZNK14command_buffer33apply_on_chars_from_cursor_to_endIZL5inputRS_EUlcE_EEvOT_.isra.0+0x664>
# static auto action_mem_test() -> void {
    10d4:	00812423          	sw	s0,8(sp)
    10d8:	00112623          	sw	ra,12(sp)
#   uart_send_str("testing memory (write)\r\n");
    10dc:	fadff0ef          	jal	1088 <_ZL13uart_send_strPKc>
#   char *ptr = &__heap_start;
    10e0:	00002437          	lui	s0,0x2
#   while (ptr < end) {
    10e4:	00200737          	lui	a4,0x200
#   char *ptr = &__heap_start;
    10e8:	c6c40793          	addi	a5,s0,-916 # 1c6c <__bss_end>
#   char ch = 0;
    10ec:	00000693          	li	a3,0
    10f0:	c6c40413          	addi	s0,s0,-916
#   while (ptr < end) {
    10f4:	bff70713          	addi	a4,a4,-1025 # 1ffbff <__bss_end+0x1fdf93>
    10f8:	02f77663          	bgeu	a4,a5,1124 <_ZL15action_mem_testv+0x5c>
#   uart_send_str("testing memory (read)\r\n");
    10fc:	00002537          	lui	a0,0x2
    1100:	82c50513          	addi	a0,a0,-2004 # 182c <_ZNK14command_buffer33apply_on_chars_from_cursor_to_endIZL5inputRS_EUlcE_EEvOT_.isra.0+0x680>
    1104:	f85ff0ef          	jal	1088 <_ZL13uart_send_strPKc>
#   while (ptr < end) {
    1108:	002006b7          	lui	a3,0x200
#   ptr = &__heap_start;
    110c:	00040793          	mv	a5,s0
#   while (ptr < end) {
    1110:	bff68693          	addi	a3,a3,-1025 # 1ffbff <__bss_end+0x1fdf93>
    1114:	02f6f263          	bgeu	a3,a5,1138 <_ZL15action_mem_testv+0x70>
#   uart_send_str("testing memory succeeded\r\n");
    1118:	00002537          	lui	a0,0x2
    111c:	86050513          	addi	a0,a0,-1952 # 1860 <_ZNK14command_buffer33apply_on_chars_from_cursor_to_endIZL5inputRS_EUlcE_EEvOT_.isra.0+0x6b4>
    1120:	0380006f          	j	1158 <_ZL15action_mem_testv+0x90>
#     *ptr++ = ch++;
    1124:	00168613          	addi	a2,a3,1
    1128:	00178793          	addi	a5,a5,1
    112c:	fed78fa3          	sb	a3,-1(a5)
    1130:	0ff67693          	zext.b	a3,a2
    1134:	fc5ff06f          	j	10f8 <_ZL15action_mem_testv+0x30>
#     if (*ptr++ != ch++) {
    1138:	00178793          	addi	a5,a5,1
    113c:	40878733          	sub	a4,a5,s0
    1140:	fff7c603          	lbu	a2,-1(a5)
    1144:	fff70713          	addi	a4,a4,-1
    1148:	0ff77713          	zext.b	a4,a4
    114c:	fce604e3          	beq	a2,a4,1114 <_ZL15action_mem_testv+0x4c>
#       uart_send_str("!!! test memory failed\r\n");
    1150:	00002537          	lui	a0,0x2
    1154:	84450513          	addi	a0,a0,-1980 # 1844 <_ZNK14command_buffer33apply_on_chars_from_cursor_to_endIZL5inputRS_EUlcE_EEvOT_.isra.0+0x698>
# }
    1158:	00812403          	lw	s0,8(sp)
    115c:	00c12083          	lw	ra,12(sp)
    1160:	01010113          	addi	sp,sp,16
#   uart_send_str("testing memory succeeded\r\n");
    1164:	f25ff06f          	j	1088 <_ZL13uart_send_strPKc>

00001168 <memset>:
#   while (n--) {
    1168:	00c50633          	add	a2,a0,a2
#   char *ptr = reinterpret_cast<char *>(str);
    116c:	00050793          	mv	a5,a0
#   while (n--) {
    1170:	00c79463          	bne	a5,a2,1178 <memset+0x10>
# }
    1174:	00008067          	ret
#     *ptr++ = char(ch);
    1178:	00178793          	addi	a5,a5,1
    117c:	feb78fa3          	sb	a1,-1(a5)
    1180:	ff1ff06f          	j	1170 <memset+0x8>

00001184 <_ZL12initiate_bssv>:
#   memset(&__bss_start, 0, &__bss_end - &__bss_start);
    1184:	00002537          	lui	a0,0x2
    1188:	000027b7          	lui	a5,0x2
    118c:	c6450613          	addi	a2,a0,-924 # 1c64 <_ZL21input_escape_sequence>
    1190:	c6c78793          	addi	a5,a5,-916 # 1c6c <__bss_end>
    1194:	40c78633          	sub	a2,a5,a2
    1198:	00000593          	li	a1,0
    119c:	c6450513          	addi	a0,a0,-924
    11a0:	fc9ff06f          	j	1168 <memset>

000011a4 <_ZL16initiate_staticsv>:
# static auto initiate_statics() -> void {}
    11a4:	00008067          	ret

000011a8 <_ZL4exiti>:
    11a8:	00008067          	ret

000011ac <_ZNK14command_buffer33apply_on_chars_from_cursor_to_endIZL5inputRS_EUlcE_EEvOT_.isra.0>:
#   auto apply_on_chars_from_cursor_to_end(auto &&f) const -> void {
    11ac:	ff010113          	addi	sp,sp,-16
    11b0:	00812423          	sw	s0,8(sp)
    11b4:	00112623          	sw	ra,12(sp)
    11b8:	00912223          	sw	s1,4(sp)
#     for (size_t i = cursor_; i < end_; ++i) {
    11bc:	05054483          	lbu	s1,80(a0)
#   auto apply_on_chars_from_cursor_to_end(auto &&f) const -> void {
    11c0:	00050413          	mv	s0,a0
#     for (size_t i = cursor_; i < end_; ++i) {
    11c4:	05144783          	lbu	a5,81(s0)
    11c8:	00f4ec63          	bltu	s1,a5,11e0 <_ZNK14command_buffer33apply_on_chars_from_cursor_to_endIZL5inputRS_EUlcE_EEvOT_.isra.0+0x34>
#   }
    11cc:	00c12083          	lw	ra,12(sp)
    11d0:	00812403          	lw	s0,8(sp)
    11d4:	00412483          	lw	s1,4(sp)
    11d8:	01010113          	addi	sp,sp,16
    11dc:	00008067          	ret
#       f(line_[i]);
    11e0:	009407b3          	add	a5,s0,s1
#               [](char c) { uart_send_char(c); });
    11e4:	0007c503          	lbu	a0,0(a5)
#     for (size_t i = cursor_; i < end_; ++i) {
    11e8:	00148493          	addi	s1,s1,1
#               [](char c) { uart_send_char(c); });
    11ec:	ebdff0ef          	jal	10a8 <_ZL14uart_send_charc>
#     for (size_t i = cursor_; i < end_; ++i) {
    11f0:	fd5ff06f          	j	11c4 <_ZNK14command_buffer33apply_on_chars_from_cursor_to_endIZL5inputRS_EUlcE_EEvOT_.isra.0+0x18>
