
os:     file format elf32-littleriscv


Disassembly of section .text:

00000000 <_start>:
# # generated - do not edit (see `configuration.py`)
# .global _start
# _start:
#     li sp, 0x200000
       0:	00200137          	lui	sp,0x200
#     jal ra, run
       4:	004000ef          	jal	8 <run>

00000008 <run>:
# extern char __bss_start;
# extern char __bss_end;
# 
# // zero bss section
# static auto initiate_bss() -> void {
#   memset(&__bss_start, 0, &__bss_end - &__bss_start);
       8:	00003737          	lui	a4,0x3
       c:	000037b7          	lui	a5,0x3
# static auto input(command_buffer &cmd_buf) -> void;
# static auto handle_input(entity_id_t eid, command_buffer &cmd_buf) -> void;
# static auto strings_equal(char const *s1, char const *s2) -> bool;
# static auto string_copy(char const *src, size_t src_len, char *dst) -> void;
# 
# extern "C" auto run() -> void {
      10:	f8010113          	add	sp,sp,-128 # 1fff80 <__bss_end+0x1fd1e8>
      14:	d9070693          	add	a3,a4,-624 # 2d90 <_ZL21input_escape_sequence>
      18:	d9878793          	add	a5,a5,-616 # 2d98 <__bss_end>
      1c:	06112e23          	sw	ra,124(sp)
      20:	06812c23          	sw	s0,120(sp)
      24:	06912a23          	sw	s1,116(sp)
      28:	07212823          	sw	s2,112(sp)
      2c:	07312623          	sw	s3,108(sp)
      30:	07412423          	sw	s4,104(sp)
      34:	07512223          	sw	s5,100(sp)
      38:	40d787b3          	sub	a5,a5,a3
#   while (n--) {
      3c:	0a078c63          	beqz	a5,f4 <run+0xec>
      40:	40d00533          	neg	a0,a3
      44:	fff78613          	add	a2,a5,-1
      48:	00500593          	li	a1,5
      4c:	00357813          	and	a6,a0,3
      50:	20c5f063          	bgeu	a1,a2,250 <run+0x248>
#   char *ptr = reinterpret_cast<char *>(str);
      54:	d9070593          	add	a1,a4,-624
      58:	02080863          	beqz	a6,88 <run+0x80>
#     *ptr++ = char(ch);
      5c:	d8070823          	sb	zero,-624(a4)
#   while (n--) {
      60:	00257513          	and	a0,a0,2
      64:	1c050663          	beqz	a0,230 <run+0x228>
#     *ptr++ = char(ch);
      68:	fff68713          	add	a4,a3,-1
      6c:	000680a3          	sb	zero,1(a3)
#   while (n--) {
      70:	00377713          	and	a4,a4,3
      74:	1c071663          	bnez	a4,240 <run+0x238>
#     *ptr++ = char(ch);
      78:	000035b7          	lui	a1,0x3
      7c:	00068123          	sb	zero,2(a3)
#   while (n--) {
      80:	ffc78613          	add	a2,a5,-4
#     *ptr++ = char(ch);
      84:	d9358593          	add	a1,a1,-621 # 2d93 <_ZL21input_escape_sequence+0x3>
      88:	410787b3          	sub	a5,a5,a6
      8c:	010686b3          	add	a3,a3,a6
      90:	ffc7f713          	and	a4,a5,-4
      94:	00d70733          	add	a4,a4,a3
      98:	0006a023          	sw	zero,0(a3)
#   while (n--) {
      9c:	00468693          	add	a3,a3,4
      a0:	fee69ce3          	bne	a3,a4,98 <run+0x90>
      a4:	ffc7f693          	and	a3,a5,-4
      a8:	0037f793          	and	a5,a5,3
      ac:	00d58733          	add	a4,a1,a3
      b0:	40d60633          	sub	a2,a2,a3
      b4:	04078063          	beqz	a5,f4 <run+0xec>
#     *ptr++ = char(ch);
      b8:	00070023          	sb	zero,0(a4)
#   while (n--) {
      bc:	02060c63          	beqz	a2,f4 <run+0xec>
#     *ptr++ = char(ch);
      c0:	000700a3          	sb	zero,1(a4)
#   while (n--) {
      c4:	00100793          	li	a5,1
      c8:	02f60663          	beq	a2,a5,f4 <run+0xec>
#     *ptr++ = char(ch);
      cc:	00070123          	sb	zero,2(a4)
#   while (n--) {
      d0:	00200793          	li	a5,2
      d4:	02f60063          	beq	a2,a5,f4 <run+0xec>
#     *ptr++ = char(ch);
      d8:	000701a3          	sb	zero,3(a4)
#   while (n--) {
      dc:	00300793          	li	a5,3
      e0:	00f60a63          	beq	a2,a5,f4 <run+0xec>
#     *ptr++ = char(ch);
      e4:	00070223          	sb	zero,4(a4)
#   while (n--) {
      e8:	00400793          	li	a5,4
      ec:	00f60463          	beq	a2,a5,f4 <run+0xec>
#     *ptr++ = char(ch);
      f0:	000702a3          	sb	zero,5(a4)
# static auto led_set(uint8_t bits) -> void { *LED = bits; }
      f4:	fe000fa3          	sb	zero,-1(zero) # ffffffff <__bss_end+0xffffd267>
# 
#   led_set(0);
#   // turn all leds on
# 
#   entity_id_t active_entity = 1;
#   command_buffer cmd_buf{};
      f8:	05200613          	li	a2,82
      fc:	00000593          	li	a1,0
     100:	00c10513          	add	a0,sp,12
     104:	00002097          	auipc	ra,0x2
     108:	d5c080e7          	jalr	-676(ra) # 1e60 <memset>
# 
#   uart_send_str(ascii_art);
     10c:	000037b7          	lui	a5,0x3
     110:	d8c7a683          	lw	a3,-628(a5) # 2d8c <_ZL9ascii_art>
#   while (*str) {
     114:	0006c703          	lbu	a4,0(a3)
     118:	00070e63          	beqz	a4,134 <run+0x12c>
#     while (*UART_OUT)
     11c:	ffe04783          	lbu	a5,-2(zero) # fffffffe <__bss_end+0xffffd266>
     120:	fe079ee3          	bnez	a5,11c <run+0x114>
#     *UART_OUT = *str++;
     124:	00168693          	add	a3,a3,1
     128:	fee00f23          	sb	a4,-2(zero) # fffffffe <__bss_end+0xffffd266>
#   while (*str) {
     12c:	0006c703          	lbu	a4,0(a3)
     130:	fe0716e3          	bnez	a4,11c <run+0x114>
#   uart_send_str(hello);
     134:	000037b7          	lui	a5,0x3
     138:	d887a683          	lw	a3,-632(a5) # 2d88 <_ZL5hello>
     13c:	0006c703          	lbu	a4,0(a3)
     140:	00070e63          	beqz	a4,15c <run+0x154>
#     while (*UART_OUT)
     144:	ffe04783          	lbu	a5,-2(zero) # fffffffe <__bss_end+0xffffd266>
     148:	fe079ee3          	bnez	a5,144 <run+0x13c>
#     *UART_OUT = *str++;
     14c:	00168693          	add	a3,a3,1
     150:	fee00f23          	sb	a4,-2(zero) # fffffffe <__bss_end+0xffffd266>
#   while (*str) {
     154:	0006c703          	lbu	a4,0(a3)
     158:	fe0716e3          	bnez	a4,144 <run+0x13c>
     15c:	00003937          	lui	s2,0x3
     160:	000024b7          	lui	s1,0x2
     164:	00002437          	lui	s0,0x2
#   entity_id_t active_entity = 1;
     168:	00100a93          	li	s5,1
     16c:	9cc90913          	add	s2,s2,-1588 # 29cc <_ZL8entities>
     170:	42c48493          	add	s1,s1,1068 # 242c <_ZL4exiti+0x3e4>
     174:	53440413          	add	s0,s0,1332 # 2534 <_ZL4exiti+0x4ec>
     178:	00300993          	li	s3,3
# 
#   while (true) {
#     entity const &ent = entities[active_entity];
#     print_location(ent.location, active_entity);
     17c:	001a9a13          	sll	s4,s5,0x1
     180:	015a0a33          	add	s4,s4,s5
     184:	002a1a13          	sll	s4,s4,0x2
     188:	415a0a33          	sub	s4,s4,s5
     18c:	002a1a13          	sll	s4,s4,0x2
     190:	01490a33          	add	s4,s2,s4
     194:	004a4503          	lbu	a0,4(s4)
     198:	000a8593          	mv	a1,s5
     19c:	00000097          	auipc	ra,0x0
     1a0:	4f8080e7          	jalr	1272(ra) # 694 <_ZL14print_locationhh>
#     uart_send_str(ent.name);
     1a4:	000a2683          	lw	a3,0(s4)
     1a8:	0006c703          	lbu	a4,0(a3)
     1ac:	00070e63          	beqz	a4,1c8 <run+0x1c0>
#     while (*UART_OUT)
     1b0:	ffe04783          	lbu	a5,-2(zero) # fffffffe <__bss_end+0xffffd266>
     1b4:	fe079ee3          	bnez	a5,1b0 <run+0x1a8>
#     *UART_OUT = *str++;
     1b8:	00168693          	add	a3,a3,1
     1bc:	fee00f23          	sb	a4,-2(zero) # fffffffe <__bss_end+0xffffd266>
#   while (*str) {
     1c0:	0006c703          	lbu	a4,0(a3)
     1c4:	fe0716e3          	bnez	a4,1b0 <run+0x1a8>
     1c8:	02000693          	li	a3,32
     1cc:	00048713          	mv	a4,s1
#     while (*UART_OUT)
     1d0:	ffe04783          	lbu	a5,-2(zero) # fffffffe <__bss_end+0xffffd266>
     1d4:	fe079ee3          	bnez	a5,1d0 <run+0x1c8>
#     *UART_OUT = *str++;
     1d8:	00170713          	add	a4,a4,1
     1dc:	fed00f23          	sb	a3,-2(zero) # fffffffe <__bss_end+0xffffd266>
#   while (*str) {
     1e0:	00074683          	lbu	a3,0(a4)
     1e4:	fe0696e3          	bnez	a3,1d0 <run+0x1c8>
#     uart_send_str(" > ");
#     input(cmd_buf);
     1e8:	00c10513          	add	a0,sp,12
     1ec:	00001097          	auipc	ra,0x1
     1f0:	494080e7          	jalr	1172(ra) # 1680 <_ZL5inputR14command_buffer>
     1f4:	00d00693          	li	a3,13
     1f8:	00040713          	mv	a4,s0
#     while (*UART_OUT)
     1fc:	ffe04783          	lbu	a5,-2(zero) # fffffffe <__bss_end+0xffffd266>
     200:	fe079ee3          	bnez	a5,1fc <run+0x1f4>
#     *UART_OUT = *str++;
     204:	00170713          	add	a4,a4,1
     208:	fed00f23          	sb	a3,-2(zero) # fffffffe <__bss_end+0xffffd266>
#   while (*str) {
     20c:	00074683          	lbu	a3,0(a4)
     210:	fe0696e3          	bnez	a3,1fc <run+0x1f4>
#     uart_send_str("\r\n");
#     handle_input(active_entity, cmd_buf);
     214:	000a8513          	mv	a0,s5
     218:	00c10593          	add	a1,sp,12
     21c:	41598ab3          	sub	s5,s3,s5
     220:	00000097          	auipc	ra,0x0
     224:	038080e7          	jalr	56(ra) # 258 <_ZL12handle_inputhR14command_buffer>
#     active_entity = active_entity == 1 ? 2 : 1;
     228:	0ffafa93          	zext.b	s5,s5
     22c:	f51ff06f          	j	17c <run+0x174>
#     *ptr++ = char(ch);
     230:	000035b7          	lui	a1,0x3
#   while (n--) {
     234:	ffe78613          	add	a2,a5,-2
#     *ptr++ = char(ch);
     238:	d9158593          	add	a1,a1,-623 # 2d91 <_ZL21input_escape_sequence+0x1>
     23c:	e4dff06f          	j	88 <run+0x80>
     240:	000035b7          	lui	a1,0x3
#   while (n--) {
     244:	ffd78613          	add	a2,a5,-3
#     *ptr++ = char(ch);
     248:	d9258593          	add	a1,a1,-622 # 2d92 <_ZL21input_escape_sequence+0x2>
     24c:	e3dff06f          	j	88 <run+0x80>
#   char *ptr = reinterpret_cast<char *>(str);
     250:	d9070713          	add	a4,a4,-624
     254:	e65ff06f          	j	b8 <run+0xb0>

00000258 <_ZL12handle_inputhR14command_buffer>:
#   }
# }
# 
# static auto handle_input(entity_id_t const eid,
#                          command_buffer &cmd_buf) -> void {
     258:	fd010113          	add	sp,sp,-48
     25c:	02112623          	sw	ra,44(sp)
     260:	00010813          	mv	a6,sp
#   char const *words[8];
#   char *ptr = cmd_buf.command_line();
#   size_t nwords = 0;
     264:	00000613          	li	a2,0
#   while (true) {
#     words[nwords] = ptr;
#     ++nwords;
#     while (*ptr && *ptr != ' ') {
     268:	02000693          	li	a3,32
#     if (!*ptr) {
#       break;
#     }
#     *ptr = '\0';
#     ++ptr;
#     if (nwords == sizeof(words) / sizeof(char const *)) {
     26c:	00800893          	li	a7,8
#     while (*ptr && *ptr != ' ') {
     270:	0005c783          	lbu	a5,0(a1)
#     words[nwords] = ptr;
     274:	00b82023          	sw	a1,0(a6)
#     ++nwords;
     278:	00160613          	add	a2,a2,1
#     while (*ptr && *ptr != ' ') {
     27c:	00079863          	bnez	a5,28c <_ZL12handle_inputhR14command_buffer+0x34>
     280:	0480006f          	j	2c8 <_ZL12handle_inputhR14command_buffer+0x70>
     284:	0005c783          	lbu	a5,0(a1)
     288:	04078063          	beqz	a5,2c8 <_ZL12handle_inputhR14command_buffer+0x70>
     28c:	00058713          	mv	a4,a1
#       ++ptr;
     290:	00158593          	add	a1,a1,1
#     while (*ptr && *ptr != ' ') {
     294:	fed798e3          	bne	a5,a3,284 <_ZL12handle_inputhR14command_buffer+0x2c>
#     *ptr = '\0';
     298:	00070023          	sb	zero,0(a4)
#     if (nwords == sizeof(words) / sizeof(char const *)) {
     29c:	00480813          	add	a6,a6,4
     2a0:	fd1618e3          	bne	a2,a7,270 <_ZL12handle_inputhR14command_buffer+0x18>
     2a4:	00002737          	lui	a4,0x2
     2a8:	43070713          	add	a4,a4,1072 # 2430 <_ZL4exiti+0x3e8>
#   while (*str) {
     2ac:	07400693          	li	a3,116
#     while (*UART_OUT)
     2b0:	ffe04783          	lbu	a5,-2(zero) # fffffffe <__bss_end+0xffffd266>
     2b4:	fe079ee3          	bnez	a5,2b0 <_ZL12handle_inputhR14command_buffer+0x58>
#     *UART_OUT = *str++;
     2b8:	00170713          	add	a4,a4,1
     2bc:	fed00f23          	sb	a3,-2(zero) # fffffffe <__bss_end+0xffffd266>
#   while (*str) {
     2c0:	00074683          	lbu	a3,0(a4)
     2c4:	fe0696e3          	bnez	a3,2b0 <_ZL12handle_inputhR14command_buffer+0x58>
#   }
#   // for (size_t i = 0; i < nwords; i++) {
#   //   uart_send_str(words[i]);
#   //   uart_send_str("\r\n");
#   // }
#   if (strings_equal(words[0], "help")) {
     2c8:	00012783          	lw	a5,0(sp)
#   }
# }
# 
# static auto strings_equal(char const *s1, char const *s2) -> bool {
#   while (true) {
#     if (*s1 != *s2) {
     2cc:	06800693          	li	a3,104
     2d0:	0007c703          	lbu	a4,0(a5)
     2d4:	04d71e63          	bne	a4,a3,330 <_ZL12handle_inputhR14command_buffer+0xd8>
     2d8:	00002637          	lui	a2,0x2
     2dc:	45460613          	add	a2,a2,1108 # 2454 <_ZL4exiti+0x40c>
     2e0:	0100006f          	j	2f0 <_ZL12handle_inputhR14command_buffer+0x98>
     2e4:	0007c683          	lbu	a3,0(a5)
     2e8:	00064703          	lbu	a4,0(a2)
     2ec:	02d71c63          	bne	a4,a3,324 <_ZL12handle_inputhR14command_buffer+0xcc>
#       return false;
#     }
#     if (!*s1 && !*s2) {
     2f0:	00d766b3          	or	a3,a4,a3
#       return true;
#     }
#     ++s1;
     2f4:	00178793          	add	a5,a5,1
#     ++s2;
     2f8:	00160613          	add	a2,a2,1
#     if (!*s1 && !*s2) {
     2fc:	fe0694e3          	bnez	a3,2e4 <_ZL12handle_inputhR14command_buffer+0x8c>
     300:	00002737          	lui	a4,0x2
     304:	00d00693          	li	a3,13
     308:	45c70713          	add	a4,a4,1116 # 245c <_ZL4exiti+0x414>
#     while (*UART_OUT)
     30c:	ffe04783          	lbu	a5,-2(zero) # fffffffe <__bss_end+0xffffd266>
     310:	fe079ee3          	bnez	a5,30c <_ZL12handle_inputhR14command_buffer+0xb4>
#     *UART_OUT = *str++;
     314:	00170713          	add	a4,a4,1
     318:	fed00f23          	sb	a3,-2(zero) # fffffffe <__bss_end+0xffffd266>
#   while (*str) {
     31c:	00074683          	lbu	a3,0(a4)
     320:	fe0696e3          	bnez	a3,30c <_ZL12handle_inputhR14command_buffer+0xb4>
# }
     324:	02c12083          	lw	ra,44(sp)
     328:	03010113          	add	sp,sp,48
     32c:	00008067          	ret
#     if (*s1 != *s2) {
     330:	06900693          	li	a3,105
     334:	06d71663          	bne	a4,a3,3a0 <_ZL12handle_inputhR14command_buffer+0x148>
     338:	00002637          	lui	a2,0x2
     33c:	53860613          	add	a2,a2,1336 # 2538 <_ZL4exiti+0x4f0>
#     if (!*s1 && !*s2) {
     340:	00d766b3          	or	a3,a4,a3
#     ++s1;
     344:	00178793          	add	a5,a5,1
#     ++s2;
     348:	00160613          	add	a2,a2,1
#     if (!*s1 && !*s2) {
     34c:	02069e63          	bnez	a3,388 <_ZL12handle_inputhR14command_buffer+0x130>
#     action_inventory(eid);
     350:	00000097          	auipc	ra,0x0
     354:	6b0080e7          	jalr	1712(ra) # a00 <_ZL16action_inventoryh>
     358:	00002737          	lui	a4,0x2
     35c:	00d00693          	li	a3,13
     360:	53470713          	add	a4,a4,1332 # 2534 <_ZL4exiti+0x4ec>
#     while (*UART_OUT)
     364:	ffe04783          	lbu	a5,-2(zero) # fffffffe <__bss_end+0xffffd266>
     368:	fe079ee3          	bnez	a5,364 <_ZL12handle_inputhR14command_buffer+0x10c>
#     *UART_OUT = *str++;
     36c:	00170713          	add	a4,a4,1
     370:	fed00f23          	sb	a3,-2(zero) # fffffffe <__bss_end+0xffffd266>
#   while (*str) {
     374:	00074683          	lbu	a3,0(a4)
     378:	fa0686e3          	beqz	a3,324 <_ZL12handle_inputhR14command_buffer+0xcc>
#     while (*UART_OUT)
     37c:	ffe04783          	lbu	a5,-2(zero) # fffffffe <__bss_end+0xffffd266>
     380:	fe0792e3          	bnez	a5,364 <_ZL12handle_inputhR14command_buffer+0x10c>
     384:	fe9ff06f          	j	36c <_ZL12handle_inputhR14command_buffer+0x114>
#     if (*s1 != *s2) {
     388:	0007c703          	lbu	a4,0(a5)
     38c:	00064683          	lbu	a3,0(a2)
     390:	fad708e3          	beq	a4,a3,340 <_ZL12handle_inputhR14command_buffer+0xe8>
# }
     394:	02c12083          	lw	ra,44(sp)
     398:	03010113          	add	sp,sp,48
     39c:	00008067          	ret
#     if (*s1 != *s2) {
     3a0:	07400693          	li	a3,116
     3a4:	06d71c63          	bne	a4,a3,41c <_ZL12handle_inputhR14command_buffer+0x1c4>
     3a8:	000025b7          	lui	a1,0x2
     3ac:	07400813          	li	a6,116
     3b0:	53c58593          	add	a1,a1,1340 # 253c <_ZL4exiti+0x4f4>
#     if (!*s1 && !*s2) {
     3b4:	0106e6b3          	or	a3,a3,a6
#     ++s1;
     3b8:	00178793          	add	a5,a5,1
#     ++s2;
     3bc:	00158593          	add	a1,a1,1
#     if (!*s1 && !*s2) {
     3c0:	02069063          	bnez	a3,3e0 <_ZL12handle_inputhR14command_buffer+0x188>
#     if (nwords < 2) {
     3c4:	00100793          	li	a5,1
     3c8:	02f60863          	beq	a2,a5,3f8 <_ZL12handle_inputhR14command_buffer+0x1a0>
#     action_take(eid, words[1]);
     3cc:	00412583          	lw	a1,4(sp)
# }
     3d0:	02c12083          	lw	ra,44(sp)
     3d4:	03010113          	add	sp,sp,48
#     action_take(eid, words[1]);
     3d8:	00000317          	auipc	t1,0x0
     3dc:	73c30067          	jr	1852(t1) # b14 <_ZL11action_takehPKc>
#     if (*s1 != *s2) {
     3e0:	0007c683          	lbu	a3,0(a5)
     3e4:	0005c803          	lbu	a6,0(a1)
     3e8:	fd0686e3          	beq	a3,a6,3b4 <_ZL12handle_inputhR14command_buffer+0x15c>
# }
     3ec:	02c12083          	lw	ra,44(sp)
     3f0:	03010113          	add	sp,sp,48
     3f4:	00008067          	ret
     3f8:	000026b7          	lui	a3,0x2
     3fc:	54068693          	add	a3,a3,1344 # 2540 <_ZL4exiti+0x4f8>
     400:	ffe04783          	lbu	a5,-2(zero) # fffffffe <__bss_end+0xffffd266>
     404:	fe079ee3          	bnez	a5,400 <_ZL12handle_inputhR14command_buffer+0x1a8>
#     *UART_OUT = *str++;
     408:	00168693          	add	a3,a3,1
     40c:	fee00f23          	sb	a4,-2(zero) # fffffffe <__bss_end+0xffffd266>
#   while (*str) {
     410:	0006c703          	lbu	a4,0(a3)
     414:	fe0716e3          	bnez	a4,400 <_ZL12handle_inputhR14command_buffer+0x1a8>
     418:	f0dff06f          	j	324 <_ZL12handle_inputhR14command_buffer+0xcc>
#     if (*s1 != *s2) {
     41c:	06400693          	li	a3,100
     420:	04d71a63          	bne	a4,a3,474 <_ZL12handle_inputhR14command_buffer+0x21c>
     424:	000025b7          	lui	a1,0x2
     428:	06400813          	li	a6,100
     42c:	55058593          	add	a1,a1,1360 # 2550 <_ZL4exiti+0x508>
#     if (!*s1 && !*s2) {
     430:	0106e6b3          	or	a3,a3,a6
#     ++s1;
     434:	00178793          	add	a5,a5,1
#     ++s2;
     438:	00158593          	add	a1,a1,1
#     if (!*s1 && !*s2) {
     43c:	02069063          	bnez	a3,45c <_ZL12handle_inputhR14command_buffer+0x204>
#     if (nwords < 2) {
     440:	00100793          	li	a5,1
     444:	0ef60e63          	beq	a2,a5,540 <_ZL12handle_inputhR14command_buffer+0x2e8>
#     action_drop(eid, words[1]);
     448:	00412583          	lw	a1,4(sp)
# }
     44c:	02c12083          	lw	ra,44(sp)
     450:	03010113          	add	sp,sp,48
#     action_drop(eid, words[1]);
     454:	00001317          	auipc	t1,0x1
     458:	92830067          	jr	-1752(t1) # d7c <_ZL11action_drophPKc>
#     if (*s1 != *s2) {
     45c:	0007c683          	lbu	a3,0(a5)
     460:	0005c803          	lbu	a6,0(a1)
     464:	fd0686e3          	beq	a3,a6,430 <_ZL12handle_inputhR14command_buffer+0x1d8>
# }
     468:	02c12083          	lw	ra,44(sp)
     46c:	03010113          	add	sp,sp,48
     470:	00008067          	ret
#     if (*s1 != *s2) {
     474:	06e00693          	li	a3,110
     478:	04d71063          	bne	a4,a3,4b8 <_ZL12handle_inputhR14command_buffer+0x260>
     47c:	00002637          	lui	a2,0x2
     480:	56460613          	add	a2,a2,1380 # 2564 <_ZL4exiti+0x51c>
#     if (!*s1 && !*s2) {
     484:	00d766b3          	or	a3,a4,a3
#     ++s1;
     488:	00178793          	add	a5,a5,1
#     ++s2;
     48c:	00160613          	add	a2,a2,1
#     if (!*s1 && !*s2) {
     490:	00069c63          	bnez	a3,4a8 <_ZL12handle_inputhR14command_buffer+0x250>
# }
     494:	02c12083          	lw	ra,44(sp)
#     action_go(eid, 0);
     498:	00000593          	li	a1,0
# }
     49c:	03010113          	add	sp,sp,48
#     action_go(eid, 0);
     4a0:	00001317          	auipc	t1,0x1
     4a4:	b6030067          	jr	-1184(t1) # 1000 <_ZL9action_gohh>
#     if (*s1 != *s2) {
     4a8:	0007c703          	lbu	a4,0(a5)
     4ac:	00064683          	lbu	a3,0(a2)
     4b0:	fcd70ae3          	beq	a4,a3,484 <_ZL12handle_inputhR14command_buffer+0x22c>
     4b4:	e71ff06f          	j	324 <_ZL12handle_inputhR14command_buffer+0xcc>
     4b8:	06500693          	li	a3,101
     4bc:	04d71063          	bne	a4,a3,4fc <_ZL12handle_inputhR14command_buffer+0x2a4>
     4c0:	00002637          	lui	a2,0x2
     4c4:	3e060613          	add	a2,a2,992 # 23e0 <_ZL4exiti+0x398>
#     if (!*s1 && !*s2) {
     4c8:	00d766b3          	or	a3,a4,a3
#     ++s1;
     4cc:	00178793          	add	a5,a5,1
#     ++s2;
     4d0:	00160613          	add	a2,a2,1
#     if (!*s1 && !*s2) {
     4d4:	00069c63          	bnez	a3,4ec <_ZL12handle_inputhR14command_buffer+0x294>
# }
     4d8:	02c12083          	lw	ra,44(sp)
#     action_go(eid, 1);
     4dc:	00100593          	li	a1,1
# }
     4e0:	03010113          	add	sp,sp,48
#     action_go(eid, 1);
     4e4:	00001317          	auipc	t1,0x1
     4e8:	b1c30067          	jr	-1252(t1) # 1000 <_ZL9action_gohh>
#     if (*s1 != *s2) {
     4ec:	0007c703          	lbu	a4,0(a5)
     4f0:	00064683          	lbu	a3,0(a2)
     4f4:	fcd70ae3          	beq	a4,a3,4c8 <_ZL12handle_inputhR14command_buffer+0x270>
     4f8:	e2dff06f          	j	324 <_ZL12handle_inputhR14command_buffer+0xcc>
     4fc:	07300693          	li	a3,115
     500:	06d71263          	bne	a4,a3,564 <_ZL12handle_inputhR14command_buffer+0x30c>
     504:	00002637          	lui	a2,0x2
     508:	56860613          	add	a2,a2,1384 # 2568 <_ZL4exiti+0x520>
#     if (!*s1 && !*s2) {
     50c:	00d766b3          	or	a3,a4,a3
#     ++s1;
     510:	00178793          	add	a5,a5,1
#     ++s2;
     514:	00160613          	add	a2,a2,1
#     if (!*s1 && !*s2) {
     518:	00069c63          	bnez	a3,530 <_ZL12handle_inputhR14command_buffer+0x2d8>
# }
     51c:	02c12083          	lw	ra,44(sp)
#     action_go(eid, 2);
     520:	00200593          	li	a1,2
# }
     524:	03010113          	add	sp,sp,48
#     action_go(eid, 2);
     528:	00001317          	auipc	t1,0x1
     52c:	ad830067          	jr	-1320(t1) # 1000 <_ZL9action_gohh>
#     if (*s1 != *s2) {
     530:	0007c703          	lbu	a4,0(a5)
     534:	00064683          	lbu	a3,0(a2)
     538:	fcd70ae3          	beq	a4,a3,50c <_ZL12handle_inputhR14command_buffer+0x2b4>
     53c:	de9ff06f          	j	324 <_ZL12handle_inputhR14command_buffer+0xcc>
     540:	000026b7          	lui	a3,0x2
     544:	55468693          	add	a3,a3,1364 # 2554 <_ZL4exiti+0x50c>
#     while (*UART_OUT)
     548:	ffe04783          	lbu	a5,-2(zero) # fffffffe <__bss_end+0xffffd266>
     54c:	fe079ee3          	bnez	a5,548 <_ZL12handle_inputhR14command_buffer+0x2f0>
#     *UART_OUT = *str++;
     550:	00168693          	add	a3,a3,1
     554:	fee00f23          	sb	a4,-2(zero) # fffffffe <__bss_end+0xffffd266>
#   while (*str) {
     558:	0006c703          	lbu	a4,0(a3)
     55c:	fe0716e3          	bnez	a4,548 <_ZL12handle_inputhR14command_buffer+0x2f0>
     560:	dc5ff06f          	j	324 <_ZL12handle_inputhR14command_buffer+0xcc>
     564:	07700693          	li	a3,119
     568:	04d71063          	bne	a4,a3,5a8 <_ZL12handle_inputhR14command_buffer+0x350>
     56c:	00002637          	lui	a2,0x2
     570:	56c60613          	add	a2,a2,1388 # 256c <_ZL4exiti+0x524>
#     if (!*s1 && !*s2) {
     574:	00d766b3          	or	a3,a4,a3
#     ++s1;
     578:	00178793          	add	a5,a5,1
#     ++s2;
     57c:	00160613          	add	a2,a2,1
#     if (!*s1 && !*s2) {
     580:	00069c63          	bnez	a3,598 <_ZL12handle_inputhR14command_buffer+0x340>
# }
     584:	02c12083          	lw	ra,44(sp)
#     action_go(eid, 3);
     588:	00300593          	li	a1,3
# }
     58c:	03010113          	add	sp,sp,48
#     action_go(eid, 3);
     590:	00001317          	auipc	t1,0x1
     594:	a7030067          	jr	-1424(t1) # 1000 <_ZL9action_gohh>
#     if (*s1 != *s2) {
     598:	0007c703          	lbu	a4,0(a5)
     59c:	00064683          	lbu	a3,0(a2)
     5a0:	fcd70ae3          	beq	a4,a3,574 <_ZL12handle_inputhR14command_buffer+0x31c>
     5a4:	d81ff06f          	j	324 <_ZL12handle_inputhR14command_buffer+0xcc>
     5a8:	06700693          	li	a3,103
     5ac:	04d71c63          	bne	a4,a3,604 <_ZL12handle_inputhR14command_buffer+0x3ac>
     5b0:	000025b7          	lui	a1,0x2
     5b4:	06700813          	li	a6,103
     5b8:	57058593          	add	a1,a1,1392 # 2570 <_ZL4exiti+0x528>
#     if (!*s1 && !*s2) {
     5bc:	0106e6b3          	or	a3,a3,a6
#     ++s1;
     5c0:	00178793          	add	a5,a5,1
#     ++s2;
     5c4:	00158593          	add	a1,a1,1
#     if (!*s1 && !*s2) {
     5c8:	02069663          	bnez	a3,5f4 <_ZL12handle_inputhR14command_buffer+0x39c>
#     if (nwords < 2) {
     5cc:	00100793          	li	a5,1
     5d0:	0af60063          	beq	a2,a5,670 <_ZL12handle_inputhR14command_buffer+0x418>
#     if (nwords < 3) {
     5d4:	00200793          	li	a5,2
     5d8:	06f60a63          	beq	a2,a5,64c <_ZL12handle_inputhR14command_buffer+0x3f4>
#     action_give(eid, words[1], words[2]);
     5dc:	00812603          	lw	a2,8(sp)
     5e0:	00412583          	lw	a1,4(sp)
# }
     5e4:	02c12083          	lw	ra,44(sp)
     5e8:	03010113          	add	sp,sp,48
#     action_give(eid, words[1], words[2]);
     5ec:	00001317          	auipc	t1,0x1
     5f0:	cf030067          	jr	-784(t1) # 12dc <_ZL11action_givehPKcS0_>
#     if (*s1 != *s2) {
     5f4:	0007c683          	lbu	a3,0(a5)
     5f8:	0005c803          	lbu	a6,0(a1)
     5fc:	fd0680e3          	beq	a3,a6,5bc <_ZL12handle_inputhR14command_buffer+0x364>
     600:	d25ff06f          	j	324 <_ZL12handle_inputhR14command_buffer+0xcc>
     604:	06d00693          	li	a3,109
     608:	d0d71ee3          	bne	a4,a3,324 <_ZL12handle_inputhR14command_buffer+0xcc>
     60c:	00002637          	lui	a2,0x2
     610:	00070693          	mv	a3,a4
     614:	59860613          	add	a2,a2,1432 # 2598 <_ZL4exiti+0x550>
#     if (!*s1 && !*s2) {
     618:	00d76733          	or	a4,a4,a3
     61c:	0ff77713          	zext.b	a4,a4
#     ++s1;
     620:	00178793          	add	a5,a5,1
#     ++s2;
     624:	00160613          	add	a2,a2,1
#     if (!*s1 && !*s2) {
     628:	00071a63          	bnez	a4,63c <_ZL12handle_inputhR14command_buffer+0x3e4>
# }
     62c:	02c12083          	lw	ra,44(sp)
     630:	03010113          	add	sp,sp,48
#     action_mem_test();
     634:	00001317          	auipc	t1,0x1
     638:	75030067          	jr	1872(t1) # 1d84 <_ZL15action_mem_testv>
#     if (*s1 != *s2) {
     63c:	0007c703          	lbu	a4,0(a5)
     640:	00064683          	lbu	a3,0(a2)
     644:	fcd70ae3          	beq	a4,a3,618 <_ZL12handle_inputhR14command_buffer+0x3c0>
     648:	cddff06f          	j	324 <_ZL12handle_inputhR14command_buffer+0xcc>
     64c:	000027b7          	lui	a5,0x2
     650:	58478793          	add	a5,a5,1412 # 2584 <_ZL4exiti+0x53c>
#     while (*UART_OUT)
     654:	ffe04683          	lbu	a3,-2(zero) # fffffffe <__bss_end+0xffffd266>
     658:	fe069ee3          	bnez	a3,654 <_ZL12handle_inputhR14command_buffer+0x3fc>
#     *UART_OUT = *str++;
     65c:	00178793          	add	a5,a5,1
     660:	fee00f23          	sb	a4,-2(zero) # fffffffe <__bss_end+0xffffd266>
#   while (*str) {
     664:	0007c703          	lbu	a4,0(a5)
     668:	fe0716e3          	bnez	a4,654 <_ZL12handle_inputhR14command_buffer+0x3fc>
     66c:	cb9ff06f          	j	324 <_ZL12handle_inputhR14command_buffer+0xcc>
     670:	000027b7          	lui	a5,0x2
     674:	57478793          	add	a5,a5,1396 # 2574 <_ZL4exiti+0x52c>
#     while (*UART_OUT)
     678:	ffe04683          	lbu	a3,-2(zero) # fffffffe <__bss_end+0xffffd266>
     67c:	fe069ee3          	bnez	a3,678 <_ZL12handle_inputhR14command_buffer+0x420>
#     *UART_OUT = *str++;
     680:	00178793          	add	a5,a5,1
     684:	fee00f23          	sb	a4,-2(zero) # fffffffe <__bss_end+0xffffd266>
#   while (*str) {
     688:	0007c703          	lbu	a4,0(a5)
     68c:	fe0716e3          	bnez	a4,678 <_ZL12handle_inputhR14command_buffer+0x420>
     690:	c95ff06f          	j	324 <_ZL12handle_inputhR14command_buffer+0xcc>

00000694 <_ZL14print_locationhh>:
#   location &loc = locations[lid];
     694:	00002737          	lui	a4,0x2
#                            entity_id_t const eid_exclude_from_output) -> void {
     698:	00058813          	mv	a6,a1
     69c:	07500693          	li	a3,117
#   location &loc = locations[lid];
     6a0:	59c70713          	add	a4,a4,1436 # 259c <_ZL4exiti+0x554>
#     while (*UART_OUT)
     6a4:	ffe04783          	lbu	a5,-2(zero) # fffffffe <__bss_end+0xffffd266>
     6a8:	fe079ee3          	bnez	a5,6a4 <_ZL14print_locationhh+0x10>
#     *UART_OUT = *str++;
     6ac:	00170713          	add	a4,a4,1
     6b0:	fed00f23          	sb	a3,-2(zero) # fffffffe <__bss_end+0xffffd266>
#   while (*str) {
     6b4:	00074683          	lbu	a3,0(a4)
     6b8:	fe0696e3          	bnez	a3,6a4 <_ZL14print_locationhh+0x10>
#   uart_send_str(loc.name);
     6bc:	00251593          	sll	a1,a0,0x2
     6c0:	00a587b3          	add	a5,a1,a0
     6c4:	00003637          	lui	a2,0x3
     6c8:	a5060613          	add	a2,a2,-1456 # 2a50 <_ZL9locations>
     6cc:	00579793          	sll	a5,a5,0x5
     6d0:	00f607b3          	add	a5,a2,a5
     6d4:	0007a683          	lw	a3,0(a5)
     6d8:	0006c703          	lbu	a4,0(a3)
     6dc:	00070e63          	beqz	a4,6f8 <_ZL14print_locationhh+0x64>
#     while (*UART_OUT)
     6e0:	ffe04783          	lbu	a5,-2(zero) # fffffffe <__bss_end+0xffffd266>
     6e4:	fe079ee3          	bnez	a5,6e0 <_ZL14print_locationhh+0x4c>
#     *UART_OUT = *str++;
     6e8:	00168693          	add	a3,a3,1
     6ec:	fee00f23          	sb	a4,-2(zero) # fffffffe <__bss_end+0xffffd266>
#   while (*str) {
     6f0:	0006c703          	lbu	a4,0(a3)
     6f4:	fe0716e3          	bnez	a4,6e0 <_ZL14print_locationhh+0x4c>
     6f8:	00002737          	lui	a4,0x2
     6fc:	00d00693          	li	a3,13
     700:	5a470713          	add	a4,a4,1444 # 25a4 <_ZL4exiti+0x55c>
#     while (*UART_OUT)
     704:	ffe04783          	lbu	a5,-2(zero) # fffffffe <__bss_end+0xffffd266>
     708:	fe079ee3          	bnez	a5,704 <_ZL14print_locationhh+0x70>
#     *UART_OUT = *str++;
     70c:	00170713          	add	a4,a4,1
     710:	fed00f23          	sb	a3,-2(zero) # fffffffe <__bss_end+0xffffd266>
#   while (*str) {
     714:	00074683          	lbu	a3,0(a4)
     718:	fe0696e3          	bnez	a3,704 <_ZL14print_locationhh+0x70>
#     for (size_t i = 0; i < len; ++i) {
     71c:	00a58e33          	add	t3,a1,a0
     720:	005e1e13          	sll	t3,t3,0x5
     724:	01c60e33          	add	t3,a2,t3
     728:	084e2783          	lw	a5,132(t3)
     72c:	06078e63          	beqz	a5,7a8 <_ZL14print_locationhh+0x114>
#       if (!f(data[i])) {
     730:	004e4883          	lbu	a7,4(t3)
#       if (counter++) {
     734:	00003eb7          	lui	t4,0x3
     738:	00100313          	li	t1,1
     73c:	9bce8e93          	add	t4,t4,-1604 # 29bc <_ZL7objects>
     740:	00002f37          	lui	t5,0x2
#       uart_send_str(objects[id].name);
     744:	00289793          	sll	a5,a7,0x2
     748:	00fe87b3          	add	a5,t4,a5
     74c:	0007a683          	lw	a3,0(a5)
     750:	0006c703          	lbu	a4,0(a3)
     754:	00070e63          	beqz	a4,770 <_ZL14print_locationhh+0xdc>
#     while (*UART_OUT)
     758:	ffe04783          	lbu	a5,-2(zero) # fffffffe <__bss_end+0xffffd266>
     75c:	fe079ee3          	bnez	a5,758 <_ZL14print_locationhh+0xc4>
#     *UART_OUT = *str++;
     760:	00168693          	add	a3,a3,1
     764:	fee00f23          	sb	a4,-2(zero) # fffffffe <__bss_end+0xffffd266>
#   while (*str) {
     768:	0006c703          	lbu	a4,0(a3)
     76c:	fe0716e3          	bnez	a4,758 <_ZL14print_locationhh+0xc4>
#     for (size_t i = 0; i < len; ++i) {
     770:	084e2783          	lw	a5,132(t3)
     774:	04f37c63          	bgeu	t1,a5,7cc <_ZL14print_locationhh+0x138>
#       if (!f(data[i])) {
     778:	006e07b3          	add	a5,t3,t1
     77c:	0047c883          	lbu	a7,4(a5)
#       if (counter++) {
     780:	00130313          	add	t1,t1,1
     784:	02c00693          	li	a3,44
     788:	5acf0713          	add	a4,t5,1452 # 25ac <_ZL4exiti+0x564>
#     while (*UART_OUT)
     78c:	ffe04783          	lbu	a5,-2(zero) # fffffffe <__bss_end+0xffffd266>
     790:	fe079ee3          	bnez	a5,78c <_ZL14print_locationhh+0xf8>
#     *UART_OUT = *str++;
     794:	00170713          	add	a4,a4,1
     798:	fed00f23          	sb	a3,-2(zero) # fffffffe <__bss_end+0xffffd266>
#   while (*str) {
     79c:	00074683          	lbu	a3,0(a4)
     7a0:	fe0696e3          	bnez	a3,78c <_ZL14print_locationhh+0xf8>
     7a4:	fa1ff06f          	j	744 <_ZL14print_locationhh+0xb0>
#     for (size_t i = 0; i < len; ++i) {
     7a8:	00002737          	lui	a4,0x2
     7ac:	06e00693          	li	a3,110
     7b0:	5b070713          	add	a4,a4,1456 # 25b0 <_ZL4exiti+0x568>
#     while (*UART_OUT)
     7b4:	ffe04783          	lbu	a5,-2(zero) # fffffffe <__bss_end+0xffffd266>
     7b8:	fe079ee3          	bnez	a5,7b4 <_ZL14print_locationhh+0x120>
#     *UART_OUT = *str++;
     7bc:	00170713          	add	a4,a4,1
     7c0:	fed00f23          	sb	a3,-2(zero) # fffffffe <__bss_end+0xffffd266>
#   while (*str) {
     7c4:	00074683          	lbu	a3,0(a4)
     7c8:	fe0696e3          	bnez	a3,7b4 <_ZL14print_locationhh+0x120>
     7cc:	00002737          	lui	a4,0x2
     7d0:	53470e13          	add	t3,a4,1332 # 2534 <_ZL4exiti+0x4ec>
     7d4:	00d00693          	li	a3,13
     7d8:	53470713          	add	a4,a4,1332
#     while (*UART_OUT)
     7dc:	ffe04783          	lbu	a5,-2(zero) # fffffffe <__bss_end+0xffffd266>
     7e0:	fe079ee3          	bnez	a5,7dc <_ZL14print_locationhh+0x148>
#     *UART_OUT = *str++;
     7e4:	00170713          	add	a4,a4,1
     7e8:	fed00f23          	sb	a3,-2(zero) # fffffffe <__bss_end+0xffffd266>
#   while (*str) {
     7ec:	00074683          	lbu	a3,0(a4)
     7f0:	fe0696e3          	bnez	a3,7dc <_ZL14print_locationhh+0x148>
     7f4:	00a58eb3          	add	t4,a1,a0
     7f8:	005e9e93          	sll	t4,t4,0x5
     7fc:	01d60fb3          	add	t6,a2,t4
     800:	090fa683          	lw	a3,144(t6)
     804:	0c068263          	beqz	a3,8c8 <_ZL14print_locationhh+0x234>
#       uart_send_str(entities[id].name);
     808:	00003f37          	lui	t5,0x3
#     uint32_t counter = 0;
     80c:	00000713          	li	a4,0
#     for (size_t i = 0; i < len; ++i) {
     810:	00000313          	li	t1,0
     814:	000022b7          	lui	t0,0x2
#       uart_send_str(entities[id].name);
     818:	9ccf0f13          	add	t5,t5,-1588 # 29cc <_ZL8entities>
#       if (!f(data[i])) {
     81c:	006e87b3          	add	a5,t4,t1
     820:	00f607b3          	add	a5,a2,a5
     824:	0887c883          	lbu	a7,136(a5)
#       if (id == eid_exclude_from_output) {
     828:	07088863          	beq	a7,a6,898 <_ZL14print_locationhh+0x204>
#       if (counter++) {
     82c:	00170393          	add	t2,a4,1
     830:	02070263          	beqz	a4,854 <_ZL14print_locationhh+0x1c0>
     834:	02c00693          	li	a3,44
     838:	5ac28713          	add	a4,t0,1452 # 25ac <_ZL4exiti+0x564>
#     while (*UART_OUT)
     83c:	ffe04783          	lbu	a5,-2(zero) # fffffffe <__bss_end+0xffffd266>
     840:	fe079ee3          	bnez	a5,83c <_ZL14print_locationhh+0x1a8>
#     *UART_OUT = *str++;
     844:	00170713          	add	a4,a4,1
     848:	fed00f23          	sb	a3,-2(zero) # fffffffe <__bss_end+0xffffd266>
#   while (*str) {
     84c:	00074683          	lbu	a3,0(a4)
     850:	fe0696e3          	bnez	a3,83c <_ZL14print_locationhh+0x1a8>
#       uart_send_str(entities[id].name);
     854:	00189793          	sll	a5,a7,0x1
     858:	011787b3          	add	a5,a5,a7
     85c:	00279793          	sll	a5,a5,0x2
     860:	411787b3          	sub	a5,a5,a7
     864:	00279793          	sll	a5,a5,0x2
     868:	00ff07b3          	add	a5,t5,a5
     86c:	0007a683          	lw	a3,0(a5)
     870:	0006c703          	lbu	a4,0(a3)
     874:	14070663          	beqz	a4,9c0 <_ZL14print_locationhh+0x32c>
#     while (*UART_OUT)
     878:	ffe04783          	lbu	a5,-2(zero) # fffffffe <__bss_end+0xffffd266>
     87c:	fe079ee3          	bnez	a5,878 <_ZL14print_locationhh+0x1e4>
#     *UART_OUT = *str++;
     880:	00168693          	add	a3,a3,1
     884:	fee00f23          	sb	a4,-2(zero) # fffffffe <__bss_end+0xffffd266>
#   while (*str) {
     888:	0006c703          	lbu	a4,0(a3)
     88c:	fe0716e3          	bnez	a4,878 <_ZL14print_locationhh+0x1e4>
#     for (size_t i = 0; i < len; ++i) {
     890:	090fa683          	lw	a3,144(t6)
#       if (counter++) {
     894:	00038713          	mv	a4,t2
#     for (size_t i = 0; i < len; ++i) {
     898:	00130313          	add	t1,t1,1
     89c:	f8d360e3          	bltu	t1,a3,81c <_ZL14print_locationhh+0x188>
#     if (counter != 0) {
     8a0:	02070463          	beqz	a4,8c8 <_ZL14print_locationhh+0x234>
     8a4:	00002737          	lui	a4,0x2
     8a8:	02000693          	li	a3,32
     8ac:	5b870713          	add	a4,a4,1464 # 25b8 <_ZL4exiti+0x570>
#     while (*UART_OUT)
     8b0:	ffe04783          	lbu	a5,-2(zero) # fffffffe <__bss_end+0xffffd266>
     8b4:	fe079ee3          	bnez	a5,8b0 <_ZL14print_locationhh+0x21c>
#     *UART_OUT = *str++;
     8b8:	00170713          	add	a4,a4,1
     8bc:	fed00f23          	sb	a3,-2(zero) # fffffffe <__bss_end+0xffffd266>
#   while (*str) {
     8c0:	00074683          	lbu	a3,0(a4)
     8c4:	fe0696e3          	bnez	a3,8b0 <_ZL14print_locationhh+0x21c>
     8c8:	00002737          	lui	a4,0x2
     8cc:	06500693          	li	a3,101
     8d0:	5c470713          	add	a4,a4,1476 # 25c4 <_ZL4exiti+0x57c>
#     while (*UART_OUT)
     8d4:	ffe04783          	lbu	a5,-2(zero) # fffffffe <__bss_end+0xffffd266>
     8d8:	fe079ee3          	bnez	a5,8d4 <_ZL14print_locationhh+0x240>
#     *UART_OUT = *str++;
     8dc:	00170713          	add	a4,a4,1
     8e0:	fed00f23          	sb	a3,-2(zero) # fffffffe <__bss_end+0xffffd266>
#   while (*str) {
     8e4:	00074683          	lbu	a3,0(a4)
     8e8:	fe0696e3          	bnez	a3,8d4 <_ZL14print_locationhh+0x240>
#   auto length() const -> size_t { return len; }
     8ec:	00a585b3          	add	a1,a1,a0
     8f0:	00559813          	sll	a6,a1,0x5
     8f4:	01060333          	add	t1,a2,a6
     8f8:	09c32883          	lw	a7,156(t1)
#     for (size_t i = 0; i < n; ++i) {
     8fc:	08088e63          	beqz	a7,998 <_ZL14print_locationhh+0x304>
     900:	00003537          	lui	a0,0x3
     904:	00088793          	mv	a5,a7
     908:	00000713          	li	a4,0
#       if (!lse.at(i)) {
     90c:	d7050513          	add	a0,a0,-656 # 2d70 <_ZL10exit_names>
#     if (ix < len) {
     910:	00f76c63          	bltu	a4,a5,928 <_ZL14print_locationhh+0x294>
#     for (size_t i = 0; i < n; ++i) {
     914:	00170713          	add	a4,a4,1
     918:	00450513          	add	a0,a0,4
     91c:	05170c63          	beq	a4,a7,974 <_ZL14print_locationhh+0x2e0>
#     if (ix < len) {
     920:	09c32783          	lw	a5,156(t1)
     924:	fef778e3          	bgeu	a4,a5,914 <_ZL14print_locationhh+0x280>
#       return data[ix];
     928:	010707b3          	add	a5,a4,a6
     92c:	00f607b3          	add	a5,a2,a5
#       if (!lse.at(i)) {
     930:	0947c783          	lbu	a5,148(a5)
     934:	fe0780e3          	beqz	a5,914 <_ZL14print_locationhh+0x280>
#       if (counter++) {
     938:	00168e93          	add	t4,a3,1
     93c:	08069e63          	bnez	a3,9d8 <_ZL14print_locationhh+0x344>
#       uart_send_str(exit_names[i]);
     940:	00052583          	lw	a1,0(a0)
     944:	0005c683          	lbu	a3,0(a1)
     948:	00068e63          	beqz	a3,964 <_ZL14print_locationhh+0x2d0>
#     while (*UART_OUT)
     94c:	ffe04783          	lbu	a5,-2(zero) # fffffffe <__bss_end+0xffffd266>
     950:	fe079ee3          	bnez	a5,94c <_ZL14print_locationhh+0x2b8>
#     *UART_OUT = *str++;
     954:	00158593          	add	a1,a1,1
     958:	fed00f23          	sb	a3,-2(zero) # fffffffe <__bss_end+0xffffd266>
#   while (*str) {
     95c:	0005c683          	lbu	a3,0(a1)
     960:	fe0696e3          	bnez	a3,94c <_ZL14print_locationhh+0x2b8>
#     for (size_t i = 0; i < n; ++i) {
     964:	00170713          	add	a4,a4,1
#       if (counter++) {
     968:	000e8693          	mv	a3,t4
#     for (size_t i = 0; i < n; ++i) {
     96c:	00450513          	add	a0,a0,4
     970:	fb1718e3          	bne	a4,a7,920 <_ZL14print_locationhh+0x28c>
#     if (counter == 0) {
     974:	02068263          	beqz	a3,998 <_ZL14print_locationhh+0x304>
     978:	00d00713          	li	a4,13
#     while (*UART_OUT)
     97c:	ffe04783          	lbu	a5,-2(zero) # fffffffe <__bss_end+0xffffd266>
     980:	fe079ee3          	bnez	a5,97c <_ZL14print_locationhh+0x2e8>
#     *UART_OUT = *str++;
     984:	001e0e13          	add	t3,t3,1
     988:	fee00f23          	sb	a4,-2(zero) # fffffffe <__bss_end+0xffffd266>
#   while (*str) {
     98c:	000e4703          	lbu	a4,0(t3)
     990:	fe0716e3          	bnez	a4,97c <_ZL14print_locationhh+0x2e8>
# }
     994:	00008067          	ret
     998:	00002737          	lui	a4,0x2
     99c:	06e00693          	li	a3,110
     9a0:	5cc70713          	add	a4,a4,1484 # 25cc <_ZL4exiti+0x584>
#     while (*UART_OUT)
     9a4:	ffe04783          	lbu	a5,-2(zero) # fffffffe <__bss_end+0xffffd266>
     9a8:	fe079ee3          	bnez	a5,9a4 <_ZL14print_locationhh+0x310>
#     *UART_OUT = *str++;
     9ac:	00170713          	add	a4,a4,1
     9b0:	fed00f23          	sb	a3,-2(zero) # fffffffe <__bss_end+0xffffd266>
#   while (*str) {
     9b4:	00074683          	lbu	a3,0(a4)
     9b8:	fe0696e3          	bnez	a3,9a4 <_ZL14print_locationhh+0x310>
     9bc:	fbdff06f          	j	978 <_ZL14print_locationhh+0x2e4>
#     for (size_t i = 0; i < len; ++i) {
     9c0:	00a587b3          	add	a5,a1,a0
     9c4:	00579793          	sll	a5,a5,0x5
     9c8:	00f607b3          	add	a5,a2,a5
     9cc:	0907a683          	lw	a3,144(a5)
#       if (counter++) {
     9d0:	00038713          	mv	a4,t2
     9d4:	ec5ff06f          	j	898 <_ZL14print_locationhh+0x204>
     9d8:	000026b7          	lui	a3,0x2
     9dc:	02c00593          	li	a1,44
     9e0:	5ac68693          	add	a3,a3,1452 # 25ac <_ZL4exiti+0x564>
#     while (*UART_OUT)
     9e4:	ffe04783          	lbu	a5,-2(zero) # fffffffe <__bss_end+0xffffd266>
     9e8:	fe079ee3          	bnez	a5,9e4 <_ZL14print_locationhh+0x350>
#     *UART_OUT = *str++;
     9ec:	00168693          	add	a3,a3,1
     9f0:	feb00f23          	sb	a1,-2(zero) # fffffffe <__bss_end+0xffffd266>
#   while (*str) {
     9f4:	0006c583          	lbu	a1,0(a3)
     9f8:	fe0596e3          	bnez	a1,9e4 <_ZL14print_locationhh+0x350>
     9fc:	f45ff06f          	j	940 <_ZL14print_locationhh+0x2ac>

00000a00 <_ZL16action_inventoryh>:
     a00:	00002737          	lui	a4,0x2
# static auto action_inventory(entity_id_t const eid) -> void {
     a04:	00050613          	mv	a2,a0
     a08:	07500693          	li	a3,117
     a0c:	5d470713          	add	a4,a4,1492 # 25d4 <_ZL4exiti+0x58c>
#     while (*UART_OUT)
     a10:	ffe04783          	lbu	a5,-2(zero) # fffffffe <__bss_end+0xffffd266>
     a14:	fe079ee3          	bnez	a5,a10 <_ZL16action_inventoryh+0x10>
#     *UART_OUT = *str++;
     a18:	00170713          	add	a4,a4,1
     a1c:	fed00f23          	sb	a3,-2(zero) # fffffffe <__bss_end+0xffffd266>
#   while (*str) {
     a20:	00074683          	lbu	a3,0(a4)
     a24:	fe0696e3          	bnez	a3,a10 <_ZL16action_inventoryh+0x10>
#     for (size_t i = 0; i < len; ++i) {
     a28:	00161793          	sll	a5,a2,0x1
     a2c:	00c787b3          	add	a5,a5,a2
     a30:	00279793          	sll	a5,a5,0x2
     a34:	40c787b3          	sub	a5,a5,a2
     a38:	00003537          	lui	a0,0x3
     a3c:	00279793          	sll	a5,a5,0x2
     a40:	9cc50513          	add	a0,a0,-1588 # 29cc <_ZL8entities>
     a44:	00f50533          	add	a0,a0,a5
     a48:	02852783          	lw	a5,40(a0)
     a4c:	06078e63          	beqz	a5,ac8 <_ZL16action_inventoryh+0xc8>
#       if (!f(data[i])) {
     a50:	00854603          	lbu	a2,8(a0)
#     if (counter++) {
     a54:	00003837          	lui	a6,0x3
     a58:	00100593          	li	a1,1
     a5c:	9bc80813          	add	a6,a6,-1604 # 29bc <_ZL7objects>
     a60:	000028b7          	lui	a7,0x2
#     uart_send_str(objects[id].name);
     a64:	00261793          	sll	a5,a2,0x2
     a68:	00f807b3          	add	a5,a6,a5
     a6c:	0007a683          	lw	a3,0(a5)
     a70:	0006c703          	lbu	a4,0(a3)
     a74:	00070e63          	beqz	a4,a90 <_ZL16action_inventoryh+0x90>
#     while (*UART_OUT)
     a78:	ffe04783          	lbu	a5,-2(zero) # fffffffe <__bss_end+0xffffd266>
     a7c:	fe079ee3          	bnez	a5,a78 <_ZL16action_inventoryh+0x78>
#     *UART_OUT = *str++;
     a80:	00168693          	add	a3,a3,1
     a84:	fee00f23          	sb	a4,-2(zero) # fffffffe <__bss_end+0xffffd266>
#   while (*str) {
     a88:	0006c703          	lbu	a4,0(a3)
     a8c:	fe0716e3          	bnez	a4,a78 <_ZL16action_inventoryh+0x78>
#     for (size_t i = 0; i < len; ++i) {
     a90:	02852783          	lw	a5,40(a0)
     a94:	04f5fc63          	bgeu	a1,a5,aec <_ZL16action_inventoryh+0xec>
#       if (!f(data[i])) {
     a98:	00b507b3          	add	a5,a0,a1
     a9c:	0087c603          	lbu	a2,8(a5)
#     if (counter++) {
     aa0:	00158593          	add	a1,a1,1
     aa4:	02c00693          	li	a3,44
     aa8:	5ac88713          	add	a4,a7,1452 # 25ac <_ZL4exiti+0x564>
#     while (*UART_OUT)
     aac:	ffe04783          	lbu	a5,-2(zero) # fffffffe <__bss_end+0xffffd266>
     ab0:	fe079ee3          	bnez	a5,aac <_ZL16action_inventoryh+0xac>
#     *UART_OUT = *str++;
     ab4:	00170713          	add	a4,a4,1
     ab8:	fed00f23          	sb	a3,-2(zero) # fffffffe <__bss_end+0xffffd266>
#   while (*str) {
     abc:	00074683          	lbu	a3,0(a4)
     ac0:	fe0696e3          	bnez	a3,aac <_ZL16action_inventoryh+0xac>
     ac4:	fa1ff06f          	j	a64 <_ZL16action_inventoryh+0x64>
#     for (size_t i = 0; i < len; ++i) {
     ac8:	00002737          	lui	a4,0x2
     acc:	06e00693          	li	a3,110
     ad0:	5b070713          	add	a4,a4,1456 # 25b0 <_ZL4exiti+0x568>
#     while (*UART_OUT)
     ad4:	ffe04783          	lbu	a5,-2(zero) # fffffffe <__bss_end+0xffffd266>
     ad8:	fe079ee3          	bnez	a5,ad4 <_ZL16action_inventoryh+0xd4>
#     *UART_OUT = *str++;
     adc:	00170713          	add	a4,a4,1
     ae0:	fed00f23          	sb	a3,-2(zero) # fffffffe <__bss_end+0xffffd266>
#   while (*str) {
     ae4:	00074683          	lbu	a3,0(a4)
     ae8:	fe0696e3          	bnez	a3,ad4 <_ZL16action_inventoryh+0xd4>
     aec:	00002737          	lui	a4,0x2
     af0:	00d00693          	li	a3,13
     af4:	53470713          	add	a4,a4,1332 # 2534 <_ZL4exiti+0x4ec>
#     while (*UART_OUT)
     af8:	ffe04783          	lbu	a5,-2(zero) # fffffffe <__bss_end+0xffffd266>
     afc:	fe079ee3          	bnez	a5,af8 <_ZL16action_inventoryh+0xf8>
#     *UART_OUT = *str++;
     b00:	00170713          	add	a4,a4,1
     b04:	fed00f23          	sb	a3,-2(zero) # fffffffe <__bss_end+0xffffd266>
#   while (*str) {
     b08:	00074683          	lbu	a3,0(a4)
     b0c:	fe0696e3          	bnez	a3,af8 <_ZL16action_inventoryh+0xf8>
# }
     b10:	00008067          	ret

00000b14 <_ZL11action_takehPKc>:
#   auto &lso = locations[ent.location].objects;
     b14:	00151893          	sll	a7,a0,0x1
     b18:	00a887b3          	add	a5,a7,a0
     b1c:	00279793          	sll	a5,a5,0x2
     b20:	40a787b3          	sub	a5,a5,a0
     b24:	00003737          	lui	a4,0x3
     b28:	9cc70293          	add	t0,a4,-1588 # 29cc <_ZL8entities>
     b2c:	00279793          	sll	a5,a5,0x2
     b30:	00f287b3          	add	a5,t0,a5
     b34:	0047ce83          	lbu	t4,4(a5)
#   auto length() const -> size_t { return len; }
     b38:	000037b7          	lui	a5,0x3
     b3c:	a5078813          	add	a6,a5,-1456 # 2a50 <_ZL9locations>
     b40:	002e9e13          	sll	t3,t4,0x2
     b44:	01de0f33          	add	t5,t3,t4
     b48:	005f1f13          	sll	t5,t5,0x5
     b4c:	01e807b3          	add	a5,a6,t5
     b50:	0847af83          	lw	t6,132(a5)
     b54:	0005c383          	lbu	t2,0(a1)
#   for (size_t i = 0; i < n; ++i) {
     b58:	1e0f8663          	beqz	t6,d44 <_ZL11action_takehPKc+0x230>
# static auto action_take(entity_id_t const eid, name_t const obj_nm) -> void {
     b5c:	ff010113          	add	sp,sp,-16
     b60:	00912423          	sw	s1,8(sp)
     b64:	000034b7          	lui	s1,0x3
     b68:	00812623          	sw	s0,12(sp)
#   for (size_t i = 0; i < n; ++i) {
     b6c:	00000313          	li	t1,0
     b70:	9bc48493          	add	s1,s1,-1604 # 29bc <_ZL7objects>
#       return data[ix];
     b74:	01e307b3          	add	a5,t1,t5
     b78:	00f807b3          	add	a5,a6,a5
     b7c:	0047c403          	lbu	s0,4(a5)
#     if (!strings_equal(objects[oid].name, obj_nm)) {
     b80:	00241793          	sll	a5,s0,0x2
     b84:	00f487b3          	add	a5,s1,a5
     b88:	0007a703          	lw	a4,0(a5)
#     if (*s1 != *s2) {
     b8c:	00074783          	lbu	a5,0(a4)
     b90:	0cf39e63          	bne	t2,a5,c6c <_ZL11action_takehPKc+0x158>
     b94:	00038613          	mv	a2,t2
     b98:	00058693          	mv	a3,a1
#     if (!*s1 && !*s2) {
     b9c:	00c7e7b3          	or	a5,a5,a2
     ba0:	0ff7f793          	zext.b	a5,a5
#     ++s1;
     ba4:	00170713          	add	a4,a4,1
#     ++s2;
     ba8:	00168693          	add	a3,a3,1
#     if (!*s1 && !*s2) {
     bac:	0a079a63          	bnez	a5,c60 <_ZL11action_takehPKc+0x14c>
#     if (len == Size - 1) {
     bb0:	00a888b3          	add	a7,a7,a0
     bb4:	00289893          	sll	a7,a7,0x2
     bb8:	40a88533          	sub	a0,a7,a0
     bbc:	00251513          	sll	a0,a0,0x2
     bc0:	00a28733          	add	a4,t0,a0
     bc4:	02872683          	lw	a3,40(a4)
     bc8:	01f00793          	li	a5,31
     bcc:	08f68263          	beq	a3,a5,c50 <_ZL11action_takehPKc+0x13c>
#     --len;
     bd0:	01de07b3          	add	a5,t3,t4
     bd4:	00579793          	sll	a5,a5,0x5
#     data[len] = elem;
     bd8:	00d70533          	add	a0,a4,a3
#     --len;
     bdc:	ffff8613          	add	a2,t6,-1
#     ++len;
     be0:	00168693          	add	a3,a3,1
#     --len;
     be4:	00f805b3          	add	a1,a6,a5
#     data[len] = elem;
     be8:	00850423          	sb	s0,8(a0)
#     ++len;
     bec:	02d72423          	sw	a3,40(a4)
#     --len;
     bf0:	08c5a223          	sw	a2,132(a1)
#     for (size_t i = ix; i < len; ++i) {
     bf4:	04c37e63          	bgeu	t1,a2,c50 <_ZL11action_takehPKc+0x13c>
     bf8:	406f86b3          	sub	a3,t6,t1
     bfc:	ffe68593          	add	a1,a3,-2
     c00:	00500713          	li	a4,5
     c04:	02b77263          	bgeu	a4,a1,c28 <_ZL11action_takehPKc+0x114>
     c08:	006787b3          	add	a5,a5,t1
     c0c:	00478713          	add	a4,a5,4
     c10:	00578793          	add	a5,a5,5
     c14:	00e80733          	add	a4,a6,a4
     c18:	00f807b3          	add	a5,a6,a5
     c1c:	00e7e5b3          	or	a1,a5,a4
     c20:	0035f593          	and	a1,a1,3
     c24:	06058663          	beqz	a1,c90 <_ZL11action_takehPKc+0x17c>
     c28:	004f0793          	add	a5,t5,4
     c2c:	00380693          	add	a3,a6,3
     c30:	006787b3          	add	a5,a5,t1
     c34:	01f686b3          	add	a3,a3,t6
     c38:	00f807b3          	add	a5,a6,a5
     c3c:	01e686b3          	add	a3,a3,t5
#       data[i] = data[i + 1];
     c40:	0017c703          	lbu	a4,1(a5)
#     for (size_t i = ix; i < len; ++i) {
     c44:	00178793          	add	a5,a5,1
#       data[i] = data[i + 1];
     c48:	fee78fa3          	sb	a4,-1(a5)
#     for (size_t i = ix; i < len; ++i) {
     c4c:	fed79ae3          	bne	a5,a3,c40 <_ZL11action_takehPKc+0x12c>
# }
     c50:	00c12403          	lw	s0,12(sp)
     c54:	00812483          	lw	s1,8(sp)
     c58:	01010113          	add	sp,sp,16
     c5c:	00008067          	ret
#     if (*s1 != *s2) {
     c60:	00074783          	lbu	a5,0(a4)
     c64:	0006c603          	lbu	a2,0(a3)
     c68:	f2c78ae3          	beq	a5,a2,b9c <_ZL11action_takehPKc+0x88>
#   for (size_t i = 0; i < n; ++i) {
     c6c:	00130313          	add	t1,t1,1
     c70:	f06f92e3          	bne	t6,t1,b74 <_ZL11action_takehPKc+0x60>
     c74:	08038e63          	beqz	t2,d10 <_ZL11action_takehPKc+0x1fc>
#     while (*UART_OUT)
     c78:	ffe04783          	lbu	a5,-2(zero) # fffffffe <__bss_end+0xffffd266>
     c7c:	fe079ee3          	bnez	a5,c78 <_ZL11action_takehPKc+0x164>
#     *UART_OUT = *str++;
     c80:	00158593          	add	a1,a1,1
     c84:	fe700f23          	sb	t2,-2(zero) # fffffffe <__bss_end+0xffffd266>
#   while (*str) {
     c88:	0005c383          	lbu	t2,0(a1)
     c8c:	fe9ff06f          	j	c74 <_ZL11action_takehPKc+0x160>
     c90:	fff68693          	add	a3,a3,-1
     c94:	ffc6f513          	and	a0,a3,-4
     c98:	00a78533          	add	a0,a5,a0
#       data[i] = data[i + 1];
     c9c:	0007a583          	lw	a1,0(a5)
     ca0:	00478793          	add	a5,a5,4
     ca4:	00470713          	add	a4,a4,4
     ca8:	feb72e23          	sw	a1,-4(a4)
#     for (size_t i = ix; i < len; ++i) {
     cac:	fea798e3          	bne	a5,a0,c9c <_ZL11action_takehPKc+0x188>
     cb0:	0036f793          	and	a5,a3,3
     cb4:	f8078ee3          	beqz	a5,c50 <_ZL11action_takehPKc+0x13c>
     cb8:	ffc6f693          	and	a3,a3,-4
#       data[i] = data[i + 1];
     cbc:	01de07b3          	add	a5,t3,t4
     cc0:	00668733          	add	a4,a3,t1
     cc4:	00579793          	sll	a5,a5,0x5
     cc8:	00f807b3          	add	a5,a6,a5
     ccc:	00170693          	add	a3,a4,1
     cd0:	00d785b3          	add	a1,a5,a3
     cd4:	0045c803          	lbu	a6,4(a1)
     cd8:	00e78533          	add	a0,a5,a4
     cdc:	01050223          	sb	a6,4(a0)
#     for (size_t i = ix; i < len; ++i) {
     ce0:	f6c6f8e3          	bgeu	a3,a2,c50 <_ZL11action_takehPKc+0x13c>
#       data[i] = data[i + 1];
     ce4:	00270713          	add	a4,a4,2
     ce8:	00e787b3          	add	a5,a5,a4
     cec:	0047c683          	lbu	a3,4(a5)
     cf0:	00d58223          	sb	a3,4(a1)
#     for (size_t i = ix; i < len; ++i) {
     cf4:	f4c77ee3          	bgeu	a4,a2,c50 <_ZL11action_takehPKc+0x13c>
#       data[i] = data[i + 1];
     cf8:	00754703          	lbu	a4,7(a0)
     cfc:	00e78223          	sb	a4,4(a5)
# }
     d00:	00c12403          	lw	s0,12(sp)
     d04:	00812483          	lw	s1,8(sp)
     d08:	01010113          	add	sp,sp,16
     d0c:	00008067          	ret
     d10:	00002737          	lui	a4,0x2
     d14:	02000693          	li	a3,32
     d18:	5e070713          	add	a4,a4,1504 # 25e0 <_ZL4exiti+0x598>
#     while (*UART_OUT)
     d1c:	ffe04783          	lbu	a5,-2(zero) # fffffffe <__bss_end+0xffffd266>
     d20:	fe079ee3          	bnez	a5,d1c <_ZL11action_takehPKc+0x208>
#     *UART_OUT = *str++;
     d24:	00170713          	add	a4,a4,1
     d28:	fed00f23          	sb	a3,-2(zero) # fffffffe <__bss_end+0xffffd266>
#   while (*str) {
     d2c:	00074683          	lbu	a3,0(a4)
     d30:	fe0696e3          	bnez	a3,d1c <_ZL11action_takehPKc+0x208>
     d34:	f1dff06f          	j	c50 <_ZL11action_takehPKc+0x13c>
#     *UART_OUT = *str++;
     d38:	00158593          	add	a1,a1,1
     d3c:	fe700f23          	sb	t2,-2(zero) # fffffffe <__bss_end+0xffffd266>
#   while (*str) {
     d40:	0005c383          	lbu	t2,0(a1)
     d44:	00038863          	beqz	t2,d54 <_ZL11action_takehPKc+0x240>
#     while (*UART_OUT)
     d48:	ffe04783          	lbu	a5,-2(zero) # fffffffe <__bss_end+0xffffd266>
     d4c:	fe079ee3          	bnez	a5,d48 <_ZL11action_takehPKc+0x234>
     d50:	fe9ff06f          	j	d38 <_ZL11action_takehPKc+0x224>
#   while (*str) {
     d54:	00002737          	lui	a4,0x2
     d58:	02000693          	li	a3,32
     d5c:	5e070713          	add	a4,a4,1504 # 25e0 <_ZL4exiti+0x598>
#     while (*UART_OUT)
     d60:	ffe04783          	lbu	a5,-2(zero) # fffffffe <__bss_end+0xffffd266>
     d64:	fe079ee3          	bnez	a5,d60 <_ZL11action_takehPKc+0x24c>
#     *UART_OUT = *str++;
     d68:	00170713          	add	a4,a4,1
     d6c:	fed00f23          	sb	a3,-2(zero) # fffffffe <__bss_end+0xffffd266>
#   while (*str) {
     d70:	00074683          	lbu	a3,0(a4)
     d74:	fe0696e3          	bnez	a3,d60 <_ZL11action_takehPKc+0x24c>
     d78:	00008067          	ret

00000d7c <_ZL11action_drophPKc>:
#   auto length() const -> size_t { return len; }
     d7c:	00151e13          	sll	t3,a0,0x1
     d80:	00ae08b3          	add	a7,t3,a0
     d84:	00289893          	sll	a7,a7,0x2
     d88:	000037b7          	lui	a5,0x3
     d8c:	40a888b3          	sub	a7,a7,a0
     d90:	9cc78813          	add	a6,a5,-1588 # 29cc <_ZL8entities>
     d94:	00289893          	sll	a7,a7,0x2
     d98:	011807b3          	add	a5,a6,a7
     d9c:	0287ae83          	lw	t4,40(a5)
#   for (size_t i = 0; i < n; ++i) {
     da0:	100e8a63          	beqz	t4,eb4 <_ZL11action_drophPKc+0x138>
#     if (*s1 != *s2) {
     da4:	0005c283          	lbu	t0,0(a1)
     da8:	00003fb7          	lui	t6,0x3
#   for (size_t i = 0; i < n; ++i) {
     dac:	00000313          	li	t1,0
     db0:	9bcf8f93          	add	t6,t6,-1604 # 29bc <_ZL7objects>
#       return data[ix];
     db4:	011307b3          	add	a5,t1,a7
     db8:	00f807b3          	add	a5,a6,a5
     dbc:	0087cf03          	lbu	t5,8(a5)
#     if (!strings_equal(objects[oid].name, obj_nm)) {
     dc0:	002f1793          	sll	a5,t5,0x2
     dc4:	00ff87b3          	add	a5,t6,a5
     dc8:	0007a703          	lw	a4,0(a5)
#     if (*s1 != *s2) {
     dcc:	00074783          	lbu	a5,0(a4)
     dd0:	0c579e63          	bne	a5,t0,eac <_ZL11action_drophPKc+0x130>
     dd4:	00028613          	mv	a2,t0
     dd8:	00058693          	mv	a3,a1
#     if (!*s1 && !*s2) {
     ddc:	00c7e7b3          	or	a5,a5,a2
#     ++s1;
     de0:	00170713          	add	a4,a4,1
#     ++s2;
     de4:	00168693          	add	a3,a3,1
#     if (!*s1 && !*s2) {
     de8:	0a079c63          	bnez	a5,ea0 <_ZL11action_drophPKc+0x124>
#     if (locations[ent.location].objects.add(oid)) {
     dec:	00ae07b3          	add	a5,t3,a0
     df0:	00279793          	sll	a5,a5,0x2
     df4:	40a787b3          	sub	a5,a5,a0
     df8:	00279793          	sll	a5,a5,0x2
     dfc:	00f80fb3          	add	t6,a6,a5
     e00:	004fc603          	lbu	a2,4(t6)
#     if (len == Size - 1) {
     e04:	00003737          	lui	a4,0x3
     e08:	a5070713          	add	a4,a4,-1456 # 2a50 <_ZL9locations>
     e0c:	00261693          	sll	a3,a2,0x2
     e10:	00c686b3          	add	a3,a3,a2
     e14:	00569693          	sll	a3,a3,0x5
     e18:	00d70733          	add	a4,a4,a3
     e1c:	08472683          	lw	a3,132(a4)
     e20:	07f00613          	li	a2,127
     e24:	14c68a63          	beq	a3,a2,f78 <_ZL11action_drophPKc+0x1fc>
#     data[len] = elem;
     e28:	00d70633          	add	a2,a4,a3
#     --len;
     e2c:	fffe8593          	add	a1,t4,-1
#     ++len;
     e30:	00168693          	add	a3,a3,1
#     data[len] = elem;
     e34:	01e60223          	sb	t5,4(a2)
#     ++len;
     e38:	08d72223          	sw	a3,132(a4)
#     --len;
     e3c:	02bfa423          	sw	a1,40(t6)
#     for (size_t i = ix; i < len; ++i) {
     e40:	12b37c63          	bgeu	t1,a1,f78 <_ZL11action_drophPKc+0x1fc>
     e44:	406e8733          	sub	a4,t4,t1
     e48:	ffe70693          	add	a3,a4,-2
     e4c:	00500f13          	li	t5,5
     e50:	02df7263          	bgeu	t5,a3,e74 <_ZL11action_drophPKc+0xf8>
     e54:	006787b3          	add	a5,a5,t1
     e58:	00878693          	add	a3,a5,8
     e5c:	00978793          	add	a5,a5,9
     e60:	00d806b3          	add	a3,a6,a3
     e64:	00f807b3          	add	a5,a6,a5
     e68:	00d7e633          	or	a2,a5,a3
     e6c:	00367613          	and	a2,a2,3
     e70:	08060263          	beqz	a2,ef4 <_ZL11action_drophPKc+0x178>
     e74:	00888793          	add	a5,a7,8
     e78:	00780693          	add	a3,a6,7
     e7c:	006787b3          	add	a5,a5,t1
     e80:	01d686b3          	add	a3,a3,t4
     e84:	00f807b3          	add	a5,a6,a5
     e88:	011686b3          	add	a3,a3,a7
#       data[i] = data[i + 1];
     e8c:	0017c703          	lbu	a4,1(a5)
#     for (size_t i = ix; i < len; ++i) {
     e90:	00178793          	add	a5,a5,1
#       data[i] = data[i + 1];
     e94:	fee78fa3          	sb	a4,-1(a5)
#     for (size_t i = ix; i < len; ++i) {
     e98:	fed79ae3          	bne	a5,a3,e8c <_ZL11action_drophPKc+0x110>
     e9c:	00008067          	ret
#     if (*s1 != *s2) {
     ea0:	00074783          	lbu	a5,0(a4)
     ea4:	0006c603          	lbu	a2,0(a3)
     ea8:	f2c78ae3          	beq	a5,a2,ddc <_ZL11action_drophPKc+0x60>
#   for (size_t i = 0; i < n; ++i) {
     eac:	00130313          	add	t1,t1,1
     eb0:	f06e92e3          	bne	t4,t1,db4 <_ZL11action_drophPKc+0x38>
     eb4:	00002737          	lui	a4,0x2
     eb8:	07500693          	li	a3,117
     ebc:	5f070713          	add	a4,a4,1520 # 25f0 <_ZL4exiti+0x5a8>
#     while (*UART_OUT)
     ec0:	ffe04783          	lbu	a5,-2(zero) # fffffffe <__bss_end+0xffffd266>
     ec4:	fe079ee3          	bnez	a5,ec0 <_ZL11action_drophPKc+0x144>
#     *UART_OUT = *str++;
     ec8:	00170713          	add	a4,a4,1
     ecc:	fed00f23          	sb	a3,-2(zero) # fffffffe <__bss_end+0xffffd266>
#   while (*str) {
     ed0:	00074683          	lbu	a3,0(a4)
     ed4:	fe0696e3          	bnez	a3,ec0 <_ZL11action_drophPKc+0x144>
     ed8:	0005c703          	lbu	a4,0(a1)
     edc:	0e070a63          	beqz	a4,fd0 <_ZL11action_drophPKc+0x254>
#     while (*UART_OUT)
     ee0:	ffe04783          	lbu	a5,-2(zero) # fffffffe <__bss_end+0xffffd266>
     ee4:	fe079ee3          	bnez	a5,ee0 <_ZL11action_drophPKc+0x164>
#     *UART_OUT = *str++;
     ee8:	00158593          	add	a1,a1,1
     eec:	fee00f23          	sb	a4,-2(zero) # fffffffe <__bss_end+0xffffd266>
     ef0:	fe9ff06f          	j	ed8 <_ZL11action_drophPKc+0x15c>
#       data[i] = data[i + 1];
     ef4:	0007a883          	lw	a7,0(a5)
     ef8:	fff70713          	add	a4,a4,-1
     efc:	00275613          	srl	a2,a4,0x2
     f00:	0116a023          	sw	a7,0(a3)
#     for (size_t i = ix; i < len; ++i) {
     f04:	00100893          	li	a7,1
     f08:	0f160863          	beq	a2,a7,ff8 <_ZL11action_drophPKc+0x27c>
#       data[i] = data[i + 1];
     f0c:	0047ae83          	lw	t4,4(a5)
     f10:	00200893          	li	a7,2
     f14:	01d6a223          	sw	t4,4(a3)
#     for (size_t i = ix; i < len; ++i) {
     f18:	05160c63          	beq	a2,a7,f70 <_ZL11action_drophPKc+0x1f4>
#       data[i] = data[i + 1];
     f1c:	0087ae83          	lw	t4,8(a5)
     f20:	00300893          	li	a7,3
     f24:	01d6a423          	sw	t4,8(a3)
#     for (size_t i = ix; i < len; ++i) {
     f28:	05160463          	beq	a2,a7,f70 <_ZL11action_drophPKc+0x1f4>
#       data[i] = data[i + 1];
     f2c:	00c7ae83          	lw	t4,12(a5)
     f30:	00400893          	li	a7,4
     f34:	01d6a623          	sw	t4,12(a3)
#     for (size_t i = ix; i < len; ++i) {
     f38:	03160c63          	beq	a2,a7,f70 <_ZL11action_drophPKc+0x1f4>
#       data[i] = data[i + 1];
     f3c:	0107a883          	lw	a7,16(a5)
     f40:	0116a823          	sw	a7,16(a3)
#     for (size_t i = ix; i < len; ++i) {
     f44:	03e60663          	beq	a2,t5,f70 <_ZL11action_drophPKc+0x1f4>
#       data[i] = data[i + 1];
     f48:	0147ae83          	lw	t4,20(a5)
     f4c:	00600893          	li	a7,6
     f50:	01d6aa23          	sw	t4,20(a3)
#     for (size_t i = ix; i < len; ++i) {
     f54:	01160e63          	beq	a2,a7,f70 <_ZL11action_drophPKc+0x1f4>
#       data[i] = data[i + 1];
     f58:	0187ae83          	lw	t4,24(a5)
     f5c:	00700893          	li	a7,7
     f60:	01d6ac23          	sw	t4,24(a3)
#     for (size_t i = ix; i < len; ++i) {
     f64:	01160663          	beq	a2,a7,f70 <_ZL11action_drophPKc+0x1f4>
#       data[i] = data[i + 1];
     f68:	01c7a783          	lw	a5,28(a5)
     f6c:	00f6ae23          	sw	a5,28(a3)
#     for (size_t i = ix; i < len; ++i) {
     f70:	00377793          	and	a5,a4,3
     f74:	00079463          	bnez	a5,f7c <_ZL11action_drophPKc+0x200>
# }
     f78:	00008067          	ret
     f7c:	ffc77713          	and	a4,a4,-4
     f80:	00670733          	add	a4,a4,t1
#       data[i] = data[i + 1];
     f84:	00ae07b3          	add	a5,t3,a0
     f88:	00279793          	sll	a5,a5,0x2
     f8c:	40a78533          	sub	a0,a5,a0
     f90:	00251793          	sll	a5,a0,0x2
     f94:	00f807b3          	add	a5,a6,a5
     f98:	00170693          	add	a3,a4,1
     f9c:	00d78633          	add	a2,a5,a3
     fa0:	00864803          	lbu	a6,8(a2)
     fa4:	00e78533          	add	a0,a5,a4
     fa8:	01050423          	sb	a6,8(a0)
#     for (size_t i = ix; i < len; ++i) {
     fac:	fcb6f6e3          	bgeu	a3,a1,f78 <_ZL11action_drophPKc+0x1fc>
#       data[i] = data[i + 1];
     fb0:	00270713          	add	a4,a4,2
     fb4:	00e787b3          	add	a5,a5,a4
     fb8:	0087c683          	lbu	a3,8(a5)
     fbc:	00d60423          	sb	a3,8(a2)
#     for (size_t i = ix; i < len; ++i) {
     fc0:	fab77ce3          	bgeu	a4,a1,f78 <_ZL11action_drophPKc+0x1fc>
#       data[i] = data[i + 1];
     fc4:	00b54703          	lbu	a4,11(a0)
     fc8:	00e78423          	sb	a4,8(a5)
#     for (size_t i = ix; i < len; ++i) {
     fcc:	00008067          	ret
#   while (*str) {
     fd0:	00002737          	lui	a4,0x2
     fd4:	00d00693          	li	a3,13
     fd8:	07470713          	add	a4,a4,116 # 2074 <_ZL4exiti+0x2c>
#     while (*UART_OUT)
     fdc:	ffe04783          	lbu	a5,-2(zero) # fffffffe <__bss_end+0xffffd266>
     fe0:	fe079ee3          	bnez	a5,fdc <_ZL11action_drophPKc+0x260>
#     *UART_OUT = *str++;
     fe4:	00170713          	add	a4,a4,1
     fe8:	fed00f23          	sb	a3,-2(zero) # fffffffe <__bss_end+0xffffd266>
#   while (*str) {
     fec:	00074683          	lbu	a3,0(a4)
     ff0:	fe0696e3          	bnez	a3,fdc <_ZL11action_drophPKc+0x260>
# }
     ff4:	00008067          	ret
     ff8:	00430713          	add	a4,t1,4
     ffc:	f89ff06f          	j	f84 <_ZL11action_drophPKc+0x208>

00001000 <_ZL9action_gohh>:
#   location &loc = locations[ent.location];
    1000:	00151613          	sll	a2,a0,0x1
    1004:	00a607b3          	add	a5,a2,a0
    1008:	00279793          	sll	a5,a5,0x2
    100c:	40a787b3          	sub	a5,a5,a0
    1010:	000038b7          	lui	a7,0x3
    1014:	9cc88893          	add	a7,a7,-1588 # 29cc <_ZL8entities>
    1018:	00279793          	sll	a5,a5,0x2
    101c:	00f887b3          	add	a5,a7,a5
    1020:	0047ce03          	lbu	t3,4(a5)
#     if (ix < len) {
    1024:	000037b7          	lui	a5,0x3
    1028:	a5078793          	add	a5,a5,-1456 # 2a50 <_ZL9locations>
    102c:	002e1813          	sll	a6,t3,0x2
    1030:	01c80733          	add	a4,a6,t3
    1034:	00571713          	sll	a4,a4,0x5
    1038:	00e78733          	add	a4,a5,a4
    103c:	09c72683          	lw	a3,156(a4)
    1040:	02d5e663          	bltu	a1,a3,106c <_ZL9action_gohh+0x6c>
    1044:	00002737          	lui	a4,0x2
    1048:	06300693          	li	a3,99
    104c:	60070713          	add	a4,a4,1536 # 2600 <_ZL4exiti+0x5b8>
#     while (*UART_OUT)
    1050:	ffe04783          	lbu	a5,-2(zero) # fffffffe <__bss_end+0xffffd266>
    1054:	fe079ee3          	bnez	a5,1050 <_ZL9action_gohh+0x50>
#     *UART_OUT = *str++;
    1058:	00170713          	add	a4,a4,1
    105c:	fed00f23          	sb	a3,-2(zero) # fffffffe <__bss_end+0xffffd266>
#   while (*str) {
    1060:	00074683          	lbu	a3,0(a4)
    1064:	fe0696e3          	bnez	a3,1050 <_ZL9action_gohh+0x50>
    1068:	00008067          	ret
#       return data[ix];
    106c:	00b705b3          	add	a1,a4,a1
    1070:	0945c303          	lbu	t1,148(a1)
#   if (!to) {
    1074:	fc0308e3          	beqz	t1,1044 <_ZL9action_gohh+0x44>
#     if (len == Size - 1) {
    1078:	00231693          	sll	a3,t1,0x2
    107c:	006686b3          	add	a3,a3,t1
    1080:	00569693          	sll	a3,a3,0x5
    1084:	00d786b3          	add	a3,a5,a3
    1088:	0906ae83          	lw	t4,144(a3)
    108c:	00700593          	li	a1,7
    1090:	14be8063          	beq	t4,a1,11d0 <_ZL9action_gohh+0x1d0>
#     ++len;
    1094:	001e8593          	add	a1,t4,1
    1098:	08b6a823          	sw	a1,144(a3)
#     for (size_t i = 0; i < len; ++i) {
    109c:	09072583          	lw	a1,144(a4)
#     data[len] = elem;
    10a0:	01d686b3          	add	a3,a3,t4
    10a4:	08a68423          	sb	a0,136(a3)
#     for (size_t i = 0; i < len; ++i) {
    10a8:	10058663          	beqz	a1,11b4 <_ZL9action_gohh+0x1b4>
#       if (data[i] != elem) {
    10ac:	08874e83          	lbu	t4,136(a4)
#     for (size_t i = 0; i < len; ++i) {
    10b0:	00000693          	li	a3,0
#       if (data[i] != elem) {
    10b4:	00ae8a63          	beq	t4,a0,10c8 <_ZL9action_gohh+0xc8>
#     for (size_t i = 0; i < len; ++i) {
    10b8:	00100693          	li	a3,1
    10bc:	0ed58c63          	beq	a1,a3,11b4 <_ZL9action_gohh+0x1b4>
#       if (data[i] != elem) {
    10c0:	08974e83          	lbu	t4,137(a4)
    10c4:	10ae9863          	bne	t4,a0,11d4 <_ZL9action_gohh+0x1d4>
#       --len;
    10c8:	01c80733          	add	a4,a6,t3
    10cc:	00571713          	sll	a4,a4,0x5
    10d0:	fff58e93          	add	t4,a1,-1
    10d4:	00e78f33          	add	t5,a5,a4
    10d8:	09df2823          	sw	t4,144(t5)
#       for (size_t j = i; j < len; ++j) {
    10dc:	0dd6fc63          	bgeu	a3,t4,11b4 <_ZL9action_gohh+0x1b4>
    10e0:	40d585b3          	sub	a1,a1,a3
    10e4:	ffe58f93          	add	t6,a1,-2
    10e8:	00500f13          	li	t5,5
    10ec:	03ff7263          	bgeu	t5,t6,1110 <_ZL9action_gohh+0x110>
    10f0:	00d70733          	add	a4,a4,a3
    10f4:	08870f13          	add	t5,a4,136
    10f8:	08970713          	add	a4,a4,137
    10fc:	01e78f33          	add	t5,a5,t5
    1100:	00e78733          	add	a4,a5,a4
    1104:	00ef6fb3          	or	t6,t5,a4
    1108:	003fff93          	and	t6,t6,3
    110c:	120f8e63          	beqz	t6,1248 <_ZL9action_gohh+0x248>
#         data[j] = data[j + 1];
    1110:	01c80733          	add	a4,a6,t3
    1114:	00571713          	sll	a4,a4,0x5
    1118:	00e787b3          	add	a5,a5,a4
    111c:	00168713          	add	a4,a3,1
    1120:	00e785b3          	add	a1,a5,a4
    1124:	0885c803          	lbu	a6,136(a1)
    1128:	00d78e33          	add	t3,a5,a3
    112c:	090e0423          	sb	a6,136(t3)
#       for (size_t j = i; j < len; ++j) {
    1130:	09d77263          	bgeu	a4,t4,11b4 <_ZL9action_gohh+0x1b4>
#         data[j] = data[j + 1];
    1134:	00268713          	add	a4,a3,2
    1138:	00e78833          	add	a6,a5,a4
    113c:	08884f03          	lbu	t5,136(a6)
    1140:	09e58423          	sb	t5,136(a1)
#       for (size_t j = i; j < len; ++j) {
    1144:	07d77863          	bgeu	a4,t4,11b4 <_ZL9action_gohh+0x1b4>
#         data[j] = data[j + 1];
    1148:	00368713          	add	a4,a3,3
    114c:	00e785b3          	add	a1,a5,a4
    1150:	0885cf03          	lbu	t5,136(a1)
    1154:	09e80423          	sb	t5,136(a6)
#       for (size_t j = i; j < len; ++j) {
    1158:	05d77e63          	bgeu	a4,t4,11b4 <_ZL9action_gohh+0x1b4>
#         data[j] = data[j + 1];
    115c:	00468713          	add	a4,a3,4
    1160:	00e78833          	add	a6,a5,a4
    1164:	08884f03          	lbu	t5,136(a6)
    1168:	09e58423          	sb	t5,136(a1)
#       for (size_t j = i; j < len; ++j) {
    116c:	05d77463          	bgeu	a4,t4,11b4 <_ZL9action_gohh+0x1b4>
#         data[j] = data[j + 1];
    1170:	00568713          	add	a4,a3,5
    1174:	00e785b3          	add	a1,a5,a4
    1178:	0885cf03          	lbu	t5,136(a1)
    117c:	09e80423          	sb	t5,136(a6)
#       for (size_t j = i; j < len; ++j) {
    1180:	03d77a63          	bgeu	a4,t4,11b4 <_ZL9action_gohh+0x1b4>
#         data[j] = data[j + 1];
    1184:	00668713          	add	a4,a3,6
    1188:	00e78833          	add	a6,a5,a4
    118c:	08884f03          	lbu	t5,136(a6)
    1190:	09e58423          	sb	t5,136(a1)
#       for (size_t j = i; j < len; ++j) {
    1194:	03d77063          	bgeu	a4,t4,11b4 <_ZL9action_gohh+0x1b4>
#         data[j] = data[j + 1];
    1198:	00768693          	add	a3,a3,7
    119c:	00d787b3          	add	a5,a5,a3
    11a0:	0887c703          	lbu	a4,136(a5)
    11a4:	08e80423          	sb	a4,136(a6)
#       for (size_t j = i; j < len; ++j) {
    11a8:	01d6f663          	bgeu	a3,t4,11b4 <_ZL9action_gohh+0x1b4>
#         data[j] = data[j + 1];
    11ac:	090e4703          	lbu	a4,144(t3)
    11b0:	08e78423          	sb	a4,136(a5)
#     ent.location = to;
    11b4:	00a607b3          	add	a5,a2,a0
    11b8:	00279793          	sll	a5,a5,0x2
    11bc:	40a787b3          	sub	a5,a5,a0
    11c0:	00279793          	sll	a5,a5,0x2
    11c4:	00f887b3          	add	a5,a7,a5
    11c8:	00678223          	sb	t1,4(a5)
    11cc:	00008067          	ret
# }
    11d0:	00008067          	ret
#     for (size_t i = 0; i < len; ++i) {
    11d4:	00200693          	li	a3,2
    11d8:	fcd58ee3          	beq	a1,a3,11b4 <_ZL9action_gohh+0x1b4>
#       if (data[i] != elem) {
    11dc:	08a74703          	lbu	a4,138(a4)
    11e0:	eea704e3          	beq	a4,a0,10c8 <_ZL9action_gohh+0xc8>
#     for (size_t i = 0; i < len; ++i) {
    11e4:	00300713          	li	a4,3
    11e8:	fce586e3          	beq	a1,a4,11b4 <_ZL9action_gohh+0x1b4>
#       if (data[i] != elem) {
    11ec:	01c80733          	add	a4,a6,t3
    11f0:	00571713          	sll	a4,a4,0x5
    11f4:	00e78733          	add	a4,a5,a4
    11f8:	08b74e83          	lbu	t4,139(a4)
#     for (size_t i = 0; i < len; ++i) {
    11fc:	00300693          	li	a3,3
#       if (data[i] != elem) {
    1200:	ecae84e3          	beq	t4,a0,10c8 <_ZL9action_gohh+0xc8>
#     for (size_t i = 0; i < len; ++i) {
    1204:	00400693          	li	a3,4
    1208:	fad586e3          	beq	a1,a3,11b4 <_ZL9action_gohh+0x1b4>
#       if (data[i] != elem) {
    120c:	08c74e83          	lbu	t4,140(a4)
    1210:	eaae8ce3          	beq	t4,a0,10c8 <_ZL9action_gohh+0xc8>
#     for (size_t i = 0; i < len; ++i) {
    1214:	00500693          	li	a3,5
    1218:	f8d58ee3          	beq	a1,a3,11b4 <_ZL9action_gohh+0x1b4>
#       if (data[i] != elem) {
    121c:	08d74e83          	lbu	t4,141(a4)
    1220:	eaae84e3          	beq	t4,a0,10c8 <_ZL9action_gohh+0xc8>
#     for (size_t i = 0; i < len; ++i) {
    1224:	00600693          	li	a3,6
    1228:	f8d586e3          	beq	a1,a3,11b4 <_ZL9action_gohh+0x1b4>
#       if (data[i] != elem) {
    122c:	08e74e83          	lbu	t4,142(a4)
    1230:	e8ae8ce3          	beq	t4,a0,10c8 <_ZL9action_gohh+0xc8>
#     for (size_t i = 0; i < len; ++i) {
    1234:	00700693          	li	a3,7
    1238:	f6d58ee3          	beq	a1,a3,11b4 <_ZL9action_gohh+0x1b4>
#       if (data[i] != elem) {
    123c:	08f74703          	lbu	a4,143(a4)
    1240:	e8a704e3          	beq	a4,a0,10c8 <_ZL9action_gohh+0xc8>
    1244:	f71ff06f          	j	11b4 <_ZL9action_gohh+0x1b4>
#         data[j] = data[j + 1];
    1248:	00072f83          	lw	t6,0(a4)
    124c:	fff58593          	add	a1,a1,-1
    1250:	0025d293          	srl	t0,a1,0x2
    1254:	01ff2023          	sw	t6,0(t5)
#       for (size_t j = i; j < len; ++j) {
    1258:	00100f93          	li	t6,1
    125c:	03f28063          	beq	t0,t6,127c <_ZL9action_gohh+0x27c>
#         data[j] = data[j + 1];
    1260:	00472f83          	lw	t6,4(a4)
    1264:	0035f713          	and	a4,a1,3
    1268:	01ff2223          	sw	t6,4(t5)
#       for (size_t j = i; j < len; ++j) {
    126c:	f40704e3          	beqz	a4,11b4 <_ZL9action_gohh+0x1b4>
    1270:	ffc5f593          	and	a1,a1,-4
    1274:	00d58733          	add	a4,a1,a3
    1278:	0080006f          	j	1280 <_ZL9action_gohh+0x280>
    127c:	00468713          	add	a4,a3,4
#         data[j] = data[j + 1];
    1280:	01c806b3          	add	a3,a6,t3
    1284:	00569693          	sll	a3,a3,0x5
    1288:	00d787b3          	add	a5,a5,a3
    128c:	00170693          	add	a3,a4,1
    1290:	00d78833          	add	a6,a5,a3
    1294:	08884e03          	lbu	t3,136(a6)
    1298:	00e785b3          	add	a1,a5,a4
    129c:	09c58423          	sb	t3,136(a1)
#       for (size_t j = i; j < len; ++j) {
    12a0:	f1d6fae3          	bgeu	a3,t4,11b4 <_ZL9action_gohh+0x1b4>
#         data[j] = data[j + 1];
    12a4:	00270713          	add	a4,a4,2
    12a8:	00e787b3          	add	a5,a5,a4
    12ac:	0887c683          	lbu	a3,136(a5)
    12b0:	08d80423          	sb	a3,136(a6)
#       for (size_t j = i; j < len; ++j) {
    12b4:	f1d770e3          	bgeu	a4,t4,11b4 <_ZL9action_gohh+0x1b4>
#         data[j] = data[j + 1];
    12b8:	08b5c703          	lbu	a4,139(a1)
    12bc:	08e78423          	sb	a4,136(a5)
#     ent.location = to;
    12c0:	00a607b3          	add	a5,a2,a0
    12c4:	00279793          	sll	a5,a5,0x2
    12c8:	40a787b3          	sub	a5,a5,a0
    12cc:	00279793          	sll	a5,a5,0x2
    12d0:	00f887b3          	add	a5,a7,a5
    12d4:	00678223          	sb	t1,4(a5)
    12d8:	00008067          	ret

000012dc <_ZL11action_givehPKcS0_>:
#   location &loc = locations[ent.location];
    12dc:	00151e13          	sll	t3,a0,0x1
    12e0:	00ae07b3          	add	a5,t3,a0
    12e4:	00279793          	sll	a5,a5,0x2
    12e8:	40a787b3          	sub	a5,a5,a0
    12ec:	000038b7          	lui	a7,0x3
    12f0:	9cc88893          	add	a7,a7,-1588 # 29cc <_ZL8entities>
    12f4:	00279793          	sll	a5,a5,0x2
    12f8:	00f887b3          	add	a5,a7,a5
    12fc:	0047c703          	lbu	a4,4(a5)
#   auto length() const -> size_t { return len; }
    1300:	000036b7          	lui	a3,0x3
    1304:	a5068693          	add	a3,a3,-1456 # 2a50 <_ZL9locations>
    1308:	00271793          	sll	a5,a4,0x2
    130c:	00e787b3          	add	a5,a5,a4
    1310:	00579793          	sll	a5,a5,0x5
    1314:	00f68f33          	add	t5,a3,a5
    1318:	090f2703          	lw	a4,144(t5)
    131c:	00064283          	lbu	t0,0(a2)
#   for (size_t i = 0; i < n; ++i) {
    1320:	18070c63          	beqz	a4,14b8 <_ZL11action_givehPKcS0_+0x1dc>
    1324:	00d70733          	add	a4,a4,a3
    1328:	00f70fb3          	add	t6,a4,a5
#     entity &to = entities[lse.at(i)];
    132c:	088f4e83          	lbu	t4,136(t5)
#     if (!strings_equal(to.name, to_ent_nm)) {
    1330:	001e9313          	sll	t1,t4,0x1
    1334:	01d307b3          	add	a5,t1,t4
    1338:	00279793          	sll	a5,a5,0x2
    133c:	41d787b3          	sub	a5,a5,t4
    1340:	00279793          	sll	a5,a5,0x2
    1344:	00f887b3          	add	a5,a7,a5
    1348:	0007a703          	lw	a4,0(a5)
#     if (*s1 != *s2) {
    134c:	00074683          	lbu	a3,0(a4)
    1350:	1ad29663          	bne	t0,a3,14fc <_ZL11action_givehPKcS0_+0x220>
    1354:	00060813          	mv	a6,a2
    1358:	00028793          	mv	a5,t0
    135c:	0100006f          	j	136c <_ZL11action_givehPKcS0_+0x90>
    1360:	00074683          	lbu	a3,0(a4)
    1364:	00084783          	lbu	a5,0(a6)
    1368:	18d79a63          	bne	a5,a3,14fc <_ZL11action_givehPKcS0_+0x220>
#     if (!*s1 && !*s2) {
    136c:	00d7e7b3          	or	a5,a5,a3
    1370:	0ff7f793          	zext.b	a5,a5
#     ++s1;
    1374:	00170713          	add	a4,a4,1
#     ++s2;
    1378:	00180813          	add	a6,a6,1
#     if (!*s1 && !*s2) {
    137c:	fe0792e3          	bnez	a5,1360 <_ZL11action_givehPKcS0_+0x84>
#   auto length() const -> size_t { return len; }
    1380:	00ae0833          	add	a6,t3,a0
    1384:	00281813          	sll	a6,a6,0x2
    1388:	40a80833          	sub	a6,a6,a0
#                         name_t const to_ent_nm) -> void {
    138c:	ff010113          	add	sp,sp,-16
#   auto length() const -> size_t { return len; }
    1390:	00281813          	sll	a6,a6,0x2
#                         name_t const to_ent_nm) -> void {
    1394:	00812623          	sw	s0,12(sp)
#   auto length() const -> size_t { return len; }
    1398:	010887b3          	add	a5,a7,a6
    139c:	0287a403          	lw	s0,40(a5)
    13a0:	0005cf83          	lbu	t6,0(a1)
#     for (size_t j = 0; j < m; j++) {
    13a4:	12040863          	beqz	s0,14d4 <_ZL11action_givehPKcS0_+0x1f8>
    13a8:	000033b7          	lui	t2,0x3
    13ac:	00000f13          	li	t5,0
    13b0:	9bc38393          	add	t2,t2,-1604 # 29bc <_ZL7objects>
#       return data[ix];
    13b4:	010f07b3          	add	a5,t5,a6
    13b8:	00f887b3          	add	a5,a7,a5
    13bc:	0087c283          	lbu	t0,8(a5)
#       if (!strings_equal(objects[oid].name, obj_nm)) {
    13c0:	00229793          	sll	a5,t0,0x2
    13c4:	00f387b3          	add	a5,t2,a5
    13c8:	0007a703          	lw	a4,0(a5)
#     if (*s1 != *s2) {
    13cc:	00074783          	lbu	a5,0(a4)
    13d0:	12ff9063          	bne	t6,a5,14f0 <_ZL11action_givehPKcS0_+0x214>
    13d4:	000f8613          	mv	a2,t6
    13d8:	00058693          	mv	a3,a1
#     if (!*s1 && !*s2) {
    13dc:	00c7e7b3          	or	a5,a5,a2
    13e0:	0ff7f793          	zext.b	a5,a5
#     ++s1;
    13e4:	00170713          	add	a4,a4,1
#     ++s2;
    13e8:	00168693          	add	a3,a3,1
#     if (!*s1 && !*s2) {
    13ec:	0e079c63          	bnez	a5,14e4 <_ZL11action_givehPKcS0_+0x208>
#     if (len == Size - 1) {
    13f0:	01d307b3          	add	a5,t1,t4
    13f4:	00279793          	sll	a5,a5,0x2
    13f8:	41d787b3          	sub	a5,a5,t4
    13fc:	00279793          	sll	a5,a5,0x2
    1400:	00f887b3          	add	a5,a7,a5
    1404:	0287a683          	lw	a3,40(a5)
    1408:	01f00713          	li	a4,31
    140c:	08e68a63          	beq	a3,a4,14a0 <_ZL11action_givehPKcS0_+0x1c4>
#     if (len == 0) {
    1410:	00ae0733          	add	a4,t3,a0
    1414:	00271713          	sll	a4,a4,0x2
    1418:	40a70733          	sub	a4,a4,a0
#     ++len;
    141c:	00168613          	add	a2,a3,1
#     if (len == 0) {
    1420:	00271713          	sll	a4,a4,0x2
#     ++len;
    1424:	02c7a423          	sw	a2,40(a5)
#     if (len == 0) {
    1428:	00e885b3          	add	a1,a7,a4
    142c:	0285a603          	lw	a2,40(a1)
#     data[len] = elem;
    1430:	00d787b3          	add	a5,a5,a3
    1434:	00578423          	sb	t0,8(a5)
#     if (len == 0) {
    1438:	06060463          	beqz	a2,14a0 <_ZL11action_givehPKcS0_+0x1c4>
#     --len;
    143c:	fff60313          	add	t1,a2,-1
    1440:	0265a423          	sw	t1,40(a1)
#     for (size_t i = ix; i < len; ++i) {
    1444:	046f7e63          	bgeu	t5,t1,14a0 <_ZL11action_givehPKcS0_+0x1c4>
    1448:	41e606b3          	sub	a3,a2,t5
    144c:	ffe68593          	add	a1,a3,-2
    1450:	00500793          	li	a5,5
    1454:	02b7f263          	bgeu	a5,a1,1478 <_ZL11action_givehPKcS0_+0x19c>
    1458:	01e70733          	add	a4,a4,t5
    145c:	00870593          	add	a1,a4,8
    1460:	00970713          	add	a4,a4,9
    1464:	00b885b3          	add	a1,a7,a1
    1468:	00e887b3          	add	a5,a7,a4
    146c:	00b7e733          	or	a4,a5,a1
    1470:	00377713          	and	a4,a4,3
    1474:	08070a63          	beqz	a4,1508 <_ZL11action_givehPKcS0_+0x22c>
    1478:	00880793          	add	a5,a6,8
    147c:	00788693          	add	a3,a7,7
    1480:	01e787b3          	add	a5,a5,t5
    1484:	00c686b3          	add	a3,a3,a2
    1488:	00f887b3          	add	a5,a7,a5
    148c:	010686b3          	add	a3,a3,a6
#       data[i] = data[i + 1];
    1490:	0017c703          	lbu	a4,1(a5)
#     for (size_t i = ix; i < len; ++i) {
    1494:	00178793          	add	a5,a5,1
#       data[i] = data[i + 1];
    1498:	fee78fa3          	sb	a4,-1(a5)
#     for (size_t i = ix; i < len; ++i) {
    149c:	fed79ae3          	bne	a5,a3,1490 <_ZL11action_givehPKcS0_+0x1b4>
# }
    14a0:	00c12403          	lw	s0,12(sp)
    14a4:	01010113          	add	sp,sp,16
    14a8:	00008067          	ret
#     *UART_OUT = *str++;
    14ac:	00160613          	add	a2,a2,1
    14b0:	fe500f23          	sb	t0,-2(zero) # fffffffe <__bss_end+0xffffd266>
#   while (*str) {
    14b4:	00064283          	lbu	t0,0(a2)
    14b8:	12028a63          	beqz	t0,15ec <_ZL11action_givehPKcS0_+0x310>
#     while (*UART_OUT)
    14bc:	ffe04783          	lbu	a5,-2(zero) # fffffffe <__bss_end+0xffffd266>
    14c0:	fe079ee3          	bnez	a5,14bc <_ZL11action_givehPKcS0_+0x1e0>
    14c4:	fe9ff06f          	j	14ac <_ZL11action_givehPKcS0_+0x1d0>
#     *UART_OUT = *str++;
    14c8:	00158593          	add	a1,a1,1
    14cc:	fff00f23          	sb	t6,-2(zero) # fffffffe <__bss_end+0xffffd266>
#   while (*str) {
    14d0:	0005cf83          	lbu	t6,0(a1)
    14d4:	140f8063          	beqz	t6,1614 <_ZL11action_givehPKcS0_+0x338>
#     while (*UART_OUT)
    14d8:	ffe04783          	lbu	a5,-2(zero) # fffffffe <__bss_end+0xffffd266>
    14dc:	fe079ee3          	bnez	a5,14d8 <_ZL11action_givehPKcS0_+0x1fc>
    14e0:	fe9ff06f          	j	14c8 <_ZL11action_givehPKcS0_+0x1ec>
#     if (*s1 != *s2) {
    14e4:	00074783          	lbu	a5,0(a4)
    14e8:	0006c603          	lbu	a2,0(a3)
    14ec:	eec788e3          	beq	a5,a2,13dc <_ZL11action_givehPKcS0_+0x100>
#     for (size_t j = 0; j < m; j++) {
    14f0:	001f0f13          	add	t5,t5,1
    14f4:	ec8f10e3          	bne	t5,s0,13b4 <_ZL11action_givehPKcS0_+0xd8>
    14f8:	fddff06f          	j	14d4 <_ZL11action_givehPKcS0_+0x1f8>
#   for (size_t i = 0; i < n; ++i) {
    14fc:	001f0f13          	add	t5,t5,1
    1500:	e3ff16e3          	bne	t5,t6,132c <_ZL11action_givehPKcS0_+0x50>
    1504:	fb5ff06f          	j	14b8 <_ZL11action_givehPKcS0_+0x1dc>
#       data[i] = data[i + 1];
    1508:	0007a603          	lw	a2,0(a5)
    150c:	fff68693          	add	a3,a3,-1
    1510:	0026d713          	srl	a4,a3,0x2
    1514:	00c5a023          	sw	a2,0(a1)
#     for (size_t i = ix; i < len; ++i) {
    1518:	00100613          	li	a2,1
    151c:	12c70063          	beq	a4,a2,163c <_ZL11action_givehPKcS0_+0x360>
#       data[i] = data[i + 1];
    1520:	0047a803          	lw	a6,4(a5)
    1524:	00200613          	li	a2,2
    1528:	0105a223          	sw	a6,4(a1)
#     for (size_t i = ix; i < len; ++i) {
    152c:	04c70e63          	beq	a4,a2,1588 <_ZL11action_givehPKcS0_+0x2ac>
#       data[i] = data[i + 1];
    1530:	0087a803          	lw	a6,8(a5)
    1534:	00300613          	li	a2,3
    1538:	0105a423          	sw	a6,8(a1)
#     for (size_t i = ix; i < len; ++i) {
    153c:	04c70663          	beq	a4,a2,1588 <_ZL11action_givehPKcS0_+0x2ac>
#       data[i] = data[i + 1];
    1540:	00c7a803          	lw	a6,12(a5)
    1544:	00400613          	li	a2,4
    1548:	0105a623          	sw	a6,12(a1)
#     for (size_t i = ix; i < len; ++i) {
    154c:	02c70e63          	beq	a4,a2,1588 <_ZL11action_givehPKcS0_+0x2ac>
#       data[i] = data[i + 1];
    1550:	0107a803          	lw	a6,16(a5)
    1554:	00500613          	li	a2,5
    1558:	0105a823          	sw	a6,16(a1)
#     for (size_t i = ix; i < len; ++i) {
    155c:	02c70663          	beq	a4,a2,1588 <_ZL11action_givehPKcS0_+0x2ac>
#       data[i] = data[i + 1];
    1560:	0147a803          	lw	a6,20(a5)
    1564:	00600613          	li	a2,6
    1568:	0105aa23          	sw	a6,20(a1)
#     for (size_t i = ix; i < len; ++i) {
    156c:	00c70e63          	beq	a4,a2,1588 <_ZL11action_givehPKcS0_+0x2ac>
#       data[i] = data[i + 1];
    1570:	0187a803          	lw	a6,24(a5)
    1574:	00700613          	li	a2,7
    1578:	0105ac23          	sw	a6,24(a1)
#     for (size_t i = ix; i < len; ++i) {
    157c:	00c70663          	beq	a4,a2,1588 <_ZL11action_givehPKcS0_+0x2ac>
#       data[i] = data[i + 1];
    1580:	01c7a783          	lw	a5,28(a5)
    1584:	00f5ae23          	sw	a5,28(a1)
#     for (size_t i = ix; i < len; ++i) {
    1588:	0036f793          	and	a5,a3,3
    158c:	f0078ae3          	beqz	a5,14a0 <_ZL11action_givehPKcS0_+0x1c4>
    1590:	ffc6f693          	and	a3,a3,-4
    1594:	01e68733          	add	a4,a3,t5
#       data[i] = data[i + 1];
    1598:	00ae07b3          	add	a5,t3,a0
    159c:	00279793          	sll	a5,a5,0x2
    15a0:	40a787b3          	sub	a5,a5,a0
    15a4:	00279793          	sll	a5,a5,0x2
    15a8:	00f887b3          	add	a5,a7,a5
    15ac:	00170693          	add	a3,a4,1
    15b0:	00d785b3          	add	a1,a5,a3
    15b4:	0085c503          	lbu	a0,8(a1)
    15b8:	00e78633          	add	a2,a5,a4
    15bc:	00a60423          	sb	a0,8(a2)
#     for (size_t i = ix; i < len; ++i) {
    15c0:	ee66f0e3          	bgeu	a3,t1,14a0 <_ZL11action_givehPKcS0_+0x1c4>
#       data[i] = data[i + 1];
    15c4:	00270713          	add	a4,a4,2
    15c8:	00e787b3          	add	a5,a5,a4
    15cc:	0087c683          	lbu	a3,8(a5)
    15d0:	00d58423          	sb	a3,8(a1)
#     for (size_t i = ix; i < len; ++i) {
    15d4:	ec6776e3          	bgeu	a4,t1,14a0 <_ZL11action_givehPKcS0_+0x1c4>
#       data[i] = data[i + 1];
    15d8:	00b64703          	lbu	a4,11(a2)
    15dc:	00e78423          	sb	a4,8(a5)
# }
    15e0:	00c12403          	lw	s0,12(sp)
    15e4:	01010113          	add	sp,sp,16
    15e8:	00008067          	ret
#   while (*str) {
    15ec:	00002737          	lui	a4,0x2
    15f0:	02000693          	li	a3,32
    15f4:	62c70713          	add	a4,a4,1580 # 262c <_ZL4exiti+0x5e4>
#     while (*UART_OUT)
    15f8:	ffe04783          	lbu	a5,-2(zero) # fffffffe <__bss_end+0xffffd266>
    15fc:	fe079ee3          	bnez	a5,15f8 <_ZL11action_givehPKcS0_+0x31c>
#     *UART_OUT = *str++;
    1600:	00170713          	add	a4,a4,1
    1604:	fed00f23          	sb	a3,-2(zero) # fffffffe <__bss_end+0xffffd266>
#   while (*str) {
    1608:	00074683          	lbu	a3,0(a4)
    160c:	fe0696e3          	bnez	a3,15f8 <_ZL11action_givehPKcS0_+0x31c>
    1610:	00008067          	ret
    1614:	00002737          	lui	a4,0x2
    1618:	02000693          	li	a3,32
    161c:	61470713          	add	a4,a4,1556 # 2614 <_ZL4exiti+0x5cc>
#     while (*UART_OUT)
    1620:	ffe04783          	lbu	a5,-2(zero) # fffffffe <__bss_end+0xffffd266>
    1624:	fe079ee3          	bnez	a5,1620 <_ZL11action_givehPKcS0_+0x344>
#     *UART_OUT = *str++;
    1628:	00170713          	add	a4,a4,1
    162c:	fed00f23          	sb	a3,-2(zero) # fffffffe <__bss_end+0xffffd266>
#   while (*str) {
    1630:	00074683          	lbu	a3,0(a4)
    1634:	fe0696e3          	bnez	a3,1620 <_ZL11action_givehPKcS0_+0x344>
    1638:	e69ff06f          	j	14a0 <_ZL11action_givehPKcS0_+0x1c4>
    163c:	004f0713          	add	a4,t5,4
    1640:	f59ff06f          	j	1598 <_ZL11action_givehPKcS0_+0x2bc>

00001644 <_ZL10print_helpv>:
    1644:	00002737          	lui	a4,0x2
    1648:	00d00693          	li	a3,13
    164c:	45c70713          	add	a4,a4,1116 # 245c <_ZL4exiti+0x414>
#     while (*UART_OUT)
    1650:	ffe04783          	lbu	a5,-2(zero) # fffffffe <__bss_end+0xffffd266>
    1654:	fe079ee3          	bnez	a5,1650 <_ZL10print_helpv+0xc>
#     *UART_OUT = *str++;
    1658:	00170713          	add	a4,a4,1
    165c:	fed00f23          	sb	a3,-2(zero) # fffffffe <__bss_end+0xffffd266>
#   while (*str) {
    1660:	00074683          	lbu	a3,0(a4)
    1664:	fe0696e3          	bnez	a3,1650 <_ZL10print_helpv+0xc>
# }
    1668:	00008067          	ret

0000166c <_ZL27input_escape_sequence_clearv>:
#     input_escape_sequence[i] = '\0';
    166c:	000037b7          	lui	a5,0x3
    1670:	d9078713          	add	a4,a5,-624 # 2d90 <_ZL21input_escape_sequence>
    1674:	d807a823          	sw	zero,-624(a5)
    1678:	00072223          	sw	zero,4(a4)
# }
    167c:	00008067          	ret

00001680 <_ZL5inputR14command_buffer>:
# static auto input(command_buffer &cmd_buf) -> void {
    1680:	fe010113          	add	sp,sp,-32
    1684:	00812e23          	sw	s0,28(sp)
    1688:	00912c23          	sw	s1,24(sp)
    168c:	01212a23          	sw	s2,20(sp)
    1690:	01312823          	sw	s3,16(sp)
    1694:	01412623          	sw	s4,12(sp)
    1698:	01512423          	sw	s5,8(sp)
    169c:	01612223          	sw	s6,4(sp)
    16a0:	01712023          	sw	s7,0(sp)
    16a4:	00050693          	mv	a3,a0
#   auto reset() -> void { cursor_ = end_ = 0; }
    16a8:	00003437          	lui	s0,0x3
#     for (size_t i = end_; i > cursor_; --i) {
    16ac:	00100813          	li	a6,1
#   auto reset() -> void { cursor_ = end_ = 0; }
    16b0:	040508a3          	sb	zero,81(a0)
    16b4:	04050823          	sb	zero,80(a0)
    16b8:	d9040893          	add	a7,s0,-624 # 2d90 <_ZL21input_escape_sequence>
#     if (ch == 0x1B) {
    16bc:	01b00513          	li	a0,27
#     if (ch == CHAR_BACKSPACE) {
    16c0:	07f00313          	li	t1,127
#     } else if (ch == CHAR_TAB) {
    16c4:	00900e93          	li	t4,9
#     } else if (ch == CHAR_CARRIAGE_RETURN || cmd_buf.is_full()) {
    16c8:	00d00f93          	li	t6,13
    16cc:	04f00e13          	li	t3,79
#   *UART_OUT = ch;
    16d0:	00800593          	li	a1,8
#     for (size_t i = end_; i > cursor_; --i) {
    16d4:	40d80833          	sub	a6,a6,a3
#       if (ch == 0x5B) {
    16d8:	05b00f13          	li	t5,91
#         if (ch == 0x44) {
    16dc:	04400393          	li	t2,68
#         if (ch == 0x43) {
    16e0:	04300493          	li	s1,67
#         if (ch == 0x33) {
    16e4:	03300293          	li	t0,51
#   while ((ch = *UART_IN) == 0)
    16e8:	ffd04783          	lbu	a5,-3(zero) # fffffffd <__bss_end+0xffffd265>
    16ec:	0ff7f713          	zext.b	a4,a5
    16f0:	fe078ce3          	beqz	a5,16e8 <_ZL5inputR14command_buffer+0x68>
#     if (ch == 0x1B) {
    16f4:	10a70663          	beq	a4,a0,1800 <_ZL5inputR14command_buffer+0x180>
#     if (input_escape_sequence[0] == 0x1B) {
    16f8:	0008c783          	lbu	a5,0(a7)
    16fc:	0ca78c63          	beq	a5,a0,17d4 <_ZL5inputR14command_buffer+0x154>
#     if (cursor_ == end_) {
    1700:	0516c783          	lbu	a5,81(a3)
#     if (ch == CHAR_BACKSPACE) {
    1704:	10670263          	beq	a4,t1,1808 <_ZL5inputR14command_buffer+0x188>
#     } else if (ch == CHAR_TAB) {
    1708:	0bd70e63          	beq	a4,t4,17c4 <_ZL5inputR14command_buffer+0x144>
#     } else if (ch == CHAR_CARRIAGE_RETURN || cmd_buf.is_full()) {
    170c:	21f70863          	beq	a4,t6,191c <_ZL5inputR14command_buffer+0x29c>
    1710:	21c78663          	beq	a5,t3,191c <_ZL5inputR14command_buffer+0x29c>
#   while (*UART_OUT)
    1714:	ffe04783          	lbu	a5,-2(zero) # fffffffe <__bss_end+0xffffd266>
    1718:	fe079ee3          	bnez	a5,1714 <_ZL5inputR14command_buffer+0x94>
#   *UART_OUT = ch;
    171c:	fee00f23          	sb	a4,-2(zero) # fffffffe <__bss_end+0xffffd266>
#     if (end_ == sizeof(line_) - 1) {
    1720:	0516c603          	lbu	a2,81(a3)
    1724:	1dc60663          	beq	a2,t3,18f0 <_ZL5inputR14command_buffer+0x270>
#     if (cursor_ == end_) {
    1728:	0506c983          	lbu	s3,80(a3)
#       ++end_;
    172c:	00160793          	add	a5,a2,1
    1730:	0ff7f793          	zext.b	a5,a5
#       ++cursor_;
    1734:	00198a13          	add	s4,s3,1
#     for (size_t i = end_; i > cursor_; --i) {
    1738:	00078a93          	mv	s5,a5
#       ++cursor_;
    173c:	0ffa7a13          	zext.b	s4,s4
#     if (cursor_ == end_) {
    1740:	1d360463          	beq	a2,s3,1908 <_ZL5inputR14command_buffer+0x288>
#     ++end_;
    1744:	fff78613          	add	a2,a5,-1
    1748:	04f688a3          	sb	a5,81(a3)
#     for (size_t i = end_; i > cursor_; --i) {
    174c:	00c68633          	add	a2,a3,a2
    1750:	00f9fc63          	bgeu	s3,a5,1768 <_ZL5inputR14command_buffer+0xe8>
#       line_[i] = line_[i - 1];
    1754:	00064903          	lbu	s2,0(a2)
#     for (size_t i = end_; i > cursor_; --i) {
    1758:	fff60613          	add	a2,a2,-1
#       line_[i] = line_[i - 1];
    175c:	01260123          	sb	s2,2(a2)
#     for (size_t i = end_; i > cursor_; --i) {
    1760:	00c80933          	add	s2,a6,a2
    1764:	ff29e8e3          	bltu	s3,s2,1754 <_ZL5inputR14command_buffer+0xd4>
#     line_[cursor_] = ch;
    1768:	013689b3          	add	s3,a3,s3
    176c:	00e98023          	sb	a4,0(s3)
#     ++cursor_;
    1770:	05468823          	sb	s4,80(a3)
#     for (size_t i = cursor_; i < end_; ++i) {
    1774:	000a0713          	mv	a4,s4
    1778:	035a7463          	bgeu	s4,s5,17a0 <_ZL5inputR14command_buffer+0x120>
#       f(line_[i]);
    177c:	00e687b3          	add	a5,a3,a4
    1780:	0007c603          	lbu	a2,0(a5)
#   while (*UART_OUT)
    1784:	ffe04783          	lbu	a5,-2(zero) # fffffffe <__bss_end+0xffffd266>
    1788:	fe079ee3          	bnez	a5,1784 <_ZL5inputR14command_buffer+0x104>
#   *UART_OUT = ch;
    178c:	fec00f23          	sb	a2,-2(zero) # fffffffe <__bss_end+0xffffd266>
#     for (size_t i = cursor_; i < end_; ++i) {
    1790:	0516c783          	lbu	a5,81(a3)
    1794:	00170713          	add	a4,a4,1
    1798:	fef762e3          	bltu	a4,a5,177c <_ZL5inputR14command_buffer+0xfc>
#   auto characters_after_cursor() const -> size_t { return end_ - cursor_; }
    179c:	0506ca03          	lbu	s4,80(a3)
    17a0:	41478633          	sub	a2,a5,s4
#     uart_send_char('A' + (nibble - 10));
#   }
# }
# 
# static auto uart_send_move_back(size_t const n) -> void {
#   for (size_t i = 0; i < n; ++i) {
    17a4:	03478063          	beq	a5,s4,17c4 <_ZL5inputR14command_buffer+0x144>
    17a8:	00000713          	li	a4,0
#   while (*UART_OUT)
    17ac:	ffe04783          	lbu	a5,-2(zero) # fffffffe <__bss_end+0xffffd266>
    17b0:	fe079ee3          	bnez	a5,17ac <_ZL5inputR14command_buffer+0x12c>
#   *UART_OUT = ch;
    17b4:	feb00f23          	sb	a1,-2(zero) # fffffffe <__bss_end+0xffffd266>
    17b8:	00170713          	add	a4,a4,1
    17bc:	fec718e3          	bne	a4,a2,17ac <_ZL5inputR14command_buffer+0x12c>
#   auto input_length() const -> size_t { return end_; }
    17c0:	0516c783          	lbu	a5,81(a3)
#     led_set(~uint8_t(cmd_buf.input_length()));
    17c4:	fff7c793          	not	a5,a5
    17c8:	0ff7f793          	zext.b	a5,a5
# static auto led_set(uint8_t bits) -> void { *LED = bits; }
    17cc:	fef00fa3          	sb	a5,-1(zero) # ffffffff <__bss_end+0xffffd267>
#   while ((ch = *UART_IN) == 0)
    17d0:	f19ff06f          	j	16e8 <_ZL5inputR14command_buffer+0x68>
#       if (ch == 0x5B) {
    17d4:	13e70663          	beq	a4,t5,1900 <_ZL5inputR14command_buffer+0x280>
#       if (input_escape_sequence[1] == 0x5B) {
    17d8:	0018c603          	lbu	a2,1(a7)
    17dc:	f3e612e3          	bne	a2,t5,1700 <_ZL5inputR14command_buffer+0x80>
#         if (ch == 0x44) {
    17e0:	2c770c63          	beq	a4,t2,1ab8 <_ZL5inputR14command_buffer+0x438>
#         if (ch == 0x43) {
    17e4:	30970463          	beq	a4,s1,1aec <_ZL5inputR14command_buffer+0x46c>
#         if (ch == 0x33) {
    17e8:	2c570463          	beq	a4,t0,1ab0 <_ZL5inputR14command_buffer+0x430>
#         if (input_escape_sequence[2] == 0x33) {
    17ec:	0028c783          	lbu	a5,2(a7)
    17f0:	1e578263          	beq	a5,t0,19d4 <_ZL5inputR14command_buffer+0x354>
#     input_escape_sequence[i] = '\0';
    17f4:	d8042823          	sw	zero,-624(s0)
    17f8:	0008a223          	sw	zero,4(a7)
#   for (size_t i = 0; i < sizeof(input_escape_sequence); ++i) {
    17fc:	eedff06f          	j	16e8 <_ZL5inputR14command_buffer+0x68>
#       input_escape_sequence[0] = 0x1B;
    1800:	00a88023          	sb	a0,0(a7)
#       continue;
    1804:	ee5ff06f          	j	16e8 <_ZL5inputR14command_buffer+0x68>
#     if (cursor_ == 0) {
    1808:	0506c903          	lbu	s2,80(a3)
    180c:	fa090ce3          	beqz	s2,17c4 <_ZL5inputR14command_buffer+0x144>
#       --cursor_;
    1810:	fff90b13          	add	s6,s2,-1
#       --end_;
    1814:	fff78993          	add	s3,a5,-1
#       --cursor_;
    1818:	0ffb7a93          	zext.b	s5,s6
#       --end_;
    181c:	0ff9f993          	zext.b	s3,s3
#     if (cursor_ == end_) {
    1820:	1af90463          	beq	s2,a5,19c8 <_ZL5inputR14command_buffer+0x348>
#     for (size_t i = cursor_ - 1; i < end_; ++i) {
    1824:	04fb7063          	bgeu	s6,a5,1864 <_ZL5inputR14command_buffer+0x1e4>
    1828:	41278bb3          	sub	s7,a5,s2
    182c:	006bb713          	sltiu	a4,s7,6
    1830:	18071463          	bnez	a4,19b8 <_ZL5inputR14command_buffer+0x338>
    1834:	1927e263          	bltu	a5,s2,19b8 <_ZL5inputR14command_buffer+0x338>
    1838:	01668633          	add	a2,a3,s6
    183c:	01268733          	add	a4,a3,s2
    1840:	00e66a33          	or	s4,a2,a4
    1844:	003a7a13          	and	s4,s4,3
    1848:	100a0263          	beqz	s4,194c <_ZL5inputR14command_buffer+0x2cc>
#       line_[i] = line_[i + 1];
    184c:	00074603          	lbu	a2,0(a4)
#     for (size_t i = cursor_ - 1; i < end_; ++i) {
    1850:	00170713          	add	a4,a4,1
#       line_[i] = line_[i + 1];
    1854:	fec70f23          	sb	a2,-2(a4)
#     for (size_t i = cursor_ - 1; i < end_; ++i) {
    1858:	40d70633          	sub	a2,a4,a3
    185c:	fff60613          	add	a2,a2,-1
    1860:	fef666e3          	bltu	a2,a5,184c <_ZL5inputR14command_buffer+0x1cc>
#     --cursor_;
    1864:	05568823          	sb	s5,80(a3)
#     --end_;
    1868:	053688a3          	sb	s3,81(a3)
#   while (*UART_OUT)
    186c:	ffe04783          	lbu	a5,-2(zero) # fffffffe <__bss_end+0xffffd266>
    1870:	fe079ee3          	bnez	a5,186c <_ZL5inputR14command_buffer+0x1ec>
#   *UART_OUT = ch;
    1874:	07f00793          	li	a5,127
    1878:	fef00f23          	sb	a5,-2(zero) # fffffffe <__bss_end+0xffffd266>
#     for (size_t i = cursor_; i < end_; ++i) {
    187c:	0506c703          	lbu	a4,80(a3)
    1880:	0516c783          	lbu	a5,81(a3)
    1884:	02f77263          	bgeu	a4,a5,18a8 <_ZL5inputR14command_buffer+0x228>
#       f(line_[i]);
    1888:	00e687b3          	add	a5,a3,a4
    188c:	0007c603          	lbu	a2,0(a5)
#   while (*UART_OUT)
    1890:	ffe04783          	lbu	a5,-2(zero) # fffffffe <__bss_end+0xffffd266>
    1894:	fe079ee3          	bnez	a5,1890 <_ZL5inputR14command_buffer+0x210>
#   *UART_OUT = ch;
    1898:	fec00f23          	sb	a2,-2(zero) # fffffffe <__bss_end+0xffffd266>
#     for (size_t i = cursor_; i < end_; ++i) {
    189c:	0516c783          	lbu	a5,81(a3)
    18a0:	00170713          	add	a4,a4,1
    18a4:	fef762e3          	bltu	a4,a5,1888 <_ZL5inputR14command_buffer+0x208>
#   while (*UART_OUT)
    18a8:	ffe04783          	lbu	a5,-2(zero) # fffffffe <__bss_end+0xffffd266>
    18ac:	fe079ee3          	bnez	a5,18a8 <_ZL5inputR14command_buffer+0x228>
#   *UART_OUT = ch;
    18b0:	02000793          	li	a5,32
    18b4:	fef00f23          	sb	a5,-2(zero) # fffffffe <__bss_end+0xffffd266>
#   auto characters_after_cursor() const -> size_t { return end_ - cursor_; }
    18b8:	0516c783          	lbu	a5,81(a3)
    18bc:	0506c603          	lbu	a2,80(a3)
#   for (size_t i = 0; i < n; ++i) {
    18c0:	fff00713          	li	a4,-1
#   auto characters_after_cursor() const -> size_t { return end_ - cursor_; }
    18c4:	40c78633          	sub	a2,a5,a2
#   for (size_t i = 0; i < n; ++i) {
    18c8:	eee60ee3          	beq	a2,a4,17c4 <_ZL5inputR14command_buffer+0x144>
    18cc:	00000713          	li	a4,0
    18d0:	00800913          	li	s2,8
#   while (*UART_OUT)
    18d4:	ffe04783          	lbu	a5,-2(zero) # fffffffe <__bss_end+0xffffd266>
    18d8:	fe079ee3          	bnez	a5,18d4 <_ZL5inputR14command_buffer+0x254>
#   *UART_OUT = ch;
    18dc:	ff200f23          	sb	s2,-2(zero) # fffffffe <__bss_end+0xffffd266>
    18e0:	00170793          	add	a5,a4,1
    18e4:	ece60ee3          	beq	a2,a4,17c0 <_ZL5inputR14command_buffer+0x140>
    18e8:	00078713          	mv	a4,a5
    18ec:	fe9ff06f          	j	18d4 <_ZL5inputR14command_buffer+0x254>
#     if (cursor_ == end_) {
    18f0:	0506ca03          	lbu	s4,80(a3)
    18f4:	04f00793          	li	a5,79
    18f8:	04f00a93          	li	s5,79
    18fc:	e79ff06f          	j	1774 <_ZL5inputR14command_buffer+0xf4>
#         input_escape_sequence[1] = 0x5B;
    1900:	01e880a3          	sb	t5,1(a7)
#         continue;
    1904:	de5ff06f          	j	16e8 <_ZL5inputR14command_buffer+0x68>
#       line_[cursor_] = ch;
    1908:	00c68633          	add	a2,a3,a2
    190c:	00e60023          	sb	a4,0(a2)
#       ++cursor_;
    1910:	05468823          	sb	s4,80(a3)
#       ++end_;
    1914:	04f688a3          	sb	a5,81(a3)
#       return true;
    1918:	e5dff06f          	j	1774 <_ZL5inputR14command_buffer+0xf4>
#   auto set_eos() -> void { line_[end_] = '\0'; }
    191c:	00f686b3          	add	a3,a3,a5
    1920:	00068023          	sb	zero,0(a3)
# }
    1924:	01c12403          	lw	s0,28(sp)
    1928:	01812483          	lw	s1,24(sp)
    192c:	01412903          	lw	s2,20(sp)
    1930:	01012983          	lw	s3,16(sp)
    1934:	00c12a03          	lw	s4,12(sp)
    1938:	00812a83          	lw	s5,8(sp)
    193c:	00412b03          	lw	s6,4(sp)
    1940:	00012b83          	lw	s7,0(sp)
    1944:	02010113          	add	sp,sp,32
    1948:	00008067          	ret
    194c:	00100a13          	li	s4,1
    1950:	0727f863          	bgeu	a5,s2,19c0 <_ZL5inputR14command_buffer+0x340>
    1954:	ffca7b93          	and	s7,s4,-4
    1958:	01760bb3          	add	s7,a2,s7
#       line_[i] = line_[i + 1];
    195c:	00072903          	lw	s2,0(a4)
    1960:	00460613          	add	a2,a2,4
    1964:	00470713          	add	a4,a4,4
    1968:	ff262e23          	sw	s2,-4(a2)
#     for (size_t i = cursor_ - 1; i < end_; ++i) {
    196c:	ff7618e3          	bne	a2,s7,195c <_ZL5inputR14command_buffer+0x2dc>
    1970:	003a7713          	and	a4,s4,3
    1974:	ee0708e3          	beqz	a4,1864 <_ZL5inputR14command_buffer+0x1e4>
    1978:	ffca7713          	and	a4,s4,-4
    197c:	01670733          	add	a4,a4,s6
#       line_[i] = line_[i + 1];
    1980:	00170613          	add	a2,a4,1
    1984:	00c68a33          	add	s4,a3,a2
    1988:	000a4b03          	lbu	s6,0(s4)
    198c:	00e68933          	add	s2,a3,a4
    1990:	01690023          	sb	s6,0(s2)
#     for (size_t i = cursor_ - 1; i < end_; ++i) {
    1994:	ecf678e3          	bgeu	a2,a5,1864 <_ZL5inputR14command_buffer+0x1e4>
#       line_[i] = line_[i + 1];
    1998:	00270713          	add	a4,a4,2
    199c:	00e68633          	add	a2,a3,a4
    19a0:	00064b03          	lbu	s6,0(a2)
    19a4:	016a0023          	sb	s6,0(s4)
#     for (size_t i = cursor_ - 1; i < end_; ++i) {
    19a8:	eaf77ee3          	bgeu	a4,a5,1864 <_ZL5inputR14command_buffer+0x1e4>
#       line_[i] = line_[i + 1];
    19ac:	00394783          	lbu	a5,3(s2)
    19b0:	00f60023          	sb	a5,0(a2)
#     for (size_t i = cursor_ - 1; i < end_; ++i) {
    19b4:	eb1ff06f          	j	1864 <_ZL5inputR14command_buffer+0x1e4>
    19b8:	01268733          	add	a4,a3,s2
    19bc:	e91ff06f          	j	184c <_ZL5inputR14command_buffer+0x1cc>
    19c0:	001b8a13          	add	s4,s7,1
    19c4:	f91ff06f          	j	1954 <_ZL5inputR14command_buffer+0x2d4>
#       --end_;
    19c8:	053688a3          	sb	s3,81(a3)
#       --cursor_;
    19cc:	05568823          	sb	s5,80(a3)
#       return true;
    19d0:	e9dff06f          	j	186c <_ZL5inputR14command_buffer+0x1ec>
#           if (ch == 0x7e) {
    19d4:	07e00793          	li	a5,126
    19d8:	e0f71ee3          	bne	a4,a5,17f4 <_ZL5inputR14command_buffer+0x174>
#     if (cursor_ == end_) {
    19dc:	0506c903          	lbu	s2,80(a3)
    19e0:	0516c603          	lbu	a2,81(a3)
    19e4:	06c90063          	beq	s2,a2,1a44 <_ZL5inputR14command_buffer+0x3c4>
#     for (size_t i = cursor_ + 1; i < end_; ++i) {
    19e8:	00190a93          	add	s5,s2,1
    19ec:	04caf663          	bgeu	s5,a2,1a38 <_ZL5inputR14command_buffer+0x3b8>
    19f0:	41260a33          	sub	s4,a2,s2
    19f4:	ffea0793          	add	a5,s4,-2
    19f8:	0067b793          	sltiu	a5,a5,6
    19fc:	00290b13          	add	s6,s2,2
    1a00:	12079263          	bnez	a5,1b24 <_ZL5inputR14command_buffer+0x4a4>
    1a04:	012687b3          	add	a5,a3,s2
    1a08:	01666a63          	bltu	a2,s6,1a1c <_ZL5inputR14command_buffer+0x39c>
    1a0c:	015689b3          	add	s3,a3,s5
    1a10:	00f9e733          	or	a4,s3,a5
    1a14:	00377713          	and	a4,a4,3
    1a18:	10070a63          	beqz	a4,1b2c <_ZL5inputR14command_buffer+0x4ac>
    1a1c:	00100713          	li	a4,1
    1a20:	40d70733          	sub	a4,a4,a3
#       line_[i - 1] = line_[i];
    1a24:	0017c983          	lbu	s3,1(a5)
#     for (size_t i = cursor_ + 1; i < end_; ++i) {
    1a28:	00178793          	add	a5,a5,1
#       line_[i - 1] = line_[i];
    1a2c:	ff378fa3          	sb	s3,-1(a5)
#     for (size_t i = cursor_ + 1; i < end_; ++i) {
    1a30:	00f709b3          	add	s3,a4,a5
    1a34:	fec9e8e3          	bltu	s3,a2,1a24 <_ZL5inputR14command_buffer+0x3a4>
#     --end_;
    1a38:	fff60613          	add	a2,a2,-1
    1a3c:	0ff67613          	zext.b	a2,a2
    1a40:	04c688a3          	sb	a2,81(a3)
#     for (size_t i = cursor_; i < end_; ++i) {
    1a44:	02c97263          	bgeu	s2,a2,1a68 <_ZL5inputR14command_buffer+0x3e8>
#       f(line_[i]);
    1a48:	012687b3          	add	a5,a3,s2
    1a4c:	0007c703          	lbu	a4,0(a5)
#   while (*UART_OUT)
    1a50:	ffe04783          	lbu	a5,-2(zero) # fffffffe <__bss_end+0xffffd266>
    1a54:	fe079ee3          	bnez	a5,1a50 <_ZL5inputR14command_buffer+0x3d0>
#   *UART_OUT = ch;
    1a58:	fee00f23          	sb	a4,-2(zero) # fffffffe <__bss_end+0xffffd266>
#     for (size_t i = cursor_; i < end_; ++i) {
    1a5c:	0516c783          	lbu	a5,81(a3)
    1a60:	00190913          	add	s2,s2,1
    1a64:	fef962e3          	bltu	s2,a5,1a48 <_ZL5inputR14command_buffer+0x3c8>
#   while (*UART_OUT)
    1a68:	ffe04783          	lbu	a5,-2(zero) # fffffffe <__bss_end+0xffffd266>
    1a6c:	fe079ee3          	bnez	a5,1a68 <_ZL5inputR14command_buffer+0x3e8>
#   *UART_OUT = ch;
    1a70:	02000793          	li	a5,32
    1a74:	fef00f23          	sb	a5,-2(zero) # fffffffe <__bss_end+0xffffd266>
#   auto characters_after_cursor() const -> size_t { return end_ - cursor_; }
    1a78:	0516c703          	lbu	a4,81(a3)
    1a7c:	0506c603          	lbu	a2,80(a3)
#   for (size_t i = 0; i < n; ++i) {
    1a80:	fff00793          	li	a5,-1
#   auto characters_after_cursor() const -> size_t { return end_ - cursor_; }
    1a84:	40c70733          	sub	a4,a4,a2
#   for (size_t i = 0; i < n; ++i) {
    1a88:	d6f706e3          	beq	a4,a5,17f4 <_ZL5inputR14command_buffer+0x174>
    1a8c:	00000613          	li	a2,0
    1a90:	00800913          	li	s2,8
#   while (*UART_OUT)
    1a94:	ffe04783          	lbu	a5,-2(zero) # fffffffe <__bss_end+0xffffd266>
    1a98:	fe079ee3          	bnez	a5,1a94 <_ZL5inputR14command_buffer+0x414>
#   *UART_OUT = ch;
    1a9c:	ff200f23          	sb	s2,-2(zero) # fffffffe <__bss_end+0xffffd266>
    1aa0:	00160793          	add	a5,a2,1
    1aa4:	d4c708e3          	beq	a4,a2,17f4 <_ZL5inputR14command_buffer+0x174>
    1aa8:	00078613          	mv	a2,a5
    1aac:	fe9ff06f          	j	1a94 <_ZL5inputR14command_buffer+0x414>
#           input_escape_sequence[2] = 0x33;
    1ab0:	00588123          	sb	t0,2(a7)
#           continue;
    1ab4:	c35ff06f          	j	16e8 <_ZL5inputR14command_buffer+0x68>
#     if (cursor_ == 0) {
    1ab8:	0506c703          	lbu	a4,80(a3)
    1abc:	d2070ce3          	beqz	a4,17f4 <_ZL5inputR14command_buffer+0x174>
#     --cursor_;
    1ac0:	fff70713          	add	a4,a4,-1
    1ac4:	00002637          	lui	a2,0x2
    1ac8:	04e68823          	sb	a4,80(a3)
    1acc:	64060613          	add	a2,a2,1600 # 2640 <_ZL4exiti+0x5f8>
#     while (*UART_OUT)
    1ad0:	ffe04703          	lbu	a4,-2(zero) # fffffffe <__bss_end+0xffffd266>
    1ad4:	fe071ee3          	bnez	a4,1ad0 <_ZL5inputR14command_buffer+0x450>
#     *UART_OUT = *str++;
    1ad8:	00160613          	add	a2,a2,1
    1adc:	fef00f23          	sb	a5,-2(zero) # fffffffe <__bss_end+0xffffd266>
#   while (*str) {
    1ae0:	00064783          	lbu	a5,0(a2)
    1ae4:	fe0796e3          	bnez	a5,1ad0 <_ZL5inputR14command_buffer+0x450>
    1ae8:	d0dff06f          	j	17f4 <_ZL5inputR14command_buffer+0x174>
#     if (cursor_ == end_) {
    1aec:	0506c703          	lbu	a4,80(a3)
    1af0:	0516c603          	lbu	a2,81(a3)
    1af4:	d0e600e3          	beq	a2,a4,17f4 <_ZL5inputR14command_buffer+0x174>
#     ++cursor_;
    1af8:	00170713          	add	a4,a4,1
    1afc:	00002637          	lui	a2,0x2
    1b00:	04e68823          	sb	a4,80(a3)
    1b04:	64460613          	add	a2,a2,1604 # 2644 <_ZL4exiti+0x5fc>
#     while (*UART_OUT)
    1b08:	ffe04703          	lbu	a4,-2(zero) # fffffffe <__bss_end+0xffffd266>
    1b0c:	fe071ee3          	bnez	a4,1b08 <_ZL5inputR14command_buffer+0x488>
#     *UART_OUT = *str++;
    1b10:	00160613          	add	a2,a2,1
    1b14:	fef00f23          	sb	a5,-2(zero) # fffffffe <__bss_end+0xffffd266>
#   while (*str) {
    1b18:	00064783          	lbu	a5,0(a2)
    1b1c:	fe0796e3          	bnez	a5,1b08 <_ZL5inputR14command_buffer+0x488>
    1b20:	cd5ff06f          	j	17f4 <_ZL5inputR14command_buffer+0x174>
    1b24:	012687b3          	add	a5,a3,s2
    1b28:	ef5ff06f          	j	1a1c <_ZL5inputR14command_buffer+0x39c>
    1b2c:	00100713          	li	a4,1
    1b30:	01666463          	bltu	a2,s6,1b38 <_ZL5inputR14command_buffer+0x4b8>
    1b34:	fffa0713          	add	a4,s4,-1
    1b38:	ffc77a13          	and	s4,a4,-4
    1b3c:	01478a33          	add	s4,a5,s4
#       line_[i - 1] = line_[i];
    1b40:	0009ab03          	lw	s6,0(s3)
    1b44:	00478793          	add	a5,a5,4
    1b48:	00498993          	add	s3,s3,4
    1b4c:	ff67ae23          	sw	s6,-4(a5)
#     for (size_t i = cursor_ + 1; i < end_; ++i) {
    1b50:	ff4798e3          	bne	a5,s4,1b40 <_ZL5inputR14command_buffer+0x4c0>
    1b54:	00377793          	and	a5,a4,3
    1b58:	ee0780e3          	beqz	a5,1a38 <_ZL5inputR14command_buffer+0x3b8>
    1b5c:	ffc77793          	and	a5,a4,-4
    1b60:	015787b3          	add	a5,a5,s5
#       line_[i - 1] = line_[i];
    1b64:	00f689b3          	add	s3,a3,a5
    1b68:	0009ca03          	lbu	s4,0(s3)
#     for (size_t i = cursor_ + 1; i < end_; ++i) {
    1b6c:	00178713          	add	a4,a5,1
#       line_[i - 1] = line_[i];
    1b70:	ff498fa3          	sb	s4,-1(s3)
#     for (size_t i = cursor_ + 1; i < end_; ++i) {
    1b74:	ecc772e3          	bgeu	a4,a2,1a38 <_ZL5inputR14command_buffer+0x3b8>
#       line_[i - 1] = line_[i];
    1b78:	00e68733          	add	a4,a3,a4
    1b7c:	00074a03          	lbu	s4,0(a4)
#     for (size_t i = cursor_ + 1; i < end_; ++i) {
    1b80:	00278793          	add	a5,a5,2
#       line_[i - 1] = line_[i];
    1b84:	01498023          	sb	s4,0(s3)
#     for (size_t i = cursor_ + 1; i < end_; ++i) {
    1b88:	eac7f8e3          	bgeu	a5,a2,1a38 <_ZL5inputR14command_buffer+0x3b8>
#       line_[i - 1] = line_[i];
    1b8c:	00f687b3          	add	a5,a3,a5
    1b90:	0007c783          	lbu	a5,0(a5)
    1b94:	00f70023          	sb	a5,0(a4)
#     for (size_t i = cursor_ + 1; i < end_; ++i) {
    1b98:	ea1ff06f          	j	1a38 <_ZL5inputR14command_buffer+0x3b8>

00001b9c <_ZL13strings_equalPKcS0_>:
#     if (*s1 != *s2) {
    1b9c:	00054783          	lbu	a5,0(a0)
    1ba0:	0005c703          	lbu	a4,0(a1)
    1ba4:	00f71e63          	bne	a4,a5,1bc0 <_ZL13strings_equalPKcS0_+0x24>
#     if (!*s1 && !*s2) {
    1ba8:	00e7e7b3          	or	a5,a5,a4
#     ++s1;
    1bac:	00150513          	add	a0,a0,1
#     ++s2;
    1bb0:	00158593          	add	a1,a1,1
#     if (!*s1 && !*s2) {
    1bb4:	fe0794e3          	bnez	a5,1b9c <_ZL13strings_equalPKcS0_>
#       return true;
    1bb8:	00100513          	li	a0,1
# }
    1bbc:	00008067          	ret
#       return false;
    1bc0:	00000513          	li	a0,0
    1bc4:	00008067          	ret

00001bc8 <_ZL11string_copyPKcjPc>:
#   while (src_len--) {
    1bc8:	fff58893          	add	a7,a1,-1
    1bcc:	0a058663          	beqz	a1,1c78 <_ZL11string_copyPKcjPc+0xb0>
    1bd0:	00600793          	li	a5,6
    1bd4:	0917f263          	bgeu	a5,a7,1c58 <_ZL11string_copyPKcjPc+0x90>
    1bd8:	00c567b3          	or	a5,a0,a2
    1bdc:	0037f793          	and	a5,a5,3
    1be0:	06079c63          	bnez	a5,1c58 <_ZL11string_copyPKcjPc+0x90>
    1be4:	00150793          	add	a5,a0,1
    1be8:	40f60733          	sub	a4,a2,a5
    1bec:	00373713          	sltiu	a4,a4,3
    1bf0:	06071663          	bnez	a4,1c5c <_ZL11string_copyPKcjPc+0x94>
    1bf4:	ffc5f813          	and	a6,a1,-4
    1bf8:	00050793          	mv	a5,a0
    1bfc:	00060713          	mv	a4,a2
    1c00:	00a80833          	add	a6,a6,a0
#     *dst++ = *src++;
    1c04:	0007a683          	lw	a3,0(a5)
    1c08:	00478793          	add	a5,a5,4
    1c0c:	00470713          	add	a4,a4,4
    1c10:	fed72e23          	sw	a3,-4(a4)
#   while (src_len--) {
    1c14:	ff0798e3          	bne	a5,a6,1c04 <_ZL11string_copyPKcjPc+0x3c>
    1c18:	ffc5f793          	and	a5,a1,-4
    1c1c:	0035f593          	and	a1,a1,3
    1c20:	00f50733          	add	a4,a0,a5
    1c24:	00f60633          	add	a2,a2,a5
    1c28:	40f888b3          	sub	a7,a7,a5
    1c2c:	04058663          	beqz	a1,1c78 <_ZL11string_copyPKcjPc+0xb0>
#     *dst++ = *src++;
    1c30:	00074783          	lbu	a5,0(a4)
    1c34:	00f60023          	sb	a5,0(a2)
#   while (src_len--) {
    1c38:	04088063          	beqz	a7,1c78 <_ZL11string_copyPKcjPc+0xb0>
#     *dst++ = *src++;
    1c3c:	00174683          	lbu	a3,1(a4)
#   while (src_len--) {
    1c40:	00100793          	li	a5,1
#     *dst++ = *src++;
    1c44:	00d600a3          	sb	a3,1(a2)
#   while (src_len--) {
    1c48:	02f88863          	beq	a7,a5,1c78 <_ZL11string_copyPKcjPc+0xb0>
#     *dst++ = *src++;
    1c4c:	00274783          	lbu	a5,2(a4)
    1c50:	00f60123          	sb	a5,2(a2)
#   while (src_len--) {
    1c54:	00008067          	ret
    1c58:	00150793          	add	a5,a0,1
    1c5c:	00b50733          	add	a4,a0,a1
    1c60:	0080006f          	j	1c68 <_ZL11string_copyPKcjPc+0xa0>
    1c64:	00178793          	add	a5,a5,1
#     *dst++ = *src++;
    1c68:	fff7c683          	lbu	a3,-1(a5)
    1c6c:	00160613          	add	a2,a2,1
    1c70:	fed60fa3          	sb	a3,-1(a2)
#   while (src_len--) {
    1c74:	fee798e3          	bne	a5,a4,1c64 <_ZL11string_copyPKcjPc+0x9c>
# }
    1c78:	00008067          	ret

00001c7c <_ZL18uart_send_hex_bytec>:
#   uart_send_hex_nibble(ch >> 4);
    1c7c:	00455793          	srl	a5,a0,0x4
#   if (nibble < 10) {
    1c80:	00900713          	li	a4,9
    1c84:	04f76463          	bltu	a4,a5,1ccc <_ZL18uart_send_hex_bytec+0x50>
#     uart_send_char('0' + nibble);
    1c88:	03078713          	add	a4,a5,48
#   while (*UART_OUT)
    1c8c:	ffe04783          	lbu	a5,-2(zero) # fffffffe <__bss_end+0xffffd266>
    1c90:	fe079ee3          	bnez	a5,1c8c <_ZL18uart_send_hex_bytec+0x10>
#   *UART_OUT = ch;
    1c94:	fee00f23          	sb	a4,-2(zero) # fffffffe <__bss_end+0xffffd266>
#   uart_send_hex_nibble(ch & 0x0f);
    1c98:	00f57513          	and	a0,a0,15
#   if (nibble < 10) {
    1c9c:	00900793          	li	a5,9
    1ca0:	00a7ec63          	bltu	a5,a0,1cb8 <_ZL18uart_send_hex_bytec+0x3c>
#     uart_send_char('0' + nibble);
    1ca4:	03050513          	add	a0,a0,48
#   while (*UART_OUT)
    1ca8:	ffe04783          	lbu	a5,-2(zero) # fffffffe <__bss_end+0xffffd266>
    1cac:	fe079ee3          	bnez	a5,1ca8 <_ZL18uart_send_hex_bytec+0x2c>
#   *UART_OUT = ch;
    1cb0:	fea00f23          	sb	a0,-2(zero) # fffffffe <__bss_end+0xffffd266>
# }
    1cb4:	00008067          	ret
#     uart_send_char('A' + (nibble - 10));
    1cb8:	03750513          	add	a0,a0,55
#   while (*UART_OUT)
    1cbc:	ffe04783          	lbu	a5,-2(zero) # fffffffe <__bss_end+0xffffd266>
    1cc0:	fe079ee3          	bnez	a5,1cbc <_ZL18uart_send_hex_bytec+0x40>
#   *UART_OUT = ch;
    1cc4:	fea00f23          	sb	a0,-2(zero) # fffffffe <__bss_end+0xffffd266>
# }
    1cc8:	00008067          	ret
#     uart_send_char('A' + (nibble - 10));
    1ccc:	03778713          	add	a4,a5,55
#   while (*UART_OUT)
    1cd0:	ffe04783          	lbu	a5,-2(zero) # fffffffe <__bss_end+0xffffd266>
    1cd4:	fe079ee3          	bnez	a5,1cd0 <_ZL18uart_send_hex_bytec+0x54>
    1cd8:	fbdff06f          	j	1c94 <_ZL18uart_send_hex_bytec+0x18>

00001cdc <_ZL20uart_send_hex_nibblec>:
#   if (nibble < 10) {
    1cdc:	00900793          	li	a5,9
    1ce0:	00a7ee63          	bltu	a5,a0,1cfc <_ZL20uart_send_hex_nibblec+0x20>
#     uart_send_char('0' + nibble);
    1ce4:	03050513          	add	a0,a0,48
    1ce8:	0ff57513          	zext.b	a0,a0
    1cec:	ffe04783          	lbu	a5,-2(zero) # fffffffe <__bss_end+0xffffd266>
    1cf0:	fe079ee3          	bnez	a5,1cec <_ZL20uart_send_hex_nibblec+0x10>
#   *UART_OUT = ch;
    1cf4:	fea00f23          	sb	a0,-2(zero) # fffffffe <__bss_end+0xffffd266>
# }
    1cf8:	00008067          	ret
#     uart_send_char('A' + (nibble - 10));
    1cfc:	03750513          	add	a0,a0,55
    1d00:	0ff57513          	zext.b	a0,a0
#   while (*UART_OUT)
    1d04:	ffe04783          	lbu	a5,-2(zero) # fffffffe <__bss_end+0xffffd266>
    1d08:	fe079ee3          	bnez	a5,1d04 <_ZL20uart_send_hex_nibblec+0x28>
#   *UART_OUT = ch;
    1d0c:	fea00f23          	sb	a0,-2(zero) # fffffffe <__bss_end+0xffffd266>
# }
    1d10:	00008067          	ret

00001d14 <_ZL19uart_send_move_backj>:
#   for (size_t i = 0; i < n; ++i) {
    1d14:	02050063          	beqz	a0,1d34 <_ZL19uart_send_move_backj+0x20>
    1d18:	00000713          	li	a4,0
    1d1c:	00800693          	li	a3,8
#   while (*UART_OUT)
    1d20:	ffe04783          	lbu	a5,-2(zero) # fffffffe <__bss_end+0xffffd266>
    1d24:	fe079ee3          	bnez	a5,1d20 <_ZL19uart_send_move_backj+0xc>
#   *UART_OUT = ch;
    1d28:	fed00f23          	sb	a3,-2(zero) # fffffffe <__bss_end+0xffffd266>
    1d2c:	00170713          	add	a4,a4,1
    1d30:	fee518e3          	bne	a0,a4,1d20 <_ZL19uart_send_move_backj+0xc>
#     uart_send_char('\b');
#   }
# }
    1d34:	00008067          	ret

00001d38 <_ZL7led_seth>:
# static auto led_set(uint8_t bits) -> void { *LED = bits; }
    1d38:	fea00fa3          	sb	a0,-1(zero) # ffffffff <__bss_end+0xffffd267>
    1d3c:	00008067          	ret

00001d40 <_ZL13uart_send_strPKc>:
#   while (*str) {
    1d40:	00054703          	lbu	a4,0(a0)
    1d44:	00070e63          	beqz	a4,1d60 <_ZL13uart_send_strPKc+0x20>
#     while (*UART_OUT)
    1d48:	ffe04783          	lbu	a5,-2(zero) # fffffffe <__bss_end+0xffffd266>
    1d4c:	fe079ee3          	bnez	a5,1d48 <_ZL13uart_send_strPKc+0x8>
#     *UART_OUT = *str++;
    1d50:	00150513          	add	a0,a0,1
    1d54:	fee00f23          	sb	a4,-2(zero) # fffffffe <__bss_end+0xffffd266>
#   while (*str) {
    1d58:	00054703          	lbu	a4,0(a0)
    1d5c:	fe0716e3          	bnez	a4,1d48 <_ZL13uart_send_strPKc+0x8>
# }
    1d60:	00008067          	ret

00001d64 <_ZL14uart_send_charc>:
#   while (*UART_OUT)
    1d64:	ffe04783          	lbu	a5,-2(zero) # fffffffe <__bss_end+0xffffd266>
    1d68:	fe079ee3          	bnez	a5,1d64 <_ZL14uart_send_charc>
#   *UART_OUT = ch;
    1d6c:	fea00f23          	sb	a0,-2(zero) # fffffffe <__bss_end+0xffffd266>
# }
    1d70:	00008067          	ret

00001d74 <_ZL14uart_read_charv>:
#   while ((ch = *UART_IN) == 0)
    1d74:	ffd04783          	lbu	a5,-3(zero) # fffffffd <__bss_end+0xffffd265>
    1d78:	0ff7f513          	zext.b	a0,a5
    1d7c:	fe078ce3          	beqz	a5,1d74 <_ZL14uart_read_charv>
# }
    1d80:	00008067          	ret

00001d84 <_ZL15action_mem_testv>:
#   while (*str) {
    1d84:	00002737          	lui	a4,0x2
    1d88:	07400693          	li	a3,116
    1d8c:	64870713          	add	a4,a4,1608 # 2648 <_ZL4exiti+0x600>
#     while (*UART_OUT)
    1d90:	ffe04783          	lbu	a5,-2(zero) # fffffffe <__bss_end+0xffffd266>
    1d94:	fe079ee3          	bnez	a5,1d90 <_ZL15action_mem_testv+0xc>
#     *UART_OUT = *str++;
    1d98:	00170713          	add	a4,a4,1
    1d9c:	fed00f23          	sb	a3,-2(zero) # fffffffe <__bss_end+0xffffd266>
#   while (*str) {
    1da0:	00074683          	lbu	a3,0(a4)
    1da4:	fe0696e3          	bnez	a3,1d90 <_ZL15action_mem_testv+0xc>
#   while (ptr < end) {
    1da8:	00200637          	lui	a2,0x200
#   char *ptr = reinterpret_cast<char *>(0x10000);
    1dac:	000107b7          	lui	a5,0x10
#   while (ptr < end) {
    1db0:	c0060613          	add	a2,a2,-1024 # 1ffc00 <__bss_end+0x1fce68>
    1db4:	0ff7f693          	zext.b	a3,a5
#     *ptr++ = ch++;
    1db8:	00d78023          	sb	a3,0(a5) # 10000 <__bss_end+0xd268>
    1dbc:	00178793          	add	a5,a5,1
#   while (ptr < end) {
    1dc0:	fec79ae3          	bne	a5,a2,1db4 <_ZL15action_mem_testv+0x30>
    1dc4:	00002737          	lui	a4,0x2
#   while (*str) {
    1dc8:	07400693          	li	a3,116
    1dcc:	66470713          	add	a4,a4,1636 # 2664 <_ZL4exiti+0x61c>
#     while (*UART_OUT)
    1dd0:	ffe04783          	lbu	a5,-2(zero) # fffffffe <__bss_end+0xffffd266>
    1dd4:	fe079ee3          	bnez	a5,1dd0 <_ZL15action_mem_testv+0x4c>
#     *UART_OUT = *str++;
    1dd8:	00170713          	add	a4,a4,1
    1ddc:	fed00f23          	sb	a3,-2(zero) # fffffffe <__bss_end+0xffffd266>
#   while (*str) {
    1de0:	00074683          	lbu	a3,0(a4)
    1de4:	fe0696e3          	bnez	a3,1dd0 <_ZL15action_mem_testv+0x4c>
#   while (ptr < end) {
    1de8:	00200637          	lui	a2,0x200
#   ptr = reinterpret_cast<char *>(0x10000);
    1dec:	000107b7          	lui	a5,0x10
#   while (ptr < end) {
    1df0:	c0060613          	add	a2,a2,-1024 # 1ffc00 <__bss_end+0x1fce68>
    1df4:	0080006f          	j	1dfc <_ZL15action_mem_testv+0x78>
    1df8:	04c78063          	beq	a5,a2,1e38 <_ZL15action_mem_testv+0xb4>
#     if (*ptr++ != ch++) {
    1dfc:	0007c683          	lbu	a3,0(a5) # 10000 <__bss_end+0xd268>
    1e00:	00178793          	add	a5,a5,1
    1e04:	fff78713          	add	a4,a5,-1
    1e08:	0ff77713          	zext.b	a4,a4
    1e0c:	fee686e3          	beq	a3,a4,1df8 <_ZL15action_mem_testv+0x74>
    1e10:	00002737          	lui	a4,0x2
#   while (*str) {
    1e14:	02100693          	li	a3,33
    1e18:	67c70713          	add	a4,a4,1660 # 267c <_ZL4exiti+0x634>
#     while (*UART_OUT)
    1e1c:	ffe04783          	lbu	a5,-2(zero) # fffffffe <__bss_end+0xffffd266>
    1e20:	fe079ee3          	bnez	a5,1e1c <_ZL15action_mem_testv+0x98>
#     *UART_OUT = *str++;
    1e24:	00170713          	add	a4,a4,1
    1e28:	fed00f23          	sb	a3,-2(zero) # fffffffe <__bss_end+0xffffd266>
#   while (*str) {
    1e2c:	00074683          	lbu	a3,0(a4)
    1e30:	fe0696e3          	bnez	a3,1e1c <_ZL15action_mem_testv+0x98>
    1e34:	00008067          	ret
    1e38:	00002737          	lui	a4,0x2
    1e3c:	07400693          	li	a3,116
    1e40:	69870713          	add	a4,a4,1688 # 2698 <_ZL4exiti+0x650>
#     while (*UART_OUT)
    1e44:	ffe04783          	lbu	a5,-2(zero) # fffffffe <__bss_end+0xffffd266>
    1e48:	fe079ee3          	bnez	a5,1e44 <_ZL15action_mem_testv+0xc0>
#     *UART_OUT = *str++;
    1e4c:	00170713          	add	a4,a4,1
    1e50:	fed00f23          	sb	a3,-2(zero) # fffffffe <__bss_end+0xffffd266>
#   while (*str) {
    1e54:	00074683          	lbu	a3,0(a4)
    1e58:	fe0696e3          	bnez	a3,1e44 <_ZL15action_mem_testv+0xc0>
# }
    1e5c:	00008067          	ret

00001e60 <memset>:
#   while (n--) {
    1e60:	fff60813          	add	a6,a2,-1
    1e64:	0c060e63          	beqz	a2,1f40 <memset+0xe0>
    1e68:	40a006b3          	neg	a3,a0
    1e6c:	00500893          	li	a7,5
#     *ptr++ = char(ch);
    1e70:	0ff5f713          	zext.b	a4,a1
    1e74:	0036f793          	and	a5,a3,3
    1e78:	0d08f663          	bgeu	a7,a6,1f44 <memset+0xe4>
#   char *ptr = reinterpret_cast<char *>(str);
    1e7c:	00050893          	mv	a7,a0
    1e80:	02078e63          	beqz	a5,1ebc <memset+0x5c>
#     *ptr++ = char(ch);
    1e84:	00e50023          	sb	a4,0(a0)
#   while (n--) {
    1e88:	0026f693          	and	a3,a3,2
#     *ptr++ = char(ch);
    1e8c:	00150893          	add	a7,a0,1
#   while (n--) {
    1e90:	ffe60813          	add	a6,a2,-2
    1e94:	02068463          	beqz	a3,1ebc <memset+0x5c>
#     *ptr++ = char(ch);
    1e98:	fff50693          	add	a3,a0,-1
    1e9c:	00e500a3          	sb	a4,1(a0)
#   while (n--) {
    1ea0:	0036f693          	and	a3,a3,3
#     *ptr++ = char(ch);
    1ea4:	00250893          	add	a7,a0,2
#   while (n--) {
    1ea8:	ffd60813          	add	a6,a2,-3
    1eac:	00069863          	bnez	a3,1ebc <memset+0x5c>
#     *ptr++ = char(ch);
    1eb0:	00350893          	add	a7,a0,3
    1eb4:	00e50123          	sb	a4,2(a0)
#   while (n--) {
    1eb8:	ffc60813          	add	a6,a2,-4
    1ebc:	00871693          	sll	a3,a4,0x8
    1ec0:	40f60633          	sub	a2,a2,a5
    1ec4:	01071593          	sll	a1,a4,0x10
    1ec8:	00d766b3          	or	a3,a4,a3
    1ecc:	00b6e6b3          	or	a3,a3,a1
    1ed0:	01871313          	sll	t1,a4,0x18
    1ed4:	00f507b3          	add	a5,a0,a5
    1ed8:	ffc67593          	and	a1,a2,-4
    1edc:	0066e6b3          	or	a3,a3,t1
    1ee0:	00f585b3          	add	a1,a1,a5
#     *ptr++ = char(ch);
    1ee4:	00d7a023          	sw	a3,0(a5)
#   while (n--) {
    1ee8:	00478793          	add	a5,a5,4
    1eec:	feb79ce3          	bne	a5,a1,1ee4 <memset+0x84>
    1ef0:	00367793          	and	a5,a2,3
    1ef4:	04078663          	beqz	a5,1f40 <memset+0xe0>
    1ef8:	ffc67613          	and	a2,a2,-4
    1efc:	00c887b3          	add	a5,a7,a2
    1f00:	40c80833          	sub	a6,a6,a2
#     *ptr++ = char(ch);
    1f04:	00e78023          	sb	a4,0(a5)
#   while (n--) {
    1f08:	02080c63          	beqz	a6,1f40 <memset+0xe0>
#     *ptr++ = char(ch);
    1f0c:	00e780a3          	sb	a4,1(a5)
#   while (n--) {
    1f10:	00100693          	li	a3,1
    1f14:	02d80663          	beq	a6,a3,1f40 <memset+0xe0>
#     *ptr++ = char(ch);
    1f18:	00e78123          	sb	a4,2(a5)
#   while (n--) {
    1f1c:	00200693          	li	a3,2
    1f20:	02d80063          	beq	a6,a3,1f40 <memset+0xe0>
#     *ptr++ = char(ch);
    1f24:	00e781a3          	sb	a4,3(a5)
#   while (n--) {
    1f28:	00300693          	li	a3,3
    1f2c:	00d80a63          	beq	a6,a3,1f40 <memset+0xe0>
#     *ptr++ = char(ch);
    1f30:	00e78223          	sb	a4,4(a5)
#   while (n--) {
    1f34:	00400693          	li	a3,4
    1f38:	00d80463          	beq	a6,a3,1f40 <memset+0xe0>
#     *ptr++ = char(ch);
    1f3c:	00e782a3          	sb	a4,5(a5)
# }
    1f40:	00008067          	ret
#   char *ptr = reinterpret_cast<char *>(str);
    1f44:	00050793          	mv	a5,a0
    1f48:	fbdff06f          	j	1f04 <memset+0xa4>

00001f4c <_ZL12initiate_bssv>:
#   memset(&__bss_start, 0, &__bss_end - &__bss_start);
    1f4c:	00003537          	lui	a0,0x3
    1f50:	00003737          	lui	a4,0x3
    1f54:	d9050793          	add	a5,a0,-624 # 2d90 <_ZL21input_escape_sequence>
    1f58:	d9870713          	add	a4,a4,-616 # 2d98 <__bss_end>
    1f5c:	40f70733          	sub	a4,a4,a5
#   while (n--) {
    1f60:	fff70593          	add	a1,a4,-1
    1f64:	0a070a63          	beqz	a4,2018 <_ZL12initiate_bssv+0xcc>
    1f68:	40f006b3          	neg	a3,a5
    1f6c:	00500613          	li	a2,5
    1f70:	0036f813          	and	a6,a3,3
    1f74:	0cb67463          	bgeu	a2,a1,203c <_ZL12initiate_bssv+0xf0>
#   char *ptr = reinterpret_cast<char *>(str);
    1f78:	d9050613          	add	a2,a0,-624
    1f7c:	02080863          	beqz	a6,1fac <_ZL12initiate_bssv+0x60>
#     *ptr++ = char(ch);
    1f80:	d8050823          	sb	zero,-624(a0)
#   while (n--) {
    1f84:	0026f693          	and	a3,a3,2
    1f88:	08068a63          	beqz	a3,201c <_ZL12initiate_bssv+0xd0>
#     *ptr++ = char(ch);
    1f8c:	fff78693          	add	a3,a5,-1
    1f90:	000780a3          	sb	zero,1(a5)
#   while (n--) {
    1f94:	0036f693          	and	a3,a3,3
    1f98:	08069a63          	bnez	a3,202c <_ZL12initiate_bssv+0xe0>
#     *ptr++ = char(ch);
    1f9c:	00003637          	lui	a2,0x3
    1fa0:	00078123          	sb	zero,2(a5)
#   while (n--) {
    1fa4:	ffc70593          	add	a1,a4,-4
#     *ptr++ = char(ch);
    1fa8:	d9360613          	add	a2,a2,-621 # 2d93 <_ZL21input_escape_sequence+0x3>
    1fac:	41070733          	sub	a4,a4,a6
    1fb0:	010787b3          	add	a5,a5,a6
    1fb4:	ffc77693          	and	a3,a4,-4
    1fb8:	00f686b3          	add	a3,a3,a5
    1fbc:	0007a023          	sw	zero,0(a5)
#   while (n--) {
    1fc0:	00478793          	add	a5,a5,4
    1fc4:	fed79ce3          	bne	a5,a3,1fbc <_ZL12initiate_bssv+0x70>
    1fc8:	00377793          	and	a5,a4,3
    1fcc:	04078663          	beqz	a5,2018 <_ZL12initiate_bssv+0xcc>
    1fd0:	ffc77713          	and	a4,a4,-4
    1fd4:	00e607b3          	add	a5,a2,a4
    1fd8:	40e585b3          	sub	a1,a1,a4
#     *ptr++ = char(ch);
    1fdc:	00078023          	sb	zero,0(a5)
#   while (n--) {
    1fe0:	02058c63          	beqz	a1,2018 <_ZL12initiate_bssv+0xcc>
#     *ptr++ = char(ch);
    1fe4:	000780a3          	sb	zero,1(a5)
#   while (n--) {
    1fe8:	00100713          	li	a4,1
    1fec:	02e58663          	beq	a1,a4,2018 <_ZL12initiate_bssv+0xcc>
#     *ptr++ = char(ch);
    1ff0:	00078123          	sb	zero,2(a5)
#   while (n--) {
    1ff4:	00200713          	li	a4,2
    1ff8:	02e58063          	beq	a1,a4,2018 <_ZL12initiate_bssv+0xcc>
#     *ptr++ = char(ch);
    1ffc:	000781a3          	sb	zero,3(a5)
#   while (n--) {
    2000:	00300713          	li	a4,3
    2004:	00e58a63          	beq	a1,a4,2018 <_ZL12initiate_bssv+0xcc>
#     *ptr++ = char(ch);
    2008:	00078223          	sb	zero,4(a5)
#   while (n--) {
    200c:	00400713          	li	a4,4
    2010:	00e58463          	beq	a1,a4,2018 <_ZL12initiate_bssv+0xcc>
#     *ptr++ = char(ch);
    2014:	000782a3          	sb	zero,5(a5)
# }
    2018:	00008067          	ret
#     *ptr++ = char(ch);
    201c:	00003637          	lui	a2,0x3
#   while (n--) {
    2020:	ffe70593          	add	a1,a4,-2
#     *ptr++ = char(ch);
    2024:	d9160613          	add	a2,a2,-623 # 2d91 <_ZL21input_escape_sequence+0x1>
    2028:	f85ff06f          	j	1fac <_ZL12initiate_bssv+0x60>
    202c:	00003637          	lui	a2,0x3
#   while (n--) {
    2030:	ffd70593          	add	a1,a4,-3
#     *ptr++ = char(ch);
    2034:	d9260613          	add	a2,a2,-622 # 2d92 <_ZL21input_escape_sequence+0x2>
    2038:	f75ff06f          	j	1fac <_ZL12initiate_bssv+0x60>
#   char *ptr = reinterpret_cast<char *>(str);
    203c:	d9050793          	add	a5,a0,-624
    2040:	f9dff06f          	j	1fdc <_ZL12initiate_bssv+0x90>

00002044 <_ZL16initiate_staticsv>:
# 
# static auto initiate_statics() -> void {}
    2044:	00008067          	ret

00002048 <_ZL4exiti>:
# 
    2048:	00008067          	ret
