
os:     file format elf32-littleriscv


Disassembly of section .text:

00000000 <_start>:
# # generated - do not edit (see `configuration.py`)
# .global _start
# _start:
#     li sp, 0x200000
       0:	00200137          	lui	sp,0x200
#     jal ra, run
       4:	004000ef          	jal	8 <run>

00000008 <run>:
       8:	f9010113          	add	sp,sp,-112 # 1fff90 <__bss_end+0x1fc4e0>
       c:	06112623          	sw	ra,108(sp)
      10:	06812423          	sw	s0,104(sp)
      14:	07010413          	add	s0,sp,112
      18:	00002097          	auipc	ra,0x2
      1c:	9d0080e7          	jalr	-1584(ra) # 19e8 <_ZL12initiate_bssv>
      20:	00002097          	auipc	ra,0x2
      24:	a18080e7          	jalr	-1512(ra) # 1a38 <_ZL16initiate_staticsv>
      28:	00000513          	li	a0,0
      2c:	00001097          	auipc	ra,0x1
      30:	740080e7          	jalr	1856(ra) # 176c <_ZL7led_seth>
      34:	00100793          	li	a5,1
      38:	fef407a3          	sb	a5,-17(s0)
      3c:	f9440793          	add	a5,s0,-108
      40:	05200713          	li	a4,82
      44:	00070613          	mv	a2,a4
      48:	00000593          	li	a1,0
      4c:	00078513          	mv	a0,a5
      50:	00002097          	auipc	ra,0x2
      54:	930080e7          	jalr	-1744(ra) # 1980 <memset>
      58:	000047b7          	lui	a5,0x4
      5c:	aa47a783          	lw	a5,-1372(a5) # 3aa4 <_ZL9ascii_art>
      60:	00078513          	mv	a0,a5
      64:	00001097          	auipc	ra,0x1
      68:	738080e7          	jalr	1848(ra) # 179c <_ZL13uart_send_strPKc>
      6c:	000047b7          	lui	a5,0x4
      70:	aa07a783          	lw	a5,-1376(a5) # 3aa0 <_ZL5hello>
      74:	00078513          	mv	a0,a5
      78:	00001097          	auipc	ra,0x1
      7c:	724080e7          	jalr	1828(ra) # 179c <_ZL13uart_send_strPKc>
      80:	fef44703          	lbu	a4,-17(s0)
      84:	00070793          	mv	a5,a4
      88:	00179793          	sll	a5,a5,0x1
      8c:	00e787b3          	add	a5,a5,a4
      90:	00279793          	sll	a5,a5,0x2
      94:	40e787b3          	sub	a5,a5,a4
      98:	00279793          	sll	a5,a5,0x2
      9c:	00003737          	lui	a4,0x3
      a0:	6e470713          	add	a4,a4,1764 # 36e4 <_ZL8entities>
      a4:	00e787b3          	add	a5,a5,a4
      a8:	fef42423          	sw	a5,-24(s0)
      ac:	fe842783          	lw	a5,-24(s0)
      b0:	0047c783          	lbu	a5,4(a5)
      b4:	fef44703          	lbu	a4,-17(s0)
      b8:	00070593          	mv	a1,a4
      bc:	00078513          	mv	a0,a5
      c0:	00000097          	auipc	ra,0x0
      c4:	57c080e7          	jalr	1404(ra) # 63c <_ZL14print_locationhh>
      c8:	fe842783          	lw	a5,-24(s0)
      cc:	0007a783          	lw	a5,0(a5)
      d0:	00078513          	mv	a0,a5
      d4:	00001097          	auipc	ra,0x1
      d8:	6c8080e7          	jalr	1736(ra) # 179c <_ZL13uart_send_strPKc>
      dc:	000037b7          	lui	a5,0x3
      e0:	a4078513          	add	a0,a5,-1472 # 2a40 <_ZNK4listIhLi8EE2atEj+0x42c>
      e4:	00001097          	auipc	ra,0x1
      e8:	6b8080e7          	jalr	1720(ra) # 179c <_ZL13uart_send_strPKc>
      ec:	f9440793          	add	a5,s0,-108
      f0:	00078513          	mv	a0,a5
      f4:	00001097          	auipc	ra,0x1
      f8:	14c080e7          	jalr	332(ra) # 1240 <_ZL5inputR14command_buffer>
      fc:	000037b7          	lui	a5,0x3
     100:	a4478513          	add	a0,a5,-1468 # 2a44 <_ZNK4listIhLi8EE2atEj+0x430>
     104:	00001097          	auipc	ra,0x1
     108:	698080e7          	jalr	1688(ra) # 179c <_ZL13uart_send_strPKc>
     10c:	f9440713          	add	a4,s0,-108
     110:	fef44783          	lbu	a5,-17(s0)
     114:	00070593          	mv	a1,a4
     118:	00078513          	mv	a0,a5
     11c:	00000097          	auipc	ra,0x0
     120:	028080e7          	jalr	40(ra) # 144 <_ZL12handle_inputhR14command_buffer>
     124:	fef44703          	lbu	a4,-17(s0)
     128:	00100793          	li	a5,1
     12c:	00f71663          	bne	a4,a5,138 <run+0x130>
     130:	00200793          	li	a5,2
     134:	0080006f          	j	13c <run+0x134>
     138:	00100793          	li	a5,1
     13c:	fef407a3          	sb	a5,-17(s0)
     140:	f41ff06f          	j	80 <run+0x78>

00000144 <_ZL12handle_inputhR14command_buffer>:
     144:	fb010113          	add	sp,sp,-80
     148:	04112623          	sw	ra,76(sp)
     14c:	04812423          	sw	s0,72(sp)
     150:	05010413          	add	s0,sp,80
     154:	00050793          	mv	a5,a0
     158:	fab42c23          	sw	a1,-72(s0)
     15c:	faf40fa3          	sb	a5,-65(s0)
     160:	fb842503          	lw	a0,-72(s0)
     164:	00002097          	auipc	ra,0x2
     168:	fac080e7          	jalr	-84(ra) # 2110 <_ZN14command_buffer12command_lineEv>
     16c:	fea42623          	sw	a0,-20(s0)
     170:	fe042423          	sw	zero,-24(s0)
     174:	fe842783          	lw	a5,-24(s0)
     178:	00279793          	sll	a5,a5,0x2
     17c:	ff078793          	add	a5,a5,-16
     180:	008787b3          	add	a5,a5,s0
     184:	fec42703          	lw	a4,-20(s0)
     188:	fce7ac23          	sw	a4,-40(a5)
     18c:	fe842783          	lw	a5,-24(s0)
     190:	00178793          	add	a5,a5,1
     194:	fef42423          	sw	a5,-24(s0)
     198:	0100006f          	j	1a8 <_ZL12handle_inputhR14command_buffer+0x64>
     19c:	fec42783          	lw	a5,-20(s0)
     1a0:	00178793          	add	a5,a5,1
     1a4:	fef42623          	sw	a5,-20(s0)
     1a8:	fec42783          	lw	a5,-20(s0)
     1ac:	0007c783          	lbu	a5,0(a5)
     1b0:	00078a63          	beqz	a5,1c4 <_ZL12handle_inputhR14command_buffer+0x80>
     1b4:	fec42783          	lw	a5,-20(s0)
     1b8:	0007c703          	lbu	a4,0(a5)
     1bc:	02000793          	li	a5,32
     1c0:	fcf71ee3          	bne	a4,a5,19c <_ZL12handle_inputhR14command_buffer+0x58>
     1c4:	fec42783          	lw	a5,-20(s0)
     1c8:	0007c783          	lbu	a5,0(a5)
     1cc:	02078c63          	beqz	a5,204 <_ZL12handle_inputhR14command_buffer+0xc0>
     1d0:	fec42783          	lw	a5,-20(s0)
     1d4:	00078023          	sb	zero,0(a5)
     1d8:	fec42783          	lw	a5,-20(s0)
     1dc:	00178793          	add	a5,a5,1
     1e0:	fef42623          	sw	a5,-20(s0)
     1e4:	fe842703          	lw	a4,-24(s0)
     1e8:	00800793          	li	a5,8
     1ec:	f8f714e3          	bne	a4,a5,174 <_ZL12handle_inputhR14command_buffer+0x30>
     1f0:	000037b7          	lui	a5,0x3
     1f4:	a4878513          	add	a0,a5,-1464 # 2a48 <_ZNK4listIhLi8EE2atEj+0x434>
     1f8:	00001097          	auipc	ra,0x1
     1fc:	5a4080e7          	jalr	1444(ra) # 179c <_ZL13uart_send_strPKc>
     200:	0080006f          	j	208 <_ZL12handle_inputhR14command_buffer+0xc4>
     204:	00000013          	nop
     208:	fc842703          	lw	a4,-56(s0)
     20c:	000037b7          	lui	a5,0x3
     210:	a6c78593          	add	a1,a5,-1428 # 2a6c <_ZNK4listIhLi8EE2atEj+0x458>
     214:	00070513          	mv	a0,a4
     218:	00001097          	auipc	ra,0x1
     21c:	350080e7          	jalr	848(ra) # 1568 <_ZL13strings_equalPKcS0_>
     220:	00050793          	mv	a5,a0
     224:	00078863          	beqz	a5,234 <_ZL12handle_inputhR14command_buffer+0xf0>
     228:	00001097          	auipc	ra,0x1
     22c:	da4080e7          	jalr	-604(ra) # fcc <_ZL10print_helpv>
     230:	2bc0006f          	j	4ec <_ZL12handle_inputhR14command_buffer+0x3a8>
     234:	fc842703          	lw	a4,-56(s0)
     238:	000037b7          	lui	a5,0x3
     23c:	a7478593          	add	a1,a5,-1420 # 2a74 <_ZNK4listIhLi8EE2atEj+0x460>
     240:	00070513          	mv	a0,a4
     244:	00001097          	auipc	ra,0x1
     248:	324080e7          	jalr	804(ra) # 1568 <_ZL13strings_equalPKcS0_>
     24c:	00050793          	mv	a5,a0
     250:	02078463          	beqz	a5,278 <_ZL12handle_inputhR14command_buffer+0x134>
     254:	fbf44783          	lbu	a5,-65(s0)
     258:	00078513          	mv	a0,a5
     25c:	00000097          	auipc	ra,0x0
     260:	674080e7          	jalr	1652(ra) # 8d0 <_ZL16action_inventoryh>
     264:	000037b7          	lui	a5,0x3
     268:	a4478513          	add	a0,a5,-1468 # 2a44 <_ZNK4listIhLi8EE2atEj+0x430>
     26c:	00001097          	auipc	ra,0x1
     270:	530080e7          	jalr	1328(ra) # 179c <_ZL13uart_send_strPKc>
     274:	2780006f          	j	4ec <_ZL12handle_inputhR14command_buffer+0x3a8>
     278:	fc842703          	lw	a4,-56(s0)
     27c:	000037b7          	lui	a5,0x3
     280:	a7878593          	add	a1,a5,-1416 # 2a78 <_ZNK4listIhLi8EE2atEj+0x464>
     284:	00070513          	mv	a0,a4
     288:	00001097          	auipc	ra,0x1
     28c:	2e0080e7          	jalr	736(ra) # 1568 <_ZL13strings_equalPKcS0_>
     290:	00050793          	mv	a5,a0
     294:	04078063          	beqz	a5,2d4 <_ZL12handle_inputhR14command_buffer+0x190>
     298:	fe842703          	lw	a4,-24(s0)
     29c:	00100793          	li	a5,1
     2a0:	00e7ec63          	bltu	a5,a4,2b8 <_ZL12handle_inputhR14command_buffer+0x174>
     2a4:	000037b7          	lui	a5,0x3
     2a8:	a7c78513          	add	a0,a5,-1412 # 2a7c <_ZNK4listIhLi8EE2atEj+0x468>
     2ac:	00001097          	auipc	ra,0x1
     2b0:	4f0080e7          	jalr	1264(ra) # 179c <_ZL13uart_send_strPKc>
     2b4:	2380006f          	j	4ec <_ZL12handle_inputhR14command_buffer+0x3a8>
     2b8:	fcc42703          	lw	a4,-52(s0)
     2bc:	fbf44783          	lbu	a5,-65(s0)
     2c0:	00070593          	mv	a1,a4
     2c4:	00078513          	mv	a0,a5
     2c8:	00000097          	auipc	ra,0x0
     2cc:	6b0080e7          	jalr	1712(ra) # 978 <_ZL11action_takehPKc>
     2d0:	21c0006f          	j	4ec <_ZL12handle_inputhR14command_buffer+0x3a8>
     2d4:	fc842703          	lw	a4,-56(s0)
     2d8:	000037b7          	lui	a5,0x3
     2dc:	a8c78593          	add	a1,a5,-1396 # 2a8c <_ZNK4listIhLi8EE2atEj+0x478>
     2e0:	00070513          	mv	a0,a4
     2e4:	00001097          	auipc	ra,0x1
     2e8:	284080e7          	jalr	644(ra) # 1568 <_ZL13strings_equalPKcS0_>
     2ec:	00050793          	mv	a5,a0
     2f0:	04078063          	beqz	a5,330 <_ZL12handle_inputhR14command_buffer+0x1ec>
     2f4:	fe842703          	lw	a4,-24(s0)
     2f8:	00100793          	li	a5,1
     2fc:	00e7ec63          	bltu	a5,a4,314 <_ZL12handle_inputhR14command_buffer+0x1d0>
     300:	000037b7          	lui	a5,0x3
     304:	a9078513          	add	a0,a5,-1392 # 2a90 <_ZNK4listIhLi8EE2atEj+0x47c>
     308:	00001097          	auipc	ra,0x1
     30c:	494080e7          	jalr	1172(ra) # 179c <_ZL13uart_send_strPKc>
     310:	1dc0006f          	j	4ec <_ZL12handle_inputhR14command_buffer+0x3a8>
     314:	fcc42703          	lw	a4,-52(s0)
     318:	fbf44783          	lbu	a5,-65(s0)
     31c:	00070593          	mv	a1,a4
     320:	00078513          	mv	a0,a5
     324:	00000097          	auipc	ra,0x0
     328:	7bc080e7          	jalr	1980(ra) # ae0 <_ZL11action_drophPKc>
     32c:	1c00006f          	j	4ec <_ZL12handle_inputhR14command_buffer+0x3a8>
     330:	fc842703          	lw	a4,-56(s0)
     334:	000037b7          	lui	a5,0x3
     338:	aa078593          	add	a1,a5,-1376 # 2aa0 <_ZNK4listIhLi8EE2atEj+0x48c>
     33c:	00070513          	mv	a0,a4
     340:	00001097          	auipc	ra,0x1
     344:	228080e7          	jalr	552(ra) # 1568 <_ZL13strings_equalPKcS0_>
     348:	00050793          	mv	a5,a0
     34c:	00078e63          	beqz	a5,368 <_ZL12handle_inputhR14command_buffer+0x224>
     350:	fbf44783          	lbu	a5,-65(s0)
     354:	00000593          	li	a1,0
     358:	00078513          	mv	a0,a5
     35c:	00001097          	auipc	ra,0x1
     360:	8fc080e7          	jalr	-1796(ra) # c58 <_ZL9action_gohh>
     364:	1880006f          	j	4ec <_ZL12handle_inputhR14command_buffer+0x3a8>
     368:	fc842703          	lw	a4,-56(s0)
     36c:	000037b7          	lui	a5,0x3
     370:	aa478593          	add	a1,a5,-1372 # 2aa4 <_ZNK4listIhLi8EE2atEj+0x490>
     374:	00070513          	mv	a0,a4
     378:	00001097          	auipc	ra,0x1
     37c:	1f0080e7          	jalr	496(ra) # 1568 <_ZL13strings_equalPKcS0_>
     380:	00050793          	mv	a5,a0
     384:	00078e63          	beqz	a5,3a0 <_ZL12handle_inputhR14command_buffer+0x25c>
     388:	fbf44783          	lbu	a5,-65(s0)
     38c:	00100593          	li	a1,1
     390:	00078513          	mv	a0,a5
     394:	00001097          	auipc	ra,0x1
     398:	8c4080e7          	jalr	-1852(ra) # c58 <_ZL9action_gohh>
     39c:	1500006f          	j	4ec <_ZL12handle_inputhR14command_buffer+0x3a8>
     3a0:	fc842703          	lw	a4,-56(s0)
     3a4:	000037b7          	lui	a5,0x3
     3a8:	aa878593          	add	a1,a5,-1368 # 2aa8 <_ZNK4listIhLi8EE2atEj+0x494>
     3ac:	00070513          	mv	a0,a4
     3b0:	00001097          	auipc	ra,0x1
     3b4:	1b8080e7          	jalr	440(ra) # 1568 <_ZL13strings_equalPKcS0_>
     3b8:	00050793          	mv	a5,a0
     3bc:	00078e63          	beqz	a5,3d8 <_ZL12handle_inputhR14command_buffer+0x294>
     3c0:	fbf44783          	lbu	a5,-65(s0)
     3c4:	00200593          	li	a1,2
     3c8:	00078513          	mv	a0,a5
     3cc:	00001097          	auipc	ra,0x1
     3d0:	88c080e7          	jalr	-1908(ra) # c58 <_ZL9action_gohh>
     3d4:	1180006f          	j	4ec <_ZL12handle_inputhR14command_buffer+0x3a8>
     3d8:	fc842703          	lw	a4,-56(s0)
     3dc:	000037b7          	lui	a5,0x3
     3e0:	aac78593          	add	a1,a5,-1364 # 2aac <_ZNK4listIhLi8EE2atEj+0x498>
     3e4:	00070513          	mv	a0,a4
     3e8:	00001097          	auipc	ra,0x1
     3ec:	180080e7          	jalr	384(ra) # 1568 <_ZL13strings_equalPKcS0_>
     3f0:	00050793          	mv	a5,a0
     3f4:	00078e63          	beqz	a5,410 <_ZL12handle_inputhR14command_buffer+0x2cc>
     3f8:	fbf44783          	lbu	a5,-65(s0)
     3fc:	00300593          	li	a1,3
     400:	00078513          	mv	a0,a5
     404:	00001097          	auipc	ra,0x1
     408:	854080e7          	jalr	-1964(ra) # c58 <_ZL9action_gohh>
     40c:	0e00006f          	j	4ec <_ZL12handle_inputhR14command_buffer+0x3a8>
     410:	fc842703          	lw	a4,-56(s0)
     414:	000037b7          	lui	a5,0x3
     418:	ab078593          	add	a1,a5,-1360 # 2ab0 <_ZNK4listIhLi8EE2atEj+0x49c>
     41c:	00070513          	mv	a0,a4
     420:	00001097          	auipc	ra,0x1
     424:	148080e7          	jalr	328(ra) # 1568 <_ZL13strings_equalPKcS0_>
     428:	00050793          	mv	a5,a0
     42c:	06078463          	beqz	a5,494 <_ZL12handle_inputhR14command_buffer+0x350>
     430:	fe842703          	lw	a4,-24(s0)
     434:	00100793          	li	a5,1
     438:	00e7ec63          	bltu	a5,a4,450 <_ZL12handle_inputhR14command_buffer+0x30c>
     43c:	000037b7          	lui	a5,0x3
     440:	ab478513          	add	a0,a5,-1356 # 2ab4 <_ZNK4listIhLi8EE2atEj+0x4a0>
     444:	00001097          	auipc	ra,0x1
     448:	358080e7          	jalr	856(ra) # 179c <_ZL13uart_send_strPKc>
     44c:	0a00006f          	j	4ec <_ZL12handle_inputhR14command_buffer+0x3a8>
     450:	fe842703          	lw	a4,-24(s0)
     454:	00200793          	li	a5,2
     458:	00e7ec63          	bltu	a5,a4,470 <_ZL12handle_inputhR14command_buffer+0x32c>
     45c:	000037b7          	lui	a5,0x3
     460:	ac478513          	add	a0,a5,-1340 # 2ac4 <_ZNK4listIhLi8EE2atEj+0x4b0>
     464:	00001097          	auipc	ra,0x1
     468:	338080e7          	jalr	824(ra) # 179c <_ZL13uart_send_strPKc>
     46c:	0800006f          	j	4ec <_ZL12handle_inputhR14command_buffer+0x3a8>
     470:	fcc42703          	lw	a4,-52(s0)
     474:	fd042683          	lw	a3,-48(s0)
     478:	fbf44783          	lbu	a5,-65(s0)
     47c:	00068613          	mv	a2,a3
     480:	00070593          	mv	a1,a4
     484:	00078513          	mv	a0,a5
     488:	00001097          	auipc	ra,0x1
     48c:	908080e7          	jalr	-1784(ra) # d90 <_ZL11action_givehPKcS0_>
     490:	05c0006f          	j	4ec <_ZL12handle_inputhR14command_buffer+0x3a8>
     494:	fc842703          	lw	a4,-56(s0)
     498:	000037b7          	lui	a5,0x3
     49c:	ad878593          	add	a1,a5,-1320 # 2ad8 <_ZNK4listIhLi8EE2atEj+0x4c4>
     4a0:	00070513          	mv	a0,a4
     4a4:	00001097          	auipc	ra,0x1
     4a8:	0c4080e7          	jalr	196(ra) # 1568 <_ZL13strings_equalPKcS0_>
     4ac:	00050793          	mv	a5,a0
     4b0:	00078863          	beqz	a5,4c0 <_ZL12handle_inputhR14command_buffer+0x37c>
     4b4:	00001097          	auipc	ra,0x1
     4b8:	3dc080e7          	jalr	988(ra) # 1890 <_ZL15action_mem_testv>
     4bc:	0300006f          	j	4ec <_ZL12handle_inputhR14command_buffer+0x3a8>
     4c0:	fc842703          	lw	a4,-56(s0)
     4c4:	000037b7          	lui	a5,0x3
     4c8:	adc78593          	add	a1,a5,-1316 # 2adc <_ZNK4listIhLi8EE2atEj+0x4c8>
     4cc:	00070513          	mv	a0,a4
     4d0:	00001097          	auipc	ra,0x1
     4d4:	098080e7          	jalr	152(ra) # 1568 <_ZL13strings_equalPKcS0_>
     4d8:	00050793          	mv	a5,a0
     4dc:	00078863          	beqz	a5,4ec <_ZL12handle_inputhR14command_buffer+0x3a8>
     4e0:	00000513          	li	a0,0
     4e4:	00001097          	auipc	ra,0x1
     4e8:	570080e7          	jalr	1392(ra) # 1a54 <_ZL4exiti>
     4ec:	04c12083          	lw	ra,76(sp)
     4f0:	04812403          	lw	s0,72(sp)
     4f4:	05010113          	add	sp,sp,80
     4f8:	00008067          	ret

000004fc <_ZZL14print_locationhhENKUlhE_clEh>:
     4fc:	fe010113          	add	sp,sp,-32
     500:	00112e23          	sw	ra,28(sp)
     504:	00812c23          	sw	s0,24(sp)
     508:	02010413          	add	s0,sp,32
     50c:	fea42623          	sw	a0,-20(s0)
     510:	00058793          	mv	a5,a1
     514:	fef405a3          	sb	a5,-21(s0)
     518:	fec42783          	lw	a5,-20(s0)
     51c:	0007a703          	lw	a4,0(a5)
     520:	00072783          	lw	a5,0(a4)
     524:	00178693          	add	a3,a5,1
     528:	00d72023          	sw	a3,0(a4)
     52c:	00f037b3          	snez	a5,a5
     530:	0ff7f793          	zext.b	a5,a5
     534:	00078a63          	beqz	a5,548 <_ZZL14print_locationhhENKUlhE_clEh+0x4c>
     538:	000037b7          	lui	a5,0x3
     53c:	ae078513          	add	a0,a5,-1312 # 2ae0 <_ZNK4listIhLi8EE2atEj+0x4cc>
     540:	00001097          	auipc	ra,0x1
     544:	25c080e7          	jalr	604(ra) # 179c <_ZL13uart_send_strPKc>
     548:	feb44783          	lbu	a5,-21(s0)
     54c:	00003737          	lui	a4,0x3
     550:	6d470713          	add	a4,a4,1748 # 36d4 <_ZL7objects>
     554:	00279793          	sll	a5,a5,0x2
     558:	00f707b3          	add	a5,a4,a5
     55c:	0007a783          	lw	a5,0(a5)
     560:	00078513          	mv	a0,a5
     564:	00001097          	auipc	ra,0x1
     568:	238080e7          	jalr	568(ra) # 179c <_ZL13uart_send_strPKc>
     56c:	00100793          	li	a5,1
     570:	00078513          	mv	a0,a5
     574:	01c12083          	lw	ra,28(sp)
     578:	01812403          	lw	s0,24(sp)
     57c:	02010113          	add	sp,sp,32
     580:	00008067          	ret

00000584 <_ZZL14print_locationhhENKUlhE0_clEh>:
     584:	fe010113          	add	sp,sp,-32
     588:	00112e23          	sw	ra,28(sp)
     58c:	00812c23          	sw	s0,24(sp)
     590:	02010413          	add	s0,sp,32
     594:	fea42623          	sw	a0,-20(s0)
     598:	00058793          	mv	a5,a1
     59c:	fef405a3          	sb	a5,-21(s0)
     5a0:	fec42783          	lw	a5,-20(s0)
     5a4:	0007a783          	lw	a5,0(a5)
     5a8:	0007c783          	lbu	a5,0(a5)
     5ac:	feb44703          	lbu	a4,-21(s0)
     5b0:	00f71663          	bne	a4,a5,5bc <_ZZL14print_locationhhENKUlhE0_clEh+0x38>
     5b4:	00100793          	li	a5,1
     5b8:	0700006f          	j	628 <_ZZL14print_locationhhENKUlhE0_clEh+0xa4>
     5bc:	fec42783          	lw	a5,-20(s0)
     5c0:	0047a703          	lw	a4,4(a5)
     5c4:	00072783          	lw	a5,0(a4)
     5c8:	00178693          	add	a3,a5,1
     5cc:	00d72023          	sw	a3,0(a4)
     5d0:	00f037b3          	snez	a5,a5
     5d4:	0ff7f793          	zext.b	a5,a5
     5d8:	00078a63          	beqz	a5,5ec <_ZZL14print_locationhhENKUlhE0_clEh+0x68>
     5dc:	000037b7          	lui	a5,0x3
     5e0:	ae078513          	add	a0,a5,-1312 # 2ae0 <_ZNK4listIhLi8EE2atEj+0x4cc>
     5e4:	00001097          	auipc	ra,0x1
     5e8:	1b8080e7          	jalr	440(ra) # 179c <_ZL13uart_send_strPKc>
     5ec:	feb44703          	lbu	a4,-21(s0)
     5f0:	000037b7          	lui	a5,0x3
     5f4:	6e478693          	add	a3,a5,1764 # 36e4 <_ZL8entities>
     5f8:	00070793          	mv	a5,a4
     5fc:	00179793          	sll	a5,a5,0x1
     600:	00e787b3          	add	a5,a5,a4
     604:	00279793          	sll	a5,a5,0x2
     608:	40e787b3          	sub	a5,a5,a4
     60c:	00279793          	sll	a5,a5,0x2
     610:	00f687b3          	add	a5,a3,a5
     614:	0007a783          	lw	a5,0(a5)
     618:	00078513          	mv	a0,a5
     61c:	00001097          	auipc	ra,0x1
     620:	180080e7          	jalr	384(ra) # 179c <_ZL13uart_send_strPKc>
     624:	00100793          	li	a5,1
     628:	00078513          	mv	a0,a5
     62c:	01c12083          	lw	ra,28(sp)
     630:	01812403          	lw	s0,24(sp)
     634:	02010113          	add	sp,sp,32
     638:	00008067          	ret

0000063c <_ZL14print_locationhh>:
     63c:	fb010113          	add	sp,sp,-80
     640:	04112623          	sw	ra,76(sp)
     644:	04812423          	sw	s0,72(sp)
     648:	05010413          	add	s0,sp,80
     64c:	00050793          	mv	a5,a0
     650:	00058713          	mv	a4,a1
     654:	faf40fa3          	sb	a5,-65(s0)
     658:	00070793          	mv	a5,a4
     65c:	faf40f23          	sb	a5,-66(s0)
     660:	fbf44703          	lbu	a4,-65(s0)
     664:	00070793          	mv	a5,a4
     668:	00279793          	sll	a5,a5,0x2
     66c:	00e787b3          	add	a5,a5,a4
     670:	00579793          	sll	a5,a5,0x5
     674:	00003737          	lui	a4,0x3
     678:	76870713          	add	a4,a4,1896 # 3768 <_ZL9locations>
     67c:	00e787b3          	add	a5,a5,a4
     680:	fef42223          	sw	a5,-28(s0)
     684:	000037b7          	lui	a5,0x3
     688:	ae478513          	add	a0,a5,-1308 # 2ae4 <_ZNK4listIhLi8EE2atEj+0x4d0>
     68c:	00001097          	auipc	ra,0x1
     690:	110080e7          	jalr	272(ra) # 179c <_ZL13uart_send_strPKc>
     694:	fe442783          	lw	a5,-28(s0)
     698:	0007a783          	lw	a5,0(a5)
     69c:	00078513          	mv	a0,a5
     6a0:	00001097          	auipc	ra,0x1
     6a4:	0fc080e7          	jalr	252(ra) # 179c <_ZL13uart_send_strPKc>
     6a8:	000037b7          	lui	a5,0x3
     6ac:	aec78513          	add	a0,a5,-1300 # 2aec <_ZNK4listIhLi8EE2atEj+0x4d8>
     6b0:	00001097          	auipc	ra,0x1
     6b4:	0ec080e7          	jalr	236(ra) # 179c <_ZL13uart_send_strPKc>
     6b8:	fc042823          	sw	zero,-48(s0)
     6bc:	fe442783          	lw	a5,-28(s0)
     6c0:	00478793          	add	a5,a5,4
     6c4:	fd040713          	add	a4,s0,-48
     6c8:	00070593          	mv	a1,a4
     6cc:	00078513          	mv	a0,a5
     6d0:	00001097          	auipc	ra,0x1
     6d4:	3a4080e7          	jalr	932(ra) # 1a74 <_ZNK4listIhLi128EE20for_each_until_falseIZL14print_locationhhEUlhE_EEvT_>
     6d8:	fd042783          	lw	a5,-48(s0)
     6dc:	00079a63          	bnez	a5,6f0 <_ZL14print_locationhh+0xb4>
     6e0:	000037b7          	lui	a5,0x3
     6e4:	af478513          	add	a0,a5,-1292 # 2af4 <_ZNK4listIhLi8EE2atEj+0x4e0>
     6e8:	00001097          	auipc	ra,0x1
     6ec:	0b4080e7          	jalr	180(ra) # 179c <_ZL13uart_send_strPKc>
     6f0:	000037b7          	lui	a5,0x3
     6f4:	a4478513          	add	a0,a5,-1468 # 2a44 <_ZNK4listIhLi8EE2atEj+0x430>
     6f8:	00001097          	auipc	ra,0x1
     6fc:	0a4080e7          	jalr	164(ra) # 179c <_ZL13uart_send_strPKc>
     700:	fc042623          	sw	zero,-52(s0)
     704:	fe442783          	lw	a5,-28(s0)
     708:	08878713          	add	a4,a5,136
     70c:	fbe40793          	add	a5,s0,-66
     710:	fcf42a23          	sw	a5,-44(s0)
     714:	fcc40793          	add	a5,s0,-52
     718:	fcf42c23          	sw	a5,-40(s0)
     71c:	fd442583          	lw	a1,-44(s0)
     720:	fd842603          	lw	a2,-40(s0)
     724:	00070513          	mv	a0,a4
     728:	00001097          	auipc	ra,0x1
     72c:	3d4080e7          	jalr	980(ra) # 1afc <_ZNK4listIhLi8EE20for_each_until_falseIZL14print_locationhhEUlhE0_EEvT_>
     730:	fcc42783          	lw	a5,-52(s0)
     734:	00078a63          	beqz	a5,748 <_ZL14print_locationhh+0x10c>
     738:	000037b7          	lui	a5,0x3
     73c:	afc78513          	add	a0,a5,-1284 # 2afc <_ZNK4listIhLi8EE2atEj+0x4e8>
     740:	00001097          	auipc	ra,0x1
     744:	05c080e7          	jalr	92(ra) # 179c <_ZL13uart_send_strPKc>
     748:	fe042623          	sw	zero,-20(s0)
     74c:	000037b7          	lui	a5,0x3
     750:	b0878513          	add	a0,a5,-1272 # 2b08 <_ZNK4listIhLi8EE2atEj+0x4f4>
     754:	00001097          	auipc	ra,0x1
     758:	048080e7          	jalr	72(ra) # 179c <_ZL13uart_send_strPKc>
     75c:	fe442783          	lw	a5,-28(s0)
     760:	09478793          	add	a5,a5,148
     764:	fef42023          	sw	a5,-32(s0)
     768:	fe042503          	lw	a0,-32(s0)
     76c:	00002097          	auipc	ra,0x2
     770:	9f0080e7          	jalr	-1552(ra) # 215c <_ZNK4listIhLi6EE6lengthEv>
     774:	fca42e23          	sw	a0,-36(s0)
     778:	fe042423          	sw	zero,-24(s0)
     77c:	0840006f          	j	800 <_ZL14print_locationhh+0x1c4>
     780:	fe842583          	lw	a1,-24(s0)
     784:	fe042503          	lw	a0,-32(s0)
     788:	00002097          	auipc	ra,0x2
     78c:	9fc080e7          	jalr	-1540(ra) # 2184 <_ZNK4listIhLi6EE2atEj>
     790:	00050793          	mv	a5,a0
     794:	0017b793          	seqz	a5,a5
     798:	0ff7f793          	zext.b	a5,a5
     79c:	04079a63          	bnez	a5,7f0 <_ZL14print_locationhh+0x1b4>
     7a0:	fec42783          	lw	a5,-20(s0)
     7a4:	00178713          	add	a4,a5,1
     7a8:	fee42623          	sw	a4,-20(s0)
     7ac:	00f037b3          	snez	a5,a5
     7b0:	0ff7f793          	zext.b	a5,a5
     7b4:	00078a63          	beqz	a5,7c8 <_ZL14print_locationhh+0x18c>
     7b8:	000037b7          	lui	a5,0x3
     7bc:	ae078513          	add	a0,a5,-1312 # 2ae0 <_ZNK4listIhLi8EE2atEj+0x4cc>
     7c0:	00001097          	auipc	ra,0x1
     7c4:	fdc080e7          	jalr	-36(ra) # 179c <_ZL13uart_send_strPKc>
     7c8:	000047b7          	lui	a5,0x4
     7cc:	a8878713          	add	a4,a5,-1400 # 3a88 <_ZL10exit_names>
     7d0:	fe842783          	lw	a5,-24(s0)
     7d4:	00279793          	sll	a5,a5,0x2
     7d8:	00f707b3          	add	a5,a4,a5
     7dc:	0007a783          	lw	a5,0(a5)
     7e0:	00078513          	mv	a0,a5
     7e4:	00001097          	auipc	ra,0x1
     7e8:	fb8080e7          	jalr	-72(ra) # 179c <_ZL13uart_send_strPKc>
     7ec:	0080006f          	j	7f4 <_ZL14print_locationhh+0x1b8>
     7f0:	00000013          	nop
     7f4:	fe842783          	lw	a5,-24(s0)
     7f8:	00178793          	add	a5,a5,1
     7fc:	fef42423          	sw	a5,-24(s0)
     800:	fe842703          	lw	a4,-24(s0)
     804:	fdc42783          	lw	a5,-36(s0)
     808:	f6f76ce3          	bltu	a4,a5,780 <_ZL14print_locationhh+0x144>
     80c:	fec42783          	lw	a5,-20(s0)
     810:	00079a63          	bnez	a5,824 <_ZL14print_locationhh+0x1e8>
     814:	000037b7          	lui	a5,0x3
     818:	b1078513          	add	a0,a5,-1264 # 2b10 <_ZNK4listIhLi8EE2atEj+0x4fc>
     81c:	00001097          	auipc	ra,0x1
     820:	f80080e7          	jalr	-128(ra) # 179c <_ZL13uart_send_strPKc>
     824:	000037b7          	lui	a5,0x3
     828:	a4478513          	add	a0,a5,-1468 # 2a44 <_ZNK4listIhLi8EE2atEj+0x430>
     82c:	00001097          	auipc	ra,0x1
     830:	f70080e7          	jalr	-144(ra) # 179c <_ZL13uart_send_strPKc>
     834:	00000013          	nop
     838:	04c12083          	lw	ra,76(sp)
     83c:	04812403          	lw	s0,72(sp)
     840:	05010113          	add	sp,sp,80
     844:	00008067          	ret

00000848 <_ZZL16action_inventoryhENKUlhE_clEh>:
     848:	fe010113          	add	sp,sp,-32
     84c:	00112e23          	sw	ra,28(sp)
     850:	00812c23          	sw	s0,24(sp)
     854:	02010413          	add	s0,sp,32
     858:	fea42623          	sw	a0,-20(s0)
     85c:	00058793          	mv	a5,a1
     860:	fef405a3          	sb	a5,-21(s0)
     864:	fec42783          	lw	a5,-20(s0)
     868:	0007a703          	lw	a4,0(a5)
     86c:	00072783          	lw	a5,0(a4)
     870:	00178693          	add	a3,a5,1
     874:	00d72023          	sw	a3,0(a4)
     878:	00f037b3          	snez	a5,a5
     87c:	0ff7f793          	zext.b	a5,a5
     880:	00078a63          	beqz	a5,894 <_ZZL16action_inventoryhENKUlhE_clEh+0x4c>
     884:	000037b7          	lui	a5,0x3
     888:	ae078513          	add	a0,a5,-1312 # 2ae0 <_ZNK4listIhLi8EE2atEj+0x4cc>
     88c:	00001097          	auipc	ra,0x1
     890:	f10080e7          	jalr	-240(ra) # 179c <_ZL13uart_send_strPKc>
     894:	feb44783          	lbu	a5,-21(s0)
     898:	00003737          	lui	a4,0x3
     89c:	6d470713          	add	a4,a4,1748 # 36d4 <_ZL7objects>
     8a0:	00279793          	sll	a5,a5,0x2
     8a4:	00f707b3          	add	a5,a4,a5
     8a8:	0007a783          	lw	a5,0(a5)
     8ac:	00078513          	mv	a0,a5
     8b0:	00001097          	auipc	ra,0x1
     8b4:	eec080e7          	jalr	-276(ra) # 179c <_ZL13uart_send_strPKc>
     8b8:	00100793          	li	a5,1
     8bc:	00078513          	mv	a0,a5
     8c0:	01c12083          	lw	ra,28(sp)
     8c4:	01812403          	lw	s0,24(sp)
     8c8:	02010113          	add	sp,sp,32
     8cc:	00008067          	ret

000008d0 <_ZL16action_inventoryh>:
     8d0:	fd010113          	add	sp,sp,-48
     8d4:	02112623          	sw	ra,44(sp)
     8d8:	02812423          	sw	s0,40(sp)
     8dc:	03010413          	add	s0,sp,48
     8e0:	00050793          	mv	a5,a0
     8e4:	fcf40fa3          	sb	a5,-33(s0)
     8e8:	000037b7          	lui	a5,0x3
     8ec:	b1878513          	add	a0,a5,-1256 # 2b18 <_ZNK4listIhLi8EE2atEj+0x504>
     8f0:	00001097          	auipc	ra,0x1
     8f4:	eac080e7          	jalr	-340(ra) # 179c <_ZL13uart_send_strPKc>
     8f8:	fe042623          	sw	zero,-20(s0)
     8fc:	fdf44703          	lbu	a4,-33(s0)
     900:	00070793          	mv	a5,a4
     904:	00179793          	sll	a5,a5,0x1
     908:	00e787b3          	add	a5,a5,a4
     90c:	00279793          	sll	a5,a5,0x2
     910:	40e787b3          	sub	a5,a5,a4
     914:	00279793          	sll	a5,a5,0x2
     918:	00003737          	lui	a4,0x3
     91c:	6e470713          	add	a4,a4,1764 # 36e4 <_ZL8entities>
     920:	00e787b3          	add	a5,a5,a4
     924:	00878793          	add	a5,a5,8
     928:	fec40713          	add	a4,s0,-20
     92c:	00070593          	mv	a1,a4
     930:	00078513          	mv	a0,a5
     934:	00001097          	auipc	ra,0x1
     938:	254080e7          	jalr	596(ra) # 1b88 <_ZNK4listIhLi32EE20for_each_until_falseIZL16action_inventoryhEUlhE_EEvT_>
     93c:	fec42783          	lw	a5,-20(s0)
     940:	00079a63          	bnez	a5,954 <_ZL16action_inventoryh+0x84>
     944:	000037b7          	lui	a5,0x3
     948:	af478513          	add	a0,a5,-1292 # 2af4 <_ZNK4listIhLi8EE2atEj+0x4e0>
     94c:	00001097          	auipc	ra,0x1
     950:	e50080e7          	jalr	-432(ra) # 179c <_ZL13uart_send_strPKc>
     954:	000037b7          	lui	a5,0x3
     958:	a4478513          	add	a0,a5,-1468 # 2a44 <_ZNK4listIhLi8EE2atEj+0x430>
     95c:	00001097          	auipc	ra,0x1
     960:	e40080e7          	jalr	-448(ra) # 179c <_ZL13uart_send_strPKc>
     964:	00000013          	nop
     968:	02c12083          	lw	ra,44(sp)
     96c:	02812403          	lw	s0,40(sp)
     970:	03010113          	add	sp,sp,48
     974:	00008067          	ret

00000978 <_ZL11action_takehPKc>:
     978:	fc010113          	add	sp,sp,-64
     97c:	02112e23          	sw	ra,60(sp)
     980:	02812c23          	sw	s0,56(sp)
     984:	04010413          	add	s0,sp,64
     988:	00050793          	mv	a5,a0
     98c:	fcb42423          	sw	a1,-56(s0)
     990:	fcf407a3          	sb	a5,-49(s0)
     994:	fcf44703          	lbu	a4,-49(s0)
     998:	00070793          	mv	a5,a4
     99c:	00179793          	sll	a5,a5,0x1
     9a0:	00e787b3          	add	a5,a5,a4
     9a4:	00279793          	sll	a5,a5,0x2
     9a8:	40e787b3          	sub	a5,a5,a4
     9ac:	00279793          	sll	a5,a5,0x2
     9b0:	00003737          	lui	a4,0x3
     9b4:	6e470713          	add	a4,a4,1764 # 36e4 <_ZL8entities>
     9b8:	00e787b3          	add	a5,a5,a4
     9bc:	fef42423          	sw	a5,-24(s0)
     9c0:	fe842783          	lw	a5,-24(s0)
     9c4:	0047c783          	lbu	a5,4(a5)
     9c8:	00078713          	mv	a4,a5
     9cc:	00070793          	mv	a5,a4
     9d0:	00279793          	sll	a5,a5,0x2
     9d4:	00e787b3          	add	a5,a5,a4
     9d8:	00579793          	sll	a5,a5,0x5
     9dc:	00003737          	lui	a4,0x3
     9e0:	76870713          	add	a4,a4,1896 # 3768 <_ZL9locations>
     9e4:	00e787b3          	add	a5,a5,a4
     9e8:	00478793          	add	a5,a5,4
     9ec:	fef42223          	sw	a5,-28(s0)
     9f0:	fe442503          	lw	a0,-28(s0)
     9f4:	00001097          	auipc	ra,0x1
     9f8:	7dc080e7          	jalr	2012(ra) # 21d0 <_ZNK4listIhLi128EE6lengthEv>
     9fc:	fea42023          	sw	a0,-32(s0)
     a00:	fe042623          	sw	zero,-20(s0)
     a04:	09c0006f          	j	aa0 <_ZL11action_takehPKc+0x128>
     a08:	fec42583          	lw	a1,-20(s0)
     a0c:	fe442503          	lw	a0,-28(s0)
     a10:	00001097          	auipc	ra,0x1
     a14:	7e8080e7          	jalr	2024(ra) # 21f8 <_ZNK4listIhLi128EE2atEj>
     a18:	00050793          	mv	a5,a0
     a1c:	fcf40fa3          	sb	a5,-33(s0)
     a20:	fdf44783          	lbu	a5,-33(s0)
     a24:	00003737          	lui	a4,0x3
     a28:	6d470713          	add	a4,a4,1748 # 36d4 <_ZL7objects>
     a2c:	00279793          	sll	a5,a5,0x2
     a30:	00f707b3          	add	a5,a4,a5
     a34:	0007a783          	lw	a5,0(a5)
     a38:	fc842583          	lw	a1,-56(s0)
     a3c:	00078513          	mv	a0,a5
     a40:	00001097          	auipc	ra,0x1
     a44:	b28080e7          	jalr	-1240(ra) # 1568 <_ZL13strings_equalPKcS0_>
     a48:	00050793          	mv	a5,a0
     a4c:	0017c793          	xor	a5,a5,1
     a50:	0ff7f793          	zext.b	a5,a5
     a54:	02079e63          	bnez	a5,a90 <_ZL11action_takehPKc+0x118>
     a58:	fe842783          	lw	a5,-24(s0)
     a5c:	00878793          	add	a5,a5,8
     a60:	fdf44703          	lbu	a4,-33(s0)
     a64:	00070593          	mv	a1,a4
     a68:	00078513          	mv	a0,a5
     a6c:	00001097          	auipc	ra,0x1
     a70:	7d8080e7          	jalr	2008(ra) # 2244 <_ZN4listIhLi32EE3addEh>
     a74:	00050793          	mv	a5,a0
     a78:	04078a63          	beqz	a5,acc <_ZL11action_takehPKc+0x154>
     a7c:	fec42583          	lw	a1,-20(s0)
     a80:	fe442503          	lw	a0,-28(s0)
     a84:	00002097          	auipc	ra,0x2
     a88:	830080e7          	jalr	-2000(ra) # 22b4 <_ZN4listIhLi128EE15remove_at_indexEj>
     a8c:	0400006f          	j	acc <_ZL11action_takehPKc+0x154>
     a90:	00000013          	nop
     a94:	fec42783          	lw	a5,-20(s0)
     a98:	00178793          	add	a5,a5,1
     a9c:	fef42623          	sw	a5,-20(s0)
     aa0:	fec42703          	lw	a4,-20(s0)
     aa4:	fe042783          	lw	a5,-32(s0)
     aa8:	f6f760e3          	bltu	a4,a5,a08 <_ZL11action_takehPKc+0x90>
     aac:	fc842503          	lw	a0,-56(s0)
     ab0:	00001097          	auipc	ra,0x1
     ab4:	cec080e7          	jalr	-788(ra) # 179c <_ZL13uart_send_strPKc>
     ab8:	000037b7          	lui	a5,0x3
     abc:	b2478513          	add	a0,a5,-1244 # 2b24 <_ZNK4listIhLi8EE2atEj+0x510>
     ac0:	00001097          	auipc	ra,0x1
     ac4:	cdc080e7          	jalr	-804(ra) # 179c <_ZL13uart_send_strPKc>
     ac8:	0080006f          	j	ad0 <_ZL11action_takehPKc+0x158>
     acc:	00000013          	nop
     ad0:	03c12083          	lw	ra,60(sp)
     ad4:	03812403          	lw	s0,56(sp)
     ad8:	04010113          	add	sp,sp,64
     adc:	00008067          	ret

00000ae0 <_ZL11action_drophPKc>:
     ae0:	fc010113          	add	sp,sp,-64
     ae4:	02112e23          	sw	ra,60(sp)
     ae8:	02812c23          	sw	s0,56(sp)
     aec:	04010413          	add	s0,sp,64
     af0:	00050793          	mv	a5,a0
     af4:	fcb42423          	sw	a1,-56(s0)
     af8:	fcf407a3          	sb	a5,-49(s0)
     afc:	fcf44703          	lbu	a4,-49(s0)
     b00:	00070793          	mv	a5,a4
     b04:	00179793          	sll	a5,a5,0x1
     b08:	00e787b3          	add	a5,a5,a4
     b0c:	00279793          	sll	a5,a5,0x2
     b10:	40e787b3          	sub	a5,a5,a4
     b14:	00279793          	sll	a5,a5,0x2
     b18:	00003737          	lui	a4,0x3
     b1c:	6e470713          	add	a4,a4,1764 # 36e4 <_ZL8entities>
     b20:	00e787b3          	add	a5,a5,a4
     b24:	fef42423          	sw	a5,-24(s0)
     b28:	fe842783          	lw	a5,-24(s0)
     b2c:	00878793          	add	a5,a5,8
     b30:	fef42223          	sw	a5,-28(s0)
     b34:	fe442503          	lw	a0,-28(s0)
     b38:	00002097          	auipc	ra,0x2
     b3c:	804080e7          	jalr	-2044(ra) # 233c <_ZNK4listIhLi32EE6lengthEv>
     b40:	fea42023          	sw	a0,-32(s0)
     b44:	fe042623          	sw	zero,-20(s0)
     b48:	0c00006f          	j	c08 <_ZL11action_drophPKc+0x128>
     b4c:	fec42583          	lw	a1,-20(s0)
     b50:	fe442503          	lw	a0,-28(s0)
     b54:	00002097          	auipc	ra,0x2
     b58:	810080e7          	jalr	-2032(ra) # 2364 <_ZNK4listIhLi32EE2atEj>
     b5c:	00050793          	mv	a5,a0
     b60:	fcf40fa3          	sb	a5,-33(s0)
     b64:	fdf44783          	lbu	a5,-33(s0)
     b68:	00003737          	lui	a4,0x3
     b6c:	6d470713          	add	a4,a4,1748 # 36d4 <_ZL7objects>
     b70:	00279793          	sll	a5,a5,0x2
     b74:	00f707b3          	add	a5,a4,a5
     b78:	0007a783          	lw	a5,0(a5)
     b7c:	fc842583          	lw	a1,-56(s0)
     b80:	00078513          	mv	a0,a5
     b84:	00001097          	auipc	ra,0x1
     b88:	9e4080e7          	jalr	-1564(ra) # 1568 <_ZL13strings_equalPKcS0_>
     b8c:	00050793          	mv	a5,a0
     b90:	0017c793          	xor	a5,a5,1
     b94:	0ff7f793          	zext.b	a5,a5
     b98:	06079063          	bnez	a5,bf8 <_ZL11action_drophPKc+0x118>
     b9c:	fe842783          	lw	a5,-24(s0)
     ba0:	0047c783          	lbu	a5,4(a5)
     ba4:	00078713          	mv	a4,a5
     ba8:	00070793          	mv	a5,a4
     bac:	00279793          	sll	a5,a5,0x2
     bb0:	00e787b3          	add	a5,a5,a4
     bb4:	00579793          	sll	a5,a5,0x5
     bb8:	00003737          	lui	a4,0x3
     bbc:	76870713          	add	a4,a4,1896 # 3768 <_ZL9locations>
     bc0:	00e787b3          	add	a5,a5,a4
     bc4:	00478793          	add	a5,a5,4
     bc8:	fdf44703          	lbu	a4,-33(s0)
     bcc:	00070593          	mv	a1,a4
     bd0:	00078513          	mv	a0,a5
     bd4:	00001097          	auipc	ra,0x1
     bd8:	7dc080e7          	jalr	2012(ra) # 23b0 <_ZN4listIhLi128EE3addEh>
     bdc:	00050793          	mv	a5,a0
     be0:	06078263          	beqz	a5,c44 <_ZL11action_drophPKc+0x164>
     be4:	fec42583          	lw	a1,-20(s0)
     be8:	fe442503          	lw	a0,-28(s0)
     bec:	00002097          	auipc	ra,0x2
     bf0:	834080e7          	jalr	-1996(ra) # 2420 <_ZN4listIhLi32EE15remove_at_indexEj>
     bf4:	0500006f          	j	c44 <_ZL11action_drophPKc+0x164>
     bf8:	00000013          	nop
     bfc:	fec42783          	lw	a5,-20(s0)
     c00:	00178793          	add	a5,a5,1
     c04:	fef42623          	sw	a5,-20(s0)
     c08:	fec42703          	lw	a4,-20(s0)
     c0c:	fe042783          	lw	a5,-32(s0)
     c10:	f2f76ee3          	bltu	a4,a5,b4c <_ZL11action_drophPKc+0x6c>
     c14:	000037b7          	lui	a5,0x3
     c18:	b3478513          	add	a0,a5,-1228 # 2b34 <_ZNK4listIhLi8EE2atEj+0x520>
     c1c:	00001097          	auipc	ra,0x1
     c20:	b80080e7          	jalr	-1152(ra) # 179c <_ZL13uart_send_strPKc>
     c24:	fc842503          	lw	a0,-56(s0)
     c28:	00001097          	auipc	ra,0x1
     c2c:	b74080e7          	jalr	-1164(ra) # 179c <_ZL13uart_send_strPKc>
     c30:	000037b7          	lui	a5,0x3
     c34:	b4478513          	add	a0,a5,-1212 # 2b44 <_ZNK4listIhLi8EE2atEj+0x530>
     c38:	00001097          	auipc	ra,0x1
     c3c:	b64080e7          	jalr	-1180(ra) # 179c <_ZL13uart_send_strPKc>
     c40:	0080006f          	j	c48 <_ZL11action_drophPKc+0x168>
     c44:	00000013          	nop
     c48:	03c12083          	lw	ra,60(sp)
     c4c:	03812403          	lw	s0,56(sp)
     c50:	04010113          	add	sp,sp,64
     c54:	00008067          	ret

00000c58 <_ZL9action_gohh>:
     c58:	fd010113          	add	sp,sp,-48
     c5c:	02112623          	sw	ra,44(sp)
     c60:	02812423          	sw	s0,40(sp)
     c64:	03010413          	add	s0,sp,48
     c68:	00050793          	mv	a5,a0
     c6c:	00058713          	mv	a4,a1
     c70:	fcf40fa3          	sb	a5,-33(s0)
     c74:	00070793          	mv	a5,a4
     c78:	fcf40f23          	sb	a5,-34(s0)
     c7c:	fdf44703          	lbu	a4,-33(s0)
     c80:	00070793          	mv	a5,a4
     c84:	00179793          	sll	a5,a5,0x1
     c88:	00e787b3          	add	a5,a5,a4
     c8c:	00279793          	sll	a5,a5,0x2
     c90:	40e787b3          	sub	a5,a5,a4
     c94:	00279793          	sll	a5,a5,0x2
     c98:	00003737          	lui	a4,0x3
     c9c:	6e470713          	add	a4,a4,1764 # 36e4 <_ZL8entities>
     ca0:	00e787b3          	add	a5,a5,a4
     ca4:	fef42623          	sw	a5,-20(s0)
     ca8:	fec42783          	lw	a5,-20(s0)
     cac:	0047c783          	lbu	a5,4(a5)
     cb0:	00078713          	mv	a4,a5
     cb4:	00070793          	mv	a5,a4
     cb8:	00279793          	sll	a5,a5,0x2
     cbc:	00e787b3          	add	a5,a5,a4
     cc0:	00579793          	sll	a5,a5,0x5
     cc4:	00003737          	lui	a4,0x3
     cc8:	76870713          	add	a4,a4,1896 # 3768 <_ZL9locations>
     ccc:	00e787b3          	add	a5,a5,a4
     cd0:	fef42423          	sw	a5,-24(s0)
     cd4:	fe842783          	lw	a5,-24(s0)
     cd8:	09478793          	add	a5,a5,148
     cdc:	fde44703          	lbu	a4,-34(s0)
     ce0:	00070593          	mv	a1,a4
     ce4:	00078513          	mv	a0,a5
     ce8:	00001097          	auipc	ra,0x1
     cec:	49c080e7          	jalr	1180(ra) # 2184 <_ZNK4listIhLi6EE2atEj>
     cf0:	00050793          	mv	a5,a0
     cf4:	fef403a3          	sb	a5,-25(s0)
     cf8:	fe744783          	lbu	a5,-25(s0)
     cfc:	00079c63          	bnez	a5,d14 <_ZL9action_gohh+0xbc>
     d00:	000037b7          	lui	a5,0x3
     d04:	b4c78513          	add	a0,a5,-1204 # 2b4c <_ZNK4listIhLi8EE2atEj+0x538>
     d08:	00001097          	auipc	ra,0x1
     d0c:	a94080e7          	jalr	-1388(ra) # 179c <_ZL13uart_send_strPKc>
     d10:	0700006f          	j	d80 <_ZL9action_gohh+0x128>
     d14:	fe744703          	lbu	a4,-25(s0)
     d18:	00070793          	mv	a5,a4
     d1c:	00279793          	sll	a5,a5,0x2
     d20:	00e787b3          	add	a5,a5,a4
     d24:	00579793          	sll	a5,a5,0x5
     d28:	08078713          	add	a4,a5,128
     d2c:	000037b7          	lui	a5,0x3
     d30:	76878793          	add	a5,a5,1896 # 3768 <_ZL9locations>
     d34:	00f707b3          	add	a5,a4,a5
     d38:	00878793          	add	a5,a5,8
     d3c:	fdf44703          	lbu	a4,-33(s0)
     d40:	00070593          	mv	a1,a4
     d44:	00078513          	mv	a0,a5
     d48:	00001097          	auipc	ra,0x1
     d4c:	760080e7          	jalr	1888(ra) # 24a8 <_ZN4listIhLi8EE3addEh>
     d50:	00050793          	mv	a5,a0
     d54:	02078663          	beqz	a5,d80 <_ZL9action_gohh+0x128>
     d58:	fe842783          	lw	a5,-24(s0)
     d5c:	08878793          	add	a5,a5,136
     d60:	fdf44703          	lbu	a4,-33(s0)
     d64:	00070593          	mv	a1,a4
     d68:	00078513          	mv	a0,a5
     d6c:	00001097          	auipc	ra,0x1
     d70:	7ac080e7          	jalr	1964(ra) # 2518 <_ZN4listIhLi8EE6removeEh>
     d74:	fec42783          	lw	a5,-20(s0)
     d78:	fe744703          	lbu	a4,-25(s0)
     d7c:	00e78223          	sb	a4,4(a5)
     d80:	02c12083          	lw	ra,44(sp)
     d84:	02812403          	lw	s0,40(sp)
     d88:	03010113          	add	sp,sp,48
     d8c:	00008067          	ret

00000d90 <_ZL11action_givehPKcS0_>:
     d90:	fb010113          	add	sp,sp,-80
     d94:	04112623          	sw	ra,76(sp)
     d98:	04812423          	sw	s0,72(sp)
     d9c:	05010413          	add	s0,sp,80
     da0:	00050793          	mv	a5,a0
     da4:	fab42c23          	sw	a1,-72(s0)
     da8:	fac42a23          	sw	a2,-76(s0)
     dac:	faf40fa3          	sb	a5,-65(s0)
     db0:	fbf44703          	lbu	a4,-65(s0)
     db4:	00070793          	mv	a5,a4
     db8:	00179793          	sll	a5,a5,0x1
     dbc:	00e787b3          	add	a5,a5,a4
     dc0:	00279793          	sll	a5,a5,0x2
     dc4:	40e787b3          	sub	a5,a5,a4
     dc8:	00279793          	sll	a5,a5,0x2
     dcc:	00003737          	lui	a4,0x3
     dd0:	6e470713          	add	a4,a4,1764 # 36e4 <_ZL8entities>
     dd4:	00e787b3          	add	a5,a5,a4
     dd8:	fef42223          	sw	a5,-28(s0)
     ddc:	fe442783          	lw	a5,-28(s0)
     de0:	0047c783          	lbu	a5,4(a5)
     de4:	00078713          	mv	a4,a5
     de8:	00070793          	mv	a5,a4
     dec:	00279793          	sll	a5,a5,0x2
     df0:	00e787b3          	add	a5,a5,a4
     df4:	00579793          	sll	a5,a5,0x5
     df8:	00003737          	lui	a4,0x3
     dfc:	76870713          	add	a4,a4,1896 # 3768 <_ZL9locations>
     e00:	00e787b3          	add	a5,a5,a4
     e04:	fef42023          	sw	a5,-32(s0)
     e08:	fe042783          	lw	a5,-32(s0)
     e0c:	08878793          	add	a5,a5,136
     e10:	fcf42e23          	sw	a5,-36(s0)
     e14:	fdc42503          	lw	a0,-36(s0)
     e18:	00001097          	auipc	ra,0x1
     e1c:	7d4080e7          	jalr	2004(ra) # 25ec <_ZNK4listIhLi8EE6lengthEv>
     e20:	fca42c23          	sw	a0,-40(s0)
     e24:	fe042623          	sw	zero,-20(s0)
     e28:	1640006f          	j	f8c <_ZL11action_givehPKcS0_+0x1fc>
     e2c:	fec42583          	lw	a1,-20(s0)
     e30:	fdc42503          	lw	a0,-36(s0)
     e34:	00001097          	auipc	ra,0x1
     e38:	7e0080e7          	jalr	2016(ra) # 2614 <_ZNK4listIhLi8EE2atEj>
     e3c:	00050793          	mv	a5,a0
     e40:	00078713          	mv	a4,a5
     e44:	00070793          	mv	a5,a4
     e48:	00179793          	sll	a5,a5,0x1
     e4c:	00e787b3          	add	a5,a5,a4
     e50:	00279793          	sll	a5,a5,0x2
     e54:	40e787b3          	sub	a5,a5,a4
     e58:	00279793          	sll	a5,a5,0x2
     e5c:	00003737          	lui	a4,0x3
     e60:	6e470713          	add	a4,a4,1764 # 36e4 <_ZL8entities>
     e64:	00e787b3          	add	a5,a5,a4
     e68:	fcf42a23          	sw	a5,-44(s0)
     e6c:	fd442783          	lw	a5,-44(s0)
     e70:	0007a783          	lw	a5,0(a5)
     e74:	fb442583          	lw	a1,-76(s0)
     e78:	00078513          	mv	a0,a5
     e7c:	00000097          	auipc	ra,0x0
     e80:	6ec080e7          	jalr	1772(ra) # 1568 <_ZL13strings_equalPKcS0_>
     e84:	00050793          	mv	a5,a0
     e88:	0017c793          	xor	a5,a5,1
     e8c:	0ff7f793          	zext.b	a5,a5
     e90:	0e079663          	bnez	a5,f7c <_ZL11action_givehPKcS0_+0x1ec>
     e94:	fe442783          	lw	a5,-28(s0)
     e98:	00878793          	add	a5,a5,8
     e9c:	fcf42823          	sw	a5,-48(s0)
     ea0:	fd042503          	lw	a0,-48(s0)
     ea4:	00001097          	auipc	ra,0x1
     ea8:	498080e7          	jalr	1176(ra) # 233c <_ZNK4listIhLi32EE6lengthEv>
     eac:	fca42623          	sw	a0,-52(s0)
     eb0:	fe042423          	sw	zero,-24(s0)
     eb4:	09c0006f          	j	f50 <_ZL11action_givehPKcS0_+0x1c0>
     eb8:	fe842583          	lw	a1,-24(s0)
     ebc:	fd042503          	lw	a0,-48(s0)
     ec0:	00001097          	auipc	ra,0x1
     ec4:	4a4080e7          	jalr	1188(ra) # 2364 <_ZNK4listIhLi32EE2atEj>
     ec8:	00050793          	mv	a5,a0
     ecc:	fcf405a3          	sb	a5,-53(s0)
     ed0:	fcb44783          	lbu	a5,-53(s0)
     ed4:	00003737          	lui	a4,0x3
     ed8:	6d470713          	add	a4,a4,1748 # 36d4 <_ZL7objects>
     edc:	00279793          	sll	a5,a5,0x2
     ee0:	00f707b3          	add	a5,a4,a5
     ee4:	0007a783          	lw	a5,0(a5)
     ee8:	fb842583          	lw	a1,-72(s0)
     eec:	00078513          	mv	a0,a5
     ef0:	00000097          	auipc	ra,0x0
     ef4:	678080e7          	jalr	1656(ra) # 1568 <_ZL13strings_equalPKcS0_>
     ef8:	00050793          	mv	a5,a0
     efc:	0017c793          	xor	a5,a5,1
     f00:	0ff7f793          	zext.b	a5,a5
     f04:	02079e63          	bnez	a5,f40 <_ZL11action_givehPKcS0_+0x1b0>
     f08:	fd442783          	lw	a5,-44(s0)
     f0c:	00878793          	add	a5,a5,8
     f10:	fcb44703          	lbu	a4,-53(s0)
     f14:	00070593          	mv	a1,a4
     f18:	00078513          	mv	a0,a5
     f1c:	00001097          	auipc	ra,0x1
     f20:	328080e7          	jalr	808(ra) # 2244 <_ZN4listIhLi32EE3addEh>
     f24:	00050793          	mv	a5,a0
     f28:	08078863          	beqz	a5,fb8 <_ZL11action_givehPKcS0_+0x228>
     f2c:	fe842583          	lw	a1,-24(s0)
     f30:	fd042503          	lw	a0,-48(s0)
     f34:	00001097          	auipc	ra,0x1
     f38:	4ec080e7          	jalr	1260(ra) # 2420 <_ZN4listIhLi32EE15remove_at_indexEj>
     f3c:	07c0006f          	j	fb8 <_ZL11action_givehPKcS0_+0x228>
     f40:	00000013          	nop
     f44:	fe842783          	lw	a5,-24(s0)
     f48:	00178793          	add	a5,a5,1
     f4c:	fef42423          	sw	a5,-24(s0)
     f50:	fe842703          	lw	a4,-24(s0)
     f54:	fcc42783          	lw	a5,-52(s0)
     f58:	f6f760e3          	bltu	a4,a5,eb8 <_ZL11action_givehPKcS0_+0x128>
     f5c:	fb842503          	lw	a0,-72(s0)
     f60:	00001097          	auipc	ra,0x1
     f64:	83c080e7          	jalr	-1988(ra) # 179c <_ZL13uart_send_strPKc>
     f68:	000037b7          	lui	a5,0x3
     f6c:	b6078513          	add	a0,a5,-1184 # 2b60 <_ZNK4listIhLi8EE2atEj+0x54c>
     f70:	00001097          	auipc	ra,0x1
     f74:	82c080e7          	jalr	-2004(ra) # 179c <_ZL13uart_send_strPKc>
     f78:	0440006f          	j	fbc <_ZL11action_givehPKcS0_+0x22c>
     f7c:	00000013          	nop
     f80:	fec42783          	lw	a5,-20(s0)
     f84:	00178793          	add	a5,a5,1
     f88:	fef42623          	sw	a5,-20(s0)
     f8c:	fec42703          	lw	a4,-20(s0)
     f90:	fd842783          	lw	a5,-40(s0)
     f94:	e8f76ce3          	bltu	a4,a5,e2c <_ZL11action_givehPKcS0_+0x9c>
     f98:	fb442503          	lw	a0,-76(s0)
     f9c:	00001097          	auipc	ra,0x1
     fa0:	800080e7          	jalr	-2048(ra) # 179c <_ZL13uart_send_strPKc>
     fa4:	000037b7          	lui	a5,0x3
     fa8:	b7878513          	add	a0,a5,-1160 # 2b78 <_ZNK4listIhLi8EE2atEj+0x564>
     fac:	00000097          	auipc	ra,0x0
     fb0:	7f0080e7          	jalr	2032(ra) # 179c <_ZL13uart_send_strPKc>
     fb4:	0080006f          	j	fbc <_ZL11action_givehPKcS0_+0x22c>
     fb8:	00000013          	nop
     fbc:	04c12083          	lw	ra,76(sp)
     fc0:	04812403          	lw	s0,72(sp)
     fc4:	05010113          	add	sp,sp,80
     fc8:	00008067          	ret

00000fcc <_ZL10print_helpv>:
     fcc:	ff010113          	add	sp,sp,-16
     fd0:	00112623          	sw	ra,12(sp)
     fd4:	00812423          	sw	s0,8(sp)
     fd8:	01010413          	add	s0,sp,16
     fdc:	000037b7          	lui	a5,0x3
     fe0:	b8c78513          	add	a0,a5,-1140 # 2b8c <_ZNK4listIhLi8EE2atEj+0x578>
     fe4:	00000097          	auipc	ra,0x0
     fe8:	7b8080e7          	jalr	1976(ra) # 179c <_ZL13uart_send_strPKc>
     fec:	00000013          	nop
     ff0:	00c12083          	lw	ra,12(sp)
     ff4:	00812403          	lw	s0,8(sp)
     ff8:	01010113          	add	sp,sp,16
     ffc:	00008067          	ret

00001000 <_ZL27input_escape_sequence_clearv>:
    1000:	fe010113          	add	sp,sp,-32
    1004:	00812e23          	sw	s0,28(sp)
    1008:	02010413          	add	s0,sp,32
    100c:	fe042623          	sw	zero,-20(s0)
    1010:	0240006f          	j	1034 <_ZL27input_escape_sequence_clearv+0x34>
    1014:	000047b7          	lui	a5,0x4
    1018:	aa878713          	add	a4,a5,-1368 # 3aa8 <_ZL21input_escape_sequence>
    101c:	fec42783          	lw	a5,-20(s0)
    1020:	00f707b3          	add	a5,a4,a5
    1024:	00078023          	sb	zero,0(a5)
    1028:	fec42783          	lw	a5,-20(s0)
    102c:	00178793          	add	a5,a5,1
    1030:	fef42623          	sw	a5,-20(s0)
    1034:	fec42703          	lw	a4,-20(s0)
    1038:	00700793          	li	a5,7
    103c:	fce7fce3          	bgeu	a5,a4,1014 <_ZL27input_escape_sequence_clearv+0x14>
    1040:	00000013          	nop
    1044:	00000013          	nop
    1048:	01c12403          	lw	s0,28(sp)
    104c:	02010113          	add	sp,sp,32
    1050:	00008067          	ret

00001054 <_ZZL5inputR14command_bufferENKUlcE_clEc>:
    1054:	fe010113          	add	sp,sp,-32
    1058:	00112e23          	sw	ra,28(sp)
    105c:	00812c23          	sw	s0,24(sp)
    1060:	02010413          	add	s0,sp,32
    1064:	fea42623          	sw	a0,-20(s0)
    1068:	00058793          	mv	a5,a1
    106c:	fef405a3          	sb	a5,-21(s0)
    1070:	feb44783          	lbu	a5,-21(s0)
    1074:	00078513          	mv	a0,a5
    1078:	00000097          	auipc	ra,0x0
    107c:	78c080e7          	jalr	1932(ra) # 1804 <_ZL14uart_send_charc>
    1080:	00000013          	nop
    1084:	01c12083          	lw	ra,28(sp)
    1088:	01812403          	lw	s0,24(sp)
    108c:	02010113          	add	sp,sp,32
    1090:	00008067          	ret

00001094 <_ZZL5inputR14command_bufferENUlcE_4_FUNEc>:
    1094:	fe010113          	add	sp,sp,-32
    1098:	00112e23          	sw	ra,28(sp)
    109c:	00812c23          	sw	s0,24(sp)
    10a0:	02010413          	add	s0,sp,32
    10a4:	00050793          	mv	a5,a0
    10a8:	fef407a3          	sb	a5,-17(s0)
    10ac:	fef44783          	lbu	a5,-17(s0)
    10b0:	00078593          	mv	a1,a5
    10b4:	00000513          	li	a0,0
    10b8:	00000097          	auipc	ra,0x0
    10bc:	f9c080e7          	jalr	-100(ra) # 1054 <_ZZL5inputR14command_bufferENKUlcE_clEc>
    10c0:	01c12083          	lw	ra,28(sp)
    10c4:	01812403          	lw	s0,24(sp)
    10c8:	02010113          	add	sp,sp,32
    10cc:	00008067          	ret

000010d0 <_ZZL5inputR14command_bufferENKUlcE_cvPFvcEEv>:
    10d0:	fe010113          	add	sp,sp,-32
    10d4:	00812e23          	sw	s0,28(sp)
    10d8:	02010413          	add	s0,sp,32
    10dc:	fea42623          	sw	a0,-20(s0)
    10e0:	000017b7          	lui	a5,0x1
    10e4:	09478793          	add	a5,a5,148 # 1094 <_ZZL5inputR14command_bufferENUlcE_4_FUNEc>
    10e8:	00078513          	mv	a0,a5
    10ec:	01c12403          	lw	s0,28(sp)
    10f0:	02010113          	add	sp,sp,32
    10f4:	00008067          	ret

000010f8 <_ZZL5inputR14command_bufferENKUlcE0_clEc>:
    10f8:	fe010113          	add	sp,sp,-32
    10fc:	00112e23          	sw	ra,28(sp)
    1100:	00812c23          	sw	s0,24(sp)
    1104:	02010413          	add	s0,sp,32
    1108:	fea42623          	sw	a0,-20(s0)
    110c:	00058793          	mv	a5,a1
    1110:	fef405a3          	sb	a5,-21(s0)
    1114:	feb44783          	lbu	a5,-21(s0)
    1118:	00078513          	mv	a0,a5
    111c:	00000097          	auipc	ra,0x0
    1120:	6e8080e7          	jalr	1768(ra) # 1804 <_ZL14uart_send_charc>
    1124:	00000013          	nop
    1128:	01c12083          	lw	ra,28(sp)
    112c:	01812403          	lw	s0,24(sp)
    1130:	02010113          	add	sp,sp,32
    1134:	00008067          	ret

00001138 <_ZZL5inputR14command_bufferENUlcE0_4_FUNEc>:
    1138:	fe010113          	add	sp,sp,-32
    113c:	00112e23          	sw	ra,28(sp)
    1140:	00812c23          	sw	s0,24(sp)
    1144:	02010413          	add	s0,sp,32
    1148:	00050793          	mv	a5,a0
    114c:	fef407a3          	sb	a5,-17(s0)
    1150:	fef44783          	lbu	a5,-17(s0)
    1154:	00078593          	mv	a1,a5
    1158:	00000513          	li	a0,0
    115c:	00000097          	auipc	ra,0x0
    1160:	f9c080e7          	jalr	-100(ra) # 10f8 <_ZZL5inputR14command_bufferENKUlcE0_clEc>
    1164:	01c12083          	lw	ra,28(sp)
    1168:	01812403          	lw	s0,24(sp)
    116c:	02010113          	add	sp,sp,32
    1170:	00008067          	ret

00001174 <_ZZL5inputR14command_bufferENKUlcE0_cvPFvcEEv>:
    1174:	fe010113          	add	sp,sp,-32
    1178:	00812e23          	sw	s0,28(sp)
    117c:	02010413          	add	s0,sp,32
    1180:	fea42623          	sw	a0,-20(s0)
    1184:	000017b7          	lui	a5,0x1
    1188:	13878793          	add	a5,a5,312 # 1138 <_ZZL5inputR14command_bufferENUlcE0_4_FUNEc>
    118c:	00078513          	mv	a0,a5
    1190:	01c12403          	lw	s0,28(sp)
    1194:	02010113          	add	sp,sp,32
    1198:	00008067          	ret

0000119c <_ZZL5inputR14command_bufferENKUlcE1_clEc>:
    119c:	fe010113          	add	sp,sp,-32
    11a0:	00112e23          	sw	ra,28(sp)
    11a4:	00812c23          	sw	s0,24(sp)
    11a8:	02010413          	add	s0,sp,32
    11ac:	fea42623          	sw	a0,-20(s0)
    11b0:	00058793          	mv	a5,a1
    11b4:	fef405a3          	sb	a5,-21(s0)
    11b8:	feb44783          	lbu	a5,-21(s0)
    11bc:	00078513          	mv	a0,a5
    11c0:	00000097          	auipc	ra,0x0
    11c4:	644080e7          	jalr	1604(ra) # 1804 <_ZL14uart_send_charc>
    11c8:	00000013          	nop
    11cc:	01c12083          	lw	ra,28(sp)
    11d0:	01812403          	lw	s0,24(sp)
    11d4:	02010113          	add	sp,sp,32
    11d8:	00008067          	ret

000011dc <_ZZL5inputR14command_bufferENUlcE1_4_FUNEc>:
    11dc:	fe010113          	add	sp,sp,-32
    11e0:	00112e23          	sw	ra,28(sp)
    11e4:	00812c23          	sw	s0,24(sp)
    11e8:	02010413          	add	s0,sp,32
    11ec:	00050793          	mv	a5,a0
    11f0:	fef407a3          	sb	a5,-17(s0)
    11f4:	fef44783          	lbu	a5,-17(s0)
    11f8:	00078593          	mv	a1,a5
    11fc:	00000513          	li	a0,0
    1200:	00000097          	auipc	ra,0x0
    1204:	f9c080e7          	jalr	-100(ra) # 119c <_ZZL5inputR14command_bufferENKUlcE1_clEc>
    1208:	01c12083          	lw	ra,28(sp)
    120c:	01812403          	lw	s0,24(sp)
    1210:	02010113          	add	sp,sp,32
    1214:	00008067          	ret

00001218 <_ZZL5inputR14command_bufferENKUlcE1_cvPFvcEEv>:
    1218:	fe010113          	add	sp,sp,-32
    121c:	00812e23          	sw	s0,28(sp)
    1220:	02010413          	add	s0,sp,32
    1224:	fea42623          	sw	a0,-20(s0)
    1228:	000017b7          	lui	a5,0x1
    122c:	1dc78793          	add	a5,a5,476 # 11dc <_ZZL5inputR14command_bufferENUlcE1_4_FUNEc>
    1230:	00078513          	mv	a0,a5
    1234:	01c12403          	lw	s0,28(sp)
    1238:	02010113          	add	sp,sp,32
    123c:	00008067          	ret

00001240 <_ZL5inputR14command_buffer>:
    1240:	fd010113          	add	sp,sp,-48
    1244:	02112623          	sw	ra,44(sp)
    1248:	02812423          	sw	s0,40(sp)
    124c:	03010413          	add	s0,sp,48
    1250:	fca42e23          	sw	a0,-36(s0)
    1254:	fdc42503          	lw	a0,-36(s0)
    1258:	00001097          	auipc	ra,0x1
    125c:	cb8080e7          	jalr	-840(ra) # 1f10 <_ZN14command_buffer5resetEv>
    1260:	00000097          	auipc	ra,0x0
    1264:	5f0080e7          	jalr	1520(ra) # 1850 <_ZL14uart_read_charv>
    1268:	00050793          	mv	a5,a0
    126c:	fef407a3          	sb	a5,-17(s0)
    1270:	fef44703          	lbu	a4,-17(s0)
    1274:	01b00793          	li	a5,27
    1278:	00f71c63          	bne	a4,a5,1290 <_ZL5inputR14command_buffer+0x50>
    127c:	000047b7          	lui	a5,0x4
    1280:	aa878793          	add	a5,a5,-1368 # 3aa8 <_ZL21input_escape_sequence>
    1284:	01b00713          	li	a4,27
    1288:	00e78023          	sb	a4,0(a5)
    128c:	2c80006f          	j	1554 <_ZL5inputR14command_buffer+0x314>
    1290:	000047b7          	lui	a5,0x4
    1294:	aa878793          	add	a5,a5,-1368 # 3aa8 <_ZL21input_escape_sequence>
    1298:	0007c703          	lbu	a4,0(a5)
    129c:	01b00793          	li	a5,27
    12a0:	16f71263          	bne	a4,a5,1404 <_ZL5inputR14command_buffer+0x1c4>
    12a4:	fef44703          	lbu	a4,-17(s0)
    12a8:	05b00793          	li	a5,91
    12ac:	00f71c63          	bne	a4,a5,12c4 <_ZL5inputR14command_buffer+0x84>
    12b0:	000047b7          	lui	a5,0x4
    12b4:	aa878793          	add	a5,a5,-1368 # 3aa8 <_ZL21input_escape_sequence>
    12b8:	05b00713          	li	a4,91
    12bc:	00e780a3          	sb	a4,1(a5)
    12c0:	2940006f          	j	1554 <_ZL5inputR14command_buffer+0x314>
    12c4:	000047b7          	lui	a5,0x4
    12c8:	aa878793          	add	a5,a5,-1368 # 3aa8 <_ZL21input_escape_sequence>
    12cc:	0017c703          	lbu	a4,1(a5)
    12d0:	05b00793          	li	a5,91
    12d4:	12f71863          	bne	a4,a5,1404 <_ZL5inputR14command_buffer+0x1c4>
    12d8:	fef44703          	lbu	a4,-17(s0)
    12dc:	04400793          	li	a5,68
    12e0:	02f71a63          	bne	a4,a5,1314 <_ZL5inputR14command_buffer+0xd4>
    12e4:	fdc42503          	lw	a0,-36(s0)
    12e8:	00001097          	auipc	ra,0x1
    12ec:	ccc080e7          	jalr	-820(ra) # 1fb4 <_ZN14command_buffer16move_cursor_leftEv>
    12f0:	00050793          	mv	a5,a0
    12f4:	00078a63          	beqz	a5,1308 <_ZL5inputR14command_buffer+0xc8>
    12f8:	000037b7          	lui	a5,0x3
    12fc:	c6878513          	add	a0,a5,-920 # 2c68 <_ZNK4listIhLi8EE2atEj+0x654>
    1300:	00000097          	auipc	ra,0x0
    1304:	49c080e7          	jalr	1180(ra) # 179c <_ZL13uart_send_strPKc>
    1308:	00000097          	auipc	ra,0x0
    130c:	cf8080e7          	jalr	-776(ra) # 1000 <_ZL27input_escape_sequence_clearv>
    1310:	2440006f          	j	1554 <_ZL5inputR14command_buffer+0x314>
    1314:	fef44703          	lbu	a4,-17(s0)
    1318:	04300793          	li	a5,67
    131c:	02f71a63          	bne	a4,a5,1350 <_ZL5inputR14command_buffer+0x110>
    1320:	fdc42503          	lw	a0,-36(s0)
    1324:	00001097          	auipc	ra,0x1
    1328:	ce0080e7          	jalr	-800(ra) # 2004 <_ZN14command_buffer17move_cursor_rightEv>
    132c:	00050793          	mv	a5,a0
    1330:	00078a63          	beqz	a5,1344 <_ZL5inputR14command_buffer+0x104>
    1334:	000037b7          	lui	a5,0x3
    1338:	c6c78513          	add	a0,a5,-916 # 2c6c <_ZNK4listIhLi8EE2atEj+0x658>
    133c:	00000097          	auipc	ra,0x0
    1340:	460080e7          	jalr	1120(ra) # 179c <_ZL13uart_send_strPKc>
    1344:	00000097          	auipc	ra,0x0
    1348:	cbc080e7          	jalr	-836(ra) # 1000 <_ZL27input_escape_sequence_clearv>
    134c:	2080006f          	j	1554 <_ZL5inputR14command_buffer+0x314>
    1350:	fef44703          	lbu	a4,-17(s0)
    1354:	03300793          	li	a5,51
    1358:	00f71c63          	bne	a4,a5,1370 <_ZL5inputR14command_buffer+0x130>
    135c:	000047b7          	lui	a5,0x4
    1360:	aa878793          	add	a5,a5,-1368 # 3aa8 <_ZL21input_escape_sequence>
    1364:	03300713          	li	a4,51
    1368:	00e78123          	sb	a4,2(a5)
    136c:	1e80006f          	j	1554 <_ZL5inputR14command_buffer+0x314>
    1370:	000047b7          	lui	a5,0x4
    1374:	aa878793          	add	a5,a5,-1368 # 3aa8 <_ZL21input_escape_sequence>
    1378:	0027c703          	lbu	a4,2(a5)
    137c:	03300793          	li	a5,51
    1380:	06f71c63          	bne	a4,a5,13f8 <_ZL5inputR14command_buffer+0x1b8>
    1384:	fef44703          	lbu	a4,-17(s0)
    1388:	07e00793          	li	a5,126
    138c:	06f71063          	bne	a4,a5,13ec <_ZL5inputR14command_buffer+0x1ac>
    1390:	fdc42503          	lw	a0,-36(s0)
    1394:	00001097          	auipc	ra,0x1
    1398:	ad4080e7          	jalr	-1324(ra) # 1e68 <_ZN14command_buffer3delEv>
    139c:	fe440793          	add	a5,s0,-28
    13a0:	00078513          	mv	a0,a5
    13a4:	00000097          	auipc	ra,0x0
    13a8:	d2c080e7          	jalr	-724(ra) # 10d0 <_ZZL5inputR14command_bufferENKUlcE_cvPFvcEEv>
    13ac:	00050793          	mv	a5,a0
    13b0:	00078593          	mv	a1,a5
    13b4:	fdc42503          	lw	a0,-36(s0)
    13b8:	00001097          	auipc	ra,0x1
    13bc:	ca4080e7          	jalr	-860(ra) # 205c <_ZNK14command_buffer33apply_on_chars_from_cursor_to_endEPFvcE>
    13c0:	02000513          	li	a0,32
    13c4:	00000097          	auipc	ra,0x0
    13c8:	440080e7          	jalr	1088(ra) # 1804 <_ZL14uart_send_charc>
    13cc:	fdc42503          	lw	a0,-36(s0)
    13d0:	00001097          	auipc	ra,0x1
    13d4:	d08080e7          	jalr	-760(ra) # 20d8 <_ZNK14command_buffer23characters_after_cursorEv>
    13d8:	00050793          	mv	a5,a0
    13dc:	00178793          	add	a5,a5,1
    13e0:	00078513          	mv	a0,a5
    13e4:	00000097          	auipc	ra,0x0
    13e8:	330080e7          	jalr	816(ra) # 1714 <_ZL19uart_send_move_backj>
    13ec:	00000097          	auipc	ra,0x0
    13f0:	c14080e7          	jalr	-1004(ra) # 1000 <_ZL27input_escape_sequence_clearv>
    13f4:	1600006f          	j	1554 <_ZL5inputR14command_buffer+0x314>
    13f8:	00000097          	auipc	ra,0x0
    13fc:	c08080e7          	jalr	-1016(ra) # 1000 <_ZL27input_escape_sequence_clearv>
    1400:	1540006f          	j	1554 <_ZL5inputR14command_buffer+0x314>
    1404:	fef44703          	lbu	a4,-17(s0)
    1408:	07f00793          	li	a5,127
    140c:	06f71e63          	bne	a4,a5,1488 <_ZL5inputR14command_buffer+0x248>
    1410:	fdc42503          	lw	a0,-36(s0)
    1414:	00001097          	auipc	ra,0x1
    1418:	948080e7          	jalr	-1720(ra) # 1d5c <_ZN14command_buffer9backspaceEv>
    141c:	00050793          	mv	a5,a0
    1420:	10078663          	beqz	a5,152c <_ZL5inputR14command_buffer+0x2ec>
    1424:	fef44783          	lbu	a5,-17(s0)
    1428:	00078513          	mv	a0,a5
    142c:	00000097          	auipc	ra,0x0
    1430:	3d8080e7          	jalr	984(ra) # 1804 <_ZL14uart_send_charc>
    1434:	fe840793          	add	a5,s0,-24
    1438:	00078513          	mv	a0,a5
    143c:	00000097          	auipc	ra,0x0
    1440:	d38080e7          	jalr	-712(ra) # 1174 <_ZZL5inputR14command_bufferENKUlcE0_cvPFvcEEv>
    1444:	00050793          	mv	a5,a0
    1448:	00078593          	mv	a1,a5
    144c:	fdc42503          	lw	a0,-36(s0)
    1450:	00001097          	auipc	ra,0x1
    1454:	c0c080e7          	jalr	-1012(ra) # 205c <_ZNK14command_buffer33apply_on_chars_from_cursor_to_endEPFvcE>
    1458:	02000513          	li	a0,32
    145c:	00000097          	auipc	ra,0x0
    1460:	3a8080e7          	jalr	936(ra) # 1804 <_ZL14uart_send_charc>
    1464:	fdc42503          	lw	a0,-36(s0)
    1468:	00001097          	auipc	ra,0x1
    146c:	c70080e7          	jalr	-912(ra) # 20d8 <_ZNK14command_buffer23characters_after_cursorEv>
    1470:	00050793          	mv	a5,a0
    1474:	00178793          	add	a5,a5,1
    1478:	00078513          	mv	a0,a5
    147c:	00000097          	auipc	ra,0x0
    1480:	298080e7          	jalr	664(ra) # 1714 <_ZL19uart_send_move_backj>
    1484:	0a80006f          	j	152c <_ZL5inputR14command_buffer+0x2ec>
    1488:	fef44703          	lbu	a4,-17(s0)
    148c:	00d00793          	li	a5,13
    1490:	00f70c63          	beq	a4,a5,14a8 <_ZL5inputR14command_buffer+0x268>
    1494:	fdc42503          	lw	a0,-36(s0)
    1498:	00001097          	auipc	ra,0x1
    149c:	ae8080e7          	jalr	-1304(ra) # 1f80 <_ZNK14command_buffer7is_fullEv>
    14a0:	00050793          	mv	a5,a0
    14a4:	00078663          	beqz	a5,14b0 <_ZL5inputR14command_buffer+0x270>
    14a8:	00100793          	li	a5,1
    14ac:	0080006f          	j	14b4 <_ZL5inputR14command_buffer+0x274>
    14b0:	00000793          	li	a5,0
    14b4:	00078a63          	beqz	a5,14c8 <_ZL5inputR14command_buffer+0x288>
    14b8:	fdc42503          	lw	a0,-36(s0)
    14bc:	00001097          	auipc	ra,0x1
    14c0:	a8c080e7          	jalr	-1396(ra) # 1f48 <_ZN14command_buffer7set_eosEv>
    14c4:	0940006f          	j	1558 <_ZL5inputR14command_buffer+0x318>
    14c8:	fef44783          	lbu	a5,-17(s0)
    14cc:	00078513          	mv	a0,a5
    14d0:	00000097          	auipc	ra,0x0
    14d4:	334080e7          	jalr	820(ra) # 1804 <_ZL14uart_send_charc>
    14d8:	fef44783          	lbu	a5,-17(s0)
    14dc:	00078593          	mv	a1,a5
    14e0:	fdc42503          	lw	a0,-36(s0)
    14e4:	00000097          	auipc	ra,0x0
    14e8:	72c080e7          	jalr	1836(ra) # 1c10 <_ZN14command_buffer6insertEc>
    14ec:	fec40793          	add	a5,s0,-20
    14f0:	00078513          	mv	a0,a5
    14f4:	00000097          	auipc	ra,0x0
    14f8:	d24080e7          	jalr	-732(ra) # 1218 <_ZZL5inputR14command_bufferENKUlcE1_cvPFvcEEv>
    14fc:	00050793          	mv	a5,a0
    1500:	00078593          	mv	a1,a5
    1504:	fdc42503          	lw	a0,-36(s0)
    1508:	00001097          	auipc	ra,0x1
    150c:	b54080e7          	jalr	-1196(ra) # 205c <_ZNK14command_buffer33apply_on_chars_from_cursor_to_endEPFvcE>
    1510:	fdc42503          	lw	a0,-36(s0)
    1514:	00001097          	auipc	ra,0x1
    1518:	bc4080e7          	jalr	-1084(ra) # 20d8 <_ZNK14command_buffer23characters_after_cursorEv>
    151c:	00050793          	mv	a5,a0
    1520:	00078513          	mv	a0,a5
    1524:	00000097          	auipc	ra,0x0
    1528:	1f0080e7          	jalr	496(ra) # 1714 <_ZL19uart_send_move_backj>
    152c:	fdc42503          	lw	a0,-36(s0)
    1530:	00001097          	auipc	ra,0x1
    1534:	c04080e7          	jalr	-1020(ra) # 2134 <_ZNK14command_buffer12input_lengthEv>
    1538:	00050793          	mv	a5,a0
    153c:	0ff7f793          	zext.b	a5,a5
    1540:	fff7c793          	not	a5,a5
    1544:	0ff7f793          	zext.b	a5,a5
    1548:	00078513          	mv	a0,a5
    154c:	00000097          	auipc	ra,0x0
    1550:	220080e7          	jalr	544(ra) # 176c <_ZL7led_seth>
    1554:	d0dff06f          	j	1260 <_ZL5inputR14command_buffer+0x20>
    1558:	02c12083          	lw	ra,44(sp)
    155c:	02812403          	lw	s0,40(sp)
    1560:	03010113          	add	sp,sp,48
    1564:	00008067          	ret

00001568 <_ZL13strings_equalPKcS0_>:
    1568:	fe010113          	add	sp,sp,-32
    156c:	00812e23          	sw	s0,28(sp)
    1570:	02010413          	add	s0,sp,32
    1574:	fea42623          	sw	a0,-20(s0)
    1578:	feb42423          	sw	a1,-24(s0)
    157c:	fec42783          	lw	a5,-20(s0)
    1580:	0007c703          	lbu	a4,0(a5)
    1584:	fe842783          	lw	a5,-24(s0)
    1588:	0007c783          	lbu	a5,0(a5)
    158c:	00f70663          	beq	a4,a5,1598 <_ZL13strings_equalPKcS0_+0x30>
    1590:	00000793          	li	a5,0
    1594:	0400006f          	j	15d4 <_ZL13strings_equalPKcS0_+0x6c>
    1598:	fec42783          	lw	a5,-20(s0)
    159c:	0007c783          	lbu	a5,0(a5)
    15a0:	00079c63          	bnez	a5,15b8 <_ZL13strings_equalPKcS0_+0x50>
    15a4:	fe842783          	lw	a5,-24(s0)
    15a8:	0007c783          	lbu	a5,0(a5)
    15ac:	00079663          	bnez	a5,15b8 <_ZL13strings_equalPKcS0_+0x50>
    15b0:	00100793          	li	a5,1
    15b4:	0200006f          	j	15d4 <_ZL13strings_equalPKcS0_+0x6c>
    15b8:	fec42783          	lw	a5,-20(s0)
    15bc:	00178793          	add	a5,a5,1
    15c0:	fef42623          	sw	a5,-20(s0)
    15c4:	fe842783          	lw	a5,-24(s0)
    15c8:	00178793          	add	a5,a5,1
    15cc:	fef42423          	sw	a5,-24(s0)
    15d0:	fadff06f          	j	157c <_ZL13strings_equalPKcS0_+0x14>
    15d4:	00078513          	mv	a0,a5
    15d8:	01c12403          	lw	s0,28(sp)
    15dc:	02010113          	add	sp,sp,32
    15e0:	00008067          	ret

000015e4 <_ZL11string_copyPKcjPc>:
    15e4:	fe010113          	add	sp,sp,-32
    15e8:	00812e23          	sw	s0,28(sp)
    15ec:	02010413          	add	s0,sp,32
    15f0:	fea42623          	sw	a0,-20(s0)
    15f4:	feb42423          	sw	a1,-24(s0)
    15f8:	fec42223          	sw	a2,-28(s0)
    15fc:	0240006f          	j	1620 <_ZL11string_copyPKcjPc+0x3c>
    1600:	fec42783          	lw	a5,-20(s0)
    1604:	00178713          	add	a4,a5,1
    1608:	fee42623          	sw	a4,-20(s0)
    160c:	0007c703          	lbu	a4,0(a5)
    1610:	fe442783          	lw	a5,-28(s0)
    1614:	00178693          	add	a3,a5,1
    1618:	fed42223          	sw	a3,-28(s0)
    161c:	00e78023          	sb	a4,0(a5)
    1620:	fe842783          	lw	a5,-24(s0)
    1624:	fff78713          	add	a4,a5,-1
    1628:	fee42423          	sw	a4,-24(s0)
    162c:	00f037b3          	snez	a5,a5
    1630:	0ff7f793          	zext.b	a5,a5
    1634:	fc0796e3          	bnez	a5,1600 <_ZL11string_copyPKcjPc+0x1c>
    1638:	00000013          	nop
    163c:	00000013          	nop
    1640:	01c12403          	lw	s0,28(sp)
    1644:	02010113          	add	sp,sp,32
    1648:	00008067          	ret

0000164c <_ZL18uart_send_hex_bytec>:
    164c:	fe010113          	add	sp,sp,-32
    1650:	00112e23          	sw	ra,28(sp)
    1654:	00812c23          	sw	s0,24(sp)
    1658:	02010413          	add	s0,sp,32
    165c:	00050793          	mv	a5,a0
    1660:	fef407a3          	sb	a5,-17(s0)
    1664:	fef44783          	lbu	a5,-17(s0)
    1668:	0047d793          	srl	a5,a5,0x4
    166c:	0ff7f793          	zext.b	a5,a5
    1670:	00078513          	mv	a0,a5
    1674:	00000097          	auipc	ra,0x0
    1678:	034080e7          	jalr	52(ra) # 16a8 <_ZL20uart_send_hex_nibblec>
    167c:	fef44783          	lbu	a5,-17(s0)
    1680:	00f7f793          	and	a5,a5,15
    1684:	0ff7f793          	zext.b	a5,a5
    1688:	00078513          	mv	a0,a5
    168c:	00000097          	auipc	ra,0x0
    1690:	01c080e7          	jalr	28(ra) # 16a8 <_ZL20uart_send_hex_nibblec>
    1694:	00000013          	nop
    1698:	01c12083          	lw	ra,28(sp)
    169c:	01812403          	lw	s0,24(sp)
    16a0:	02010113          	add	sp,sp,32
    16a4:	00008067          	ret

000016a8 <_ZL20uart_send_hex_nibblec>:
    16a8:	fe010113          	add	sp,sp,-32
    16ac:	00112e23          	sw	ra,28(sp)
    16b0:	00812c23          	sw	s0,24(sp)
    16b4:	02010413          	add	s0,sp,32
    16b8:	00050793          	mv	a5,a0
    16bc:	fef407a3          	sb	a5,-17(s0)
    16c0:	fef44703          	lbu	a4,-17(s0)
    16c4:	00900793          	li	a5,9
    16c8:	02e7e063          	bltu	a5,a4,16e8 <_ZL20uart_send_hex_nibblec+0x40>
    16cc:	fef44783          	lbu	a5,-17(s0)
    16d0:	03078793          	add	a5,a5,48
    16d4:	0ff7f793          	zext.b	a5,a5
    16d8:	00078513          	mv	a0,a5
    16dc:	00000097          	auipc	ra,0x0
    16e0:	128080e7          	jalr	296(ra) # 1804 <_ZL14uart_send_charc>
    16e4:	01c0006f          	j	1700 <_ZL20uart_send_hex_nibblec+0x58>
    16e8:	fef44783          	lbu	a5,-17(s0)
    16ec:	03778793          	add	a5,a5,55
    16f0:	0ff7f793          	zext.b	a5,a5
    16f4:	00078513          	mv	a0,a5
    16f8:	00000097          	auipc	ra,0x0
    16fc:	10c080e7          	jalr	268(ra) # 1804 <_ZL14uart_send_charc>
    1700:	00000013          	nop
    1704:	01c12083          	lw	ra,28(sp)
    1708:	01812403          	lw	s0,24(sp)
    170c:	02010113          	add	sp,sp,32
    1710:	00008067          	ret

00001714 <_ZL19uart_send_move_backj>:
    1714:	fd010113          	add	sp,sp,-48
    1718:	02112623          	sw	ra,44(sp)
    171c:	02812423          	sw	s0,40(sp)
    1720:	03010413          	add	s0,sp,48
    1724:	fca42e23          	sw	a0,-36(s0)
    1728:	fe042623          	sw	zero,-20(s0)
    172c:	01c0006f          	j	1748 <_ZL19uart_send_move_backj+0x34>
    1730:	00800513          	li	a0,8
    1734:	00000097          	auipc	ra,0x0
    1738:	0d0080e7          	jalr	208(ra) # 1804 <_ZL14uart_send_charc>
    173c:	fec42783          	lw	a5,-20(s0)
    1740:	00178793          	add	a5,a5,1
    1744:	fef42623          	sw	a5,-20(s0)
    1748:	fec42703          	lw	a4,-20(s0)
    174c:	fdc42783          	lw	a5,-36(s0)
    1750:	fef760e3          	bltu	a4,a5,1730 <_ZL19uart_send_move_backj+0x1c>
    1754:	00000013          	nop
    1758:	00000013          	nop
    175c:	02c12083          	lw	ra,44(sp)
    1760:	02812403          	lw	s0,40(sp)
    1764:	03010113          	add	sp,sp,48
    1768:	00008067          	ret

0000176c <_ZL7led_seth>:
# static auto led_set(uint8_t bits) -> void { *LED = bits; }
    176c:	fe010113          	add	sp,sp,-32
    1770:	00812e23          	sw	s0,28(sp)
    1774:	02010413          	add	s0,sp,32
    1778:	00050793          	mv	a5,a0
    177c:	fef407a3          	sb	a5,-17(s0)
    1780:	fff00793          	li	a5,-1
    1784:	fef44703          	lbu	a4,-17(s0)
    1788:	00e78023          	sb	a4,0(a5)
    178c:	00000013          	nop
    1790:	01c12403          	lw	s0,28(sp)
    1794:	02010113          	add	sp,sp,32
    1798:	00008067          	ret

0000179c <_ZL13uart_send_strPKc>:
# static auto uart_send_str(char const *str) -> void {
    179c:	fe010113          	add	sp,sp,-32
    17a0:	00812e23          	sw	s0,28(sp)
    17a4:	02010413          	add	s0,sp,32
    17a8:	fea42623          	sw	a0,-20(s0)
#   while (*str) {
    17ac:	0380006f          	j	17e4 <_ZL13uart_send_strPKc+0x48>
#     while (*UART_OUT)
    17b0:	00000013          	nop
    17b4:	ffe00793          	li	a5,-2
    17b8:	0007c783          	lbu	a5,0(a5)
    17bc:	0ff7f793          	zext.b	a5,a5
    17c0:	00f037b3          	snez	a5,a5
    17c4:	0ff7f793          	zext.b	a5,a5
    17c8:	fe0796e3          	bnez	a5,17b4 <_ZL13uart_send_strPKc+0x18>
#     *UART_OUT = *str++;
    17cc:	fec42783          	lw	a5,-20(s0)
    17d0:	00178713          	add	a4,a5,1
    17d4:	fee42623          	sw	a4,-20(s0)
    17d8:	ffe00713          	li	a4,-2
    17dc:	0007c783          	lbu	a5,0(a5)
    17e0:	00f70023          	sb	a5,0(a4)
#   while (*str) {
    17e4:	fec42783          	lw	a5,-20(s0)
    17e8:	0007c783          	lbu	a5,0(a5)
    17ec:	fc0792e3          	bnez	a5,17b0 <_ZL13uart_send_strPKc+0x14>
# }
    17f0:	00000013          	nop
    17f4:	00000013          	nop
    17f8:	01c12403          	lw	s0,28(sp)
    17fc:	02010113          	add	sp,sp,32
    1800:	00008067          	ret

00001804 <_ZL14uart_send_charc>:
# static auto uart_send_char(char const ch) -> void {
    1804:	fe010113          	add	sp,sp,-32
    1808:	00812e23          	sw	s0,28(sp)
    180c:	02010413          	add	s0,sp,32
    1810:	00050793          	mv	a5,a0
    1814:	fef407a3          	sb	a5,-17(s0)
#   while (*UART_OUT)
    1818:	00000013          	nop
    181c:	ffe00793          	li	a5,-2
    1820:	0007c783          	lbu	a5,0(a5)
    1824:	0ff7f793          	zext.b	a5,a5
    1828:	00f037b3          	snez	a5,a5
    182c:	0ff7f793          	zext.b	a5,a5
    1830:	fe0796e3          	bnez	a5,181c <_ZL14uart_send_charc+0x18>
#   *UART_OUT = ch;
    1834:	ffe00793          	li	a5,-2
    1838:	fef44703          	lbu	a4,-17(s0)
    183c:	00e78023          	sb	a4,0(a5)
# }
    1840:	00000013          	nop
    1844:	01c12403          	lw	s0,28(sp)
    1848:	02010113          	add	sp,sp,32
    184c:	00008067          	ret

00001850 <_ZL14uart_read_charv>:
# static auto uart_read_char() -> char {
    1850:	fe010113          	add	sp,sp,-32
    1854:	00812e23          	sw	s0,28(sp)
    1858:	02010413          	add	s0,sp,32
#   while ((ch = *UART_IN) == 0)
    185c:	00000013          	nop
    1860:	ffd00793          	li	a5,-3
    1864:	0007c783          	lbu	a5,0(a5)
    1868:	fef407a3          	sb	a5,-17(s0)
    186c:	fef44783          	lbu	a5,-17(s0)
    1870:	0017b793          	seqz	a5,a5
    1874:	0ff7f793          	zext.b	a5,a5
    1878:	fe0794e3          	bnez	a5,1860 <_ZL14uart_read_charv+0x10>
#   return ch;
    187c:	fef44783          	lbu	a5,-17(s0)
# }
    1880:	00078513          	mv	a0,a5
    1884:	01c12403          	lw	s0,28(sp)
    1888:	02010113          	add	sp,sp,32
    188c:	00008067          	ret

00001890 <_ZL15action_mem_testv>:
# static auto action_mem_test() -> void {
    1890:	fe010113          	add	sp,sp,-32
    1894:	00112e23          	sw	ra,28(sp)
    1898:	00812c23          	sw	s0,24(sp)
    189c:	02010413          	add	s0,sp,32
#   uart_send_str("testing memory (write)\r\n");
    18a0:	000037b7          	lui	a5,0x3
    18a4:	c7078513          	add	a0,a5,-912 # 2c70 <_ZNK4listIhLi8EE2atEj+0x65c>
    18a8:	00000097          	auipc	ra,0x0
    18ac:	ef4080e7          	jalr	-268(ra) # 179c <_ZL13uart_send_strPKc>
#   char *ptr = reinterpret_cast<char *>(0x10000);
    18b0:	000107b7          	lui	a5,0x10
    18b4:	fef42623          	sw	a5,-20(s0)
#   char const *end = reinterpret_cast<char *>(MEMORY_TOP - 1024);
    18b8:	002007b7          	lui	a5,0x200
    18bc:	c0078793          	add	a5,a5,-1024 # 1ffc00 <__bss_end+0x1fc150>
    18c0:	fef42223          	sw	a5,-28(s0)
#   char ch = 0;
    18c4:	fe0405a3          	sb	zero,-21(s0)
#   while (ptr < end) {
    18c8:	0200006f          	j	18e8 <_ZL15action_mem_testv+0x58>
#     *ptr++ = ch++;
    18cc:	feb44703          	lbu	a4,-21(s0)
    18d0:	00170793          	add	a5,a4,1
    18d4:	fef405a3          	sb	a5,-21(s0)
    18d8:	fec42783          	lw	a5,-20(s0)
    18dc:	00178693          	add	a3,a5,1
    18e0:	fed42623          	sw	a3,-20(s0)
    18e4:	00e78023          	sb	a4,0(a5)
#   while (ptr < end) {
    18e8:	fec42703          	lw	a4,-20(s0)
    18ec:	fe442783          	lw	a5,-28(s0)
    18f0:	fcf76ee3          	bltu	a4,a5,18cc <_ZL15action_mem_testv+0x3c>
#   uart_send_str("testing memory (read)\r\n");
    18f4:	000037b7          	lui	a5,0x3
    18f8:	c8c78513          	add	a0,a5,-884 # 2c8c <_ZNK4listIhLi8EE2atEj+0x678>
    18fc:	00000097          	auipc	ra,0x0
    1900:	ea0080e7          	jalr	-352(ra) # 179c <_ZL13uart_send_strPKc>
#   ptr = reinterpret_cast<char *>(0x10000);
    1904:	000107b7          	lui	a5,0x10
    1908:	fef42623          	sw	a5,-20(s0)
#   ch = 0;
    190c:	fe0405a3          	sb	zero,-21(s0)
#   while (ptr < end) {
    1910:	0440006f          	j	1954 <_ZL15action_mem_testv+0xc4>
#     if (*ptr++ != ch++) {
    1914:	fec42783          	lw	a5,-20(s0)
    1918:	00178713          	add	a4,a5,1 # 10001 <__bss_end+0xc551>
    191c:	fee42623          	sw	a4,-20(s0)
    1920:	0007c703          	lbu	a4,0(a5)
    1924:	feb44783          	lbu	a5,-21(s0)
    1928:	00178693          	add	a3,a5,1
    192c:	fed405a3          	sb	a3,-21(s0)
    1930:	40f707b3          	sub	a5,a4,a5
    1934:	00f037b3          	snez	a5,a5
    1938:	0ff7f793          	zext.b	a5,a5
    193c:	00078c63          	beqz	a5,1954 <_ZL15action_mem_testv+0xc4>
#       uart_send_str("!!! test memory failed\r\n");
    1940:	000037b7          	lui	a5,0x3
    1944:	ca478513          	add	a0,a5,-860 # 2ca4 <_ZNK4listIhLi8EE2atEj+0x690>
    1948:	00000097          	auipc	ra,0x0
    194c:	e54080e7          	jalr	-428(ra) # 179c <_ZL13uart_send_strPKc>
#       return;
    1950:	0200006f          	j	1970 <_ZL15action_mem_testv+0xe0>
#   while (ptr < end) {
    1954:	fec42703          	lw	a4,-20(s0)
    1958:	fe442783          	lw	a5,-28(s0)
    195c:	faf76ce3          	bltu	a4,a5,1914 <_ZL15action_mem_testv+0x84>
#   uart_send_str("testing memory succeeded\r\n");
    1960:	000037b7          	lui	a5,0x3
    1964:	cc078513          	add	a0,a5,-832 # 2cc0 <_ZNK4listIhLi8EE2atEj+0x6ac>
    1968:	00000097          	auipc	ra,0x0
    196c:	e34080e7          	jalr	-460(ra) # 179c <_ZL13uart_send_strPKc>
# }
    1970:	01c12083          	lw	ra,28(sp)
    1974:	01812403          	lw	s0,24(sp)
    1978:	02010113          	add	sp,sp,32
    197c:	00008067          	ret

00001980 <memset>:
# extern "C" auto memset(void *str, int ch, int n) -> void * {
    1980:	fd010113          	add	sp,sp,-48
    1984:	02812623          	sw	s0,44(sp)
    1988:	03010413          	add	s0,sp,48
    198c:	fca42e23          	sw	a0,-36(s0)
    1990:	fcb42c23          	sw	a1,-40(s0)
    1994:	fcc42a23          	sw	a2,-44(s0)
#   char *ptr = reinterpret_cast<char *>(str);
    1998:	fdc42783          	lw	a5,-36(s0)
    199c:	fef42623          	sw	a5,-20(s0)
#   while (n--) {
    19a0:	01c0006f          	j	19bc <memset+0x3c>
#     *ptr++ = char(ch);
    19a4:	fd842783          	lw	a5,-40(s0)
    19a8:	0ff7f713          	zext.b	a4,a5
    19ac:	fec42783          	lw	a5,-20(s0)
    19b0:	00178693          	add	a3,a5,1
    19b4:	fed42623          	sw	a3,-20(s0)
    19b8:	00e78023          	sb	a4,0(a5)
#   while (n--) {
    19bc:	fd442783          	lw	a5,-44(s0)
    19c0:	fff78713          	add	a4,a5,-1
    19c4:	fce42a23          	sw	a4,-44(s0)
    19c8:	00f037b3          	snez	a5,a5
    19cc:	0ff7f793          	zext.b	a5,a5
    19d0:	fc079ae3          	bnez	a5,19a4 <memset+0x24>
#   return str;
    19d4:	fdc42783          	lw	a5,-36(s0)
# }
    19d8:	00078513          	mv	a0,a5
    19dc:	02c12403          	lw	s0,44(sp)
    19e0:	03010113          	add	sp,sp,48
    19e4:	00008067          	ret

000019e8 <_ZL12initiate_bssv>:
# static auto initiate_bss() -> void {
    19e8:	ff010113          	add	sp,sp,-16
    19ec:	00112623          	sw	ra,12(sp)
    19f0:	00812423          	sw	s0,8(sp)
    19f4:	01010413          	add	s0,sp,16
#   memset(&__bss_start, 0, &__bss_end - &__bss_start);
    19f8:	000047b7          	lui	a5,0x4
    19fc:	ab078713          	add	a4,a5,-1360 # 3ab0 <__bss_end>
    1a00:	000047b7          	lui	a5,0x4
    1a04:	aa878793          	add	a5,a5,-1368 # 3aa8 <_ZL21input_escape_sequence>
    1a08:	40f707b3          	sub	a5,a4,a5
    1a0c:	00078613          	mv	a2,a5
    1a10:	00000593          	li	a1,0
    1a14:	000047b7          	lui	a5,0x4
    1a18:	aa878513          	add	a0,a5,-1368 # 3aa8 <_ZL21input_escape_sequence>
    1a1c:	00000097          	auipc	ra,0x0
    1a20:	f64080e7          	jalr	-156(ra) # 1980 <memset>
# }
    1a24:	00000013          	nop
    1a28:	00c12083          	lw	ra,12(sp)
    1a2c:	00812403          	lw	s0,8(sp)
    1a30:	01010113          	add	sp,sp,16
    1a34:	00008067          	ret

00001a38 <_ZL16initiate_staticsv>:
# static auto initiate_statics() -> void {}
    1a38:	ff010113          	add	sp,sp,-16
    1a3c:	00812623          	sw	s0,12(sp)
    1a40:	01010413          	add	s0,sp,16
    1a44:	00000013          	nop
    1a48:	00c12403          	lw	s0,12(sp)
    1a4c:	01010113          	add	sp,sp,16
    1a50:	00008067          	ret

00001a54 <_ZL4exiti>:
    1a54:	fe010113          	add	sp,sp,-32
    1a58:	00812e23          	sw	s0,28(sp)
    1a5c:	02010413          	add	s0,sp,32
    1a60:	fea42623          	sw	a0,-20(s0)
    1a64:	00000013          	nop
    1a68:	01c12403          	lw	s0,28(sp)
    1a6c:	02010113          	add	sp,sp,32
    1a70:	00008067          	ret

00001a74 <_ZNK4listIhLi128EE20for_each_until_falseIZL14print_locationhhEUlhE_EEvT_>:
#   }
# 
#   auto length() const -> size_t { return len; }
# 
#   template <typename Function>
#   auto for_each_until_false(Function f) const -> void {
    1a74:	fd010113          	add	sp,sp,-48
    1a78:	02112623          	sw	ra,44(sp)
    1a7c:	02812423          	sw	s0,40(sp)
    1a80:	03010413          	add	s0,sp,48
    1a84:	fca42e23          	sw	a0,-36(s0)
    1a88:	fcb42c23          	sw	a1,-40(s0)
#     for (size_t i = 0; i < len; ++i) {
    1a8c:	fe042623          	sw	zero,-20(s0)
    1a90:	0440006f          	j	1ad4 <_ZNK4listIhLi128EE20for_each_until_falseIZL14print_locationhhEUlhE_EEvT_+0x60>
#       if (!f(data[i])) {
    1a94:	fdc42703          	lw	a4,-36(s0)
    1a98:	fec42783          	lw	a5,-20(s0)
    1a9c:	00f707b3          	add	a5,a4,a5
    1aa0:	0007c703          	lbu	a4,0(a5)
    1aa4:	fd840793          	add	a5,s0,-40
    1aa8:	00070593          	mv	a1,a4
    1aac:	00078513          	mv	a0,a5
    1ab0:	fffff097          	auipc	ra,0xfffff
    1ab4:	a4c080e7          	jalr	-1460(ra) # 4fc <_ZZL14print_locationhhENKUlhE_clEh>
    1ab8:	00050793          	mv	a5,a0
    1abc:	0017c793          	xor	a5,a5,1
    1ac0:	0ff7f793          	zext.b	a5,a5
    1ac4:	02079263          	bnez	a5,1ae8 <_ZNK4listIhLi128EE20for_each_until_falseIZL14print_locationhhEUlhE_EEvT_+0x74>
#     for (size_t i = 0; i < len; ++i) {
    1ac8:	fec42783          	lw	a5,-20(s0)
    1acc:	00178793          	add	a5,a5,1
    1ad0:	fef42623          	sw	a5,-20(s0)
    1ad4:	fdc42783          	lw	a5,-36(s0)
    1ad8:	0807a783          	lw	a5,128(a5)
    1adc:	fec42703          	lw	a4,-20(s0)
    1ae0:	faf76ae3          	bltu	a4,a5,1a94 <_ZNK4listIhLi128EE20for_each_until_falseIZL14print_locationhhEUlhE_EEvT_+0x20>
    1ae4:	0080006f          	j	1aec <_ZNK4listIhLi128EE20for_each_until_falseIZL14print_locationhhEUlhE_EEvT_+0x78>
#         return;
    1ae8:	00000013          	nop
#       }
#     }
#   }
    1aec:	02c12083          	lw	ra,44(sp)
    1af0:	02812403          	lw	s0,40(sp)
    1af4:	03010113          	add	sp,sp,48
    1af8:	00008067          	ret

00001afc <_ZNK4listIhLi8EE20for_each_until_falseIZL14print_locationhhEUlhE0_EEvT_>:
#   auto for_each_until_false(Function f) const -> void {
    1afc:	fd010113          	add	sp,sp,-48
    1b00:	02112623          	sw	ra,44(sp)
    1b04:	02812423          	sw	s0,40(sp)
    1b08:	03010413          	add	s0,sp,48
    1b0c:	fca42e23          	sw	a0,-36(s0)
    1b10:	fcb42a23          	sw	a1,-44(s0)
    1b14:	fcc42c23          	sw	a2,-40(s0)
#     for (size_t i = 0; i < len; ++i) {
    1b18:	fe042623          	sw	zero,-20(s0)
    1b1c:	0440006f          	j	1b60 <_ZNK4listIhLi8EE20for_each_until_falseIZL14print_locationhhEUlhE0_EEvT_+0x64>
#       if (!f(data[i])) {
    1b20:	fdc42703          	lw	a4,-36(s0)
    1b24:	fec42783          	lw	a5,-20(s0)
    1b28:	00f707b3          	add	a5,a4,a5
    1b2c:	0007c703          	lbu	a4,0(a5)
    1b30:	fd440793          	add	a5,s0,-44
    1b34:	00070593          	mv	a1,a4
    1b38:	00078513          	mv	a0,a5
    1b3c:	fffff097          	auipc	ra,0xfffff
    1b40:	a48080e7          	jalr	-1464(ra) # 584 <_ZZL14print_locationhhENKUlhE0_clEh>
    1b44:	00050793          	mv	a5,a0
    1b48:	0017c793          	xor	a5,a5,1
    1b4c:	0ff7f793          	zext.b	a5,a5
    1b50:	02079263          	bnez	a5,1b74 <_ZNK4listIhLi8EE20for_each_until_falseIZL14print_locationhhEUlhE0_EEvT_+0x78>
#     for (size_t i = 0; i < len; ++i) {
    1b54:	fec42783          	lw	a5,-20(s0)
    1b58:	00178793          	add	a5,a5,1
    1b5c:	fef42623          	sw	a5,-20(s0)
    1b60:	fdc42783          	lw	a5,-36(s0)
    1b64:	0087a783          	lw	a5,8(a5)
    1b68:	fec42703          	lw	a4,-20(s0)
    1b6c:	faf76ae3          	bltu	a4,a5,1b20 <_ZNK4listIhLi8EE20for_each_until_falseIZL14print_locationhhEUlhE0_EEvT_+0x24>
    1b70:	0080006f          	j	1b78 <_ZNK4listIhLi8EE20for_each_until_falseIZL14print_locationhhEUlhE0_EEvT_+0x7c>
#         return;
    1b74:	00000013          	nop
#   }
    1b78:	02c12083          	lw	ra,44(sp)
    1b7c:	02812403          	lw	s0,40(sp)
    1b80:	03010113          	add	sp,sp,48
    1b84:	00008067          	ret

00001b88 <_ZNK4listIhLi32EE20for_each_until_falseIZL16action_inventoryhEUlhE_EEvT_>:
#   auto for_each_until_false(Function f) const -> void {
    1b88:	fd010113          	add	sp,sp,-48
    1b8c:	02112623          	sw	ra,44(sp)
    1b90:	02812423          	sw	s0,40(sp)
    1b94:	03010413          	add	s0,sp,48
    1b98:	fca42e23          	sw	a0,-36(s0)
    1b9c:	fcb42c23          	sw	a1,-40(s0)
#     for (size_t i = 0; i < len; ++i) {
    1ba0:	fe042623          	sw	zero,-20(s0)
    1ba4:	0440006f          	j	1be8 <_ZNK4listIhLi32EE20for_each_until_falseIZL16action_inventoryhEUlhE_EEvT_+0x60>
#       if (!f(data[i])) {
    1ba8:	fdc42703          	lw	a4,-36(s0)
    1bac:	fec42783          	lw	a5,-20(s0)
    1bb0:	00f707b3          	add	a5,a4,a5
    1bb4:	0007c703          	lbu	a4,0(a5)
    1bb8:	fd840793          	add	a5,s0,-40
    1bbc:	00070593          	mv	a1,a4
    1bc0:	00078513          	mv	a0,a5
    1bc4:	fffff097          	auipc	ra,0xfffff
    1bc8:	c84080e7          	jalr	-892(ra) # 848 <_ZZL16action_inventoryhENKUlhE_clEh>
    1bcc:	00050793          	mv	a5,a0
    1bd0:	0017c793          	xor	a5,a5,1
    1bd4:	0ff7f793          	zext.b	a5,a5
    1bd8:	02079263          	bnez	a5,1bfc <_ZNK4listIhLi32EE20for_each_until_falseIZL16action_inventoryhEUlhE_EEvT_+0x74>
#     for (size_t i = 0; i < len; ++i) {
    1bdc:	fec42783          	lw	a5,-20(s0)
    1be0:	00178793          	add	a5,a5,1
    1be4:	fef42623          	sw	a5,-20(s0)
    1be8:	fdc42783          	lw	a5,-36(s0)
    1bec:	0207a783          	lw	a5,32(a5)
    1bf0:	fec42703          	lw	a4,-20(s0)
    1bf4:	faf76ae3          	bltu	a4,a5,1ba8 <_ZNK4listIhLi32EE20for_each_until_falseIZL16action_inventoryhEUlhE_EEvT_+0x20>
    1bf8:	0080006f          	j	1c00 <_ZNK4listIhLi32EE20for_each_until_falseIZL16action_inventoryhEUlhE_EEvT_+0x78>
#         return;
    1bfc:	00000013          	nop
#   }
    1c00:	02c12083          	lw	ra,44(sp)
    1c04:	02812403          	lw	s0,40(sp)
    1c08:	03010113          	add	sp,sp,48
    1c0c:	00008067          	ret

00001c10 <_ZN14command_buffer6insertEc>:
#   char ch;
    1c10:	fd010113          	add	sp,sp,-48
    1c14:	02812623          	sw	s0,44(sp)
    1c18:	03010413          	add	s0,sp,48
    1c1c:	fca42e23          	sw	a0,-36(s0)
    1c20:	00058793          	mv	a5,a1
    1c24:	fcf40da3          	sb	a5,-37(s0)
#   while ((ch = *UART_IN) == 0)
    1c28:	fdc42783          	lw	a5,-36(s0)
    1c2c:	0517c703          	lbu	a4,81(a5)
    1c30:	04f00793          	li	a5,79
    1c34:	00f71663          	bne	a4,a5,1c40 <_ZN14command_buffer6insertEc+0x30>
#     ;
    1c38:	00000793          	li	a5,0
    1c3c:	1100006f          	j	1d4c <_ZN14command_buffer6insertEc+0x13c>
# 
    1c40:	fdc42783          	lw	a5,-36(s0)
    1c44:	0507c703          	lbu	a4,80(a5)
    1c48:	fdc42783          	lw	a5,-36(s0)
    1c4c:	0517c783          	lbu	a5,81(a5)
    1c50:	04f71c63          	bne	a4,a5,1ca8 <_ZN14command_buffer6insertEc+0x98>
# // simple test of FPGA memory
    1c54:	fdc42783          	lw	a5,-36(s0)
    1c58:	0507c783          	lbu	a5,80(a5)
    1c5c:	00078713          	mv	a4,a5
    1c60:	fdc42783          	lw	a5,-36(s0)
    1c64:	00e787b3          	add	a5,a5,a4
    1c68:	fdb44703          	lbu	a4,-37(s0)
    1c6c:	00e78023          	sb	a4,0(a5)
# static auto action_mem_test() -> void {
    1c70:	fdc42783          	lw	a5,-36(s0)
    1c74:	0507c783          	lbu	a5,80(a5)
    1c78:	00178793          	add	a5,a5,1
    1c7c:	0ff7f713          	zext.b	a4,a5
    1c80:	fdc42783          	lw	a5,-36(s0)
    1c84:	04e78823          	sb	a4,80(a5)
#   uart_send_str("testing memory (write)\r\n");
    1c88:	fdc42783          	lw	a5,-36(s0)
    1c8c:	0517c783          	lbu	a5,81(a5)
    1c90:	00178793          	add	a5,a5,1
    1c94:	0ff7f713          	zext.b	a4,a5
    1c98:	fdc42783          	lw	a5,-36(s0)
    1c9c:	04e788a3          	sb	a4,81(a5)
#   char *ptr = reinterpret_cast<char *>(0x10000);
    1ca0:	00100793          	li	a5,1
    1ca4:	0a80006f          	j	1d4c <_ZN14command_buffer6insertEc+0x13c>
#   // ?? don't forget about this when the application grows
    1ca8:	fdc42783          	lw	a5,-36(s0)
    1cac:	0517c783          	lbu	a5,81(a5)
    1cb0:	00178793          	add	a5,a5,1
    1cb4:	0ff7f713          	zext.b	a4,a5
    1cb8:	fdc42783          	lw	a5,-36(s0)
    1cbc:	04e788a3          	sb	a4,81(a5)
#   char ch = 0;
    1cc0:	fdc42783          	lw	a5,-36(s0)
    1cc4:	0517c783          	lbu	a5,81(a5)
    1cc8:	fef42623          	sw	a5,-20(s0)
    1ccc:	0340006f          	j	1d00 <_ZN14command_buffer6insertEc+0xf0>
#   while (ptr < end) {
    1cd0:	fec42783          	lw	a5,-20(s0)
    1cd4:	fff78793          	add	a5,a5,-1
    1cd8:	fdc42703          	lw	a4,-36(s0)
    1cdc:	00f707b3          	add	a5,a4,a5
    1ce0:	0007c703          	lbu	a4,0(a5)
    1ce4:	fdc42683          	lw	a3,-36(s0)
    1ce8:	fec42783          	lw	a5,-20(s0)
    1cec:	00f687b3          	add	a5,a3,a5
    1cf0:	00e78023          	sb	a4,0(a5)
#   char ch = 0;
    1cf4:	fec42783          	lw	a5,-20(s0)
    1cf8:	fff78793          	add	a5,a5,-1
    1cfc:	fef42623          	sw	a5,-20(s0)
    1d00:	fdc42783          	lw	a5,-36(s0)
    1d04:	0507c783          	lbu	a5,80(a5)
    1d08:	00078713          	mv	a4,a5
    1d0c:	fec42783          	lw	a5,-20(s0)
    1d10:	fcf760e3          	bltu	a4,a5,1cd0 <_ZN14command_buffer6insertEc+0xc0>
#   }
    1d14:	fdc42783          	lw	a5,-36(s0)
    1d18:	0507c783          	lbu	a5,80(a5)
    1d1c:	00078713          	mv	a4,a5
    1d20:	fdc42783          	lw	a5,-36(s0)
    1d24:	00e787b3          	add	a5,a5,a4
    1d28:	fdb44703          	lbu	a4,-37(s0)
    1d2c:	00e78023          	sb	a4,0(a5)
#   uart_send_str("testing memory (read)\r\n");
    1d30:	fdc42783          	lw	a5,-36(s0)
    1d34:	0507c783          	lbu	a5,80(a5)
    1d38:	00178793          	add	a5,a5,1
    1d3c:	0ff7f713          	zext.b	a4,a5
    1d40:	fdc42783          	lw	a5,-36(s0)
    1d44:	04e78823          	sb	a4,80(a5)
#   ptr = reinterpret_cast<char *>(0x10000);
    1d48:	00100793          	li	a5,1
#   ch = 0;
    1d4c:	00078513          	mv	a0,a5
    1d50:	02c12403          	lw	s0,44(sp)
    1d54:	03010113          	add	sp,sp,48
    1d58:	00008067          	ret

00001d5c <_ZN14command_buffer9backspaceEv>:
#     if (*ptr++ != ch++) {
    1d5c:	fd010113          	add	sp,sp,-48
    1d60:	02812623          	sw	s0,44(sp)
    1d64:	03010413          	add	s0,sp,48
    1d68:	fca42e23          	sw	a0,-36(s0)
#       uart_send_str("!!! test memory failed\r\n");
    1d6c:	fdc42783          	lw	a5,-36(s0)
    1d70:	0507c783          	lbu	a5,80(a5)
    1d74:	00079663          	bnez	a5,1d80 <_ZN14command_buffer9backspaceEv+0x24>
#       return;
    1d78:	00000793          	li	a5,0
    1d7c:	0dc0006f          	j	1e58 <_ZN14command_buffer9backspaceEv+0xfc>
#   uart_send_str("testing memory succeeded\r\n");
    1d80:	fdc42783          	lw	a5,-36(s0)
    1d84:	0507c703          	lbu	a4,80(a5)
    1d88:	fdc42783          	lw	a5,-36(s0)
    1d8c:	0517c783          	lbu	a5,81(a5)
    1d90:	02f71e63          	bne	a4,a5,1dcc <_ZN14command_buffer9backspaceEv+0x70>
# }
    1d94:	fdc42783          	lw	a5,-36(s0)
    1d98:	0517c783          	lbu	a5,81(a5)
    1d9c:	fff78793          	add	a5,a5,-1
    1da0:	0ff7f713          	zext.b	a4,a5
    1da4:	fdc42783          	lw	a5,-36(s0)
    1da8:	04e788a3          	sb	a4,81(a5)
# 
    1dac:	fdc42783          	lw	a5,-36(s0)
    1db0:	0507c783          	lbu	a5,80(a5)
    1db4:	fff78793          	add	a5,a5,-1
    1db8:	0ff7f713          	zext.b	a4,a5
    1dbc:	fdc42783          	lw	a5,-36(s0)
    1dc0:	04e78823          	sb	a4,80(a5)
# // built-in function called by compiler
    1dc4:	00100793          	li	a5,1
    1dc8:	0900006f          	j	1e58 <_ZN14command_buffer9backspaceEv+0xfc>
#   while (n--) {
    1dcc:	fdc42783          	lw	a5,-36(s0)
    1dd0:	0507c783          	lbu	a5,80(a5)
    1dd4:	fff78793          	add	a5,a5,-1
    1dd8:	fef42623          	sw	a5,-20(s0)
    1ddc:	0340006f          	j	1e10 <_ZN14command_buffer9backspaceEv+0xb4>
#     *ptr++ = char(ch);
    1de0:	fec42783          	lw	a5,-20(s0)
    1de4:	00178793          	add	a5,a5,1
    1de8:	fdc42703          	lw	a4,-36(s0)
    1dec:	00f707b3          	add	a5,a4,a5
    1df0:	0007c703          	lbu	a4,0(a5)
    1df4:	fdc42683          	lw	a3,-36(s0)
    1df8:	fec42783          	lw	a5,-20(s0)
    1dfc:	00f687b3          	add	a5,a3,a5
    1e00:	00e78023          	sb	a4,0(a5)
#   while (n--) {
    1e04:	fec42783          	lw	a5,-20(s0)
    1e08:	00178793          	add	a5,a5,1
    1e0c:	fef42623          	sw	a5,-20(s0)
    1e10:	fdc42783          	lw	a5,-36(s0)
    1e14:	0517c783          	lbu	a5,81(a5)
    1e18:	00078713          	mv	a4,a5
    1e1c:	fec42783          	lw	a5,-20(s0)
    1e20:	fce7e0e3          	bltu	a5,a4,1de0 <_ZN14command_buffer9backspaceEv+0x84>
#   return str;
    1e24:	fdc42783          	lw	a5,-36(s0)
    1e28:	0507c783          	lbu	a5,80(a5)
    1e2c:	fff78793          	add	a5,a5,-1
    1e30:	0ff7f713          	zext.b	a4,a5
    1e34:	fdc42783          	lw	a5,-36(s0)
    1e38:	04e78823          	sb	a4,80(a5)
# }
    1e3c:	fdc42783          	lw	a5,-36(s0)
    1e40:	0517c783          	lbu	a5,81(a5)
    1e44:	fff78793          	add	a5,a5,-1
    1e48:	0ff7f713          	zext.b	a4,a5
    1e4c:	fdc42783          	lw	a5,-36(s0)
    1e50:	04e788a3          	sb	a4,81(a5)
# 
    1e54:	00100793          	li	a5,1
# // symbols to mark start and end of bss section
    1e58:	00078513          	mv	a0,a5
    1e5c:	02c12403          	lw	s0,44(sp)
    1e60:	03010113          	add	sp,sp,48
    1e64:	00008067          	ret

00001e68 <_ZN14command_buffer3delEv>:
# extern char __bss_end;
    1e68:	fd010113          	add	sp,sp,-48
    1e6c:	02812623          	sw	s0,44(sp)
    1e70:	03010413          	add	s0,sp,48
    1e74:	fca42e23          	sw	a0,-36(s0)
# 
    1e78:	fdc42783          	lw	a5,-36(s0)
    1e7c:	0507c703          	lbu	a4,80(a5)
    1e80:	fdc42783          	lw	a5,-36(s0)
    1e84:	0517c783          	lbu	a5,81(a5)
    1e88:	06f70c63          	beq	a4,a5,1f00 <_ZN14command_buffer3delEv+0x98>
# }
    1e8c:	fdc42783          	lw	a5,-36(s0)
    1e90:	0507c783          	lbu	a5,80(a5)
    1e94:	00178793          	add	a5,a5,1
    1e98:	fef42623          	sw	a5,-20(s0)
    1e9c:	0340006f          	j	1ed0 <_ZN14command_buffer3delEv+0x68>
# 
    1ea0:	fec42783          	lw	a5,-20(s0)
    1ea4:	fff78793          	add	a5,a5,-1
    1ea8:	fdc42683          	lw	a3,-36(s0)
    1eac:	fec42703          	lw	a4,-20(s0)
    1eb0:	00e68733          	add	a4,a3,a4
    1eb4:	00074703          	lbu	a4,0(a4)
    1eb8:	fdc42683          	lw	a3,-36(s0)
    1ebc:	00f687b3          	add	a5,a3,a5
    1ec0:	00e78023          	sb	a4,0(a5)
# }
    1ec4:	fec42783          	lw	a5,-20(s0)
    1ec8:	00178793          	add	a5,a5,1
    1ecc:	fef42623          	sw	a5,-20(s0)
    1ed0:	fdc42783          	lw	a5,-36(s0)
    1ed4:	0517c783          	lbu	a5,81(a5)
    1ed8:	00078713          	mv	a4,a5
    1edc:	fec42783          	lw	a5,-20(s0)
    1ee0:	fce7e0e3          	bltu	a5,a4,1ea0 <_ZN14command_buffer3delEv+0x38>
# 
    1ee4:	fdc42783          	lw	a5,-36(s0)
    1ee8:	0517c783          	lbu	a5,81(a5)
    1eec:	fff78793          	add	a5,a5,-1
    1ef0:	0ff7f713          	zext.b	a4,a5
    1ef4:	fdc42783          	lw	a5,-36(s0)
    1ef8:	04e788a3          	sb	a4,81(a5)
    1efc:	0080006f          	j	1f04 <_ZN14command_buffer3delEv+0x9c>
# // zero bss section
    1f00:	00000013          	nop
    1f04:	02c12403          	lw	s0,44(sp)
    1f08:	03010113          	add	sp,sp,48
    1f0c:	00008067          	ret

00001f10 <_ZN14command_buffer5resetEv>:
    1f10:	fe010113          	add	sp,sp,-32
    1f14:	00812e23          	sw	s0,28(sp)
    1f18:	02010413          	add	s0,sp,32
    1f1c:	fea42623          	sw	a0,-20(s0)
    1f20:	fec42783          	lw	a5,-20(s0)
    1f24:	040788a3          	sb	zero,81(a5)
    1f28:	fec42783          	lw	a5,-20(s0)
    1f2c:	0517c703          	lbu	a4,81(a5)
    1f30:	fec42783          	lw	a5,-20(s0)
    1f34:	04e78823          	sb	a4,80(a5)
    1f38:	00000013          	nop
    1f3c:	01c12403          	lw	s0,28(sp)
    1f40:	02010113          	add	sp,sp,32
    1f44:	00008067          	ret

00001f48 <_ZN14command_buffer7set_eosEv>:
    1f48:	fe010113          	add	sp,sp,-32
    1f4c:	00812e23          	sw	s0,28(sp)
    1f50:	02010413          	add	s0,sp,32
    1f54:	fea42623          	sw	a0,-20(s0)
    1f58:	fec42783          	lw	a5,-20(s0)
    1f5c:	0517c783          	lbu	a5,81(a5)
    1f60:	00078713          	mv	a4,a5
    1f64:	fec42783          	lw	a5,-20(s0)
    1f68:	00e787b3          	add	a5,a5,a4
    1f6c:	00078023          	sb	zero,0(a5)
    1f70:	00000013          	nop
    1f74:	01c12403          	lw	s0,28(sp)
    1f78:	02010113          	add	sp,sp,32
    1f7c:	00008067          	ret

00001f80 <_ZNK14command_buffer7is_fullEv>:
    1f80:	fe010113          	add	sp,sp,-32
    1f84:	00812e23          	sw	s0,28(sp)
    1f88:	02010413          	add	s0,sp,32
    1f8c:	fea42623          	sw	a0,-20(s0)
    1f90:	fec42783          	lw	a5,-20(s0)
    1f94:	0517c783          	lbu	a5,81(a5)
    1f98:	fb178793          	add	a5,a5,-79
    1f9c:	0017b793          	seqz	a5,a5
    1fa0:	0ff7f793          	zext.b	a5,a5
    1fa4:	00078513          	mv	a0,a5
    1fa8:	01c12403          	lw	s0,28(sp)
    1fac:	02010113          	add	sp,sp,32
    1fb0:	00008067          	ret

00001fb4 <_ZN14command_buffer16move_cursor_leftEv>:
    1fb4:	fe010113          	add	sp,sp,-32
    1fb8:	00812e23          	sw	s0,28(sp)
    1fbc:	02010413          	add	s0,sp,32
    1fc0:	fea42623          	sw	a0,-20(s0)
    1fc4:	fec42783          	lw	a5,-20(s0)
    1fc8:	0507c783          	lbu	a5,80(a5)
    1fcc:	00079663          	bnez	a5,1fd8 <_ZN14command_buffer16move_cursor_leftEv+0x24>
    1fd0:	00000793          	li	a5,0
    1fd4:	0200006f          	j	1ff4 <_ZN14command_buffer16move_cursor_leftEv+0x40>
    1fd8:	fec42783          	lw	a5,-20(s0)
    1fdc:	0507c783          	lbu	a5,80(a5)
    1fe0:	fff78793          	add	a5,a5,-1
    1fe4:	0ff7f713          	zext.b	a4,a5
    1fe8:	fec42783          	lw	a5,-20(s0)
    1fec:	04e78823          	sb	a4,80(a5)
    1ff0:	00100793          	li	a5,1
    1ff4:	00078513          	mv	a0,a5
    1ff8:	01c12403          	lw	s0,28(sp)
    1ffc:	02010113          	add	sp,sp,32
    2000:	00008067          	ret

00002004 <_ZN14command_buffer17move_cursor_rightEv>:
    2004:	fe010113          	add	sp,sp,-32
    2008:	00812e23          	sw	s0,28(sp)
    200c:	02010413          	add	s0,sp,32
    2010:	fea42623          	sw	a0,-20(s0)
    2014:	fec42783          	lw	a5,-20(s0)
    2018:	0507c703          	lbu	a4,80(a5)
    201c:	fec42783          	lw	a5,-20(s0)
    2020:	0517c783          	lbu	a5,81(a5)
    2024:	00f71663          	bne	a4,a5,2030 <_ZN14command_buffer17move_cursor_rightEv+0x2c>
    2028:	00000793          	li	a5,0
    202c:	0200006f          	j	204c <_ZN14command_buffer17move_cursor_rightEv+0x48>
    2030:	fec42783          	lw	a5,-20(s0)
    2034:	0507c783          	lbu	a5,80(a5)
    2038:	00178793          	add	a5,a5,1
    203c:	0ff7f713          	zext.b	a4,a5
    2040:	fec42783          	lw	a5,-20(s0)
    2044:	04e78823          	sb	a4,80(a5)
    2048:	00100793          	li	a5,1
    204c:	00078513          	mv	a0,a5
    2050:	01c12403          	lw	s0,28(sp)
    2054:	02010113          	add	sp,sp,32
    2058:	00008067          	ret

0000205c <_ZNK14command_buffer33apply_on_chars_from_cursor_to_endEPFvcE>:
    205c:	fd010113          	add	sp,sp,-48
    2060:	02112623          	sw	ra,44(sp)
    2064:	02812423          	sw	s0,40(sp)
    2068:	03010413          	add	s0,sp,48
    206c:	fca42e23          	sw	a0,-36(s0)
    2070:	fcb42c23          	sw	a1,-40(s0)
    2074:	fdc42783          	lw	a5,-36(s0)
    2078:	0507c783          	lbu	a5,80(a5)
    207c:	fef42623          	sw	a5,-20(s0)
    2080:	02c0006f          	j	20ac <_ZNK14command_buffer33apply_on_chars_from_cursor_to_endEPFvcE+0x50>
    2084:	fd842783          	lw	a5,-40(s0)
    2088:	fdc42683          	lw	a3,-36(s0)
    208c:	fec42703          	lw	a4,-20(s0)
    2090:	00e68733          	add	a4,a3,a4
    2094:	00074703          	lbu	a4,0(a4)
    2098:	00070513          	mv	a0,a4
    209c:	000780e7          	jalr	a5
    20a0:	fec42783          	lw	a5,-20(s0)
    20a4:	00178793          	add	a5,a5,1
    20a8:	fef42623          	sw	a5,-20(s0)
    20ac:	fdc42783          	lw	a5,-36(s0)
    20b0:	0517c783          	lbu	a5,81(a5)
    20b4:	00078713          	mv	a4,a5
    20b8:	fec42783          	lw	a5,-20(s0)
    20bc:	fce7e4e3          	bltu	a5,a4,2084 <_ZNK14command_buffer33apply_on_chars_from_cursor_to_endEPFvcE+0x28>
    20c0:	00000013          	nop
    20c4:	00000013          	nop
    20c8:	02c12083          	lw	ra,44(sp)
    20cc:	02812403          	lw	s0,40(sp)
    20d0:	03010113          	add	sp,sp,48
    20d4:	00008067          	ret

000020d8 <_ZNK14command_buffer23characters_after_cursorEv>:
    20d8:	fe010113          	add	sp,sp,-32
    20dc:	00812e23          	sw	s0,28(sp)
    20e0:	02010413          	add	s0,sp,32
    20e4:	fea42623          	sw	a0,-20(s0)
    20e8:	fec42783          	lw	a5,-20(s0)
    20ec:	0517c783          	lbu	a5,81(a5)
    20f0:	00078713          	mv	a4,a5
    20f4:	fec42783          	lw	a5,-20(s0)
    20f8:	0507c783          	lbu	a5,80(a5)
    20fc:	40f707b3          	sub	a5,a4,a5
    2100:	00078513          	mv	a0,a5
    2104:	01c12403          	lw	s0,28(sp)
    2108:	02010113          	add	sp,sp,32
    210c:	00008067          	ret

00002110 <_ZN14command_buffer12command_lineEv>:
    2110:	fe010113          	add	sp,sp,-32
    2114:	00812e23          	sw	s0,28(sp)
    2118:	02010413          	add	s0,sp,32
    211c:	fea42623          	sw	a0,-20(s0)
    2120:	fec42783          	lw	a5,-20(s0)
    2124:	00078513          	mv	a0,a5
    2128:	01c12403          	lw	s0,28(sp)
    212c:	02010113          	add	sp,sp,32
    2130:	00008067          	ret

00002134 <_ZNK14command_buffer12input_lengthEv>:
    2134:	fe010113          	add	sp,sp,-32
    2138:	00812e23          	sw	s0,28(sp)
    213c:	02010413          	add	s0,sp,32
    2140:	fea42623          	sw	a0,-20(s0)
    2144:	fec42783          	lw	a5,-20(s0)
    2148:	0517c783          	lbu	a5,81(a5)
    214c:	00078513          	mv	a0,a5
    2150:	01c12403          	lw	s0,28(sp)
    2154:	02010113          	add	sp,sp,32
    2158:	00008067          	ret

0000215c <_ZNK4listIhLi6EE6lengthEv>:
    215c:	fe010113          	add	sp,sp,-32
    2160:	00812e23          	sw	s0,28(sp)
    2164:	02010413          	add	s0,sp,32
    2168:	fea42623          	sw	a0,-20(s0)
    216c:	fec42783          	lw	a5,-20(s0)
    2170:	0087a783          	lw	a5,8(a5)
    2174:	00078513          	mv	a0,a5
    2178:	01c12403          	lw	s0,28(sp)
    217c:	02010113          	add	sp,sp,32
    2180:	00008067          	ret

00002184 <_ZNK4listIhLi6EE2atEj>:
    2184:	fe010113          	add	sp,sp,-32
    2188:	00812e23          	sw	s0,28(sp)
    218c:	02010413          	add	s0,sp,32
    2190:	fea42623          	sw	a0,-20(s0)
    2194:	feb42423          	sw	a1,-24(s0)
    2198:	fec42783          	lw	a5,-20(s0)
    219c:	0087a783          	lw	a5,8(a5)
    21a0:	fe842703          	lw	a4,-24(s0)
    21a4:	00f77c63          	bgeu	a4,a5,21bc <_ZNK4listIhLi6EE2atEj+0x38>
    21a8:	fec42703          	lw	a4,-20(s0)
    21ac:	fe842783          	lw	a5,-24(s0)
    21b0:	00f707b3          	add	a5,a4,a5
    21b4:	0007c783          	lbu	a5,0(a5)
    21b8:	0080006f          	j	21c0 <_ZNK4listIhLi6EE2atEj+0x3c>
    21bc:	00000793          	li	a5,0
    21c0:	00078513          	mv	a0,a5
    21c4:	01c12403          	lw	s0,28(sp)
    21c8:	02010113          	add	sp,sp,32
    21cc:	00008067          	ret

000021d0 <_ZNK4listIhLi128EE6lengthEv>:
    21d0:	fe010113          	add	sp,sp,-32
    21d4:	00812e23          	sw	s0,28(sp)
    21d8:	02010413          	add	s0,sp,32
    21dc:	fea42623          	sw	a0,-20(s0)
    21e0:	fec42783          	lw	a5,-20(s0)
    21e4:	0807a783          	lw	a5,128(a5)
    21e8:	00078513          	mv	a0,a5
    21ec:	01c12403          	lw	s0,28(sp)
    21f0:	02010113          	add	sp,sp,32
    21f4:	00008067          	ret

000021f8 <_ZNK4listIhLi128EE2atEj>:
    21f8:	fe010113          	add	sp,sp,-32
    21fc:	00812e23          	sw	s0,28(sp)
    2200:	02010413          	add	s0,sp,32
    2204:	fea42623          	sw	a0,-20(s0)
    2208:	feb42423          	sw	a1,-24(s0)
    220c:	fec42783          	lw	a5,-20(s0)
    2210:	0807a783          	lw	a5,128(a5)
    2214:	fe842703          	lw	a4,-24(s0)
    2218:	00f77c63          	bgeu	a4,a5,2230 <_ZNK4listIhLi128EE2atEj+0x38>
    221c:	fec42703          	lw	a4,-20(s0)
    2220:	fe842783          	lw	a5,-24(s0)
    2224:	00f707b3          	add	a5,a4,a5
    2228:	0007c783          	lbu	a5,0(a5)
    222c:	0080006f          	j	2234 <_ZNK4listIhLi128EE2atEj+0x3c>
    2230:	00000793          	li	a5,0
    2234:	00078513          	mv	a0,a5
    2238:	01c12403          	lw	s0,28(sp)
    223c:	02010113          	add	sp,sp,32
    2240:	00008067          	ret

00002244 <_ZN4listIhLi32EE3addEh>:
    2244:	fe010113          	add	sp,sp,-32
    2248:	00812e23          	sw	s0,28(sp)
    224c:	02010413          	add	s0,sp,32
    2250:	fea42623          	sw	a0,-20(s0)
    2254:	00058793          	mv	a5,a1
    2258:	fef405a3          	sb	a5,-21(s0)
    225c:	fec42783          	lw	a5,-20(s0)
    2260:	0207a703          	lw	a4,32(a5)
    2264:	01f00793          	li	a5,31
    2268:	00f71663          	bne	a4,a5,2274 <_ZN4listIhLi32EE3addEh+0x30>
    226c:	00000793          	li	a5,0
    2270:	0340006f          	j	22a4 <_ZN4listIhLi32EE3addEh+0x60>
    2274:	fec42783          	lw	a5,-20(s0)
    2278:	0207a783          	lw	a5,32(a5)
    227c:	fec42703          	lw	a4,-20(s0)
    2280:	00f707b3          	add	a5,a4,a5
    2284:	feb44703          	lbu	a4,-21(s0)
    2288:	00e78023          	sb	a4,0(a5)
    228c:	fec42783          	lw	a5,-20(s0)
    2290:	0207a783          	lw	a5,32(a5)
    2294:	00178713          	add	a4,a5,1
    2298:	fec42783          	lw	a5,-20(s0)
    229c:	02e7a023          	sw	a4,32(a5)
    22a0:	00100793          	li	a5,1
    22a4:	00078513          	mv	a0,a5
    22a8:	01c12403          	lw	s0,28(sp)
    22ac:	02010113          	add	sp,sp,32
    22b0:	00008067          	ret

000022b4 <_ZN4listIhLi128EE15remove_at_indexEj>:
    22b4:	fd010113          	add	sp,sp,-48
    22b8:	02812623          	sw	s0,44(sp)
    22bc:	03010413          	add	s0,sp,48
    22c0:	fca42e23          	sw	a0,-36(s0)
    22c4:	fcb42c23          	sw	a1,-40(s0)
    22c8:	fdc42783          	lw	a5,-36(s0)
    22cc:	0807a783          	lw	a5,128(a5)
    22d0:	fff78713          	add	a4,a5,-1
    22d4:	fdc42783          	lw	a5,-36(s0)
    22d8:	08e7a023          	sw	a4,128(a5)
    22dc:	fd842783          	lw	a5,-40(s0)
    22e0:	fef42623          	sw	a5,-20(s0)
    22e4:	0340006f          	j	2318 <_ZN4listIhLi128EE15remove_at_indexEj+0x64>
    22e8:	fec42783          	lw	a5,-20(s0)
    22ec:	00178793          	add	a5,a5,1
    22f0:	fdc42703          	lw	a4,-36(s0)
    22f4:	00f707b3          	add	a5,a4,a5
    22f8:	0007c703          	lbu	a4,0(a5)
    22fc:	fdc42683          	lw	a3,-36(s0)
    2300:	fec42783          	lw	a5,-20(s0)
    2304:	00f687b3          	add	a5,a3,a5
    2308:	00e78023          	sb	a4,0(a5)
    230c:	fec42783          	lw	a5,-20(s0)
    2310:	00178793          	add	a5,a5,1
    2314:	fef42623          	sw	a5,-20(s0)
    2318:	fdc42783          	lw	a5,-36(s0)
    231c:	0807a783          	lw	a5,128(a5)
    2320:	fec42703          	lw	a4,-20(s0)
    2324:	fcf762e3          	bltu	a4,a5,22e8 <_ZN4listIhLi128EE15remove_at_indexEj+0x34>
    2328:	00000013          	nop
    232c:	00000013          	nop
    2330:	02c12403          	lw	s0,44(sp)
    2334:	03010113          	add	sp,sp,48
    2338:	00008067          	ret

0000233c <_ZNK4listIhLi32EE6lengthEv>:
    233c:	fe010113          	add	sp,sp,-32
    2340:	00812e23          	sw	s0,28(sp)
    2344:	02010413          	add	s0,sp,32
    2348:	fea42623          	sw	a0,-20(s0)
    234c:	fec42783          	lw	a5,-20(s0)
    2350:	0207a783          	lw	a5,32(a5)
    2354:	00078513          	mv	a0,a5
    2358:	01c12403          	lw	s0,28(sp)
    235c:	02010113          	add	sp,sp,32
    2360:	00008067          	ret

00002364 <_ZNK4listIhLi32EE2atEj>:
    2364:	fe010113          	add	sp,sp,-32
    2368:	00812e23          	sw	s0,28(sp)
    236c:	02010413          	add	s0,sp,32
    2370:	fea42623          	sw	a0,-20(s0)
    2374:	feb42423          	sw	a1,-24(s0)
    2378:	fec42783          	lw	a5,-20(s0)
    237c:	0207a783          	lw	a5,32(a5)
    2380:	fe842703          	lw	a4,-24(s0)
    2384:	00f77c63          	bgeu	a4,a5,239c <_ZNK4listIhLi32EE2atEj+0x38>
    2388:	fec42703          	lw	a4,-20(s0)
    238c:	fe842783          	lw	a5,-24(s0)
    2390:	00f707b3          	add	a5,a4,a5
    2394:	0007c783          	lbu	a5,0(a5)
    2398:	0080006f          	j	23a0 <_ZNK4listIhLi32EE2atEj+0x3c>
    239c:	00000793          	li	a5,0
    23a0:	00078513          	mv	a0,a5
    23a4:	01c12403          	lw	s0,28(sp)
    23a8:	02010113          	add	sp,sp,32
    23ac:	00008067          	ret

000023b0 <_ZN4listIhLi128EE3addEh>:
    23b0:	fe010113          	add	sp,sp,-32
    23b4:	00812e23          	sw	s0,28(sp)
    23b8:	02010413          	add	s0,sp,32
    23bc:	fea42623          	sw	a0,-20(s0)
    23c0:	00058793          	mv	a5,a1
    23c4:	fef405a3          	sb	a5,-21(s0)
    23c8:	fec42783          	lw	a5,-20(s0)
    23cc:	0807a703          	lw	a4,128(a5)
    23d0:	07f00793          	li	a5,127
    23d4:	00f71663          	bne	a4,a5,23e0 <_ZN4listIhLi128EE3addEh+0x30>
    23d8:	00000793          	li	a5,0
    23dc:	0340006f          	j	2410 <_ZN4listIhLi128EE3addEh+0x60>
    23e0:	fec42783          	lw	a5,-20(s0)
    23e4:	0807a783          	lw	a5,128(a5)
    23e8:	fec42703          	lw	a4,-20(s0)
    23ec:	00f707b3          	add	a5,a4,a5
    23f0:	feb44703          	lbu	a4,-21(s0)
    23f4:	00e78023          	sb	a4,0(a5)
    23f8:	fec42783          	lw	a5,-20(s0)
    23fc:	0807a783          	lw	a5,128(a5)
    2400:	00178713          	add	a4,a5,1
    2404:	fec42783          	lw	a5,-20(s0)
    2408:	08e7a023          	sw	a4,128(a5)
    240c:	00100793          	li	a5,1
    2410:	00078513          	mv	a0,a5
    2414:	01c12403          	lw	s0,28(sp)
    2418:	02010113          	add	sp,sp,32
    241c:	00008067          	ret

00002420 <_ZN4listIhLi32EE15remove_at_indexEj>:
    2420:	fd010113          	add	sp,sp,-48
    2424:	02812623          	sw	s0,44(sp)
    2428:	03010413          	add	s0,sp,48
    242c:	fca42e23          	sw	a0,-36(s0)
    2430:	fcb42c23          	sw	a1,-40(s0)
    2434:	fdc42783          	lw	a5,-36(s0)
    2438:	0207a783          	lw	a5,32(a5)
    243c:	fff78713          	add	a4,a5,-1
    2440:	fdc42783          	lw	a5,-36(s0)
    2444:	02e7a023          	sw	a4,32(a5)
    2448:	fd842783          	lw	a5,-40(s0)
    244c:	fef42623          	sw	a5,-20(s0)
    2450:	0340006f          	j	2484 <_ZN4listIhLi32EE15remove_at_indexEj+0x64>
    2454:	fec42783          	lw	a5,-20(s0)
    2458:	00178793          	add	a5,a5,1
    245c:	fdc42703          	lw	a4,-36(s0)
    2460:	00f707b3          	add	a5,a4,a5
    2464:	0007c703          	lbu	a4,0(a5)
    2468:	fdc42683          	lw	a3,-36(s0)
    246c:	fec42783          	lw	a5,-20(s0)
    2470:	00f687b3          	add	a5,a3,a5
    2474:	00e78023          	sb	a4,0(a5)
    2478:	fec42783          	lw	a5,-20(s0)
    247c:	00178793          	add	a5,a5,1
    2480:	fef42623          	sw	a5,-20(s0)
    2484:	fdc42783          	lw	a5,-36(s0)
    2488:	0207a783          	lw	a5,32(a5)
    248c:	fec42703          	lw	a4,-20(s0)
    2490:	fcf762e3          	bltu	a4,a5,2454 <_ZN4listIhLi32EE15remove_at_indexEj+0x34>
    2494:	00000013          	nop
    2498:	00000013          	nop
    249c:	02c12403          	lw	s0,44(sp)
    24a0:	03010113          	add	sp,sp,48
    24a4:	00008067          	ret

000024a8 <_ZN4listIhLi8EE3addEh>:
    24a8:	fe010113          	add	sp,sp,-32
    24ac:	00812e23          	sw	s0,28(sp)
    24b0:	02010413          	add	s0,sp,32
    24b4:	fea42623          	sw	a0,-20(s0)
    24b8:	00058793          	mv	a5,a1
    24bc:	fef405a3          	sb	a5,-21(s0)
    24c0:	fec42783          	lw	a5,-20(s0)
    24c4:	0087a703          	lw	a4,8(a5)
    24c8:	00700793          	li	a5,7
    24cc:	00f71663          	bne	a4,a5,24d8 <_ZN4listIhLi8EE3addEh+0x30>
    24d0:	00000793          	li	a5,0
    24d4:	0340006f          	j	2508 <_ZN4listIhLi8EE3addEh+0x60>
    24d8:	fec42783          	lw	a5,-20(s0)
    24dc:	0087a783          	lw	a5,8(a5)
    24e0:	fec42703          	lw	a4,-20(s0)
    24e4:	00f707b3          	add	a5,a4,a5
    24e8:	feb44703          	lbu	a4,-21(s0)
    24ec:	00e78023          	sb	a4,0(a5)
    24f0:	fec42783          	lw	a5,-20(s0)
    24f4:	0087a783          	lw	a5,8(a5)
    24f8:	00178713          	add	a4,a5,1
    24fc:	fec42783          	lw	a5,-20(s0)
    2500:	00e7a423          	sw	a4,8(a5)
    2504:	00100793          	li	a5,1
    2508:	00078513          	mv	a0,a5
    250c:	01c12403          	lw	s0,28(sp)
    2510:	02010113          	add	sp,sp,32
    2514:	00008067          	ret

00002518 <_ZN4listIhLi8EE6removeEh>:
    2518:	fd010113          	add	sp,sp,-48
    251c:	02812623          	sw	s0,44(sp)
    2520:	03010413          	add	s0,sp,48
    2524:	fca42e23          	sw	a0,-36(s0)
    2528:	00058793          	mv	a5,a1
    252c:	fcf40da3          	sb	a5,-37(s0)
    2530:	fe042623          	sw	zero,-20(s0)
    2534:	0940006f          	j	25c8 <_ZN4listIhLi8EE6removeEh+0xb0>
    2538:	fdc42703          	lw	a4,-36(s0)
    253c:	fec42783          	lw	a5,-20(s0)
    2540:	00f707b3          	add	a5,a4,a5
    2544:	0007c783          	lbu	a5,0(a5)
    2548:	fdb44703          	lbu	a4,-37(s0)
    254c:	06f71663          	bne	a4,a5,25b8 <_ZN4listIhLi8EE6removeEh+0xa0>
    2550:	fdc42783          	lw	a5,-36(s0)
    2554:	0087a783          	lw	a5,8(a5)
    2558:	fff78713          	add	a4,a5,-1
    255c:	fdc42783          	lw	a5,-36(s0)
    2560:	00e7a423          	sw	a4,8(a5)
    2564:	fec42783          	lw	a5,-20(s0)
    2568:	fef42423          	sw	a5,-24(s0)
    256c:	0340006f          	j	25a0 <_ZN4listIhLi8EE6removeEh+0x88>
    2570:	fe842783          	lw	a5,-24(s0)
    2574:	00178793          	add	a5,a5,1
    2578:	fdc42703          	lw	a4,-36(s0)
    257c:	00f707b3          	add	a5,a4,a5
    2580:	0007c703          	lbu	a4,0(a5)
    2584:	fdc42683          	lw	a3,-36(s0)
    2588:	fe842783          	lw	a5,-24(s0)
    258c:	00f687b3          	add	a5,a3,a5
    2590:	00e78023          	sb	a4,0(a5)
    2594:	fe842783          	lw	a5,-24(s0)
    2598:	00178793          	add	a5,a5,1
    259c:	fef42423          	sw	a5,-24(s0)
    25a0:	fdc42783          	lw	a5,-36(s0)
    25a4:	0087a783          	lw	a5,8(a5)
    25a8:	fe842703          	lw	a4,-24(s0)
    25ac:	fcf762e3          	bltu	a4,a5,2570 <_ZN4listIhLi8EE6removeEh+0x58>
    25b0:	00100793          	li	a5,1
    25b4:	0280006f          	j	25dc <_ZN4listIhLi8EE6removeEh+0xc4>
    25b8:	00000013          	nop
    25bc:	fec42783          	lw	a5,-20(s0)
    25c0:	00178793          	add	a5,a5,1
    25c4:	fef42623          	sw	a5,-20(s0)
    25c8:	fdc42783          	lw	a5,-36(s0)
    25cc:	0087a783          	lw	a5,8(a5)
    25d0:	fec42703          	lw	a4,-20(s0)
    25d4:	f6f762e3          	bltu	a4,a5,2538 <_ZN4listIhLi8EE6removeEh+0x20>
    25d8:	00000793          	li	a5,0
    25dc:	00078513          	mv	a0,a5
    25e0:	02c12403          	lw	s0,44(sp)
    25e4:	03010113          	add	sp,sp,48
    25e8:	00008067          	ret

000025ec <_ZNK4listIhLi8EE6lengthEv>:
    25ec:	fe010113          	add	sp,sp,-32
    25f0:	00812e23          	sw	s0,28(sp)
    25f4:	02010413          	add	s0,sp,32
    25f8:	fea42623          	sw	a0,-20(s0)
    25fc:	fec42783          	lw	a5,-20(s0)
    2600:	0087a783          	lw	a5,8(a5)
    2604:	00078513          	mv	a0,a5
    2608:	01c12403          	lw	s0,28(sp)
    260c:	02010113          	add	sp,sp,32
    2610:	00008067          	ret

00002614 <_ZNK4listIhLi8EE2atEj>:
    2614:	fe010113          	add	sp,sp,-32
    2618:	00812e23          	sw	s0,28(sp)
    261c:	02010413          	add	s0,sp,32
    2620:	fea42623          	sw	a0,-20(s0)
    2624:	feb42423          	sw	a1,-24(s0)
    2628:	fec42783          	lw	a5,-20(s0)
    262c:	0087a783          	lw	a5,8(a5)
    2630:	fe842703          	lw	a4,-24(s0)
    2634:	00f77c63          	bgeu	a4,a5,264c <_ZNK4listIhLi8EE2atEj+0x38>
    2638:	fec42703          	lw	a4,-20(s0)
    263c:	fe842783          	lw	a5,-24(s0)
    2640:	00f707b3          	add	a5,a4,a5
    2644:	0007c783          	lbu	a5,0(a5)
    2648:	0080006f          	j	2650 <_ZNK4listIhLi8EE2atEj+0x3c>
    264c:	00000793          	li	a5,0
    2650:	00078513          	mv	a0,a5
    2654:	01c12403          	lw	s0,28(sp)
    2658:	02010113          	add	sp,sp,32
    265c:	00008067          	ret
