
os:     file format elf32-littleriscv


Disassembly of section .text:

00000000 <_start>:
# # generated - do not edit (see `configuration.py`)
# .global _start
# _start:
#     li sp, 0x200000
       0:	00200137          	lui	sp,0x200
#     jal ra, run
       4:	004000ef          	jal	8 <run>

00000008 <run>:
       8:	f9010113          	add	sp,sp,-112 # 1fff90 <__global_pointer$+0x1fc190>
       c:	06112623          	sw	ra,108(sp)
      10:	06812423          	sw	s0,104(sp)
      14:	07010413          	add	s0,sp,112
      18:	00000513          	li	a0,0
      1c:	00001097          	auipc	ra,0x1
      20:	4b4080e7          	jalr	1204(ra) # 14d0 <_Z7led_seth>
      24:	00100793          	li	a5,1
      28:	fef407a3          	sb	a5,-17(s0)
      2c:	f9440793          	add	a5,s0,-108
      30:	05200713          	li	a4,82
      34:	00070613          	mv	a2,a4
      38:	00000593          	li	a1,0
      3c:	00078513          	mv	a0,a5
      40:	00001097          	auipc	ra,0x1
      44:	6a4080e7          	jalr	1700(ra) # 16e4 <memset>
      48:	000047b7          	lui	a5,0x4
      4c:	99c7a783          	lw	a5,-1636(a5) # 399c <_ZL9ascii_art>
      50:	00078513          	mv	a0,a5
      54:	00001097          	auipc	ra,0x1
      58:	4ac080e7          	jalr	1196(ra) # 1500 <_Z13uart_send_strPKc>
      5c:	000047b7          	lui	a5,0x4
      60:	9987a783          	lw	a5,-1640(a5) # 3998 <_ZL5hello>
      64:	00078513          	mv	a0,a5
      68:	00001097          	auipc	ra,0x1
      6c:	498080e7          	jalr	1176(ra) # 1500 <_Z13uart_send_strPKc>
      70:	fef44703          	lbu	a4,-17(s0)
      74:	00070793          	mv	a5,a4
      78:	00279793          	sll	a5,a5,0x2
      7c:	00e787b3          	add	a5,a5,a4
      80:	00379793          	sll	a5,a5,0x3
      84:	00003737          	lui	a4,0x3
      88:	61070713          	add	a4,a4,1552 # 3610 <_ZL8entities>
      8c:	00e787b3          	add	a5,a5,a4
      90:	fef42423          	sw	a5,-24(s0)
      94:	fe842783          	lw	a5,-24(s0)
      98:	0047c783          	lbu	a5,4(a5)
      9c:	fef44703          	lbu	a4,-17(s0)
      a0:	00070593          	mv	a1,a4
      a4:	00078513          	mv	a0,a5
      a8:	00000097          	auipc	ra,0x0
      ac:	420080e7          	jalr	1056(ra) # 4c8 <_Z14print_locationhh>
      b0:	fe842783          	lw	a5,-24(s0)
      b4:	0007a783          	lw	a5,0(a5)
      b8:	00078513          	mv	a0,a5
      bc:	00001097          	auipc	ra,0x1
      c0:	444080e7          	jalr	1092(ra) # 1500 <_Z13uart_send_strPKc>
      c4:	000027b7          	lui	a5,0x2
      c8:	e6078513          	add	a0,a5,-416 # 1e60 <_ZN12input_buffer9end_indexEv+0x40c>
      cc:	00001097          	auipc	ra,0x1
      d0:	434080e7          	jalr	1076(ra) # 1500 <_Z13uart_send_strPKc>
      d4:	f9440793          	add	a5,s0,-108
      d8:	00078513          	mv	a0,a5
      dc:	00001097          	auipc	ra,0x1
      e0:	1ac080e7          	jalr	428(ra) # 1288 <_Z5inputR12input_buffer>
      e4:	000027b7          	lui	a5,0x2
      e8:	e6478513          	add	a0,a5,-412 # 1e64 <_ZN12input_buffer9end_indexEv+0x410>
      ec:	00001097          	auipc	ra,0x1
      f0:	414080e7          	jalr	1044(ra) # 1500 <_Z13uart_send_strPKc>
      f4:	f9440713          	add	a4,s0,-108
      f8:	fef44783          	lbu	a5,-17(s0)
      fc:	00070593          	mv	a1,a4
     100:	00078513          	mv	a0,a5
     104:	00000097          	auipc	ra,0x0
     108:	02c080e7          	jalr	44(ra) # 130 <_Z12handle_inputhR12input_buffer>
     10c:	fef44703          	lbu	a4,-17(s0)
     110:	00100793          	li	a5,1
     114:	00f71863          	bne	a4,a5,124 <run+0x11c>
     118:	00200793          	li	a5,2
     11c:	fef407a3          	sb	a5,-17(s0)
     120:	f51ff06f          	j	70 <run+0x68>
     124:	00100793          	li	a5,1
     128:	fef407a3          	sb	a5,-17(s0)
     12c:	f45ff06f          	j	70 <run+0x68>

00000130 <_Z12handle_inputhR12input_buffer>:
     130:	fb010113          	add	sp,sp,-80
     134:	04112623          	sw	ra,76(sp)
     138:	04812423          	sw	s0,72(sp)
     13c:	05010413          	add	s0,sp,80
     140:	00050793          	mv	a5,a0
     144:	fab42c23          	sw	a1,-72(s0)
     148:	faf40fa3          	sb	a5,-65(s0)
     14c:	fb842503          	lw	a0,-72(s0)
     150:	00002097          	auipc	ra,0x2
     154:	8ac080e7          	jalr	-1876(ra) # 19fc <_ZN12input_buffer4lineEv>
     158:	fea42623          	sw	a0,-20(s0)
     15c:	fe042423          	sw	zero,-24(s0)
     160:	fec42703          	lw	a4,-20(s0)
     164:	fe842783          	lw	a5,-24(s0)
     168:	00178693          	add	a3,a5,1
     16c:	fed42423          	sw	a3,-24(s0)
     170:	00279793          	sll	a5,a5,0x2
     174:	ff078793          	add	a5,a5,-16
     178:	008787b3          	add	a5,a5,s0
     17c:	fce7ac23          	sw	a4,-40(a5)
     180:	0100006f          	j	190 <_Z12handle_inputhR12input_buffer+0x60>
     184:	fec42783          	lw	a5,-20(s0)
     188:	00178793          	add	a5,a5,1
     18c:	fef42623          	sw	a5,-20(s0)
     190:	fec42783          	lw	a5,-20(s0)
     194:	0007c783          	lbu	a5,0(a5)
     198:	00078a63          	beqz	a5,1ac <_Z12handle_inputhR12input_buffer+0x7c>
     19c:	fec42783          	lw	a5,-20(s0)
     1a0:	0007c703          	lbu	a4,0(a5)
     1a4:	02000793          	li	a5,32
     1a8:	fcf71ee3          	bne	a4,a5,184 <_Z12handle_inputhR12input_buffer+0x54>
     1ac:	fec42783          	lw	a5,-20(s0)
     1b0:	0007c783          	lbu	a5,0(a5)
     1b4:	02078c63          	beqz	a5,1ec <_Z12handle_inputhR12input_buffer+0xbc>
     1b8:	fec42783          	lw	a5,-20(s0)
     1bc:	00078023          	sb	zero,0(a5)
     1c0:	fec42783          	lw	a5,-20(s0)
     1c4:	00178793          	add	a5,a5,1
     1c8:	fef42623          	sw	a5,-20(s0)
     1cc:	fe842703          	lw	a4,-24(s0)
     1d0:	00800793          	li	a5,8
     1d4:	f8f716e3          	bne	a4,a5,160 <_Z12handle_inputhR12input_buffer+0x30>
     1d8:	000027b7          	lui	a5,0x2
     1dc:	e6878513          	add	a0,a5,-408 # 1e68 <_ZN12input_buffer9end_indexEv+0x414>
     1e0:	00001097          	auipc	ra,0x1
     1e4:	320080e7          	jalr	800(ra) # 1500 <_Z13uart_send_strPKc>
     1e8:	0080006f          	j	1f0 <_Z12handle_inputhR12input_buffer+0xc0>
     1ec:	00000013          	nop
     1f0:	fc842703          	lw	a4,-56(s0)
     1f4:	000027b7          	lui	a5,0x2
     1f8:	e8c78593          	add	a1,a5,-372 # 1e8c <_ZN12input_buffer9end_indexEv+0x438>
     1fc:	00070513          	mv	a0,a4
     200:	00001097          	auipc	ra,0x1
     204:	18c080e7          	jalr	396(ra) # 138c <_Z13strings_equalPKcS0_>
     208:	00050793          	mv	a5,a0
     20c:	00078863          	beqz	a5,21c <_Z12handle_inputhR12input_buffer+0xec>
     210:	00001097          	auipc	ra,0x1
     214:	044080e7          	jalr	68(ra) # 1254 <_Z10print_helpv>
     218:	2a00006f          	j	4b8 <_Z12handle_inputhR12input_buffer+0x388>
     21c:	fc842703          	lw	a4,-56(s0)
     220:	000027b7          	lui	a5,0x2
     224:	e9478593          	add	a1,a5,-364 # 1e94 <_ZN12input_buffer9end_indexEv+0x440>
     228:	00070513          	mv	a0,a4
     22c:	00001097          	auipc	ra,0x1
     230:	160080e7          	jalr	352(ra) # 138c <_Z13strings_equalPKcS0_>
     234:	00050793          	mv	a5,a0
     238:	02078463          	beqz	a5,260 <_Z12handle_inputhR12input_buffer+0x130>
     23c:	fbf44783          	lbu	a5,-65(s0)
     240:	00078513          	mv	a0,a5
     244:	00000097          	auipc	ra,0x0
     248:	584080e7          	jalr	1412(ra) # 7c8 <_Z16action_inventoryh>
     24c:	000027b7          	lui	a5,0x2
     250:	e6478513          	add	a0,a5,-412 # 1e64 <_ZN12input_buffer9end_indexEv+0x410>
     254:	00001097          	auipc	ra,0x1
     258:	2ac080e7          	jalr	684(ra) # 1500 <_Z13uart_send_strPKc>
     25c:	25c0006f          	j	4b8 <_Z12handle_inputhR12input_buffer+0x388>
     260:	fc842703          	lw	a4,-56(s0)
     264:	000027b7          	lui	a5,0x2
     268:	e9878593          	add	a1,a5,-360 # 1e98 <_ZN12input_buffer9end_indexEv+0x444>
     26c:	00070513          	mv	a0,a4
     270:	00001097          	auipc	ra,0x1
     274:	11c080e7          	jalr	284(ra) # 138c <_Z13strings_equalPKcS0_>
     278:	00050793          	mv	a5,a0
     27c:	04078063          	beqz	a5,2bc <_Z12handle_inputhR12input_buffer+0x18c>
     280:	fe842703          	lw	a4,-24(s0)
     284:	00100793          	li	a5,1
     288:	00e7ec63          	bltu	a5,a4,2a0 <_Z12handle_inputhR12input_buffer+0x170>
     28c:	000027b7          	lui	a5,0x2
     290:	e9c78513          	add	a0,a5,-356 # 1e9c <_ZN12input_buffer9end_indexEv+0x448>
     294:	00001097          	auipc	ra,0x1
     298:	26c080e7          	jalr	620(ra) # 1500 <_Z13uart_send_strPKc>
     29c:	21c0006f          	j	4b8 <_Z12handle_inputhR12input_buffer+0x388>
     2a0:	fcc42703          	lw	a4,-52(s0)
     2a4:	fbf44783          	lbu	a5,-65(s0)
     2a8:	00070593          	mv	a1,a4
     2ac:	00078513          	mv	a0,a5
     2b0:	00001097          	auipc	ra,0x1
     2b4:	950080e7          	jalr	-1712(ra) # c00 <_Z11action_takehPKc>
     2b8:	2000006f          	j	4b8 <_Z12handle_inputhR12input_buffer+0x388>
     2bc:	fc842703          	lw	a4,-56(s0)
     2c0:	000027b7          	lui	a5,0x2
     2c4:	eac78593          	add	a1,a5,-340 # 1eac <_ZN12input_buffer9end_indexEv+0x458>
     2c8:	00070513          	mv	a0,a4
     2cc:	00001097          	auipc	ra,0x1
     2d0:	0c0080e7          	jalr	192(ra) # 138c <_Z13strings_equalPKcS0_>
     2d4:	00050793          	mv	a5,a0
     2d8:	04078063          	beqz	a5,318 <_Z12handle_inputhR12input_buffer+0x1e8>
     2dc:	fe842703          	lw	a4,-24(s0)
     2e0:	00100793          	li	a5,1
     2e4:	00e7ec63          	bltu	a5,a4,2fc <_Z12handle_inputhR12input_buffer+0x1cc>
     2e8:	000027b7          	lui	a5,0x2
     2ec:	eb078513          	add	a0,a5,-336 # 1eb0 <_ZN12input_buffer9end_indexEv+0x45c>
     2f0:	00001097          	auipc	ra,0x1
     2f4:	210080e7          	jalr	528(ra) # 1500 <_Z13uart_send_strPKc>
     2f8:	1c00006f          	j	4b8 <_Z12handle_inputhR12input_buffer+0x388>
     2fc:	fcc42703          	lw	a4,-52(s0)
     300:	fbf44783          	lbu	a5,-65(s0)
     304:	00070593          	mv	a1,a4
     308:	00078513          	mv	a0,a5
     30c:	00001097          	auipc	ra,0x1
     310:	a5c080e7          	jalr	-1444(ra) # d68 <_Z11action_drophPKc>
     314:	1a40006f          	j	4b8 <_Z12handle_inputhR12input_buffer+0x388>
     318:	fc842703          	lw	a4,-56(s0)
     31c:	000027b7          	lui	a5,0x2
     320:	ec078593          	add	a1,a5,-320 # 1ec0 <_ZN12input_buffer9end_indexEv+0x46c>
     324:	00070513          	mv	a0,a4
     328:	00001097          	auipc	ra,0x1
     32c:	064080e7          	jalr	100(ra) # 138c <_Z13strings_equalPKcS0_>
     330:	00050793          	mv	a5,a0
     334:	00078e63          	beqz	a5,350 <_Z12handle_inputhR12input_buffer+0x220>
     338:	fbf44783          	lbu	a5,-65(s0)
     33c:	00000593          	li	a1,0
     340:	00078513          	mv	a0,a5
     344:	00001097          	auipc	ra,0x1
     348:	b9c080e7          	jalr	-1124(ra) # ee0 <_Z9action_gohh>
     34c:	16c0006f          	j	4b8 <_Z12handle_inputhR12input_buffer+0x388>
     350:	fc842703          	lw	a4,-56(s0)
     354:	000027b7          	lui	a5,0x2
     358:	ec478593          	add	a1,a5,-316 # 1ec4 <_ZN12input_buffer9end_indexEv+0x470>
     35c:	00070513          	mv	a0,a4
     360:	00001097          	auipc	ra,0x1
     364:	02c080e7          	jalr	44(ra) # 138c <_Z13strings_equalPKcS0_>
     368:	00050793          	mv	a5,a0
     36c:	00078e63          	beqz	a5,388 <_Z12handle_inputhR12input_buffer+0x258>
     370:	fbf44783          	lbu	a5,-65(s0)
     374:	00100593          	li	a1,1
     378:	00078513          	mv	a0,a5
     37c:	00001097          	auipc	ra,0x1
     380:	b64080e7          	jalr	-1180(ra) # ee0 <_Z9action_gohh>
     384:	1340006f          	j	4b8 <_Z12handle_inputhR12input_buffer+0x388>
     388:	fc842703          	lw	a4,-56(s0)
     38c:	000027b7          	lui	a5,0x2
     390:	ec878593          	add	a1,a5,-312 # 1ec8 <_ZN12input_buffer9end_indexEv+0x474>
     394:	00070513          	mv	a0,a4
     398:	00001097          	auipc	ra,0x1
     39c:	ff4080e7          	jalr	-12(ra) # 138c <_Z13strings_equalPKcS0_>
     3a0:	00050793          	mv	a5,a0
     3a4:	00078e63          	beqz	a5,3c0 <_Z12handle_inputhR12input_buffer+0x290>
     3a8:	fbf44783          	lbu	a5,-65(s0)
     3ac:	00200593          	li	a1,2
     3b0:	00078513          	mv	a0,a5
     3b4:	00001097          	auipc	ra,0x1
     3b8:	b2c080e7          	jalr	-1236(ra) # ee0 <_Z9action_gohh>
     3bc:	0fc0006f          	j	4b8 <_Z12handle_inputhR12input_buffer+0x388>
     3c0:	fc842703          	lw	a4,-56(s0)
     3c4:	000027b7          	lui	a5,0x2
     3c8:	ecc78593          	add	a1,a5,-308 # 1ecc <_ZN12input_buffer9end_indexEv+0x478>
     3cc:	00070513          	mv	a0,a4
     3d0:	00001097          	auipc	ra,0x1
     3d4:	fbc080e7          	jalr	-68(ra) # 138c <_Z13strings_equalPKcS0_>
     3d8:	00050793          	mv	a5,a0
     3dc:	00078e63          	beqz	a5,3f8 <_Z12handle_inputhR12input_buffer+0x2c8>
     3e0:	fbf44783          	lbu	a5,-65(s0)
     3e4:	00300593          	li	a1,3
     3e8:	00078513          	mv	a0,a5
     3ec:	00001097          	auipc	ra,0x1
     3f0:	af4080e7          	jalr	-1292(ra) # ee0 <_Z9action_gohh>
     3f4:	0c40006f          	j	4b8 <_Z12handle_inputhR12input_buffer+0x388>
     3f8:	fc842703          	lw	a4,-56(s0)
     3fc:	000027b7          	lui	a5,0x2
     400:	ed078593          	add	a1,a5,-304 # 1ed0 <_ZN12input_buffer9end_indexEv+0x47c>
     404:	00070513          	mv	a0,a4
     408:	00001097          	auipc	ra,0x1
     40c:	f84080e7          	jalr	-124(ra) # 138c <_Z13strings_equalPKcS0_>
     410:	00050793          	mv	a5,a0
     414:	06078463          	beqz	a5,47c <_Z12handle_inputhR12input_buffer+0x34c>
     418:	fe842703          	lw	a4,-24(s0)
     41c:	00100793          	li	a5,1
     420:	00e7ec63          	bltu	a5,a4,438 <_Z12handle_inputhR12input_buffer+0x308>
     424:	000027b7          	lui	a5,0x2
     428:	ed478513          	add	a0,a5,-300 # 1ed4 <_ZN12input_buffer9end_indexEv+0x480>
     42c:	00001097          	auipc	ra,0x1
     430:	0d4080e7          	jalr	212(ra) # 1500 <_Z13uart_send_strPKc>
     434:	0840006f          	j	4b8 <_Z12handle_inputhR12input_buffer+0x388>
     438:	fe842703          	lw	a4,-24(s0)
     43c:	00200793          	li	a5,2
     440:	00e7ec63          	bltu	a5,a4,458 <_Z12handle_inputhR12input_buffer+0x328>
     444:	000027b7          	lui	a5,0x2
     448:	ee478513          	add	a0,a5,-284 # 1ee4 <_ZN12input_buffer9end_indexEv+0x490>
     44c:	00001097          	auipc	ra,0x1
     450:	0b4080e7          	jalr	180(ra) # 1500 <_Z13uart_send_strPKc>
     454:	0640006f          	j	4b8 <_Z12handle_inputhR12input_buffer+0x388>
     458:	fcc42703          	lw	a4,-52(s0)
     45c:	fd042683          	lw	a3,-48(s0)
     460:	fbf44783          	lbu	a5,-65(s0)
     464:	00068613          	mv	a2,a3
     468:	00070593          	mv	a1,a4
     46c:	00078513          	mv	a0,a5
     470:	00001097          	auipc	ra,0x1
     474:	ba8080e7          	jalr	-1112(ra) # 1018 <_Z11action_givehPKcS0_>
     478:	0400006f          	j	4b8 <_Z12handle_inputhR12input_buffer+0x388>
     47c:	fc842703          	lw	a4,-56(s0)
     480:	000027b7          	lui	a5,0x2
     484:	ef878593          	add	a1,a5,-264 # 1ef8 <_ZN12input_buffer9end_indexEv+0x4a4>
     488:	00070513          	mv	a0,a4
     48c:	00001097          	auipc	ra,0x1
     490:	f00080e7          	jalr	-256(ra) # 138c <_Z13strings_equalPKcS0_>
     494:	00050793          	mv	a5,a0
     498:	00078863          	beqz	a5,4a8 <_Z12handle_inputhR12input_buffer+0x378>
     49c:	00001097          	auipc	ra,0x1
     4a0:	158080e7          	jalr	344(ra) # 15f4 <_Z15action_mem_testv>
     4a4:	0140006f          	j	4b8 <_Z12handle_inputhR12input_buffer+0x388>
     4a8:	000027b7          	lui	a5,0x2
     4ac:	efc78513          	add	a0,a5,-260 # 1efc <_ZN12input_buffer9end_indexEv+0x4a8>
     4b0:	00001097          	auipc	ra,0x1
     4b4:	050080e7          	jalr	80(ra) # 1500 <_Z13uart_send_strPKc>
     4b8:	04c12083          	lw	ra,76(sp)
     4bc:	04812403          	lw	s0,72(sp)
     4c0:	05010113          	add	sp,sp,80
     4c4:	00008067          	ret

000004c8 <_Z14print_locationhh>:
     4c8:	fb010113          	add	sp,sp,-80
     4cc:	04112623          	sw	ra,76(sp)
     4d0:	04812423          	sw	s0,72(sp)
     4d4:	05010413          	add	s0,sp,80
     4d8:	00050793          	mv	a5,a0
     4dc:	00058713          	mv	a4,a1
     4e0:	faf40fa3          	sb	a5,-65(s0)
     4e4:	00070793          	mv	a5,a4
     4e8:	faf40f23          	sb	a5,-66(s0)
     4ec:	fbf44703          	lbu	a4,-65(s0)
     4f0:	00070793          	mv	a5,a4
     4f4:	00379793          	sll	a5,a5,0x3
     4f8:	00e787b3          	add	a5,a5,a4
     4fc:	00279793          	sll	a5,a5,0x2
     500:	00e787b3          	add	a5,a5,a4
     504:	00279793          	sll	a5,a5,0x2
     508:	00003737          	lui	a4,0x3
     50c:	68870713          	add	a4,a4,1672 # 3688 <_ZL9locations>
     510:	00e787b3          	add	a5,a5,a4
     514:	fcf42e23          	sw	a5,-36(s0)
     518:	000027b7          	lui	a5,0x2
     51c:	f1078513          	add	a0,a5,-240 # 1f10 <_ZN12input_buffer9end_indexEv+0x4bc>
     520:	00001097          	auipc	ra,0x1
     524:	fe0080e7          	jalr	-32(ra) # 1500 <_Z13uart_send_strPKc>
     528:	fdc42783          	lw	a5,-36(s0)
     52c:	0007a783          	lw	a5,0(a5)
     530:	00078513          	mv	a0,a5
     534:	00001097          	auipc	ra,0x1
     538:	fcc080e7          	jalr	-52(ra) # 1500 <_Z13uart_send_strPKc>
     53c:	000027b7          	lui	a5,0x2
     540:	f1878513          	add	a0,a5,-232 # 1f18 <_ZN12input_buffer9end_indexEv+0x4c4>
     544:	00001097          	auipc	ra,0x1
     548:	fbc080e7          	jalr	-68(ra) # 1500 <_Z13uart_send_strPKc>
     54c:	fe0407a3          	sb	zero,-17(s0)
     550:	fdc42783          	lw	a5,-36(s0)
     554:	00478793          	add	a5,a5,4
     558:	fcf42c23          	sw	a5,-40(s0)
     55c:	fe042423          	sw	zero,-24(s0)
     560:	0740006f          	j	5d4 <_Z14print_locationhh+0x10c>
     564:	fd842703          	lw	a4,-40(s0)
     568:	fe842783          	lw	a5,-24(s0)
     56c:	00f707b3          	add	a5,a4,a5
     570:	0007c783          	lbu	a5,0(a5)
     574:	fcf40ba3          	sb	a5,-41(s0)
     578:	fd744783          	lbu	a5,-41(s0)
     57c:	06078463          	beqz	a5,5e4 <_Z14print_locationhh+0x11c>
     580:	fef44783          	lbu	a5,-17(s0)
     584:	00078c63          	beqz	a5,59c <_Z14print_locationhh+0xd4>
     588:	000027b7          	lui	a5,0x2
     58c:	f2078513          	add	a0,a5,-224 # 1f20 <_ZN12input_buffer9end_indexEv+0x4cc>
     590:	00001097          	auipc	ra,0x1
     594:	f70080e7          	jalr	-144(ra) # 1500 <_Z13uart_send_strPKc>
     598:	00c0006f          	j	5a4 <_Z14print_locationhh+0xdc>
     59c:	00100793          	li	a5,1
     5a0:	fef407a3          	sb	a5,-17(s0)
     5a4:	fd744783          	lbu	a5,-41(s0)
     5a8:	00003737          	lui	a4,0x3
     5ac:	60070713          	add	a4,a4,1536 # 3600 <_ZL7objects>
     5b0:	00279793          	sll	a5,a5,0x2
     5b4:	00f707b3          	add	a5,a4,a5
     5b8:	0007a783          	lw	a5,0(a5)
     5bc:	00078513          	mv	a0,a5
     5c0:	00001097          	auipc	ra,0x1
     5c4:	f40080e7          	jalr	-192(ra) # 1500 <_Z13uart_send_strPKc>
     5c8:	fe842783          	lw	a5,-24(s0)
     5cc:	00178793          	add	a5,a5,1
     5d0:	fef42423          	sw	a5,-24(s0)
     5d4:	fe842703          	lw	a4,-24(s0)
     5d8:	07f00793          	li	a5,127
     5dc:	f8e7f4e3          	bgeu	a5,a4,564 <_Z14print_locationhh+0x9c>
     5e0:	0080006f          	j	5e8 <_Z14print_locationhh+0x120>
     5e4:	00000013          	nop
     5e8:	fef44783          	lbu	a5,-17(s0)
     5ec:	0017c793          	xor	a5,a5,1
     5f0:	0ff7f793          	zext.b	a5,a5
     5f4:	00078a63          	beqz	a5,608 <_Z14print_locationhh+0x140>
     5f8:	000027b7          	lui	a5,0x2
     5fc:	f2478513          	add	a0,a5,-220 # 1f24 <_ZN12input_buffer9end_indexEv+0x4d0>
     600:	00001097          	auipc	ra,0x1
     604:	f00080e7          	jalr	-256(ra) # 1500 <_Z13uart_send_strPKc>
     608:	000027b7          	lui	a5,0x2
     60c:	e6478513          	add	a0,a5,-412 # 1e64 <_ZN12input_buffer9end_indexEv+0x410>
     610:	00001097          	auipc	ra,0x1
     614:	ef0080e7          	jalr	-272(ra) # 1500 <_Z13uart_send_strPKc>
     618:	fe0407a3          	sb	zero,-17(s0)
     61c:	fdc42783          	lw	a5,-36(s0)
     620:	08478793          	add	a5,a5,132
     624:	fcf42823          	sw	a5,-48(s0)
     628:	fe042223          	sw	zero,-28(s0)
     62c:	0940006f          	j	6c0 <_Z14print_locationhh+0x1f8>
     630:	fd042703          	lw	a4,-48(s0)
     634:	fe442783          	lw	a5,-28(s0)
     638:	00f707b3          	add	a5,a4,a5
     63c:	0007c783          	lbu	a5,0(a5)
     640:	fcf407a3          	sb	a5,-49(s0)
     644:	fcf44783          	lbu	a5,-49(s0)
     648:	08078463          	beqz	a5,6d0 <_Z14print_locationhh+0x208>
     64c:	fcf44703          	lbu	a4,-49(s0)
     650:	fbe44783          	lbu	a5,-66(s0)
     654:	04f70e63          	beq	a4,a5,6b0 <_Z14print_locationhh+0x1e8>
     658:	fef44783          	lbu	a5,-17(s0)
     65c:	00078c63          	beqz	a5,674 <_Z14print_locationhh+0x1ac>
     660:	000027b7          	lui	a5,0x2
     664:	f2078513          	add	a0,a5,-224 # 1f20 <_ZN12input_buffer9end_indexEv+0x4cc>
     668:	00001097          	auipc	ra,0x1
     66c:	e98080e7          	jalr	-360(ra) # 1500 <_Z13uart_send_strPKc>
     670:	00c0006f          	j	67c <_Z14print_locationhh+0x1b4>
     674:	00100793          	li	a5,1
     678:	fef407a3          	sb	a5,-17(s0)
     67c:	fcf44703          	lbu	a4,-49(s0)
     680:	000037b7          	lui	a5,0x3
     684:	61078693          	add	a3,a5,1552 # 3610 <_ZL8entities>
     688:	00070793          	mv	a5,a4
     68c:	00279793          	sll	a5,a5,0x2
     690:	00e787b3          	add	a5,a5,a4
     694:	00379793          	sll	a5,a5,0x3
     698:	00f687b3          	add	a5,a3,a5
     69c:	0007a783          	lw	a5,0(a5)
     6a0:	00078513          	mv	a0,a5
     6a4:	00001097          	auipc	ra,0x1
     6a8:	e5c080e7          	jalr	-420(ra) # 1500 <_Z13uart_send_strPKc>
     6ac:	0080006f          	j	6b4 <_Z14print_locationhh+0x1ec>
     6b0:	00000013          	nop
     6b4:	fe442783          	lw	a5,-28(s0)
     6b8:	00178793          	add	a5,a5,1
     6bc:	fef42223          	sw	a5,-28(s0)
     6c0:	fe442703          	lw	a4,-28(s0)
     6c4:	00700793          	li	a5,7
     6c8:	f6e7f4e3          	bgeu	a5,a4,630 <_Z14print_locationhh+0x168>
     6cc:	0080006f          	j	6d4 <_Z14print_locationhh+0x20c>
     6d0:	00000013          	nop
     6d4:	fef44783          	lbu	a5,-17(s0)
     6d8:	00078a63          	beqz	a5,6ec <_Z14print_locationhh+0x224>
     6dc:	000027b7          	lui	a5,0x2
     6e0:	f2c78513          	add	a0,a5,-212 # 1f2c <_ZN12input_buffer9end_indexEv+0x4d8>
     6e4:	00001097          	auipc	ra,0x1
     6e8:	e1c080e7          	jalr	-484(ra) # 1500 <_Z13uart_send_strPKc>
     6ec:	fe0407a3          	sb	zero,-17(s0)
     6f0:	000027b7          	lui	a5,0x2
     6f4:	f3878513          	add	a0,a5,-200 # 1f38 <_ZN12input_buffer9end_indexEv+0x4e4>
     6f8:	00001097          	auipc	ra,0x1
     6fc:	e08080e7          	jalr	-504(ra) # 1500 <_Z13uart_send_strPKc>
     700:	fe042023          	sw	zero,-32(s0)
     704:	0740006f          	j	778 <_Z14print_locationhh+0x2b0>
     708:	fdc42703          	lw	a4,-36(s0)
     70c:	fe042783          	lw	a5,-32(s0)
     710:	00f707b3          	add	a5,a4,a5
     714:	08c7c783          	lbu	a5,140(a5)
     718:	04078863          	beqz	a5,768 <_Z14print_locationhh+0x2a0>
     71c:	fef44783          	lbu	a5,-17(s0)
     720:	00078c63          	beqz	a5,738 <_Z14print_locationhh+0x270>
     724:	000027b7          	lui	a5,0x2
     728:	f2078513          	add	a0,a5,-224 # 1f20 <_ZN12input_buffer9end_indexEv+0x4cc>
     72c:	00001097          	auipc	ra,0x1
     730:	dd4080e7          	jalr	-556(ra) # 1500 <_Z13uart_send_strPKc>
     734:	00c0006f          	j	740 <_Z14print_locationhh+0x278>
     738:	00100793          	li	a5,1
     73c:	fef407a3          	sb	a5,-17(s0)
     740:	000047b7          	lui	a5,0x4
     744:	96c78713          	add	a4,a5,-1684 # 396c <_ZL10exit_names>
     748:	fe042783          	lw	a5,-32(s0)
     74c:	00279793          	sll	a5,a5,0x2
     750:	00f707b3          	add	a5,a4,a5
     754:	0007a783          	lw	a5,0(a5)
     758:	00078513          	mv	a0,a5
     75c:	00001097          	auipc	ra,0x1
     760:	da4080e7          	jalr	-604(ra) # 1500 <_Z13uart_send_strPKc>
     764:	0080006f          	j	76c <_Z14print_locationhh+0x2a4>
     768:	00000013          	nop
     76c:	fe042783          	lw	a5,-32(s0)
     770:	00178793          	add	a5,a5,1
     774:	fef42023          	sw	a5,-32(s0)
     778:	fe042703          	lw	a4,-32(s0)
     77c:	00500793          	li	a5,5
     780:	f8e7f4e3          	bgeu	a5,a4,708 <_Z14print_locationhh+0x240>
     784:	fef44783          	lbu	a5,-17(s0)
     788:	0017c793          	xor	a5,a5,1
     78c:	0ff7f793          	zext.b	a5,a5
     790:	00078a63          	beqz	a5,7a4 <_Z14print_locationhh+0x2dc>
     794:	000027b7          	lui	a5,0x2
     798:	f4078513          	add	a0,a5,-192 # 1f40 <_ZN12input_buffer9end_indexEv+0x4ec>
     79c:	00001097          	auipc	ra,0x1
     7a0:	d64080e7          	jalr	-668(ra) # 1500 <_Z13uart_send_strPKc>
     7a4:	000027b7          	lui	a5,0x2
     7a8:	e6478513          	add	a0,a5,-412 # 1e64 <_ZN12input_buffer9end_indexEv+0x410>
     7ac:	00001097          	auipc	ra,0x1
     7b0:	d54080e7          	jalr	-684(ra) # 1500 <_Z13uart_send_strPKc>
     7b4:	00000013          	nop
     7b8:	04c12083          	lw	ra,76(sp)
     7bc:	04812403          	lw	s0,72(sp)
     7c0:	05010113          	add	sp,sp,80
     7c4:	00008067          	ret

000007c8 <_Z16action_inventoryh>:
     7c8:	fd010113          	add	sp,sp,-48
     7cc:	02112623          	sw	ra,44(sp)
     7d0:	02812423          	sw	s0,40(sp)
     7d4:	03010413          	add	s0,sp,48
     7d8:	00050793          	mv	a5,a0
     7dc:	fcf40fa3          	sb	a5,-33(s0)
     7e0:	000027b7          	lui	a5,0x2
     7e4:	f4878513          	add	a0,a5,-184 # 1f48 <_ZN12input_buffer9end_indexEv+0x4f4>
     7e8:	00001097          	auipc	ra,0x1
     7ec:	d18080e7          	jalr	-744(ra) # 1500 <_Z13uart_send_strPKc>
     7f0:	fe0407a3          	sb	zero,-17(s0)
     7f4:	fdf44703          	lbu	a4,-33(s0)
     7f8:	00070793          	mv	a5,a4
     7fc:	00279793          	sll	a5,a5,0x2
     800:	00e787b3          	add	a5,a5,a4
     804:	00379793          	sll	a5,a5,0x3
     808:	00003737          	lui	a4,0x3
     80c:	61070713          	add	a4,a4,1552 # 3610 <_ZL8entities>
     810:	00e787b3          	add	a5,a5,a4
     814:	00578793          	add	a5,a5,5
     818:	fef42223          	sw	a5,-28(s0)
     81c:	fe042423          	sw	zero,-24(s0)
     820:	0740006f          	j	894 <_Z16action_inventoryh+0xcc>
     824:	fe442703          	lw	a4,-28(s0)
     828:	fe842783          	lw	a5,-24(s0)
     82c:	00f707b3          	add	a5,a4,a5
     830:	0007c783          	lbu	a5,0(a5)
     834:	fef401a3          	sb	a5,-29(s0)
     838:	fe344783          	lbu	a5,-29(s0)
     83c:	06078463          	beqz	a5,8a4 <_Z16action_inventoryh+0xdc>
     840:	fef44783          	lbu	a5,-17(s0)
     844:	00078c63          	beqz	a5,85c <_Z16action_inventoryh+0x94>
     848:	000027b7          	lui	a5,0x2
     84c:	f2078513          	add	a0,a5,-224 # 1f20 <_ZN12input_buffer9end_indexEv+0x4cc>
     850:	00001097          	auipc	ra,0x1
     854:	cb0080e7          	jalr	-848(ra) # 1500 <_Z13uart_send_strPKc>
     858:	00c0006f          	j	864 <_Z16action_inventoryh+0x9c>
     85c:	00100793          	li	a5,1
     860:	fef407a3          	sb	a5,-17(s0)
     864:	fe344783          	lbu	a5,-29(s0)
     868:	00003737          	lui	a4,0x3
     86c:	60070713          	add	a4,a4,1536 # 3600 <_ZL7objects>
     870:	00279793          	sll	a5,a5,0x2
     874:	00f707b3          	add	a5,a4,a5
     878:	0007a783          	lw	a5,0(a5)
     87c:	00078513          	mv	a0,a5
     880:	00001097          	auipc	ra,0x1
     884:	c80080e7          	jalr	-896(ra) # 1500 <_Z13uart_send_strPKc>
     888:	fe842783          	lw	a5,-24(s0)
     88c:	00178793          	add	a5,a5,1
     890:	fef42423          	sw	a5,-24(s0)
     894:	fe842703          	lw	a4,-24(s0)
     898:	01f00793          	li	a5,31
     89c:	f8e7f4e3          	bgeu	a5,a4,824 <_Z16action_inventoryh+0x5c>
     8a0:	0080006f          	j	8a8 <_Z16action_inventoryh+0xe0>
     8a4:	00000013          	nop
     8a8:	fef44783          	lbu	a5,-17(s0)
     8ac:	0017c793          	xor	a5,a5,1
     8b0:	0ff7f793          	zext.b	a5,a5
     8b4:	00078a63          	beqz	a5,8c8 <_Z16action_inventoryh+0x100>
     8b8:	000027b7          	lui	a5,0x2
     8bc:	f2478513          	add	a0,a5,-220 # 1f24 <_ZN12input_buffer9end_indexEv+0x4d0>
     8c0:	00001097          	auipc	ra,0x1
     8c4:	c40080e7          	jalr	-960(ra) # 1500 <_Z13uart_send_strPKc>
     8c8:	000027b7          	lui	a5,0x2
     8cc:	e6478513          	add	a0,a5,-412 # 1e64 <_ZN12input_buffer9end_indexEv+0x410>
     8d0:	00001097          	auipc	ra,0x1
     8d4:	c30080e7          	jalr	-976(ra) # 1500 <_Z13uart_send_strPKc>
     8d8:	00000013          	nop
     8dc:	02c12083          	lw	ra,44(sp)
     8e0:	02812403          	lw	s0,40(sp)
     8e4:	03010113          	add	sp,sp,48
     8e8:	00008067          	ret

000008ec <_Z32remove_object_from_list_by_indexPhj>:
     8ec:	fd010113          	add	sp,sp,-48
     8f0:	02812623          	sw	s0,44(sp)
     8f4:	03010413          	add	s0,sp,48
     8f8:	fca42e23          	sw	a0,-36(s0)
     8fc:	fcb42c23          	sw	a1,-40(s0)
     900:	fdc42703          	lw	a4,-36(s0)
     904:	fd842783          	lw	a5,-40(s0)
     908:	00f707b3          	add	a5,a4,a5
     90c:	fef42623          	sw	a5,-20(s0)
     910:	fec42783          	lw	a5,-20(s0)
     914:	0017c703          	lbu	a4,1(a5)
     918:	fec42783          	lw	a5,-20(s0)
     91c:	00e78023          	sb	a4,0(a5)
     920:	fec42783          	lw	a5,-20(s0)
     924:	0007c783          	lbu	a5,0(a5)
     928:	00078a63          	beqz	a5,93c <_Z32remove_object_from_list_by_indexPhj+0x50>
     92c:	fec42783          	lw	a5,-20(s0)
     930:	00178793          	add	a5,a5,1
     934:	fef42623          	sw	a5,-20(s0)
     938:	fd9ff06f          	j	910 <_Z32remove_object_from_list_by_indexPhj+0x24>
     93c:	00000013          	nop
     940:	02c12403          	lw	s0,44(sp)
     944:	03010113          	add	sp,sp,48
     948:	00008067          	ret

0000094c <_Z18add_object_to_listPhjh>:
     94c:	fd010113          	add	sp,sp,-48
     950:	02112623          	sw	ra,44(sp)
     954:	02812423          	sw	s0,40(sp)
     958:	03010413          	add	s0,sp,48
     95c:	fca42e23          	sw	a0,-36(s0)
     960:	fcb42c23          	sw	a1,-40(s0)
     964:	00060793          	mv	a5,a2
     968:	fcf40ba3          	sb	a5,-41(s0)
     96c:	fe042623          	sw	zero,-20(s0)
     970:	0580006f          	j	9c8 <_Z18add_object_to_listPhjh+0x7c>
     974:	fdc42703          	lw	a4,-36(s0)
     978:	fec42783          	lw	a5,-20(s0)
     97c:	00f707b3          	add	a5,a4,a5
     980:	0007c783          	lbu	a5,0(a5)
     984:	02079a63          	bnez	a5,9b8 <_Z18add_object_to_listPhjh+0x6c>
     988:	fdc42703          	lw	a4,-36(s0)
     98c:	fec42783          	lw	a5,-20(s0)
     990:	00f707b3          	add	a5,a4,a5
     994:	fd744703          	lbu	a4,-41(s0)
     998:	00e78023          	sb	a4,0(a5)
     99c:	fec42783          	lw	a5,-20(s0)
     9a0:	00178793          	add	a5,a5,1
     9a4:	fdc42703          	lw	a4,-36(s0)
     9a8:	00f707b3          	add	a5,a4,a5
     9ac:	00078023          	sb	zero,0(a5)
     9b0:	00100793          	li	a5,1
     9b4:	0380006f          	j	9ec <_Z18add_object_to_listPhjh+0xa0>
     9b8:	00000013          	nop
     9bc:	fec42783          	lw	a5,-20(s0)
     9c0:	00178793          	add	a5,a5,1
     9c4:	fef42623          	sw	a5,-20(s0)
     9c8:	fd842783          	lw	a5,-40(s0)
     9cc:	fff78793          	add	a5,a5,-1
     9d0:	fec42703          	lw	a4,-20(s0)
     9d4:	faf760e3          	bltu	a4,a5,974 <_Z18add_object_to_listPhjh+0x28>
     9d8:	000027b7          	lui	a5,0x2
     9dc:	f5478513          	add	a0,a5,-172 # 1f54 <_ZN12input_buffer9end_indexEv+0x500>
     9e0:	00001097          	auipc	ra,0x1
     9e4:	b20080e7          	jalr	-1248(ra) # 1500 <_Z13uart_send_strPKc>
     9e8:	00000793          	li	a5,0
     9ec:	00078513          	mv	a0,a5
     9f0:	02c12083          	lw	ra,44(sp)
     9f4:	02812403          	lw	s0,40(sp)
     9f8:	03010113          	add	sp,sp,48
     9fc:	00008067          	ret

00000a00 <_Z18add_entity_to_listPhjh>:
     a00:	fd010113          	add	sp,sp,-48
     a04:	02112623          	sw	ra,44(sp)
     a08:	02812423          	sw	s0,40(sp)
     a0c:	03010413          	add	s0,sp,48
     a10:	fca42e23          	sw	a0,-36(s0)
     a14:	fcb42c23          	sw	a1,-40(s0)
     a18:	00060793          	mv	a5,a2
     a1c:	fcf40ba3          	sb	a5,-41(s0)
     a20:	fe042623          	sw	zero,-20(s0)
     a24:	0580006f          	j	a7c <_Z18add_entity_to_listPhjh+0x7c>
     a28:	fdc42703          	lw	a4,-36(s0)
     a2c:	fec42783          	lw	a5,-20(s0)
     a30:	00f707b3          	add	a5,a4,a5
     a34:	0007c783          	lbu	a5,0(a5)
     a38:	02079a63          	bnez	a5,a6c <_Z18add_entity_to_listPhjh+0x6c>
     a3c:	fdc42703          	lw	a4,-36(s0)
     a40:	fec42783          	lw	a5,-20(s0)
     a44:	00f707b3          	add	a5,a4,a5
     a48:	fd744703          	lbu	a4,-41(s0)
     a4c:	00e78023          	sb	a4,0(a5)
     a50:	fec42783          	lw	a5,-20(s0)
     a54:	00178793          	add	a5,a5,1
     a58:	fdc42703          	lw	a4,-36(s0)
     a5c:	00f707b3          	add	a5,a4,a5
     a60:	00078023          	sb	zero,0(a5)
     a64:	00100793          	li	a5,1
     a68:	0380006f          	j	aa0 <_Z18add_entity_to_listPhjh+0xa0>
     a6c:	00000013          	nop
     a70:	fec42783          	lw	a5,-20(s0)
     a74:	00178793          	add	a5,a5,1
     a78:	fef42623          	sw	a5,-20(s0)
     a7c:	fd842783          	lw	a5,-40(s0)
     a80:	fff78793          	add	a5,a5,-1
     a84:	fec42703          	lw	a4,-20(s0)
     a88:	faf760e3          	bltu	a4,a5,a28 <_Z18add_entity_to_listPhjh+0x28>
     a8c:	000027b7          	lui	a5,0x2
     a90:	f6478513          	add	a0,a5,-156 # 1f64 <_ZN12input_buffer9end_indexEv+0x510>
     a94:	00001097          	auipc	ra,0x1
     a98:	a6c080e7          	jalr	-1428(ra) # 1500 <_Z13uart_send_strPKc>
     a9c:	00000793          	li	a5,0
     aa0:	00078513          	mv	a0,a5
     aa4:	02c12083          	lw	ra,44(sp)
     aa8:	02812403          	lw	s0,40(sp)
     aac:	03010113          	add	sp,sp,48
     ab0:	00008067          	ret

00000ab4 <_Z23remove_entity_from_listPhjh>:
     ab4:	fd010113          	add	sp,sp,-48
     ab8:	02112623          	sw	ra,44(sp)
     abc:	02812423          	sw	s0,40(sp)
     ac0:	03010413          	add	s0,sp,48
     ac4:	fca42e23          	sw	a0,-36(s0)
     ac8:	fcb42c23          	sw	a1,-40(s0)
     acc:	00060793          	mv	a5,a2
     ad0:	fcf40ba3          	sb	a5,-41(s0)
     ad4:	fe042623          	sw	zero,-20(s0)
     ad8:	0900006f          	j	b68 <_Z23remove_entity_from_listPhjh+0xb4>
     adc:	fdc42703          	lw	a4,-36(s0)
     ae0:	fec42783          	lw	a5,-20(s0)
     ae4:	00f707b3          	add	a5,a4,a5
     ae8:	0007c783          	lbu	a5,0(a5)
     aec:	fd744703          	lbu	a4,-41(s0)
     af0:	06f71463          	bne	a4,a5,b58 <_Z23remove_entity_from_listPhjh+0xa4>
     af4:	fec42783          	lw	a5,-20(s0)
     af8:	fef42423          	sw	a5,-24(s0)
     afc:	0480006f          	j	b44 <_Z23remove_entity_from_listPhjh+0x90>
     b00:	fe842783          	lw	a5,-24(s0)
     b04:	00178793          	add	a5,a5,1
     b08:	fdc42703          	lw	a4,-36(s0)
     b0c:	00f70733          	add	a4,a4,a5
     b10:	fdc42683          	lw	a3,-36(s0)
     b14:	fe842783          	lw	a5,-24(s0)
     b18:	00f687b3          	add	a5,a3,a5
     b1c:	00074703          	lbu	a4,0(a4)
     b20:	00e78023          	sb	a4,0(a5)
     b24:	fdc42703          	lw	a4,-36(s0)
     b28:	fe842783          	lw	a5,-24(s0)
     b2c:	00f707b3          	add	a5,a4,a5
     b30:	0007c783          	lbu	a5,0(a5)
     b34:	04078c63          	beqz	a5,b8c <_Z23remove_entity_from_listPhjh+0xd8>
     b38:	fe842783          	lw	a5,-24(s0)
     b3c:	00178793          	add	a5,a5,1
     b40:	fef42423          	sw	a5,-24(s0)
     b44:	fd842783          	lw	a5,-40(s0)
     b48:	fff78793          	add	a5,a5,-1
     b4c:	fe842703          	lw	a4,-24(s0)
     b50:	faf768e3          	bltu	a4,a5,b00 <_Z23remove_entity_from_listPhjh+0x4c>
     b54:	0080006f          	j	b5c <_Z23remove_entity_from_listPhjh+0xa8>
     b58:	00000013          	nop
     b5c:	fec42783          	lw	a5,-20(s0)
     b60:	00178793          	add	a5,a5,1
     b64:	fef42623          	sw	a5,-20(s0)
     b68:	fd842783          	lw	a5,-40(s0)
     b6c:	fff78793          	add	a5,a5,-1
     b70:	fec42703          	lw	a4,-20(s0)
     b74:	f6f764e3          	bltu	a4,a5,adc <_Z23remove_entity_from_listPhjh+0x28>
     b78:	000027b7          	lui	a5,0x2
     b7c:	f7478513          	add	a0,a5,-140 # 1f74 <_ZN12input_buffer9end_indexEv+0x520>
     b80:	00001097          	auipc	ra,0x1
     b84:	980080e7          	jalr	-1664(ra) # 1500 <_Z13uart_send_strPKc>
     b88:	0080006f          	j	b90 <_Z23remove_entity_from_listPhjh+0xdc>
     b8c:	00000013          	nop
     b90:	02c12083          	lw	ra,44(sp)
     b94:	02812403          	lw	s0,40(sp)
     b98:	03010113          	add	sp,sp,48
     b9c:	00008067          	ret

00000ba0 <_Z32remove_entity_from_list_by_indexPhj>:
     ba0:	fd010113          	add	sp,sp,-48
     ba4:	02812623          	sw	s0,44(sp)
     ba8:	03010413          	add	s0,sp,48
     bac:	fca42e23          	sw	a0,-36(s0)
     bb0:	fcb42c23          	sw	a1,-40(s0)
     bb4:	fdc42703          	lw	a4,-36(s0)
     bb8:	fd842783          	lw	a5,-40(s0)
     bbc:	00f707b3          	add	a5,a4,a5
     bc0:	fef42623          	sw	a5,-20(s0)
     bc4:	fec42783          	lw	a5,-20(s0)
     bc8:	0017c703          	lbu	a4,1(a5)
     bcc:	fec42783          	lw	a5,-20(s0)
     bd0:	00e78023          	sb	a4,0(a5)
     bd4:	fec42783          	lw	a5,-20(s0)
     bd8:	0007c783          	lbu	a5,0(a5)
     bdc:	00078a63          	beqz	a5,bf0 <_Z32remove_entity_from_list_by_indexPhj+0x50>
     be0:	fec42783          	lw	a5,-20(s0)
     be4:	00178793          	add	a5,a5,1
     be8:	fef42623          	sw	a5,-20(s0)
     bec:	fd9ff06f          	j	bc4 <_Z32remove_entity_from_list_by_indexPhj+0x24>
     bf0:	00000013          	nop
     bf4:	02c12403          	lw	s0,44(sp)
     bf8:	03010113          	add	sp,sp,48
     bfc:	00008067          	ret

00000c00 <_Z11action_takehPKc>:
     c00:	fd010113          	add	sp,sp,-48
     c04:	02112623          	sw	ra,44(sp)
     c08:	02812423          	sw	s0,40(sp)
     c0c:	03010413          	add	s0,sp,48
     c10:	00050793          	mv	a5,a0
     c14:	fcb42c23          	sw	a1,-40(s0)
     c18:	fcf40fa3          	sb	a5,-33(s0)
     c1c:	fdf44703          	lbu	a4,-33(s0)
     c20:	00070793          	mv	a5,a4
     c24:	00279793          	sll	a5,a5,0x2
     c28:	00e787b3          	add	a5,a5,a4
     c2c:	00379793          	sll	a5,a5,0x3
     c30:	00003737          	lui	a4,0x3
     c34:	61070713          	add	a4,a4,1552 # 3610 <_ZL8entities>
     c38:	00e787b3          	add	a5,a5,a4
     c3c:	fef42423          	sw	a5,-24(s0)
     c40:	fe842783          	lw	a5,-24(s0)
     c44:	0047c783          	lbu	a5,4(a5)
     c48:	00078713          	mv	a4,a5
     c4c:	00070793          	mv	a5,a4
     c50:	00379793          	sll	a5,a5,0x3
     c54:	00e787b3          	add	a5,a5,a4
     c58:	00279793          	sll	a5,a5,0x2
     c5c:	00e787b3          	add	a5,a5,a4
     c60:	00279793          	sll	a5,a5,0x2
     c64:	00003737          	lui	a4,0x3
     c68:	68870713          	add	a4,a4,1672 # 3688 <_ZL9locations>
     c6c:	00e787b3          	add	a5,a5,a4
     c70:	00478793          	add	a5,a5,4
     c74:	fef42223          	sw	a5,-28(s0)
     c78:	fe042623          	sw	zero,-20(s0)
     c7c:	0a40006f          	j	d20 <_Z11action_takehPKc+0x120>
     c80:	fe442703          	lw	a4,-28(s0)
     c84:	fec42783          	lw	a5,-20(s0)
     c88:	00f707b3          	add	a5,a4,a5
     c8c:	0007c783          	lbu	a5,0(a5)
     c90:	fef401a3          	sb	a5,-29(s0)
     c94:	fe344783          	lbu	a5,-29(s0)
     c98:	08078c63          	beqz	a5,d30 <_Z11action_takehPKc+0x130>
     c9c:	fe344783          	lbu	a5,-29(s0)
     ca0:	00003737          	lui	a4,0x3
     ca4:	60070713          	add	a4,a4,1536 # 3600 <_ZL7objects>
     ca8:	00279793          	sll	a5,a5,0x2
     cac:	00f707b3          	add	a5,a4,a5
     cb0:	0007a783          	lw	a5,0(a5)
     cb4:	fd842583          	lw	a1,-40(s0)
     cb8:	00078513          	mv	a0,a5
     cbc:	00000097          	auipc	ra,0x0
     cc0:	6d0080e7          	jalr	1744(ra) # 138c <_Z13strings_equalPKcS0_>
     cc4:	00050793          	mv	a5,a0
     cc8:	0017c793          	xor	a5,a5,1
     ccc:	0ff7f793          	zext.b	a5,a5
     cd0:	04079063          	bnez	a5,d10 <_Z11action_takehPKc+0x110>
     cd4:	fe842783          	lw	a5,-24(s0)
     cd8:	00578793          	add	a5,a5,5
     cdc:	fe344703          	lbu	a4,-29(s0)
     ce0:	00070613          	mv	a2,a4
     ce4:	02000593          	li	a1,32
     ce8:	00078513          	mv	a0,a5
     cec:	00000097          	auipc	ra,0x0
     cf0:	c60080e7          	jalr	-928(ra) # 94c <_Z18add_object_to_listPhjh>
     cf4:	00050793          	mv	a5,a0
     cf8:	04078e63          	beqz	a5,d54 <_Z11action_takehPKc+0x154>
     cfc:	fec42583          	lw	a1,-20(s0)
     d00:	fe442503          	lw	a0,-28(s0)
     d04:	00000097          	auipc	ra,0x0
     d08:	be8080e7          	jalr	-1048(ra) # 8ec <_Z32remove_object_from_list_by_indexPhj>
     d0c:	0480006f          	j	d54 <_Z11action_takehPKc+0x154>
     d10:	00000013          	nop
     d14:	fec42783          	lw	a5,-20(s0)
     d18:	00178793          	add	a5,a5,1
     d1c:	fef42623          	sw	a5,-20(s0)
     d20:	fec42703          	lw	a4,-20(s0)
     d24:	07f00793          	li	a5,127
     d28:	f4e7fce3          	bgeu	a5,a4,c80 <_Z11action_takehPKc+0x80>
     d2c:	0080006f          	j	d34 <_Z11action_takehPKc+0x134>
     d30:	00000013          	nop
     d34:	fd842503          	lw	a0,-40(s0)
     d38:	00000097          	auipc	ra,0x0
     d3c:	7c8080e7          	jalr	1992(ra) # 1500 <_Z13uart_send_strPKc>
     d40:	000027b7          	lui	a5,0x2
     d44:	f8878513          	add	a0,a5,-120 # 1f88 <_ZN12input_buffer9end_indexEv+0x534>
     d48:	00000097          	auipc	ra,0x0
     d4c:	7b8080e7          	jalr	1976(ra) # 1500 <_Z13uart_send_strPKc>
     d50:	0080006f          	j	d58 <_Z11action_takehPKc+0x158>
     d54:	00000013          	nop
     d58:	02c12083          	lw	ra,44(sp)
     d5c:	02812403          	lw	s0,40(sp)
     d60:	03010113          	add	sp,sp,48
     d64:	00008067          	ret

00000d68 <_Z11action_drophPKc>:
     d68:	fd010113          	add	sp,sp,-48
     d6c:	02112623          	sw	ra,44(sp)
     d70:	02812423          	sw	s0,40(sp)
     d74:	03010413          	add	s0,sp,48
     d78:	00050793          	mv	a5,a0
     d7c:	fcb42c23          	sw	a1,-40(s0)
     d80:	fcf40fa3          	sb	a5,-33(s0)
     d84:	fdf44703          	lbu	a4,-33(s0)
     d88:	00070793          	mv	a5,a4
     d8c:	00279793          	sll	a5,a5,0x2
     d90:	00e787b3          	add	a5,a5,a4
     d94:	00379793          	sll	a5,a5,0x3
     d98:	00003737          	lui	a4,0x3
     d9c:	61070713          	add	a4,a4,1552 # 3610 <_ZL8entities>
     da0:	00e787b3          	add	a5,a5,a4
     da4:	fef42423          	sw	a5,-24(s0)
     da8:	fe842783          	lw	a5,-24(s0)
     dac:	00578793          	add	a5,a5,5
     db0:	fef42223          	sw	a5,-28(s0)
     db4:	fe042623          	sw	zero,-20(s0)
     db8:	0d00006f          	j	e88 <_Z11action_drophPKc+0x120>
     dbc:	fe442703          	lw	a4,-28(s0)
     dc0:	fec42783          	lw	a5,-20(s0)
     dc4:	00f707b3          	add	a5,a4,a5
     dc8:	0007c783          	lbu	a5,0(a5)
     dcc:	fef401a3          	sb	a5,-29(s0)
     dd0:	fe344783          	lbu	a5,-29(s0)
     dd4:	0c078263          	beqz	a5,e98 <_Z11action_drophPKc+0x130>
     dd8:	fe344783          	lbu	a5,-29(s0)
     ddc:	00003737          	lui	a4,0x3
     de0:	60070713          	add	a4,a4,1536 # 3600 <_ZL7objects>
     de4:	00279793          	sll	a5,a5,0x2
     de8:	00f707b3          	add	a5,a4,a5
     dec:	0007a783          	lw	a5,0(a5)
     df0:	fd842583          	lw	a1,-40(s0)
     df4:	00078513          	mv	a0,a5
     df8:	00000097          	auipc	ra,0x0
     dfc:	594080e7          	jalr	1428(ra) # 138c <_Z13strings_equalPKcS0_>
     e00:	00050793          	mv	a5,a0
     e04:	0017c793          	xor	a5,a5,1
     e08:	0ff7f793          	zext.b	a5,a5
     e0c:	06079663          	bnez	a5,e78 <_Z11action_drophPKc+0x110>
     e10:	fe842783          	lw	a5,-24(s0)
     e14:	0047c783          	lbu	a5,4(a5)
     e18:	00078713          	mv	a4,a5
     e1c:	00070793          	mv	a5,a4
     e20:	00379793          	sll	a5,a5,0x3
     e24:	00e787b3          	add	a5,a5,a4
     e28:	00279793          	sll	a5,a5,0x2
     e2c:	00e787b3          	add	a5,a5,a4
     e30:	00279793          	sll	a5,a5,0x2
     e34:	00003737          	lui	a4,0x3
     e38:	68870713          	add	a4,a4,1672 # 3688 <_ZL9locations>
     e3c:	00e787b3          	add	a5,a5,a4
     e40:	00478793          	add	a5,a5,4
     e44:	fe344703          	lbu	a4,-29(s0)
     e48:	00070613          	mv	a2,a4
     e4c:	08000593          	li	a1,128
     e50:	00078513          	mv	a0,a5
     e54:	00000097          	auipc	ra,0x0
     e58:	af8080e7          	jalr	-1288(ra) # 94c <_Z18add_object_to_listPhjh>
     e5c:	00050793          	mv	a5,a0
     e60:	06078663          	beqz	a5,ecc <_Z11action_drophPKc+0x164>
     e64:	fec42583          	lw	a1,-20(s0)
     e68:	fe442503          	lw	a0,-28(s0)
     e6c:	00000097          	auipc	ra,0x0
     e70:	a80080e7          	jalr	-1408(ra) # 8ec <_Z32remove_object_from_list_by_indexPhj>
     e74:	0580006f          	j	ecc <_Z11action_drophPKc+0x164>
     e78:	00000013          	nop
     e7c:	fec42783          	lw	a5,-20(s0)
     e80:	00178793          	add	a5,a5,1
     e84:	fef42623          	sw	a5,-20(s0)
     e88:	fec42703          	lw	a4,-20(s0)
     e8c:	01f00793          	li	a5,31
     e90:	f2e7f6e3          	bgeu	a5,a4,dbc <_Z11action_drophPKc+0x54>
     e94:	0080006f          	j	e9c <_Z11action_drophPKc+0x134>
     e98:	00000013          	nop
     e9c:	000027b7          	lui	a5,0x2
     ea0:	f9878513          	add	a0,a5,-104 # 1f98 <_ZN12input_buffer9end_indexEv+0x544>
     ea4:	00000097          	auipc	ra,0x0
     ea8:	65c080e7          	jalr	1628(ra) # 1500 <_Z13uart_send_strPKc>
     eac:	fd842503          	lw	a0,-40(s0)
     eb0:	00000097          	auipc	ra,0x0
     eb4:	650080e7          	jalr	1616(ra) # 1500 <_Z13uart_send_strPKc>
     eb8:	000027b7          	lui	a5,0x2
     ebc:	fa878513          	add	a0,a5,-88 # 1fa8 <_ZN12input_buffer9end_indexEv+0x554>
     ec0:	00000097          	auipc	ra,0x0
     ec4:	640080e7          	jalr	1600(ra) # 1500 <_Z13uart_send_strPKc>
     ec8:	0080006f          	j	ed0 <_Z11action_drophPKc+0x168>
     ecc:	00000013          	nop
     ed0:	02c12083          	lw	ra,44(sp)
     ed4:	02812403          	lw	s0,40(sp)
     ed8:	03010113          	add	sp,sp,48
     edc:	00008067          	ret

00000ee0 <_Z9action_gohh>:
     ee0:	fd010113          	add	sp,sp,-48
     ee4:	02112623          	sw	ra,44(sp)
     ee8:	02812423          	sw	s0,40(sp)
     eec:	03010413          	add	s0,sp,48
     ef0:	00050793          	mv	a5,a0
     ef4:	00058713          	mv	a4,a1
     ef8:	fcf40fa3          	sb	a5,-33(s0)
     efc:	00070793          	mv	a5,a4
     f00:	fcf40f23          	sb	a5,-34(s0)
     f04:	fdf44703          	lbu	a4,-33(s0)
     f08:	00070793          	mv	a5,a4
     f0c:	00279793          	sll	a5,a5,0x2
     f10:	00e787b3          	add	a5,a5,a4
     f14:	00379793          	sll	a5,a5,0x3
     f18:	00003737          	lui	a4,0x3
     f1c:	61070713          	add	a4,a4,1552 # 3610 <_ZL8entities>
     f20:	00e787b3          	add	a5,a5,a4
     f24:	fef42623          	sw	a5,-20(s0)
     f28:	fec42783          	lw	a5,-20(s0)
     f2c:	0047c783          	lbu	a5,4(a5)
     f30:	00078713          	mv	a4,a5
     f34:	00070793          	mv	a5,a4
     f38:	00379793          	sll	a5,a5,0x3
     f3c:	00e787b3          	add	a5,a5,a4
     f40:	00279793          	sll	a5,a5,0x2
     f44:	00e787b3          	add	a5,a5,a4
     f48:	00279793          	sll	a5,a5,0x2
     f4c:	00003737          	lui	a4,0x3
     f50:	68870713          	add	a4,a4,1672 # 3688 <_ZL9locations>
     f54:	00e787b3          	add	a5,a5,a4
     f58:	fef42423          	sw	a5,-24(s0)
     f5c:	fde44783          	lbu	a5,-34(s0)
     f60:	fe842703          	lw	a4,-24(s0)
     f64:	00f707b3          	add	a5,a4,a5
     f68:	08c7c783          	lbu	a5,140(a5)
     f6c:	fef403a3          	sb	a5,-25(s0)
     f70:	fe744783          	lbu	a5,-25(s0)
     f74:	00079c63          	bnez	a5,f8c <_Z9action_gohh+0xac>
     f78:	000027b7          	lui	a5,0x2
     f7c:	fb078513          	add	a0,a5,-80 # 1fb0 <_ZN12input_buffer9end_indexEv+0x55c>
     f80:	00000097          	auipc	ra,0x0
     f84:	580080e7          	jalr	1408(ra) # 1500 <_Z13uart_send_strPKc>
     f88:	0800006f          	j	1008 <_Z9action_gohh+0x128>
     f8c:	fe744703          	lbu	a4,-25(s0)
     f90:	00070793          	mv	a5,a4
     f94:	00379793          	sll	a5,a5,0x3
     f98:	00e787b3          	add	a5,a5,a4
     f9c:	00279793          	sll	a5,a5,0x2
     fa0:	00e787b3          	add	a5,a5,a4
     fa4:	00279793          	sll	a5,a5,0x2
     fa8:	08078713          	add	a4,a5,128
     fac:	000037b7          	lui	a5,0x3
     fb0:	68878793          	add	a5,a5,1672 # 3688 <_ZL9locations>
     fb4:	00f707b3          	add	a5,a4,a5
     fb8:	00478793          	add	a5,a5,4
     fbc:	fdf44703          	lbu	a4,-33(s0)
     fc0:	00070613          	mv	a2,a4
     fc4:	00800593          	li	a1,8
     fc8:	00078513          	mv	a0,a5
     fcc:	00000097          	auipc	ra,0x0
     fd0:	a34080e7          	jalr	-1484(ra) # a00 <_Z18add_entity_to_listPhjh>
     fd4:	00050793          	mv	a5,a0
     fd8:	02078863          	beqz	a5,1008 <_Z9action_gohh+0x128>
     fdc:	fe842783          	lw	a5,-24(s0)
     fe0:	08478793          	add	a5,a5,132
     fe4:	fdf44703          	lbu	a4,-33(s0)
     fe8:	00070613          	mv	a2,a4
     fec:	00800593          	li	a1,8
     ff0:	00078513          	mv	a0,a5
     ff4:	00000097          	auipc	ra,0x0
     ff8:	ac0080e7          	jalr	-1344(ra) # ab4 <_Z23remove_entity_from_listPhjh>
     ffc:	fec42783          	lw	a5,-20(s0)
    1000:	fe744703          	lbu	a4,-25(s0)
    1004:	00e78223          	sb	a4,4(a5)
    1008:	02c12083          	lw	ra,44(sp)
    100c:	02812403          	lw	s0,40(sp)
    1010:	03010113          	add	sp,sp,48
    1014:	00008067          	ret

00001018 <_Z11action_givehPKcS0_>:
    1018:	fc010113          	add	sp,sp,-64
    101c:	02112e23          	sw	ra,60(sp)
    1020:	02812c23          	sw	s0,56(sp)
    1024:	04010413          	add	s0,sp,64
    1028:	00050793          	mv	a5,a0
    102c:	fcb42423          	sw	a1,-56(s0)
    1030:	fcc42223          	sw	a2,-60(s0)
    1034:	fcf407a3          	sb	a5,-49(s0)
    1038:	fcf44703          	lbu	a4,-49(s0)
    103c:	00070793          	mv	a5,a4
    1040:	00279793          	sll	a5,a5,0x2
    1044:	00e787b3          	add	a5,a5,a4
    1048:	00379793          	sll	a5,a5,0x3
    104c:	00003737          	lui	a4,0x3
    1050:	61070713          	add	a4,a4,1552 # 3610 <_ZL8entities>
    1054:	00e787b3          	add	a5,a5,a4
    1058:	fef42223          	sw	a5,-28(s0)
    105c:	fe442783          	lw	a5,-28(s0)
    1060:	0047c783          	lbu	a5,4(a5)
    1064:	00078713          	mv	a4,a5
    1068:	00070793          	mv	a5,a4
    106c:	00379793          	sll	a5,a5,0x3
    1070:	00e787b3          	add	a5,a5,a4
    1074:	00279793          	sll	a5,a5,0x2
    1078:	00e787b3          	add	a5,a5,a4
    107c:	00279793          	sll	a5,a5,0x2
    1080:	00003737          	lui	a4,0x3
    1084:	68870713          	add	a4,a4,1672 # 3688 <_ZL9locations>
    1088:	00e787b3          	add	a5,a5,a4
    108c:	fef42023          	sw	a5,-32(s0)
    1090:	fe042783          	lw	a5,-32(s0)
    1094:	08478793          	add	a5,a5,132
    1098:	fcf42e23          	sw	a5,-36(s0)
    109c:	fe042623          	sw	zero,-20(s0)
    10a0:	16c0006f          	j	120c <_Z11action_givehPKcS0_+0x1f4>
    10a4:	fdc42703          	lw	a4,-36(s0)
    10a8:	fec42783          	lw	a5,-20(s0)
    10ac:	00f707b3          	add	a5,a4,a5
    10b0:	0007c783          	lbu	a5,0(a5)
    10b4:	16078463          	beqz	a5,121c <_Z11action_givehPKcS0_+0x204>
    10b8:	fdc42703          	lw	a4,-36(s0)
    10bc:	fec42783          	lw	a5,-20(s0)
    10c0:	00f707b3          	add	a5,a4,a5
    10c4:	0007c783          	lbu	a5,0(a5)
    10c8:	00078713          	mv	a4,a5
    10cc:	00070793          	mv	a5,a4
    10d0:	00279793          	sll	a5,a5,0x2
    10d4:	00e787b3          	add	a5,a5,a4
    10d8:	00379793          	sll	a5,a5,0x3
    10dc:	00003737          	lui	a4,0x3
    10e0:	61070713          	add	a4,a4,1552 # 3610 <_ZL8entities>
    10e4:	00e787b3          	add	a5,a5,a4
    10e8:	fcf42c23          	sw	a5,-40(s0)
    10ec:	fd842783          	lw	a5,-40(s0)
    10f0:	0007a783          	lw	a5,0(a5)
    10f4:	fc442583          	lw	a1,-60(s0)
    10f8:	00078513          	mv	a0,a5
    10fc:	00000097          	auipc	ra,0x0
    1100:	290080e7          	jalr	656(ra) # 138c <_Z13strings_equalPKcS0_>
    1104:	00050793          	mv	a5,a0
    1108:	0017c793          	xor	a5,a5,1
    110c:	0ff7f793          	zext.b	a5,a5
    1110:	0e079663          	bnez	a5,11fc <_Z11action_givehPKcS0_+0x1e4>
    1114:	fe442783          	lw	a5,-28(s0)
    1118:	00578793          	add	a5,a5,5
    111c:	fcf42a23          	sw	a5,-44(s0)
    1120:	fe042423          	sw	zero,-24(s0)
    1124:	0a40006f          	j	11c8 <_Z11action_givehPKcS0_+0x1b0>
    1128:	fd442703          	lw	a4,-44(s0)
    112c:	fe842783          	lw	a5,-24(s0)
    1130:	00f707b3          	add	a5,a4,a5
    1134:	0007c783          	lbu	a5,0(a5)
    1138:	fcf409a3          	sb	a5,-45(s0)
    113c:	fd344783          	lbu	a5,-45(s0)
    1140:	08078c63          	beqz	a5,11d8 <_Z11action_givehPKcS0_+0x1c0>
    1144:	fd344783          	lbu	a5,-45(s0)
    1148:	00003737          	lui	a4,0x3
    114c:	60070713          	add	a4,a4,1536 # 3600 <_ZL7objects>
    1150:	00279793          	sll	a5,a5,0x2
    1154:	00f707b3          	add	a5,a4,a5
    1158:	0007a783          	lw	a5,0(a5)
    115c:	fc842583          	lw	a1,-56(s0)
    1160:	00078513          	mv	a0,a5
    1164:	00000097          	auipc	ra,0x0
    1168:	228080e7          	jalr	552(ra) # 138c <_Z13strings_equalPKcS0_>
    116c:	00050793          	mv	a5,a0
    1170:	0017c793          	xor	a5,a5,1
    1174:	0ff7f793          	zext.b	a5,a5
    1178:	04079063          	bnez	a5,11b8 <_Z11action_givehPKcS0_+0x1a0>
    117c:	fd842783          	lw	a5,-40(s0)
    1180:	00578793          	add	a5,a5,5
    1184:	fd344703          	lbu	a4,-45(s0)
    1188:	00070613          	mv	a2,a4
    118c:	02000593          	li	a1,32
    1190:	00078513          	mv	a0,a5
    1194:	fffff097          	auipc	ra,0xfffff
    1198:	7b8080e7          	jalr	1976(ra) # 94c <_Z18add_object_to_listPhjh>
    119c:	00050793          	mv	a5,a0
    11a0:	0a078063          	beqz	a5,1240 <_Z11action_givehPKcS0_+0x228>
    11a4:	fe842583          	lw	a1,-24(s0)
    11a8:	fd442503          	lw	a0,-44(s0)
    11ac:	fffff097          	auipc	ra,0xfffff
    11b0:	740080e7          	jalr	1856(ra) # 8ec <_Z32remove_object_from_list_by_indexPhj>
    11b4:	08c0006f          	j	1240 <_Z11action_givehPKcS0_+0x228>
    11b8:	00000013          	nop
    11bc:	fe842783          	lw	a5,-24(s0)
    11c0:	00178793          	add	a5,a5,1
    11c4:	fef42423          	sw	a5,-24(s0)
    11c8:	fe842703          	lw	a4,-24(s0)
    11cc:	01f00793          	li	a5,31
    11d0:	f4e7fce3          	bgeu	a5,a4,1128 <_Z11action_givehPKcS0_+0x110>
    11d4:	0080006f          	j	11dc <_Z11action_givehPKcS0_+0x1c4>
    11d8:	00000013          	nop
    11dc:	fc842503          	lw	a0,-56(s0)
    11e0:	00000097          	auipc	ra,0x0
    11e4:	320080e7          	jalr	800(ra) # 1500 <_Z13uart_send_strPKc>
    11e8:	000027b7          	lui	a5,0x2
    11ec:	fc478513          	add	a0,a5,-60 # 1fc4 <_ZN12input_buffer9end_indexEv+0x570>
    11f0:	00000097          	auipc	ra,0x0
    11f4:	310080e7          	jalr	784(ra) # 1500 <_Z13uart_send_strPKc>
    11f8:	04c0006f          	j	1244 <_Z11action_givehPKcS0_+0x22c>
    11fc:	00000013          	nop
    1200:	fec42783          	lw	a5,-20(s0)
    1204:	00178793          	add	a5,a5,1
    1208:	fef42623          	sw	a5,-20(s0)
    120c:	fec42703          	lw	a4,-20(s0)
    1210:	00700793          	li	a5,7
    1214:	e8e7f8e3          	bgeu	a5,a4,10a4 <_Z11action_givehPKcS0_+0x8c>
    1218:	0080006f          	j	1220 <_Z11action_givehPKcS0_+0x208>
    121c:	00000013          	nop
    1220:	fc442503          	lw	a0,-60(s0)
    1224:	00000097          	auipc	ra,0x0
    1228:	2dc080e7          	jalr	732(ra) # 1500 <_Z13uart_send_strPKc>
    122c:	000027b7          	lui	a5,0x2
    1230:	fdc78513          	add	a0,a5,-36 # 1fdc <_ZN12input_buffer9end_indexEv+0x588>
    1234:	00000097          	auipc	ra,0x0
    1238:	2cc080e7          	jalr	716(ra) # 1500 <_Z13uart_send_strPKc>
    123c:	0080006f          	j	1244 <_Z11action_givehPKcS0_+0x22c>
    1240:	00000013          	nop
    1244:	03c12083          	lw	ra,60(sp)
    1248:	03812403          	lw	s0,56(sp)
    124c:	04010113          	add	sp,sp,64
    1250:	00008067          	ret

00001254 <_Z10print_helpv>:
    1254:	ff010113          	add	sp,sp,-16
    1258:	00112623          	sw	ra,12(sp)
    125c:	00812423          	sw	s0,8(sp)
    1260:	01010413          	add	s0,sp,16
    1264:	000027b7          	lui	a5,0x2
    1268:	ff078513          	add	a0,a5,-16 # 1ff0 <_ZN12input_buffer9end_indexEv+0x59c>
    126c:	00000097          	auipc	ra,0x0
    1270:	294080e7          	jalr	660(ra) # 1500 <_Z13uart_send_strPKc>
    1274:	00000013          	nop
    1278:	00c12083          	lw	ra,12(sp)
    127c:	00812403          	lw	s0,8(sp)
    1280:	01010113          	add	sp,sp,16
    1284:	00008067          	ret

00001288 <_Z5inputR12input_buffer>:
    1288:	fd010113          	add	sp,sp,-48
    128c:	02112623          	sw	ra,44(sp)
    1290:	02812423          	sw	s0,40(sp)
    1294:	03010413          	add	s0,sp,48
    1298:	fca42e23          	sw	a0,-36(s0)
    129c:	fdc42503          	lw	a0,-36(s0)
    12a0:	00000097          	auipc	ra,0x0
    12a4:	6ec080e7          	jalr	1772(ra) # 198c <_ZN12input_buffer5resetEv>
    12a8:	00000097          	auipc	ra,0x0
    12ac:	30c080e7          	jalr	780(ra) # 15b4 <_Z14uart_read_charv>
    12b0:	00050793          	mv	a5,a0
    12b4:	fef407a3          	sb	a5,-17(s0)
    12b8:	fef44703          	lbu	a4,-17(s0)
    12bc:	07f00793          	li	a5,127
    12c0:	02f71663          	bne	a4,a5,12ec <_Z5inputR12input_buffer+0x64>
    12c4:	fdc42503          	lw	a0,-36(s0)
    12c8:	00000097          	auipc	ra,0x0
    12cc:	5b8080e7          	jalr	1464(ra) # 1880 <_ZN12input_buffer9backspaceEv>
    12d0:	00050793          	mv	a5,a0
    12d4:	06078e63          	beqz	a5,1350 <_Z5inputR12input_buffer+0xc8>
    12d8:	fef44783          	lbu	a5,-17(s0)
    12dc:	00078513          	mv	a0,a5
    12e0:	00000097          	auipc	ra,0x0
    12e4:	288080e7          	jalr	648(ra) # 1568 <_Z14uart_send_charc>
    12e8:	0680006f          	j	1350 <_Z5inputR12input_buffer+0xc8>
    12ec:	fef44703          	lbu	a4,-17(s0)
    12f0:	00d00793          	li	a5,13
    12f4:	00f70c63          	beq	a4,a5,130c <_Z5inputR12input_buffer+0x84>
    12f8:	fdc42503          	lw	a0,-36(s0)
    12fc:	00000097          	auipc	ra,0x0
    1300:	724080e7          	jalr	1828(ra) # 1a20 <_ZN12input_buffer7is_fullEv>
    1304:	00050793          	mv	a5,a0
    1308:	00078663          	beqz	a5,1314 <_Z5inputR12input_buffer+0x8c>
    130c:	00100793          	li	a5,1
    1310:	0080006f          	j	1318 <_Z5inputR12input_buffer+0x90>
    1314:	00000793          	li	a5,0
    1318:	00078a63          	beqz	a5,132c <_Z5inputR12input_buffer+0xa4>
    131c:	fdc42503          	lw	a0,-36(s0)
    1320:	00000097          	auipc	ra,0x0
    1324:	6a4080e7          	jalr	1700(ra) # 19c4 <_ZN12input_buffer7set_eosEv>
    1328:	0540006f          	j	137c <_Z5inputR12input_buffer+0xf4>
    132c:	fef44783          	lbu	a5,-17(s0)
    1330:	00078593          	mv	a1,a5
    1334:	fdc42503          	lw	a0,-36(s0)
    1338:	00000097          	auipc	ra,0x0
    133c:	414080e7          	jalr	1044(ra) # 174c <_ZN12input_buffer6insertEc>
    1340:	fef44783          	lbu	a5,-17(s0)
    1344:	00078513          	mv	a0,a5
    1348:	00000097          	auipc	ra,0x0
    134c:	220080e7          	jalr	544(ra) # 1568 <_Z14uart_send_charc>
    1350:	fdc42503          	lw	a0,-36(s0)
    1354:	00000097          	auipc	ra,0x0
    1358:	700080e7          	jalr	1792(ra) # 1a54 <_ZN12input_buffer9end_indexEv>
    135c:	00050793          	mv	a5,a0
    1360:	0ff7f793          	zext.b	a5,a5
    1364:	fff7c793          	not	a5,a5
    1368:	0ff7f793          	zext.b	a5,a5
    136c:	00078513          	mv	a0,a5
    1370:	00000097          	auipc	ra,0x0
    1374:	160080e7          	jalr	352(ra) # 14d0 <_Z7led_seth>
    1378:	f31ff06f          	j	12a8 <_Z5inputR12input_buffer+0x20>
    137c:	02c12083          	lw	ra,44(sp)
    1380:	02812403          	lw	s0,40(sp)
    1384:	03010113          	add	sp,sp,48
    1388:	00008067          	ret

0000138c <_Z13strings_equalPKcS0_>:
    138c:	fe010113          	add	sp,sp,-32
    1390:	00812e23          	sw	s0,28(sp)
    1394:	02010413          	add	s0,sp,32
    1398:	fea42623          	sw	a0,-20(s0)
    139c:	feb42423          	sw	a1,-24(s0)
    13a0:	fec42783          	lw	a5,-20(s0)
    13a4:	0007c703          	lbu	a4,0(a5)
    13a8:	fe842783          	lw	a5,-24(s0)
    13ac:	0007c783          	lbu	a5,0(a5)
    13b0:	00f70663          	beq	a4,a5,13bc <_Z13strings_equalPKcS0_+0x30>
    13b4:	00000793          	li	a5,0
    13b8:	0400006f          	j	13f8 <_Z13strings_equalPKcS0_+0x6c>
    13bc:	fec42783          	lw	a5,-20(s0)
    13c0:	0007c783          	lbu	a5,0(a5)
    13c4:	00079c63          	bnez	a5,13dc <_Z13strings_equalPKcS0_+0x50>
    13c8:	fe842783          	lw	a5,-24(s0)
    13cc:	0007c783          	lbu	a5,0(a5)
    13d0:	00079663          	bnez	a5,13dc <_Z13strings_equalPKcS0_+0x50>
    13d4:	00100793          	li	a5,1
    13d8:	0200006f          	j	13f8 <_Z13strings_equalPKcS0_+0x6c>
    13dc:	fec42783          	lw	a5,-20(s0)
    13e0:	00178793          	add	a5,a5,1
    13e4:	fef42623          	sw	a5,-20(s0)
    13e8:	fe842783          	lw	a5,-24(s0)
    13ec:	00178793          	add	a5,a5,1
    13f0:	fef42423          	sw	a5,-24(s0)
    13f4:	fadff06f          	j	13a0 <_Z13strings_equalPKcS0_+0x14>
    13f8:	00078513          	mv	a0,a5
    13fc:	01c12403          	lw	s0,28(sp)
    1400:	02010113          	add	sp,sp,32
    1404:	00008067          	ret

00001408 <_Z18uart_send_hex_bytec>:
    1408:	fe010113          	add	sp,sp,-32
    140c:	00112e23          	sw	ra,28(sp)
    1410:	00812c23          	sw	s0,24(sp)
    1414:	02010413          	add	s0,sp,32
    1418:	00050793          	mv	a5,a0
    141c:	fef407a3          	sb	a5,-17(s0)
    1420:	fef44783          	lbu	a5,-17(s0)
    1424:	0047d793          	srl	a5,a5,0x4
    1428:	0ff7f793          	zext.b	a5,a5
    142c:	00078513          	mv	a0,a5
    1430:	00000097          	auipc	ra,0x0
    1434:	034080e7          	jalr	52(ra) # 1464 <_Z20uart_send_hex_nibblec>
    1438:	fef44783          	lbu	a5,-17(s0)
    143c:	00f7f793          	and	a5,a5,15
    1440:	0ff7f793          	zext.b	a5,a5
    1444:	00078513          	mv	a0,a5
    1448:	00000097          	auipc	ra,0x0
    144c:	01c080e7          	jalr	28(ra) # 1464 <_Z20uart_send_hex_nibblec>
    1450:	00000013          	nop
    1454:	01c12083          	lw	ra,28(sp)
    1458:	01812403          	lw	s0,24(sp)
    145c:	02010113          	add	sp,sp,32
    1460:	00008067          	ret

00001464 <_Z20uart_send_hex_nibblec>:
    1464:	fe010113          	add	sp,sp,-32
    1468:	00112e23          	sw	ra,28(sp)
    146c:	00812c23          	sw	s0,24(sp)
    1470:	02010413          	add	s0,sp,32
    1474:	00050793          	mv	a5,a0
    1478:	fef407a3          	sb	a5,-17(s0)
    147c:	fef44703          	lbu	a4,-17(s0)
    1480:	00900793          	li	a5,9
    1484:	02e7e063          	bltu	a5,a4,14a4 <_Z20uart_send_hex_nibblec+0x40>
    1488:	fef44783          	lbu	a5,-17(s0)
    148c:	03078793          	add	a5,a5,48
    1490:	0ff7f793          	zext.b	a5,a5
    1494:	00078513          	mv	a0,a5
    1498:	00000097          	auipc	ra,0x0
    149c:	0d0080e7          	jalr	208(ra) # 1568 <_Z14uart_send_charc>
    14a0:	01c0006f          	j	14bc <_Z20uart_send_hex_nibblec+0x58>
    14a4:	fef44783          	lbu	a5,-17(s0)
    14a8:	03778793          	add	a5,a5,55
    14ac:	0ff7f793          	zext.b	a5,a5
    14b0:	00078513          	mv	a0,a5
    14b4:	00000097          	auipc	ra,0x0
    14b8:	0b4080e7          	jalr	180(ra) # 1568 <_Z14uart_send_charc>
    14bc:	00000013          	nop
    14c0:	01c12083          	lw	ra,28(sp)
    14c4:	01812403          	lw	s0,24(sp)
    14c8:	02010113          	add	sp,sp,32
    14cc:	00008067          	ret

000014d0 <_Z7led_seth>:
# auto led_set(unsigned char bits) -> void { *LED = bits; }
    14d0:	fe010113          	add	sp,sp,-32
    14d4:	00812e23          	sw	s0,28(sp)
    14d8:	02010413          	add	s0,sp,32
    14dc:	00050793          	mv	a5,a0
    14e0:	fef407a3          	sb	a5,-17(s0)
    14e4:	fff00793          	li	a5,-1
    14e8:	fef44703          	lbu	a4,-17(s0)
    14ec:	00e78023          	sb	a4,0(a5)
    14f0:	00000013          	nop
    14f4:	01c12403          	lw	s0,28(sp)
    14f8:	02010113          	add	sp,sp,32
    14fc:	00008067          	ret

00001500 <_Z13uart_send_strPKc>:
# auto uart_send_str(char const *str) -> void {
    1500:	fe010113          	add	sp,sp,-32
    1504:	00812e23          	sw	s0,28(sp)
    1508:	02010413          	add	s0,sp,32
    150c:	fea42623          	sw	a0,-20(s0)
#   while (*str) {
    1510:	0380006f          	j	1548 <_Z13uart_send_strPKc+0x48>
#     while (*UART_OUT)
    1514:	00000013          	nop
    1518:	ffe00793          	li	a5,-2
    151c:	0007c783          	lbu	a5,0(a5)
    1520:	0ff7f793          	zext.b	a5,a5
    1524:	00f037b3          	snez	a5,a5
    1528:	0ff7f793          	zext.b	a5,a5
    152c:	fe0796e3          	bnez	a5,1518 <_Z13uart_send_strPKc+0x18>
#     *UART_OUT = *str++;
    1530:	fec42783          	lw	a5,-20(s0)
    1534:	00178713          	add	a4,a5,1
    1538:	fee42623          	sw	a4,-20(s0)
    153c:	ffe00713          	li	a4,-2
    1540:	0007c783          	lbu	a5,0(a5)
    1544:	00f70023          	sb	a5,0(a4)
#   while (*str) {
    1548:	fec42783          	lw	a5,-20(s0)
    154c:	0007c783          	lbu	a5,0(a5)
    1550:	fc0792e3          	bnez	a5,1514 <_Z13uart_send_strPKc+0x14>
# }
    1554:	00000013          	nop
    1558:	00000013          	nop
    155c:	01c12403          	lw	s0,28(sp)
    1560:	02010113          	add	sp,sp,32
    1564:	00008067          	ret

00001568 <_Z14uart_send_charc>:
# auto uart_send_char(char const ch) -> void {
    1568:	fe010113          	add	sp,sp,-32
    156c:	00812e23          	sw	s0,28(sp)
    1570:	02010413          	add	s0,sp,32
    1574:	00050793          	mv	a5,a0
    1578:	fef407a3          	sb	a5,-17(s0)
#   while (*UART_OUT)
    157c:	00000013          	nop
    1580:	ffe00793          	li	a5,-2
    1584:	0007c783          	lbu	a5,0(a5)
    1588:	0ff7f793          	zext.b	a5,a5
    158c:	00f037b3          	snez	a5,a5
    1590:	0ff7f793          	zext.b	a5,a5
    1594:	fe0796e3          	bnez	a5,1580 <_Z14uart_send_charc+0x18>
#   *UART_OUT = ch;
    1598:	ffe00793          	li	a5,-2
    159c:	fef44703          	lbu	a4,-17(s0)
    15a0:	00e78023          	sb	a4,0(a5)
# }
    15a4:	00000013          	nop
    15a8:	01c12403          	lw	s0,28(sp)
    15ac:	02010113          	add	sp,sp,32
    15b0:	00008067          	ret

000015b4 <_Z14uart_read_charv>:
# auto uart_read_char() -> char {
    15b4:	fe010113          	add	sp,sp,-32
    15b8:	00812e23          	sw	s0,28(sp)
    15bc:	02010413          	add	s0,sp,32
#   while ((ch = *UART_IN) == 0)
    15c0:	00000013          	nop
    15c4:	ffd00793          	li	a5,-3
    15c8:	0007c783          	lbu	a5,0(a5)
    15cc:	fef407a3          	sb	a5,-17(s0)
    15d0:	fef44783          	lbu	a5,-17(s0)
    15d4:	0017b793          	seqz	a5,a5
    15d8:	0ff7f793          	zext.b	a5,a5
    15dc:	fe0794e3          	bnez	a5,15c4 <_Z14uart_read_charv+0x10>
#   return ch;
    15e0:	fef44783          	lbu	a5,-17(s0)
# }
    15e4:	00078513          	mv	a0,a5
    15e8:	01c12403          	lw	s0,28(sp)
    15ec:	02010113          	add	sp,sp,32
    15f0:	00008067          	ret

000015f4 <_Z15action_mem_testv>:
# auto action_mem_test() -> void {
    15f4:	fe010113          	add	sp,sp,-32
    15f8:	00112e23          	sw	ra,28(sp)
    15fc:	00812c23          	sw	s0,24(sp)
    1600:	02010413          	add	s0,sp,32
#   uart_send_str("testing memory (write)\r\n");
    1604:	000027b7          	lui	a5,0x2
    1608:	0cc78513          	add	a0,a5,204 # 20cc <_ZN12input_buffer9end_indexEv+0x678>
    160c:	00000097          	auipc	ra,0x0
    1610:	ef4080e7          	jalr	-268(ra) # 1500 <_Z13uart_send_strPKc>
#   char *ptr = (char *)0x10000;
    1614:	000107b7          	lui	a5,0x10
    1618:	fef42623          	sw	a5,-20(s0)
#   char const *end = (char *)MEMORY_TOP - 1024; // -1024 to avoid the stack
    161c:	002007b7          	lui	a5,0x200
    1620:	c0078793          	add	a5,a5,-1024 # 1ffc00 <__global_pointer$+0x1fbe00>
    1624:	fef42223          	sw	a5,-28(s0)
#   char ch = 0;
    1628:	fe0405a3          	sb	zero,-21(s0)
#   while (ptr < end) {
    162c:	0200006f          	j	164c <_Z15action_mem_testv+0x58>
#     *ptr++ = ch++;
    1630:	feb44703          	lbu	a4,-21(s0)
    1634:	00170793          	add	a5,a4,1
    1638:	fef405a3          	sb	a5,-21(s0)
    163c:	fec42783          	lw	a5,-20(s0)
    1640:	00178693          	add	a3,a5,1
    1644:	fed42623          	sw	a3,-20(s0)
    1648:	00e78023          	sb	a4,0(a5)
#   while (ptr < end) {
    164c:	fec42703          	lw	a4,-20(s0)
    1650:	fe442783          	lw	a5,-28(s0)
    1654:	fcf76ee3          	bltu	a4,a5,1630 <_Z15action_mem_testv+0x3c>
#   uart_send_str("testing memory (read)\r\n");
    1658:	000027b7          	lui	a5,0x2
    165c:	0e878513          	add	a0,a5,232 # 20e8 <_ZN12input_buffer9end_indexEv+0x694>
    1660:	00000097          	auipc	ra,0x0
    1664:	ea0080e7          	jalr	-352(ra) # 1500 <_Z13uart_send_strPKc>
#   ptr = (char *)0x10000;
    1668:	000107b7          	lui	a5,0x10
    166c:	fef42623          	sw	a5,-20(s0)
#   ch = 0;
    1670:	fe0405a3          	sb	zero,-21(s0)
#   while (ptr < end) {
    1674:	0440006f          	j	16b8 <_Z15action_mem_testv+0xc4>
#     if (*ptr++ != ch++) {
    1678:	fec42783          	lw	a5,-20(s0)
    167c:	00178713          	add	a4,a5,1 # 10001 <__global_pointer$+0xc201>
    1680:	fee42623          	sw	a4,-20(s0)
    1684:	0007c703          	lbu	a4,0(a5)
    1688:	feb44783          	lbu	a5,-21(s0)
    168c:	00178693          	add	a3,a5,1
    1690:	fed405a3          	sb	a3,-21(s0)
    1694:	40f707b3          	sub	a5,a4,a5
    1698:	00f037b3          	snez	a5,a5
    169c:	0ff7f793          	zext.b	a5,a5
    16a0:	00078c63          	beqz	a5,16b8 <_Z15action_mem_testv+0xc4>
#       uart_send_str("!!! test memory failed\r\n");
    16a4:	000027b7          	lui	a5,0x2
    16a8:	10078513          	add	a0,a5,256 # 2100 <_ZN12input_buffer9end_indexEv+0x6ac>
    16ac:	00000097          	auipc	ra,0x0
    16b0:	e54080e7          	jalr	-428(ra) # 1500 <_Z13uart_send_strPKc>
#       return;
    16b4:	0200006f          	j	16d4 <_Z15action_mem_testv+0xe0>
#   while (ptr < end) {
    16b8:	fec42703          	lw	a4,-20(s0)
    16bc:	fe442783          	lw	a5,-28(s0)
    16c0:	faf76ce3          	bltu	a4,a5,1678 <_Z15action_mem_testv+0x84>
#   uart_send_str("testing memory succeeded\r\n");
    16c4:	000027b7          	lui	a5,0x2
    16c8:	11c78513          	add	a0,a5,284 # 211c <_ZN12input_buffer9end_indexEv+0x6c8>
    16cc:	00000097          	auipc	ra,0x0
    16d0:	e34080e7          	jalr	-460(ra) # 1500 <_Z13uart_send_strPKc>
# }
    16d4:	01c12083          	lw	ra,28(sp)
    16d8:	01812403          	lw	s0,24(sp)
    16dc:	02010113          	add	sp,sp,32
    16e0:	00008067          	ret

000016e4 <memset>:
# extern "C" auto memset(void *str, int ch, int n) -> void * {
    16e4:	fd010113          	add	sp,sp,-48
    16e8:	02812623          	sw	s0,44(sp)
    16ec:	03010413          	add	s0,sp,48
    16f0:	fca42e23          	sw	a0,-36(s0)
    16f4:	fcb42c23          	sw	a1,-40(s0)
    16f8:	fcc42a23          	sw	a2,-44(s0)
#   char *ptr = reinterpret_cast<char *>(str);
    16fc:	fdc42783          	lw	a5,-36(s0)
    1700:	fef42623          	sw	a5,-20(s0)
#   while (n--) {
    1704:	01c0006f          	j	1720 <memset+0x3c>
#     *ptr++ = (char)ch;
    1708:	fd842783          	lw	a5,-40(s0)
    170c:	0ff7f713          	zext.b	a4,a5
    1710:	fec42783          	lw	a5,-20(s0)
    1714:	00178693          	add	a3,a5,1
    1718:	fed42623          	sw	a3,-20(s0)
    171c:	00e78023          	sb	a4,0(a5)
#   while (n--) {
    1720:	fd442783          	lw	a5,-44(s0)
    1724:	fff78713          	add	a4,a5,-1
    1728:	fce42a23          	sw	a4,-44(s0)
    172c:	00f037b3          	snez	a5,a5
    1730:	0ff7f793          	zext.b	a5,a5
    1734:	fc079ae3          	bnez	a5,1708 <memset+0x24>
#   return str;
    1738:	fdc42783          	lw	a5,-36(s0)
# }
    173c:	00078513          	mv	a0,a5
    1740:	02c12403          	lw	s0,44(sp)
    1744:	03010113          	add	sp,sp,48
    1748:	00008067          	ret

0000174c <_ZN12input_buffer6insertEc>:
    174c:	fd010113          	add	sp,sp,-48
    1750:	02812623          	sw	s0,44(sp)
    1754:	03010413          	add	s0,sp,48
    1758:	fca42e23          	sw	a0,-36(s0)
    175c:	00058793          	mv	a5,a1
    1760:	fcf40da3          	sb	a5,-37(s0)
    1764:	fdc42783          	lw	a5,-36(s0)
    1768:	0517c703          	lbu	a4,81(a5)
    176c:	04f00793          	li	a5,79
    1770:	00f71663          	bne	a4,a5,177c <_ZN12input_buffer6insertEc+0x30>
    1774:	00000793          	li	a5,0
    1778:	0f80006f          	j	1870 <_ZN12input_buffer6insertEc+0x124>
    177c:	fdc42783          	lw	a5,-36(s0)
    1780:	0507c703          	lbu	a4,80(a5)
    1784:	fdc42783          	lw	a5,-36(s0)
    1788:	0517c783          	lbu	a5,81(a5)
    178c:	04f71c63          	bne	a4,a5,17e4 <_ZN12input_buffer6insertEc+0x98>
    1790:	fdc42783          	lw	a5,-36(s0)
    1794:	0507c783          	lbu	a5,80(a5)
    1798:	00078713          	mv	a4,a5
    179c:	fdc42783          	lw	a5,-36(s0)
    17a0:	00e787b3          	add	a5,a5,a4
    17a4:	fdb44703          	lbu	a4,-37(s0)
    17a8:	00e78023          	sb	a4,0(a5)
    17ac:	fdc42783          	lw	a5,-36(s0)
    17b0:	0507c783          	lbu	a5,80(a5)
    17b4:	00178793          	add	a5,a5,1
    17b8:	0ff7f713          	zext.b	a4,a5
    17bc:	fdc42783          	lw	a5,-36(s0)
    17c0:	04e78823          	sb	a4,80(a5)
    17c4:	fdc42783          	lw	a5,-36(s0)
    17c8:	0517c783          	lbu	a5,81(a5)
    17cc:	00178793          	add	a5,a5,1
    17d0:	0ff7f713          	zext.b	a4,a5
    17d4:	fdc42783          	lw	a5,-36(s0)
    17d8:	04e788a3          	sb	a4,81(a5)
    17dc:	00100793          	li	a5,1
    17e0:	0900006f          	j	1870 <_ZN12input_buffer6insertEc+0x124>
    17e4:	fdc42783          	lw	a5,-36(s0)
    17e8:	0517c783          	lbu	a5,81(a5)
    17ec:	00178793          	add	a5,a5,1
    17f0:	0ff7f713          	zext.b	a4,a5
    17f4:	fdc42783          	lw	a5,-36(s0)
    17f8:	04e788a3          	sb	a4,81(a5)
    17fc:	fdc42783          	lw	a5,-36(s0)
    1800:	0517c783          	lbu	a5,81(a5)
    1804:	fef42623          	sw	a5,-20(s0)
    1808:	0340006f          	j	183c <_ZN12input_buffer6insertEc+0xf0>
    180c:	fec42783          	lw	a5,-20(s0)
    1810:	fff78793          	add	a5,a5,-1
    1814:	fdc42703          	lw	a4,-36(s0)
    1818:	00f707b3          	add	a5,a4,a5
    181c:	0007c703          	lbu	a4,0(a5)
    1820:	fdc42683          	lw	a3,-36(s0)
    1824:	fec42783          	lw	a5,-20(s0)
    1828:	00f687b3          	add	a5,a3,a5
    182c:	00e78023          	sb	a4,0(a5)
    1830:	fec42783          	lw	a5,-20(s0)
    1834:	fff78793          	add	a5,a5,-1
    1838:	fef42623          	sw	a5,-20(s0)
    183c:	fdc42783          	lw	a5,-36(s0)
    1840:	0507c783          	lbu	a5,80(a5)
    1844:	00078713          	mv	a4,a5
    1848:	fec42783          	lw	a5,-20(s0)
    184c:	fcf760e3          	bltu	a4,a5,180c <_ZN12input_buffer6insertEc+0xc0>
    1850:	fdc42783          	lw	a5,-36(s0)
    1854:	0507c783          	lbu	a5,80(a5)
    1858:	00078713          	mv	a4,a5
    185c:	fdc42783          	lw	a5,-36(s0)
    1860:	00e787b3          	add	a5,a5,a4
    1864:	fdb44703          	lbu	a4,-37(s0)
    1868:	00e78023          	sb	a4,0(a5)
    186c:	00100793          	li	a5,1
    1870:	00078513          	mv	a0,a5
    1874:	02c12403          	lw	s0,44(sp)
    1878:	03010113          	add	sp,sp,48
    187c:	00008067          	ret

00001880 <_ZN12input_buffer9backspaceEv>:
    1880:	fd010113          	add	sp,sp,-48
    1884:	02812623          	sw	s0,44(sp)
    1888:	03010413          	add	s0,sp,48
    188c:	fca42e23          	sw	a0,-36(s0)
    1890:	fdc42783          	lw	a5,-36(s0)
    1894:	0507c783          	lbu	a5,80(a5)
    1898:	00079663          	bnez	a5,18a4 <_ZN12input_buffer9backspaceEv+0x24>
    189c:	00000793          	li	a5,0
    18a0:	0dc0006f          	j	197c <_ZN12input_buffer9backspaceEv+0xfc>
    18a4:	fdc42783          	lw	a5,-36(s0)
    18a8:	0507c703          	lbu	a4,80(a5)
    18ac:	fdc42783          	lw	a5,-36(s0)
    18b0:	0517c783          	lbu	a5,81(a5)
    18b4:	02f71e63          	bne	a4,a5,18f0 <_ZN12input_buffer9backspaceEv+0x70>
    18b8:	fdc42783          	lw	a5,-36(s0)
    18bc:	0517c783          	lbu	a5,81(a5)
    18c0:	fff78793          	add	a5,a5,-1
    18c4:	0ff7f713          	zext.b	a4,a5
    18c8:	fdc42783          	lw	a5,-36(s0)
    18cc:	04e788a3          	sb	a4,81(a5)
    18d0:	fdc42783          	lw	a5,-36(s0)
    18d4:	0507c783          	lbu	a5,80(a5)
    18d8:	fff78793          	add	a5,a5,-1
    18dc:	0ff7f713          	zext.b	a4,a5
    18e0:	fdc42783          	lw	a5,-36(s0)
    18e4:	04e78823          	sb	a4,80(a5)
    18e8:	00100793          	li	a5,1
    18ec:	0900006f          	j	197c <_ZN12input_buffer9backspaceEv+0xfc>
    18f0:	fdc42783          	lw	a5,-36(s0)
    18f4:	0507c783          	lbu	a5,80(a5)
    18f8:	fff78793          	add	a5,a5,-1
    18fc:	fef42623          	sw	a5,-20(s0)
    1900:	0340006f          	j	1934 <_ZN12input_buffer9backspaceEv+0xb4>
    1904:	fec42783          	lw	a5,-20(s0)
    1908:	00178793          	add	a5,a5,1
    190c:	fdc42703          	lw	a4,-36(s0)
    1910:	00f707b3          	add	a5,a4,a5
    1914:	0007c703          	lbu	a4,0(a5)
    1918:	fdc42683          	lw	a3,-36(s0)
    191c:	fec42783          	lw	a5,-20(s0)
    1920:	00f687b3          	add	a5,a3,a5
    1924:	00e78023          	sb	a4,0(a5)
    1928:	fec42783          	lw	a5,-20(s0)
    192c:	00178793          	add	a5,a5,1
    1930:	fef42623          	sw	a5,-20(s0)
    1934:	fdc42783          	lw	a5,-36(s0)
    1938:	0517c783          	lbu	a5,81(a5)
    193c:	00078713          	mv	a4,a5
    1940:	fec42783          	lw	a5,-20(s0)
    1944:	fce7e0e3          	bltu	a5,a4,1904 <_ZN12input_buffer9backspaceEv+0x84>
    1948:	fdc42783          	lw	a5,-36(s0)
    194c:	0507c783          	lbu	a5,80(a5)
    1950:	fff78793          	add	a5,a5,-1
    1954:	0ff7f713          	zext.b	a4,a5
    1958:	fdc42783          	lw	a5,-36(s0)
    195c:	04e78823          	sb	a4,80(a5)
    1960:	fdc42783          	lw	a5,-36(s0)
    1964:	0517c783          	lbu	a5,81(a5)
    1968:	fff78793          	add	a5,a5,-1
    196c:	0ff7f713          	zext.b	a4,a5
    1970:	fdc42783          	lw	a5,-36(s0)
    1974:	04e788a3          	sb	a4,81(a5)
    1978:	00100793          	li	a5,1
    197c:	00078513          	mv	a0,a5
    1980:	02c12403          	lw	s0,44(sp)
    1984:	03010113          	add	sp,sp,48
    1988:	00008067          	ret

0000198c <_ZN12input_buffer5resetEv>:
    198c:	fe010113          	add	sp,sp,-32
    1990:	00812e23          	sw	s0,28(sp)
    1994:	02010413          	add	s0,sp,32
    1998:	fea42623          	sw	a0,-20(s0)
    199c:	fec42783          	lw	a5,-20(s0)
    19a0:	040788a3          	sb	zero,81(a5)
    19a4:	fec42783          	lw	a5,-20(s0)
    19a8:	0517c703          	lbu	a4,81(a5)
    19ac:	fec42783          	lw	a5,-20(s0)
    19b0:	04e78823          	sb	a4,80(a5)
    19b4:	00000013          	nop
    19b8:	01c12403          	lw	s0,28(sp)
    19bc:	02010113          	add	sp,sp,32
    19c0:	00008067          	ret

000019c4 <_ZN12input_buffer7set_eosEv>:
    19c4:	fe010113          	add	sp,sp,-32
    19c8:	00812e23          	sw	s0,28(sp)
    19cc:	02010413          	add	s0,sp,32
    19d0:	fea42623          	sw	a0,-20(s0)
    19d4:	fec42783          	lw	a5,-20(s0)
    19d8:	0517c783          	lbu	a5,81(a5)
    19dc:	00078713          	mv	a4,a5
    19e0:	fec42783          	lw	a5,-20(s0)
    19e4:	00e787b3          	add	a5,a5,a4
    19e8:	00078023          	sb	zero,0(a5)
    19ec:	00000013          	nop
    19f0:	01c12403          	lw	s0,28(sp)
    19f4:	02010113          	add	sp,sp,32
    19f8:	00008067          	ret

000019fc <_ZN12input_buffer4lineEv>:
    19fc:	fe010113          	add	sp,sp,-32
    1a00:	00812e23          	sw	s0,28(sp)
    1a04:	02010413          	add	s0,sp,32
    1a08:	fea42623          	sw	a0,-20(s0)
    1a0c:	fec42783          	lw	a5,-20(s0)
    1a10:	00078513          	mv	a0,a5
    1a14:	01c12403          	lw	s0,28(sp)
    1a18:	02010113          	add	sp,sp,32
    1a1c:	00008067          	ret

00001a20 <_ZN12input_buffer7is_fullEv>:
    1a20:	fe010113          	add	sp,sp,-32
    1a24:	00812e23          	sw	s0,28(sp)
    1a28:	02010413          	add	s0,sp,32
    1a2c:	fea42623          	sw	a0,-20(s0)
    1a30:	fec42783          	lw	a5,-20(s0)
    1a34:	0517c783          	lbu	a5,81(a5)
    1a38:	fb178793          	add	a5,a5,-79
    1a3c:	0017b793          	seqz	a5,a5
    1a40:	0ff7f793          	zext.b	a5,a5
    1a44:	00078513          	mv	a0,a5
    1a48:	01c12403          	lw	s0,28(sp)
    1a4c:	02010113          	add	sp,sp,32
    1a50:	00008067          	ret

00001a54 <_ZN12input_buffer9end_indexEv>:
    1a54:	fe010113          	add	sp,sp,-32
    1a58:	00812e23          	sw	s0,28(sp)
    1a5c:	02010413          	add	s0,sp,32
    1a60:	fea42623          	sw	a0,-20(s0)
    1a64:	fec42783          	lw	a5,-20(s0)
    1a68:	0517c783          	lbu	a5,81(a5)
    1a6c:	00078513          	mv	a0,a5
    1a70:	01c12403          	lw	s0,28(sp)
    1a74:	02010113          	add	sp,sp,32
    1a78:	00008067          	ret
