
os:     file format elf32-littleriscv


Disassembly of section .text:

00000000 <_start>:
# # generated - do not edit (see `configuration.py`)
# .global _start
# _start:
#     li sp, 0x200000
       0:	00200137          	lui	sp,0x200
#     jal ra, run
       4:	058000ef          	jal	5c <run>

00000008 <_ZL16startup_init_bssv>:
# constexpr char CHAR_CARRIAGE_RETURN = 0x0d;
# 
# extern char __bss_start;
# extern char __bss_end;
# 
# static auto startup_init_bss() -> void {
       8:	fe010113          	add	sp,sp,-32 # 1fffe0 <__bss_end+0x1fc5d0>
       c:	00812e23          	sw	s0,28(sp)
      10:	02010413          	add	s0,sp,32
#   for (char *bss = &__bss_start; bss < &__bss_end; ++bss) {
      14:	000047b7          	lui	a5,0x4
      18:	a0878793          	add	a5,a5,-1528 # 3a08 <_ZL21input_escape_sequence>
      1c:	fef42623          	sw	a5,-20(s0)
      20:	0180006f          	j	38 <_ZL16startup_init_bssv+0x30>
#     *bss = 0;
      24:	fec42783          	lw	a5,-20(s0)
      28:	00078023          	sb	zero,0(a5)
#   for (char *bss = &__bss_start; bss < &__bss_end; ++bss) {
      2c:	fec42783          	lw	a5,-20(s0)
      30:	00178793          	add	a5,a5,1
      34:	fef42623          	sw	a5,-20(s0)
      38:	fec42703          	lw	a4,-20(s0)
      3c:	000047b7          	lui	a5,0x4
      40:	a1078793          	add	a5,a5,-1520 # 3a10 <__bss_end>
      44:	fef760e3          	bltu	a4,a5,24 <_ZL16startup_init_bssv+0x1c>
#   }
# }
      48:	00000013          	nop
      4c:	00000013          	nop
      50:	01c12403          	lw	s0,28(sp)
      54:	02010113          	add	sp,sp,32
      58:	00008067          	ret

0000005c <run>:
# static auto handle_input(entity_id_t eid, command_buffer &buf) -> void;
# static auto action_mem_test() -> void;
# static auto strings_equal(char const *s1, char const *s2) -> bool;
# static auto string_copy(char const *src, uint32_t src_len, char *dst) -> void;
# 
# extern "C" auto run() -> void {
      5c:	f9010113          	add	sp,sp,-112
      60:	06112623          	sw	ra,108(sp)
      64:	06812423          	sw	s0,104(sp)
      68:	07010413          	add	s0,sp,112
#   startup_init_bss();
      6c:	00000097          	auipc	ra,0x0
      70:	f9c080e7          	jalr	-100(ra) # 8 <_ZL16startup_init_bssv>
#   // initiates bss section to zeros
# 
#   led_set(0);
      74:	00000513          	li	a0,0
      78:	00002097          	auipc	ra,0x2
      7c:	a50080e7          	jalr	-1456(ra) # 1ac8 <_ZL7led_seth>
#   // turn all leds on
# 
#   entity_id_t active_entity = 1;
      80:	00100793          	li	a5,1
      84:	fef407a3          	sb	a5,-17(s0)
#   command_buffer inbuf{};
      88:	f9440793          	add	a5,s0,-108
      8c:	05200713          	li	a4,82
      90:	00070613          	mv	a2,a4
      94:	00000593          	li	a1,0
      98:	00078513          	mv	a0,a5
      9c:	00002097          	auipc	ra,0x2
      a0:	c40080e7          	jalr	-960(ra) # 1cdc <memset>
# 
#   uart_send_str(ascii_art);
      a4:	000047b7          	lui	a5,0x4
      a8:	a047a783          	lw	a5,-1532(a5) # 3a04 <_ZL9ascii_art>
      ac:	00078513          	mv	a0,a5
      b0:	00002097          	auipc	ra,0x2
      b4:	a48080e7          	jalr	-1464(ra) # 1af8 <_ZL13uart_send_strPKc>
#   uart_send_str(hello);
      b8:	000047b7          	lui	a5,0x4
      bc:	a007a783          	lw	a5,-1536(a5) # 3a00 <_ZL5hello>
      c0:	00078513          	mv	a0,a5
      c4:	00002097          	auipc	ra,0x2
      c8:	a34080e7          	jalr	-1484(ra) # 1af8 <_ZL13uart_send_strPKc>
# 
#   while (true) {
#     entity const &ent = entities[active_entity];
      cc:	fef44703          	lbu	a4,-17(s0)
      d0:	00070793          	mv	a5,a4
      d4:	00179793          	sll	a5,a5,0x1
      d8:	00e787b3          	add	a5,a5,a4
      dc:	00279793          	sll	a5,a5,0x2
      e0:	40e787b3          	sub	a5,a5,a4
      e4:	00279793          	sll	a5,a5,0x2
      e8:	00003737          	lui	a4,0x3
      ec:	65870713          	add	a4,a4,1624 # 3658 <_ZL8entities>
      f0:	00e787b3          	add	a5,a5,a4
      f4:	fef42423          	sw	a5,-24(s0)
#     print_location(ent.location, active_entity);
      f8:	fe842783          	lw	a5,-24(s0)
      fc:	0047c783          	lbu	a5,4(a5)
     100:	fef44703          	lbu	a4,-17(s0)
     104:	00070593          	mv	a1,a4
     108:	00078513          	mv	a0,a5
     10c:	00000097          	auipc	ra,0x0
     110:	420080e7          	jalr	1056(ra) # 52c <_ZL14print_locationhh>
#     uart_send_str(ent.name);
     114:	fe842783          	lw	a5,-24(s0)
     118:	0007a783          	lw	a5,0(a5)
     11c:	00078513          	mv	a0,a5
     120:	00002097          	auipc	ra,0x2
     124:	9d8080e7          	jalr	-1576(ra) # 1af8 <_ZL13uart_send_strPKc>
#     uart_send_str(" > ");
     128:	000037b7          	lui	a5,0x3
     12c:	aa478513          	add	a0,a5,-1372 # 2aa4 <_ZN4listIhLi8EE6removeEh+0x4c0>
     130:	00002097          	auipc	ra,0x2
     134:	9c8080e7          	jalr	-1592(ra) # 1af8 <_ZL13uart_send_strPKc>
#     input(inbuf);
     138:	f9440793          	add	a5,s0,-108
     13c:	00078513          	mv	a0,a5
     140:	00001097          	auipc	ra,0x1
     144:	434080e7          	jalr	1076(ra) # 1574 <_ZL5inputR14command_buffer>
#     uart_send_str("\r\n");
     148:	000037b7          	lui	a5,0x3
     14c:	aa878513          	add	a0,a5,-1368 # 2aa8 <_ZN4listIhLi8EE6removeEh+0x4c4>
     150:	00002097          	auipc	ra,0x2
     154:	9a8080e7          	jalr	-1624(ra) # 1af8 <_ZL13uart_send_strPKc>
#     handle_input(active_entity, inbuf);
     158:	f9440713          	add	a4,s0,-108
     15c:	fef44783          	lbu	a5,-17(s0)
     160:	00070593          	mv	a1,a4
     164:	00078513          	mv	a0,a5
     168:	00000097          	auipc	ra,0x0
     16c:	02c080e7          	jalr	44(ra) # 194 <_ZL12handle_inputhR14command_buffer>
#     if (active_entity == 1)
     170:	fef44703          	lbu	a4,-17(s0)
     174:	00100793          	li	a5,1
     178:	00f71863          	bne	a4,a5,188 <run+0x12c>
#       active_entity = 2;
     17c:	00200793          	li	a5,2
     180:	fef407a3          	sb	a5,-17(s0)
     184:	f49ff06f          	j	cc <run+0x70>
#     else
#       active_entity = 1;
     188:	00100793          	li	a5,1
     18c:	fef407a3          	sb	a5,-17(s0)
#   }
     190:	f3dff06f          	j	cc <run+0x70>

00000194 <_ZL12handle_inputhR14command_buffer>:
# }
# 
# static auto handle_input(entity_id_t eid, command_buffer &buf) -> void {
     194:	fb010113          	add	sp,sp,-80
     198:	04112623          	sw	ra,76(sp)
     19c:	04812423          	sw	s0,72(sp)
     1a0:	05010413          	add	s0,sp,80
     1a4:	00050793          	mv	a5,a0
     1a8:	fab42c23          	sw	a1,-72(s0)
     1ac:	faf40fa3          	sb	a5,-65(s0)
#   char const *words[8];
#   char *ptr = buf.command_line();
     1b0:	fb842503          	lw	a0,-72(s0)
     1b4:	00002097          	auipc	ra,0x2
     1b8:	090080e7          	jalr	144(ra) # 2244 <_ZN14command_buffer12command_lineEv>
     1bc:	fea42623          	sw	a0,-20(s0)
#   uint32_t nwords = 0;
     1c0:	fe042423          	sw	zero,-24(s0)
#   while (true) {
#     words[nwords++] = ptr;
     1c4:	fec42703          	lw	a4,-20(s0)
     1c8:	fe842783          	lw	a5,-24(s0)
     1cc:	00178693          	add	a3,a5,1
     1d0:	fed42423          	sw	a3,-24(s0)
     1d4:	00279793          	sll	a5,a5,0x2
     1d8:	ff078793          	add	a5,a5,-16
     1dc:	008787b3          	add	a5,a5,s0
     1e0:	fce7ac23          	sw	a4,-40(a5)
#     while (*ptr && *ptr != ' ') {
     1e4:	0100006f          	j	1f4 <_ZL12handle_inputhR14command_buffer+0x60>
#       ptr++;
     1e8:	fec42783          	lw	a5,-20(s0)
     1ec:	00178793          	add	a5,a5,1
     1f0:	fef42623          	sw	a5,-20(s0)
#     while (*ptr && *ptr != ' ') {
     1f4:	fec42783          	lw	a5,-20(s0)
     1f8:	0007c783          	lbu	a5,0(a5)
     1fc:	00078a63          	beqz	a5,210 <_ZL12handle_inputhR14command_buffer+0x7c>
     200:	fec42783          	lw	a5,-20(s0)
     204:	0007c703          	lbu	a4,0(a5)
     208:	02000793          	li	a5,32
     20c:	fcf71ee3          	bne	a4,a5,1e8 <_ZL12handle_inputhR14command_buffer+0x54>
#     }
#     if (!*ptr)
     210:	fec42783          	lw	a5,-20(s0)
     214:	0007c783          	lbu	a5,0(a5)
     218:	02078c63          	beqz	a5,250 <_ZL12handle_inputhR14command_buffer+0xbc>
#       break;
#     *ptr = '\0';
     21c:	fec42783          	lw	a5,-20(s0)
     220:	00078023          	sb	zero,0(a5)
#     ptr++;
     224:	fec42783          	lw	a5,-20(s0)
     228:	00178793          	add	a5,a5,1
     22c:	fef42623          	sw	a5,-20(s0)
#     if (nwords == sizeof(words) / sizeof(char const *)) {
     230:	fe842703          	lw	a4,-24(s0)
     234:	00800793          	li	a5,8
     238:	f8f716e3          	bne	a4,a5,1c4 <_ZL12handle_inputhR14command_buffer+0x30>
#       uart_send_str("too many words, some ignored\r\n\r\n");
     23c:	000037b7          	lui	a5,0x3
     240:	aac78513          	add	a0,a5,-1364 # 2aac <_ZN4listIhLi8EE6removeEh+0x4c8>
     244:	00002097          	auipc	ra,0x2
     248:	8b4080e7          	jalr	-1868(ra) # 1af8 <_ZL13uart_send_strPKc>
#       break;
     24c:	0080006f          	j	254 <_ZL12handle_inputhR14command_buffer+0xc0>
#       break;
     250:	00000013          	nop
#   }
#   // for (uint32_t i = 0; i < nwords; i++) {
#   //   uart_send_str(words[i]);
#   //   uart_send_str("\r\n");
#   // }
#   if (strings_equal(words[0], "help")) {
     254:	fc842703          	lw	a4,-56(s0)
     258:	000037b7          	lui	a5,0x3
     25c:	ad078593          	add	a1,a5,-1328 # 2ad0 <_ZN4listIhLi8EE6removeEh+0x4ec>
     260:	00070513          	mv	a0,a4
     264:	00001097          	auipc	ra,0x1
     268:	660080e7          	jalr	1632(ra) # 18c4 <_ZL13strings_equalPKcS0_>
     26c:	00050793          	mv	a5,a0
     270:	00078863          	beqz	a5,280 <_ZL12handle_inputhR14command_buffer+0xec>
#     print_help();
     274:	00001097          	auipc	ra,0x1
     278:	088080e7          	jalr	136(ra) # 12fc <_ZL10print_helpv>
     27c:	2a00006f          	j	51c <_ZL12handle_inputhR14command_buffer+0x388>
#   } else if (strings_equal(words[0], "i")) {
     280:	fc842703          	lw	a4,-56(s0)
     284:	000037b7          	lui	a5,0x3
     288:	ad878593          	add	a1,a5,-1320 # 2ad8 <_ZN4listIhLi8EE6removeEh+0x4f4>
     28c:	00070513          	mv	a0,a4
     290:	00001097          	auipc	ra,0x1
     294:	634080e7          	jalr	1588(ra) # 18c4 <_ZL13strings_equalPKcS0_>
     298:	00050793          	mv	a5,a0
     29c:	02078463          	beqz	a5,2c4 <_ZL12handle_inputhR14command_buffer+0x130>
#     action_inventory(eid);
     2a0:	fbf44783          	lbu	a5,-65(s0)
     2a4:	00078513          	mv	a0,a5
     2a8:	00000097          	auipc	ra,0x0
     2ac:	590080e7          	jalr	1424(ra) # 838 <_ZL16action_inventoryh>
#     uart_send_str("\r\n");
     2b0:	000037b7          	lui	a5,0x3
     2b4:	aa878513          	add	a0,a5,-1368 # 2aa8 <_ZN4listIhLi8EE6removeEh+0x4c4>
     2b8:	00002097          	auipc	ra,0x2
     2bc:	840080e7          	jalr	-1984(ra) # 1af8 <_ZL13uart_send_strPKc>
     2c0:	25c0006f          	j	51c <_ZL12handle_inputhR14command_buffer+0x388>
#   } else if (strings_equal(words[0], "t")) {
     2c4:	fc842703          	lw	a4,-56(s0)
     2c8:	000037b7          	lui	a5,0x3
     2cc:	adc78593          	add	a1,a5,-1316 # 2adc <_ZN4listIhLi8EE6removeEh+0x4f8>
     2d0:	00070513          	mv	a0,a4
     2d4:	00001097          	auipc	ra,0x1
     2d8:	5f0080e7          	jalr	1520(ra) # 18c4 <_ZL13strings_equalPKcS0_>
     2dc:	00050793          	mv	a5,a0
     2e0:	04078063          	beqz	a5,320 <_ZL12handle_inputhR14command_buffer+0x18c>
#     if (nwords < 2) {
     2e4:	fe842703          	lw	a4,-24(s0)
     2e8:	00100793          	li	a5,1
     2ec:	00e7ec63          	bltu	a5,a4,304 <_ZL12handle_inputhR14command_buffer+0x170>
#       uart_send_str("take what\r\n\r\n");
     2f0:	000037b7          	lui	a5,0x3
     2f4:	ae078513          	add	a0,a5,-1312 # 2ae0 <_ZN4listIhLi8EE6removeEh+0x4fc>
     2f8:	00002097          	auipc	ra,0x2
     2fc:	800080e7          	jalr	-2048(ra) # 1af8 <_ZL13uart_send_strPKc>
#       return;
     300:	21c0006f          	j	51c <_ZL12handle_inputhR14command_buffer+0x388>
#     }
#     action_take(eid, words[1]);
     304:	fcc42703          	lw	a4,-52(s0)
     308:	fbf44783          	lbu	a5,-65(s0)
     30c:	00070593          	mv	a1,a4
     310:	00078513          	mv	a0,a5
     314:	00001097          	auipc	ra,0x1
     318:	964080e7          	jalr	-1692(ra) # c78 <_ZL11action_takehPKc>
     31c:	2000006f          	j	51c <_ZL12handle_inputhR14command_buffer+0x388>
#   } else if (strings_equal(words[0], "d")) {
     320:	fc842703          	lw	a4,-56(s0)
     324:	000037b7          	lui	a5,0x3
     328:	af078593          	add	a1,a5,-1296 # 2af0 <_ZN4listIhLi8EE6removeEh+0x50c>
     32c:	00070513          	mv	a0,a4
     330:	00001097          	auipc	ra,0x1
     334:	594080e7          	jalr	1428(ra) # 18c4 <_ZL13strings_equalPKcS0_>
     338:	00050793          	mv	a5,a0
     33c:	04078063          	beqz	a5,37c <_ZL12handle_inputhR14command_buffer+0x1e8>
#     if (nwords < 2) {
     340:	fe842703          	lw	a4,-24(s0)
     344:	00100793          	li	a5,1
     348:	00e7ec63          	bltu	a5,a4,360 <_ZL12handle_inputhR14command_buffer+0x1cc>
#       uart_send_str("drop what\r\n\r\n");
     34c:	000037b7          	lui	a5,0x3
     350:	af478513          	add	a0,a5,-1292 # 2af4 <_ZN4listIhLi8EE6removeEh+0x510>
     354:	00001097          	auipc	ra,0x1
     358:	7a4080e7          	jalr	1956(ra) # 1af8 <_ZL13uart_send_strPKc>
#       return;
     35c:	1c00006f          	j	51c <_ZL12handle_inputhR14command_buffer+0x388>
#     }
#     action_drop(eid, words[1]);
     360:	fcc42703          	lw	a4,-52(s0)
     364:	fbf44783          	lbu	a5,-65(s0)
     368:	00070593          	mv	a1,a4
     36c:	00078513          	mv	a0,a5
     370:	00001097          	auipc	ra,0x1
     374:	a78080e7          	jalr	-1416(ra) # de8 <_ZL11action_drophPKc>
     378:	1a40006f          	j	51c <_ZL12handle_inputhR14command_buffer+0x388>
#   } else if (strings_equal(words[0], "n")) {
     37c:	fc842703          	lw	a4,-56(s0)
     380:	000037b7          	lui	a5,0x3
     384:	b0478593          	add	a1,a5,-1276 # 2b04 <_ZN4listIhLi8EE6removeEh+0x520>
     388:	00070513          	mv	a0,a4
     38c:	00001097          	auipc	ra,0x1
     390:	538080e7          	jalr	1336(ra) # 18c4 <_ZL13strings_equalPKcS0_>
     394:	00050793          	mv	a5,a0
     398:	00078e63          	beqz	a5,3b4 <_ZL12handle_inputhR14command_buffer+0x220>
#     action_go(eid, 0);
     39c:	fbf44783          	lbu	a5,-65(s0)
     3a0:	00000593          	li	a1,0
     3a4:	00078513          	mv	a0,a5
     3a8:	00001097          	auipc	ra,0x1
     3ac:	bc0080e7          	jalr	-1088(ra) # f68 <_ZL9action_gohh>
     3b0:	16c0006f          	j	51c <_ZL12handle_inputhR14command_buffer+0x388>
#   } else if (strings_equal(words[0], "e")) {
     3b4:	fc842703          	lw	a4,-56(s0)
     3b8:	000037b7          	lui	a5,0x3
     3bc:	b0878593          	add	a1,a5,-1272 # 2b08 <_ZN4listIhLi8EE6removeEh+0x524>
     3c0:	00070513          	mv	a0,a4
     3c4:	00001097          	auipc	ra,0x1
     3c8:	500080e7          	jalr	1280(ra) # 18c4 <_ZL13strings_equalPKcS0_>
     3cc:	00050793          	mv	a5,a0
     3d0:	00078e63          	beqz	a5,3ec <_ZL12handle_inputhR14command_buffer+0x258>
#     action_go(eid, 1);
     3d4:	fbf44783          	lbu	a5,-65(s0)
     3d8:	00100593          	li	a1,1
     3dc:	00078513          	mv	a0,a5
     3e0:	00001097          	auipc	ra,0x1
     3e4:	b88080e7          	jalr	-1144(ra) # f68 <_ZL9action_gohh>
     3e8:	1340006f          	j	51c <_ZL12handle_inputhR14command_buffer+0x388>
#   } else if (strings_equal(words[0], "s")) {
     3ec:	fc842703          	lw	a4,-56(s0)
     3f0:	000037b7          	lui	a5,0x3
     3f4:	b0c78593          	add	a1,a5,-1268 # 2b0c <_ZN4listIhLi8EE6removeEh+0x528>
     3f8:	00070513          	mv	a0,a4
     3fc:	00001097          	auipc	ra,0x1
     400:	4c8080e7          	jalr	1224(ra) # 18c4 <_ZL13strings_equalPKcS0_>
     404:	00050793          	mv	a5,a0
     408:	00078e63          	beqz	a5,424 <_ZL12handle_inputhR14command_buffer+0x290>
#     action_go(eid, 2);
     40c:	fbf44783          	lbu	a5,-65(s0)
     410:	00200593          	li	a1,2
     414:	00078513          	mv	a0,a5
     418:	00001097          	auipc	ra,0x1
     41c:	b50080e7          	jalr	-1200(ra) # f68 <_ZL9action_gohh>
     420:	0fc0006f          	j	51c <_ZL12handle_inputhR14command_buffer+0x388>
#   } else if (strings_equal(words[0], "w")) {
     424:	fc842703          	lw	a4,-56(s0)
     428:	000037b7          	lui	a5,0x3
     42c:	b1078593          	add	a1,a5,-1264 # 2b10 <_ZN4listIhLi8EE6removeEh+0x52c>
     430:	00070513          	mv	a0,a4
     434:	00001097          	auipc	ra,0x1
     438:	490080e7          	jalr	1168(ra) # 18c4 <_ZL13strings_equalPKcS0_>
     43c:	00050793          	mv	a5,a0
     440:	00078e63          	beqz	a5,45c <_ZL12handle_inputhR14command_buffer+0x2c8>
#     action_go(eid, 3);
     444:	fbf44783          	lbu	a5,-65(s0)
     448:	00300593          	li	a1,3
     44c:	00078513          	mv	a0,a5
     450:	00001097          	auipc	ra,0x1
     454:	b18080e7          	jalr	-1256(ra) # f68 <_ZL9action_gohh>
     458:	0c40006f          	j	51c <_ZL12handle_inputhR14command_buffer+0x388>
#   } else if (strings_equal(words[0], "g")) {
     45c:	fc842703          	lw	a4,-56(s0)
     460:	000037b7          	lui	a5,0x3
     464:	b1478593          	add	a1,a5,-1260 # 2b14 <_ZN4listIhLi8EE6removeEh+0x530>
     468:	00070513          	mv	a0,a4
     46c:	00001097          	auipc	ra,0x1
     470:	458080e7          	jalr	1112(ra) # 18c4 <_ZL13strings_equalPKcS0_>
     474:	00050793          	mv	a5,a0
     478:	06078463          	beqz	a5,4e0 <_ZL12handle_inputhR14command_buffer+0x34c>
#     if (nwords < 2) {
     47c:	fe842703          	lw	a4,-24(s0)
     480:	00100793          	li	a5,1
     484:	00e7ec63          	bltu	a5,a4,49c <_ZL12handle_inputhR14command_buffer+0x308>
#       uart_send_str("give what\r\n\r\n");
     488:	000037b7          	lui	a5,0x3
     48c:	b1878513          	add	a0,a5,-1256 # 2b18 <_ZN4listIhLi8EE6removeEh+0x534>
     490:	00001097          	auipc	ra,0x1
     494:	668080e7          	jalr	1640(ra) # 1af8 <_ZL13uart_send_strPKc>
#       return;
     498:	0840006f          	j	51c <_ZL12handle_inputhR14command_buffer+0x388>
#     }
#     if (nwords < 3) {
     49c:	fe842703          	lw	a4,-24(s0)
     4a0:	00200793          	li	a5,2
     4a4:	00e7ec63          	bltu	a5,a4,4bc <_ZL12handle_inputhR14command_buffer+0x328>
#       uart_send_str("give to whom\r\n\r\n");
     4a8:	000037b7          	lui	a5,0x3
     4ac:	b2878513          	add	a0,a5,-1240 # 2b28 <_ZN4listIhLi8EE6removeEh+0x544>
     4b0:	00001097          	auipc	ra,0x1
     4b4:	648080e7          	jalr	1608(ra) # 1af8 <_ZL13uart_send_strPKc>
#       return;
     4b8:	0640006f          	j	51c <_ZL12handle_inputhR14command_buffer+0x388>
#     }
#     action_give(eid, words[1], words[2]);
     4bc:	fcc42703          	lw	a4,-52(s0)
     4c0:	fd042683          	lw	a3,-48(s0)
     4c4:	fbf44783          	lbu	a5,-65(s0)
     4c8:	00068613          	mv	a2,a3
     4cc:	00070593          	mv	a1,a4
     4d0:	00078513          	mv	a0,a5
     4d4:	00001097          	auipc	ra,0x1
     4d8:	bcc080e7          	jalr	-1076(ra) # 10a0 <_ZL11action_givehPKcS0_>
     4dc:	0400006f          	j	51c <_ZL12handle_inputhR14command_buffer+0x388>
#   } else if (strings_equal(words[0], "m")) {
     4e0:	fc842703          	lw	a4,-56(s0)
     4e4:	000037b7          	lui	a5,0x3
     4e8:	b3c78593          	add	a1,a5,-1220 # 2b3c <_ZN4listIhLi8EE6removeEh+0x558>
     4ec:	00070513          	mv	a0,a4
     4f0:	00001097          	auipc	ra,0x1
     4f4:	3d4080e7          	jalr	980(ra) # 18c4 <_ZL13strings_equalPKcS0_>
     4f8:	00050793          	mv	a5,a0
     4fc:	00078863          	beqz	a5,50c <_ZL12handle_inputhR14command_buffer+0x378>
#     action_mem_test();
     500:	00001097          	auipc	ra,0x1
     504:	6ec080e7          	jalr	1772(ra) # 1bec <_ZL15action_mem_testv>
     508:	0140006f          	j	51c <_ZL12handle_inputhR14command_buffer+0x388>
#   } else {
#     uart_send_str("not understood\r\n\r\n");
     50c:	000037b7          	lui	a5,0x3
     510:	b4078513          	add	a0,a5,-1216 # 2b40 <_ZN4listIhLi8EE6removeEh+0x55c>
     514:	00001097          	auipc	ra,0x1
     518:	5e4080e7          	jalr	1508(ra) # 1af8 <_ZL13uart_send_strPKc>
#   }
# }
     51c:	04c12083          	lw	ra,76(sp)
     520:	04812403          	lw	s0,72(sp)
     524:	05010113          	add	sp,sp,80
     528:	00008067          	ret

0000052c <_ZL14print_locationhh>:
# 
# static auto print_location(location_id_t lid,
#                            entity_id_t eid_exclude_from_output) -> void {
     52c:	fb010113          	add	sp,sp,-80
     530:	04112623          	sw	ra,76(sp)
     534:	04812423          	sw	s0,72(sp)
     538:	05010413          	add	s0,sp,80
     53c:	00050793          	mv	a5,a0
     540:	00058713          	mv	a4,a1
     544:	faf40fa3          	sb	a5,-65(s0)
     548:	00070793          	mv	a5,a4
     54c:	faf40f23          	sb	a5,-66(s0)
#   location &loc = locations[lid];
     550:	fbf44703          	lbu	a4,-65(s0)
     554:	00070793          	mv	a5,a4
     558:	00279793          	sll	a5,a5,0x2
     55c:	00e787b3          	add	a5,a5,a4
     560:	00379793          	sll	a5,a5,0x3
     564:	40e787b3          	sub	a5,a5,a4
     568:	00279793          	sll	a5,a5,0x2
     56c:	00003737          	lui	a4,0x3
     570:	6dc70713          	add	a4,a4,1756 # 36dc <_ZL9locations>
     574:	00e787b3          	add	a5,a5,a4
     578:	fcf42e23          	sw	a5,-36(s0)
#   uart_send_str("u r in ");
     57c:	000037b7          	lui	a5,0x3
     580:	b5478513          	add	a0,a5,-1196 # 2b54 <_ZN4listIhLi8EE6removeEh+0x570>
     584:	00001097          	auipc	ra,0x1
     588:	574080e7          	jalr	1396(ra) # 1af8 <_ZL13uart_send_strPKc>
#   uart_send_str(loc.name);
     58c:	fdc42783          	lw	a5,-36(s0)
     590:	0007a783          	lw	a5,0(a5)
     594:	00078513          	mv	a0,a5
     598:	00001097          	auipc	ra,0x1
     59c:	560080e7          	jalr	1376(ra) # 1af8 <_ZL13uart_send_strPKc>
#   uart_send_str("\r\nu c: ");
     5a0:	000037b7          	lui	a5,0x3
     5a4:	b5c78513          	add	a0,a5,-1188 # 2b5c <_ZN4listIhLi8EE6removeEh+0x578>
     5a8:	00001097          	auipc	ra,0x1
     5ac:	550080e7          	jalr	1360(ra) # 1af8 <_ZL13uart_send_strPKc>
# 
#   // print objects at location
#   int counter = 0;
     5b0:	fe042623          	sw	zero,-20(s0)
#   list<object_id_t, LOCATION_MAX_OBJECTS> &lso = loc.objects;
     5b4:	fdc42783          	lw	a5,-36(s0)
     5b8:	00478793          	add	a5,a5,4
     5bc:	fcf42c23          	sw	a5,-40(s0)
#   for (uint32_t i = 0; i < LOCATION_MAX_OBJECTS; i++) {
     5c0:	fe042423          	sw	zero,-24(s0)
     5c4:	07c0006f          	j	640 <_ZL14print_locationhh+0x114>
#     object_id_t const oid = lso.at(i);
     5c8:	fe842583          	lw	a1,-24(s0)
     5cc:	fd842503          	lw	a0,-40(s0)
     5d0:	00002097          	auipc	ra,0x2
     5d4:	cc0080e7          	jalr	-832(ra) # 2290 <_ZN4listIhLi128EE2atEj>
     5d8:	00050793          	mv	a5,a0
     5dc:	fcf40ba3          	sb	a5,-41(s0)
#     if (!oid) {
     5e0:	fd744783          	lbu	a5,-41(s0)
     5e4:	06078663          	beqz	a5,650 <_ZL14print_locationhh+0x124>
#       break;
#     }
#     if (counter++) {
     5e8:	fec42783          	lw	a5,-20(s0)
     5ec:	00178713          	add	a4,a5,1
     5f0:	fee42623          	sw	a4,-20(s0)
     5f4:	00f037b3          	snez	a5,a5
     5f8:	0ff7f793          	zext.b	a5,a5
     5fc:	00078a63          	beqz	a5,610 <_ZL14print_locationhh+0xe4>
#       uart_send_str(", ");
     600:	000037b7          	lui	a5,0x3
     604:	b6478513          	add	a0,a5,-1180 # 2b64 <_ZN4listIhLi8EE6removeEh+0x580>
     608:	00001097          	auipc	ra,0x1
     60c:	4f0080e7          	jalr	1264(ra) # 1af8 <_ZL13uart_send_strPKc>
#     }
#     uart_send_str(objects[oid].name);
     610:	fd744783          	lbu	a5,-41(s0)
     614:	00003737          	lui	a4,0x3
     618:	64870713          	add	a4,a4,1608 # 3648 <_ZL7objects>
     61c:	00279793          	sll	a5,a5,0x2
     620:	00f707b3          	add	a5,a4,a5
     624:	0007a783          	lw	a5,0(a5)
     628:	00078513          	mv	a0,a5
     62c:	00001097          	auipc	ra,0x1
     630:	4cc080e7          	jalr	1228(ra) # 1af8 <_ZL13uart_send_strPKc>
#   for (uint32_t i = 0; i < LOCATION_MAX_OBJECTS; i++) {
     634:	fe842783          	lw	a5,-24(s0)
     638:	00178793          	add	a5,a5,1
     63c:	fef42423          	sw	a5,-24(s0)
     640:	fe842703          	lw	a4,-24(s0)
     644:	07f00793          	li	a5,127
     648:	f8e7f0e3          	bgeu	a5,a4,5c8 <_ZL14print_locationhh+0x9c>
     64c:	0080006f          	j	654 <_ZL14print_locationhh+0x128>
#       break;
     650:	00000013          	nop
#   }
#   if (!counter) {
     654:	fec42783          	lw	a5,-20(s0)
     658:	00079a63          	bnez	a5,66c <_ZL14print_locationhh+0x140>
#     uart_send_str("nothing");
     65c:	000037b7          	lui	a5,0x3
     660:	b6878513          	add	a0,a5,-1176 # 2b68 <_ZN4listIhLi8EE6removeEh+0x584>
     664:	00001097          	auipc	ra,0x1
     668:	494080e7          	jalr	1172(ra) # 1af8 <_ZL13uart_send_strPKc>
#   }
#   uart_send_str("\r\n");
     66c:	000037b7          	lui	a5,0x3
     670:	aa878513          	add	a0,a5,-1368 # 2aa8 <_ZN4listIhLi8EE6removeEh+0x4c4>
     674:	00001097          	auipc	ra,0x1
     678:	484080e7          	jalr	1156(ra) # 1af8 <_ZL13uart_send_strPKc>
# 
#   // print entities in location
#   counter = false;
     67c:	fe042623          	sw	zero,-20(s0)
#   list<object_id_t, LOCATION_MAX_ENTITIES> &lse = loc.entities;
     680:	fdc42783          	lw	a5,-36(s0)
     684:	08878793          	add	a5,a5,136
     688:	fcf42823          	sw	a5,-48(s0)
#   for (uint32_t i = 0; i < LOCATION_MAX_ENTITIES; i++) {
     68c:	fe042223          	sw	zero,-28(s0)
     690:	0a40006f          	j	734 <_ZL14print_locationhh+0x208>
#     entity_id_t const eid = lse.at(i);
     694:	fe442583          	lw	a1,-28(s0)
     698:	fd042503          	lw	a0,-48(s0)
     69c:	00002097          	auipc	ra,0x2
     6a0:	c3c080e7          	jalr	-964(ra) # 22d8 <_ZN4listIhLi8EE2atEj>
     6a4:	00050793          	mv	a5,a0
     6a8:	fcf407a3          	sb	a5,-49(s0)
#     if (!eid) {
     6ac:	fcf44783          	lbu	a5,-49(s0)
     6b0:	08078a63          	beqz	a5,744 <_ZL14print_locationhh+0x218>
#       break;
#     }
#     if (eid == eid_exclude_from_output) {
     6b4:	fcf44703          	lbu	a4,-49(s0)
     6b8:	fbe44783          	lbu	a5,-66(s0)
     6bc:	06f70463          	beq	a4,a5,724 <_ZL14print_locationhh+0x1f8>
#       continue;
#     }
#     if (counter++) {
     6c0:	fec42783          	lw	a5,-20(s0)
     6c4:	00178713          	add	a4,a5,1
     6c8:	fee42623          	sw	a4,-20(s0)
     6cc:	00f037b3          	snez	a5,a5
     6d0:	0ff7f793          	zext.b	a5,a5
     6d4:	00078a63          	beqz	a5,6e8 <_ZL14print_locationhh+0x1bc>
#       uart_send_str(", ");
     6d8:	000037b7          	lui	a5,0x3
     6dc:	b6478513          	add	a0,a5,-1180 # 2b64 <_ZN4listIhLi8EE6removeEh+0x580>
     6e0:	00001097          	auipc	ra,0x1
     6e4:	418080e7          	jalr	1048(ra) # 1af8 <_ZL13uart_send_strPKc>
#     }
#     uart_send_str(entities[eid].name);
     6e8:	fcf44703          	lbu	a4,-49(s0)
     6ec:	000037b7          	lui	a5,0x3
     6f0:	65878693          	add	a3,a5,1624 # 3658 <_ZL8entities>
     6f4:	00070793          	mv	a5,a4
     6f8:	00179793          	sll	a5,a5,0x1
     6fc:	00e787b3          	add	a5,a5,a4
     700:	00279793          	sll	a5,a5,0x2
     704:	40e787b3          	sub	a5,a5,a4
     708:	00279793          	sll	a5,a5,0x2
     70c:	00f687b3          	add	a5,a3,a5
     710:	0007a783          	lw	a5,0(a5)
     714:	00078513          	mv	a0,a5
     718:	00001097          	auipc	ra,0x1
     71c:	3e0080e7          	jalr	992(ra) # 1af8 <_ZL13uart_send_strPKc>
     720:	0080006f          	j	728 <_ZL14print_locationhh+0x1fc>
#       continue;
     724:	00000013          	nop
#   for (uint32_t i = 0; i < LOCATION_MAX_ENTITIES; i++) {
     728:	fe442783          	lw	a5,-28(s0)
     72c:	00178793          	add	a5,a5,1
     730:	fef42223          	sw	a5,-28(s0)
     734:	fe442703          	lw	a4,-28(s0)
     738:	00700793          	li	a5,7
     73c:	f4e7fce3          	bgeu	a5,a4,694 <_ZL14print_locationhh+0x168>
     740:	0080006f          	j	748 <_ZL14print_locationhh+0x21c>
#       break;
     744:	00000013          	nop
#   }
#   if (counter != 0) {
     748:	fec42783          	lw	a5,-20(s0)
     74c:	00078a63          	beqz	a5,760 <_ZL14print_locationhh+0x234>
#     uart_send_str(" is here\r\n");
     750:	000037b7          	lui	a5,0x3
     754:	b7078513          	add	a0,a5,-1168 # 2b70 <_ZN4listIhLi8EE6removeEh+0x58c>
     758:	00001097          	auipc	ra,0x1
     75c:	3a0080e7          	jalr	928(ra) # 1af8 <_ZL13uart_send_strPKc>
#   }
# 
#   // print exits from location
#   counter = 0;
     760:	fe042623          	sw	zero,-20(s0)
#   uart_send_str("exits: ");
     764:	000037b7          	lui	a5,0x3
     768:	b7c78513          	add	a0,a5,-1156 # 2b7c <_ZN4listIhLi8EE6removeEh+0x598>
     76c:	00001097          	auipc	ra,0x1
     770:	38c080e7          	jalr	908(ra) # 1af8 <_ZL13uart_send_strPKc>
#   for (uint32_t i = 0; i < LOCATION_MAX_EXITS; i++) {
     774:	fe042023          	sw	zero,-32(s0)
     778:	0780006f          	j	7f0 <_ZL14print_locationhh+0x2c4>
#     if (!loc.exits[i])
     77c:	fdc42703          	lw	a4,-36(s0)
     780:	fe042783          	lw	a5,-32(s0)
     784:	00f707b3          	add	a5,a4,a5
     788:	0947c783          	lbu	a5,148(a5)
     78c:	04078a63          	beqz	a5,7e0 <_ZL14print_locationhh+0x2b4>
#       continue;
#     if (counter++) {
     790:	fec42783          	lw	a5,-20(s0)
     794:	00178713          	add	a4,a5,1
     798:	fee42623          	sw	a4,-20(s0)
     79c:	00f037b3          	snez	a5,a5
     7a0:	0ff7f793          	zext.b	a5,a5
     7a4:	00078a63          	beqz	a5,7b8 <_ZL14print_locationhh+0x28c>
#       uart_send_str(", ");
     7a8:	000037b7          	lui	a5,0x3
     7ac:	b6478513          	add	a0,a5,-1180 # 2b64 <_ZN4listIhLi8EE6removeEh+0x580>
     7b0:	00001097          	auipc	ra,0x1
     7b4:	348080e7          	jalr	840(ra) # 1af8 <_ZL13uart_send_strPKc>
#     }
#     uart_send_str(exit_names[i]);
     7b8:	000047b7          	lui	a5,0x4
     7bc:	9e878713          	add	a4,a5,-1560 # 39e8 <_ZL10exit_names>
     7c0:	fe042783          	lw	a5,-32(s0)
     7c4:	00279793          	sll	a5,a5,0x2
     7c8:	00f707b3          	add	a5,a4,a5
     7cc:	0007a783          	lw	a5,0(a5)
     7d0:	00078513          	mv	a0,a5
     7d4:	00001097          	auipc	ra,0x1
     7d8:	324080e7          	jalr	804(ra) # 1af8 <_ZL13uart_send_strPKc>
     7dc:	0080006f          	j	7e4 <_ZL14print_locationhh+0x2b8>
#       continue;
     7e0:	00000013          	nop
#   for (uint32_t i = 0; i < LOCATION_MAX_EXITS; i++) {
     7e4:	fe042783          	lw	a5,-32(s0)
     7e8:	00178793          	add	a5,a5,1
     7ec:	fef42023          	sw	a5,-32(s0)
     7f0:	fe042703          	lw	a4,-32(s0)
     7f4:	00500793          	li	a5,5
     7f8:	f8e7f2e3          	bgeu	a5,a4,77c <_ZL14print_locationhh+0x250>
#   }
#   if (counter == 0) {
     7fc:	fec42783          	lw	a5,-20(s0)
     800:	00079a63          	bnez	a5,814 <_ZL14print_locationhh+0x2e8>
#     uart_send_str("none");
     804:	000037b7          	lui	a5,0x3
     808:	b8478513          	add	a0,a5,-1148 # 2b84 <_ZN4listIhLi8EE6removeEh+0x5a0>
     80c:	00001097          	auipc	ra,0x1
     810:	2ec080e7          	jalr	748(ra) # 1af8 <_ZL13uart_send_strPKc>
#   }
#   uart_send_str("\r\n");
     814:	000037b7          	lui	a5,0x3
     818:	aa878513          	add	a0,a5,-1368 # 2aa8 <_ZN4listIhLi8EE6removeEh+0x4c4>
     81c:	00001097          	auipc	ra,0x1
     820:	2dc080e7          	jalr	732(ra) # 1af8 <_ZL13uart_send_strPKc>
# }
     824:	00000013          	nop
     828:	04c12083          	lw	ra,76(sp)
     82c:	04812403          	lw	s0,72(sp)
     830:	05010113          	add	sp,sp,80
     834:	00008067          	ret

00000838 <_ZL16action_inventoryh>:
# 
# static auto action_inventory(entity_id_t eid) -> void {
     838:	fd010113          	add	sp,sp,-48
     83c:	02112623          	sw	ra,44(sp)
     840:	02812423          	sw	s0,40(sp)
     844:	03010413          	add	s0,sp,48
     848:	00050793          	mv	a5,a0
     84c:	fcf40fa3          	sb	a5,-33(s0)
#   uart_send_str("u have: ");
     850:	000037b7          	lui	a5,0x3
     854:	b8c78513          	add	a0,a5,-1140 # 2b8c <_ZN4listIhLi8EE6removeEh+0x5a8>
     858:	00001097          	auipc	ra,0x1
     85c:	2a0080e7          	jalr	672(ra) # 1af8 <_ZL13uart_send_strPKc>
#   int counter = 0;
     860:	fe042623          	sw	zero,-20(s0)
#   list<object_id_t, ENTITY_MAX_OBJECTS> &ls = entities[eid].objects;
     864:	fdf44703          	lbu	a4,-33(s0)
     868:	00070793          	mv	a5,a4
     86c:	00179793          	sll	a5,a5,0x1
     870:	00e787b3          	add	a5,a5,a4
     874:	00279793          	sll	a5,a5,0x2
     878:	40e787b3          	sub	a5,a5,a4
     87c:	00279793          	sll	a5,a5,0x2
     880:	00003737          	lui	a4,0x3
     884:	65870713          	add	a4,a4,1624 # 3658 <_ZL8entities>
     888:	00e787b3          	add	a5,a5,a4
     88c:	00878793          	add	a5,a5,8
     890:	fef42223          	sw	a5,-28(s0)
#   for (uint32_t i = 0; i < ENTITY_MAX_OBJECTS; i++) {
     894:	fe042423          	sw	zero,-24(s0)
     898:	07c0006f          	j	914 <_ZL16action_inventoryh+0xdc>
#     object_id_t const oid = ls.at(i);
     89c:	fe842583          	lw	a1,-24(s0)
     8a0:	fe442503          	lw	a0,-28(s0)
     8a4:	00002097          	auipc	ra,0x2
     8a8:	a7c080e7          	jalr	-1412(ra) # 2320 <_ZN4listIhLi32EE2atEj>
     8ac:	00050793          	mv	a5,a0
     8b0:	fef401a3          	sb	a5,-29(s0)
#     if (!oid) {
     8b4:	fe344783          	lbu	a5,-29(s0)
     8b8:	06078663          	beqz	a5,924 <_ZL16action_inventoryh+0xec>
#       break;
#     }
#     if (counter++) {
     8bc:	fec42783          	lw	a5,-20(s0)
     8c0:	00178713          	add	a4,a5,1
     8c4:	fee42623          	sw	a4,-20(s0)
     8c8:	00f037b3          	snez	a5,a5
     8cc:	0ff7f793          	zext.b	a5,a5
     8d0:	00078a63          	beqz	a5,8e4 <_ZL16action_inventoryh+0xac>
#       uart_send_str(", ");
     8d4:	000037b7          	lui	a5,0x3
     8d8:	b6478513          	add	a0,a5,-1180 # 2b64 <_ZN4listIhLi8EE6removeEh+0x580>
     8dc:	00001097          	auipc	ra,0x1
     8e0:	21c080e7          	jalr	540(ra) # 1af8 <_ZL13uart_send_strPKc>
#     }
#     uart_send_str(objects[oid].name);
     8e4:	fe344783          	lbu	a5,-29(s0)
     8e8:	00003737          	lui	a4,0x3
     8ec:	64870713          	add	a4,a4,1608 # 3648 <_ZL7objects>
     8f0:	00279793          	sll	a5,a5,0x2
     8f4:	00f707b3          	add	a5,a4,a5
     8f8:	0007a783          	lw	a5,0(a5)
     8fc:	00078513          	mv	a0,a5
     900:	00001097          	auipc	ra,0x1
     904:	1f8080e7          	jalr	504(ra) # 1af8 <_ZL13uart_send_strPKc>
#   for (uint32_t i = 0; i < ENTITY_MAX_OBJECTS; i++) {
     908:	fe842783          	lw	a5,-24(s0)
     90c:	00178793          	add	a5,a5,1
     910:	fef42423          	sw	a5,-24(s0)
     914:	fe842703          	lw	a4,-24(s0)
     918:	01f00793          	li	a5,31
     91c:	f8e7f0e3          	bgeu	a5,a4,89c <_ZL16action_inventoryh+0x64>
     920:	0080006f          	j	928 <_ZL16action_inventoryh+0xf0>
#       break;
     924:	00000013          	nop
#   }
#   if (counter == 0) {
     928:	fec42783          	lw	a5,-20(s0)
     92c:	00079a63          	bnez	a5,940 <_ZL16action_inventoryh+0x108>
#     uart_send_str("nothing");
     930:	000037b7          	lui	a5,0x3
     934:	b6878513          	add	a0,a5,-1176 # 2b68 <_ZN4listIhLi8EE6removeEh+0x584>
     938:	00001097          	auipc	ra,0x1
     93c:	1c0080e7          	jalr	448(ra) # 1af8 <_ZL13uart_send_strPKc>
#   }
#   uart_send_str("\r\n");
     940:	000037b7          	lui	a5,0x3
     944:	aa878513          	add	a0,a5,-1368 # 2aa8 <_ZN4listIhLi8EE6removeEh+0x4c4>
     948:	00001097          	auipc	ra,0x1
     94c:	1b0080e7          	jalr	432(ra) # 1af8 <_ZL13uart_send_strPKc>
# }
     950:	00000013          	nop
     954:	02c12083          	lw	ra,44(sp)
     958:	02812403          	lw	s0,40(sp)
     95c:	03010113          	add	sp,sp,48
     960:	00008067          	ret

00000964 <_ZL32remove_object_from_list_by_indexPhj>:
# 
# static auto remove_object_from_list_by_index(object_id_t list[],
#                                              uint32_t ix) -> void {
     964:	fd010113          	add	sp,sp,-48
     968:	02812623          	sw	s0,44(sp)
     96c:	03010413          	add	s0,sp,48
     970:	fca42e23          	sw	a0,-36(s0)
     974:	fcb42c23          	sw	a1,-40(s0)
#   object_id_t *ptr = &list[ix];
     978:	fdc42703          	lw	a4,-36(s0)
     97c:	fd842783          	lw	a5,-40(s0)
     980:	00f707b3          	add	a5,a4,a5
     984:	fef42623          	sw	a5,-20(s0)
#   while (true) {
#     *ptr = *(ptr + 1);
     988:	fec42783          	lw	a5,-20(s0)
     98c:	0017c703          	lbu	a4,1(a5)
     990:	fec42783          	lw	a5,-20(s0)
     994:	00e78023          	sb	a4,0(a5)
#     if (!*ptr)
     998:	fec42783          	lw	a5,-20(s0)
     99c:	0007c783          	lbu	a5,0(a5)
     9a0:	00078a63          	beqz	a5,9b4 <_ZL32remove_object_from_list_by_indexPhj+0x50>
#       return;
#     ptr++;
     9a4:	fec42783          	lw	a5,-20(s0)
     9a8:	00178793          	add	a5,a5,1
     9ac:	fef42623          	sw	a5,-20(s0)
#     *ptr = *(ptr + 1);
     9b0:	fd9ff06f          	j	988 <_ZL32remove_object_from_list_by_indexPhj+0x24>
#       return;
     9b4:	00000013          	nop
#   }
# }
     9b8:	02c12403          	lw	s0,44(sp)
     9bc:	03010113          	add	sp,sp,48
     9c0:	00008067          	ret

000009c4 <_ZL18add_object_to_listPhjh>:
# 
# static auto add_object_to_list(object_id_t list[], uint32_t list_len,
#                                object_id_t oid) -> bool {
     9c4:	fd010113          	add	sp,sp,-48
     9c8:	02112623          	sw	ra,44(sp)
     9cc:	02812423          	sw	s0,40(sp)
     9d0:	03010413          	add	s0,sp,48
     9d4:	fca42e23          	sw	a0,-36(s0)
     9d8:	fcb42c23          	sw	a1,-40(s0)
     9dc:	00060793          	mv	a5,a2
     9e0:	fcf40ba3          	sb	a5,-41(s0)
#   // list_len - 1 since last element has to be 0
#   for (uint32_t i = 0; i < list_len - 1; i++) {
     9e4:	fe042623          	sw	zero,-20(s0)
     9e8:	0580006f          	j	a40 <_ZL18add_object_to_listPhjh+0x7c>
#     if (list[i])
     9ec:	fdc42703          	lw	a4,-36(s0)
     9f0:	fec42783          	lw	a5,-20(s0)
     9f4:	00f707b3          	add	a5,a4,a5
     9f8:	0007c783          	lbu	a5,0(a5)
     9fc:	02079a63          	bnez	a5,a30 <_ZL18add_object_to_listPhjh+0x6c>
#       continue;
#     list[i] = oid;
     a00:	fdc42703          	lw	a4,-36(s0)
     a04:	fec42783          	lw	a5,-20(s0)
     a08:	00f707b3          	add	a5,a4,a5
     a0c:	fd744703          	lbu	a4,-41(s0)
     a10:	00e78023          	sb	a4,0(a5)
#     list[i + 1] = 0;
     a14:	fec42783          	lw	a5,-20(s0)
     a18:	00178793          	add	a5,a5,1
     a1c:	fdc42703          	lw	a4,-36(s0)
     a20:	00f707b3          	add	a5,a4,a5
     a24:	00078023          	sb	zero,0(a5)
#     return true;
     a28:	00100793          	li	a5,1
     a2c:	0380006f          	j	a64 <_ZL18add_object_to_listPhjh+0xa0>
#       continue;
     a30:	00000013          	nop
#   for (uint32_t i = 0; i < list_len - 1; i++) {
     a34:	fec42783          	lw	a5,-20(s0)
     a38:	00178793          	add	a5,a5,1
     a3c:	fef42623          	sw	a5,-20(s0)
     a40:	fd842783          	lw	a5,-40(s0)
     a44:	fff78793          	add	a5,a5,-1
     a48:	fec42703          	lw	a4,-20(s0)
     a4c:	faf760e3          	bltu	a4,a5,9ec <_ZL18add_object_to_listPhjh+0x28>
#   }
#   uart_send_str("space full\r\n");
     a50:	000037b7          	lui	a5,0x3
     a54:	b9878513          	add	a0,a5,-1128 # 2b98 <_ZN4listIhLi8EE6removeEh+0x5b4>
     a58:	00001097          	auipc	ra,0x1
     a5c:	0a0080e7          	jalr	160(ra) # 1af8 <_ZL13uart_send_strPKc>
#   return false;
     a60:	00000793          	li	a5,0
# }
     a64:	00078513          	mv	a0,a5
     a68:	02c12083          	lw	ra,44(sp)
     a6c:	02812403          	lw	s0,40(sp)
     a70:	03010113          	add	sp,sp,48
     a74:	00008067          	ret

00000a78 <_ZL18add_entity_to_listPhjh>:
# 
# static auto add_entity_to_list(entity_id_t list[], uint32_t list_len,
#                                entity_id_t eid) -> bool {
     a78:	fd010113          	add	sp,sp,-48
     a7c:	02112623          	sw	ra,44(sp)
     a80:	02812423          	sw	s0,40(sp)
     a84:	03010413          	add	s0,sp,48
     a88:	fca42e23          	sw	a0,-36(s0)
     a8c:	fcb42c23          	sw	a1,-40(s0)
     a90:	00060793          	mv	a5,a2
     a94:	fcf40ba3          	sb	a5,-41(s0)
#   // list_len - 1 since last element has to be 0
#   for (uint32_t i = 0; i < list_len - 1; i++) {
     a98:	fe042623          	sw	zero,-20(s0)
     a9c:	0580006f          	j	af4 <_ZL18add_entity_to_listPhjh+0x7c>
#     if (list[i])
     aa0:	fdc42703          	lw	a4,-36(s0)
     aa4:	fec42783          	lw	a5,-20(s0)
     aa8:	00f707b3          	add	a5,a4,a5
     aac:	0007c783          	lbu	a5,0(a5)
     ab0:	02079a63          	bnez	a5,ae4 <_ZL18add_entity_to_listPhjh+0x6c>
#       continue;
#     list[i] = eid;
     ab4:	fdc42703          	lw	a4,-36(s0)
     ab8:	fec42783          	lw	a5,-20(s0)
     abc:	00f707b3          	add	a5,a4,a5
     ac0:	fd744703          	lbu	a4,-41(s0)
     ac4:	00e78023          	sb	a4,0(a5)
#     list[i + 1] = 0;
     ac8:	fec42783          	lw	a5,-20(s0)
     acc:	00178793          	add	a5,a5,1
     ad0:	fdc42703          	lw	a4,-36(s0)
     ad4:	00f707b3          	add	a5,a4,a5
     ad8:	00078023          	sb	zero,0(a5)
#     return true;
     adc:	00100793          	li	a5,1
     ae0:	0380006f          	j	b18 <_ZL18add_entity_to_listPhjh+0xa0>
#       continue;
     ae4:	00000013          	nop
#   for (uint32_t i = 0; i < list_len - 1; i++) {
     ae8:	fec42783          	lw	a5,-20(s0)
     aec:	00178793          	add	a5,a5,1
     af0:	fef42623          	sw	a5,-20(s0)
     af4:	fd842783          	lw	a5,-40(s0)
     af8:	fff78793          	add	a5,a5,-1
     afc:	fec42703          	lw	a4,-20(s0)
     b00:	faf760e3          	bltu	a4,a5,aa0 <_ZL18add_entity_to_listPhjh+0x28>
#   }
#   uart_send_str("location full\r\n");
     b04:	000037b7          	lui	a5,0x3
     b08:	ba878513          	add	a0,a5,-1112 # 2ba8 <_ZN4listIhLi8EE6removeEh+0x5c4>
     b0c:	00001097          	auipc	ra,0x1
     b10:	fec080e7          	jalr	-20(ra) # 1af8 <_ZL13uart_send_strPKc>
#   return false;
     b14:	00000793          	li	a5,0
# }
     b18:	00078513          	mv	a0,a5
     b1c:	02c12083          	lw	ra,44(sp)
     b20:	02812403          	lw	s0,40(sp)
     b24:	03010113          	add	sp,sp,48
     b28:	00008067          	ret

00000b2c <_ZL23remove_entity_from_listPhjh>:
# 
# static auto remove_entity_from_list(entity_id_t list[], uint32_t list_len,
#                                     entity_id_t eid) -> void {
     b2c:	fd010113          	add	sp,sp,-48
     b30:	02112623          	sw	ra,44(sp)
     b34:	02812423          	sw	s0,40(sp)
     b38:	03010413          	add	s0,sp,48
     b3c:	fca42e23          	sw	a0,-36(s0)
     b40:	fcb42c23          	sw	a1,-40(s0)
     b44:	00060793          	mv	a5,a2
     b48:	fcf40ba3          	sb	a5,-41(s0)
#   // list_len - 1 since last element has to be 0
#   for (uint32_t i = 0; i < list_len - 1; i++) {
     b4c:	fe042623          	sw	zero,-20(s0)
     b50:	0900006f          	j	be0 <_ZL23remove_entity_from_listPhjh+0xb4>
#     if (list[i] != eid)
     b54:	fdc42703          	lw	a4,-36(s0)
     b58:	fec42783          	lw	a5,-20(s0)
     b5c:	00f707b3          	add	a5,a4,a5
     b60:	0007c783          	lbu	a5,0(a5)
     b64:	fd744703          	lbu	a4,-41(s0)
     b68:	06f71463          	bne	a4,a5,bd0 <_ZL23remove_entity_from_listPhjh+0xa4>
#       continue;
#     // list_len - 1 since last element has to be 0
#     for (uint32_t j = i; j < list_len - 1; j++) {
     b6c:	fec42783          	lw	a5,-20(s0)
     b70:	fef42423          	sw	a5,-24(s0)
     b74:	0480006f          	j	bbc <_ZL23remove_entity_from_listPhjh+0x90>
#       list[j] = list[j + 1];
     b78:	fe842783          	lw	a5,-24(s0)
     b7c:	00178793          	add	a5,a5,1
     b80:	fdc42703          	lw	a4,-36(s0)
     b84:	00f70733          	add	a4,a4,a5
     b88:	fdc42683          	lw	a3,-36(s0)
     b8c:	fe842783          	lw	a5,-24(s0)
     b90:	00f687b3          	add	a5,a3,a5
     b94:	00074703          	lbu	a4,0(a4)
     b98:	00e78023          	sb	a4,0(a5)
#       if (!list[j])
     b9c:	fdc42703          	lw	a4,-36(s0)
     ba0:	fe842783          	lw	a5,-24(s0)
     ba4:	00f707b3          	add	a5,a4,a5
     ba8:	0007c783          	lbu	a5,0(a5)
     bac:	04078c63          	beqz	a5,c04 <_ZL23remove_entity_from_listPhjh+0xd8>
#     for (uint32_t j = i; j < list_len - 1; j++) {
     bb0:	fe842783          	lw	a5,-24(s0)
     bb4:	00178793          	add	a5,a5,1
     bb8:	fef42423          	sw	a5,-24(s0)
     bbc:	fd842783          	lw	a5,-40(s0)
     bc0:	fff78793          	add	a5,a5,-1
     bc4:	fe842703          	lw	a4,-24(s0)
     bc8:	faf768e3          	bltu	a4,a5,b78 <_ZL23remove_entity_from_listPhjh+0x4c>
     bcc:	0080006f          	j	bd4 <_ZL23remove_entity_from_listPhjh+0xa8>
#       continue;
     bd0:	00000013          	nop
#   for (uint32_t i = 0; i < list_len - 1; i++) {
     bd4:	fec42783          	lw	a5,-20(s0)
     bd8:	00178793          	add	a5,a5,1
     bdc:	fef42623          	sw	a5,-20(s0)
     be0:	fd842783          	lw	a5,-40(s0)
     be4:	fff78793          	add	a5,a5,-1
     be8:	fec42703          	lw	a4,-20(s0)
     bec:	f6f764e3          	bltu	a4,a5,b54 <_ZL23remove_entity_from_listPhjh+0x28>
#         return;
#     }
#   }
#   uart_send_str("entity not here\r\n");
     bf0:	000037b7          	lui	a5,0x3
     bf4:	bb878513          	add	a0,a5,-1096 # 2bb8 <_ZN4listIhLi8EE6removeEh+0x5d4>
     bf8:	00001097          	auipc	ra,0x1
     bfc:	f00080e7          	jalr	-256(ra) # 1af8 <_ZL13uart_send_strPKc>
     c00:	0080006f          	j	c08 <_ZL23remove_entity_from_listPhjh+0xdc>
#         return;
     c04:	00000013          	nop
# }
     c08:	02c12083          	lw	ra,44(sp)
     c0c:	02812403          	lw	s0,40(sp)
     c10:	03010113          	add	sp,sp,48
     c14:	00008067          	ret

00000c18 <_ZL32remove_entity_from_list_by_indexPhj>:
# 
# static auto remove_entity_from_list_by_index(entity_id_t list[],
#                                              uint32_t ix) -> void {
     c18:	fd010113          	add	sp,sp,-48
     c1c:	02812623          	sw	s0,44(sp)
     c20:	03010413          	add	s0,sp,48
     c24:	fca42e23          	sw	a0,-36(s0)
     c28:	fcb42c23          	sw	a1,-40(s0)
#   entity_id_t *ptr = &list[ix];
     c2c:	fdc42703          	lw	a4,-36(s0)
     c30:	fd842783          	lw	a5,-40(s0)
     c34:	00f707b3          	add	a5,a4,a5
     c38:	fef42623          	sw	a5,-20(s0)
#   while (true) {
#     *ptr = *(ptr + 1);
     c3c:	fec42783          	lw	a5,-20(s0)
     c40:	0017c703          	lbu	a4,1(a5)
     c44:	fec42783          	lw	a5,-20(s0)
     c48:	00e78023          	sb	a4,0(a5)
#     if (!*ptr)
     c4c:	fec42783          	lw	a5,-20(s0)
     c50:	0007c783          	lbu	a5,0(a5)
     c54:	00078a63          	beqz	a5,c68 <_ZL32remove_entity_from_list_by_indexPhj+0x50>
#       return;
#     ptr++;
     c58:	fec42783          	lw	a5,-20(s0)
     c5c:	00178793          	add	a5,a5,1
     c60:	fef42623          	sw	a5,-20(s0)
#     *ptr = *(ptr + 1);
     c64:	fd9ff06f          	j	c3c <_ZL32remove_entity_from_list_by_indexPhj+0x24>
#       return;
     c68:	00000013          	nop
#   }
# }
     c6c:	02c12403          	lw	s0,44(sp)
     c70:	03010113          	add	sp,sp,48
     c74:	00008067          	ret

00000c78 <_ZL11action_takehPKc>:
# 
# static auto action_take(entity_id_t eid, name_t obj) -> void {
     c78:	fd010113          	add	sp,sp,-48
     c7c:	02112623          	sw	ra,44(sp)
     c80:	02812423          	sw	s0,40(sp)
     c84:	03010413          	add	s0,sp,48
     c88:	00050793          	mv	a5,a0
     c8c:	fcb42c23          	sw	a1,-40(s0)
     c90:	fcf40fa3          	sb	a5,-33(s0)
#   entity &ent = entities[eid];
     c94:	fdf44703          	lbu	a4,-33(s0)
     c98:	00070793          	mv	a5,a4
     c9c:	00179793          	sll	a5,a5,0x1
     ca0:	00e787b3          	add	a5,a5,a4
     ca4:	00279793          	sll	a5,a5,0x2
     ca8:	40e787b3          	sub	a5,a5,a4
     cac:	00279793          	sll	a5,a5,0x2
     cb0:	00003737          	lui	a4,0x3
     cb4:	65870713          	add	a4,a4,1624 # 3658 <_ZL8entities>
     cb8:	00e787b3          	add	a5,a5,a4
     cbc:	fef42423          	sw	a5,-24(s0)
#   list<object_id_t, LOCATION_MAX_OBJECTS> &lso =
#       locations[ent.location].objects;
     cc0:	fe842783          	lw	a5,-24(s0)
     cc4:	0047c783          	lbu	a5,4(a5)
     cc8:	00078713          	mv	a4,a5
#   list<object_id_t, LOCATION_MAX_OBJECTS> &lso =
     ccc:	00070793          	mv	a5,a4
     cd0:	00279793          	sll	a5,a5,0x2
     cd4:	00e787b3          	add	a5,a5,a4
     cd8:	00379793          	sll	a5,a5,0x3
     cdc:	40e787b3          	sub	a5,a5,a4
     ce0:	00279793          	sll	a5,a5,0x2
     ce4:	00003737          	lui	a4,0x3
     ce8:	6dc70713          	add	a4,a4,1756 # 36dc <_ZL9locations>
     cec:	00e787b3          	add	a5,a5,a4
     cf0:	00478793          	add	a5,a5,4
     cf4:	fef42223          	sw	a5,-28(s0)
#   for (uint32_t i = 0; i < LOCATION_MAX_OBJECTS; i++) {
     cf8:	fe042623          	sw	zero,-20(s0)
     cfc:	0a40006f          	j	da0 <_ZL11action_takehPKc+0x128>
#     object_id_t const oid = lso.at(i);
     d00:	fec42583          	lw	a1,-20(s0)
     d04:	fe442503          	lw	a0,-28(s0)
     d08:	00001097          	auipc	ra,0x1
     d0c:	588080e7          	jalr	1416(ra) # 2290 <_ZN4listIhLi128EE2atEj>
     d10:	00050793          	mv	a5,a0
     d14:	fef401a3          	sb	a5,-29(s0)
#     if (!oid) {
     d18:	fe344783          	lbu	a5,-29(s0)
     d1c:	08078a63          	beqz	a5,db0 <_ZL11action_takehPKc+0x138>
#       break;
#     }
#     if (!strings_equal(objects[oid].name, obj)) {
     d20:	fe344783          	lbu	a5,-29(s0)
     d24:	00003737          	lui	a4,0x3
     d28:	64870713          	add	a4,a4,1608 # 3648 <_ZL7objects>
     d2c:	00279793          	sll	a5,a5,0x2
     d30:	00f707b3          	add	a5,a4,a5
     d34:	0007a783          	lw	a5,0(a5)
     d38:	fd842583          	lw	a1,-40(s0)
     d3c:	00078513          	mv	a0,a5
     d40:	00001097          	auipc	ra,0x1
     d44:	b84080e7          	jalr	-1148(ra) # 18c4 <_ZL13strings_equalPKcS0_>
     d48:	00050793          	mv	a5,a0
     d4c:	0017c793          	xor	a5,a5,1
     d50:	0ff7f793          	zext.b	a5,a5
     d54:	02079e63          	bnez	a5,d90 <_ZL11action_takehPKc+0x118>
#       continue;
#     }
#     if (ent.objects.add(oid)) {
     d58:	fe842783          	lw	a5,-24(s0)
     d5c:	00878793          	add	a5,a5,8
     d60:	fe344703          	lbu	a4,-29(s0)
     d64:	00070593          	mv	a1,a4
     d68:	00078513          	mv	a0,a5
     d6c:	00001097          	auipc	ra,0x1
     d70:	5fc080e7          	jalr	1532(ra) # 2368 <_ZN4listIhLi32EE3addEh>
     d74:	00050793          	mv	a5,a0
     d78:	04078e63          	beqz	a5,dd4 <_ZL11action_takehPKc+0x15c>
#       lso.remove_by_index(i);
     d7c:	fec42583          	lw	a1,-20(s0)
     d80:	fe442503          	lw	a0,-28(s0)
     d84:	00001097          	auipc	ra,0x1
     d88:	668080e7          	jalr	1640(ra) # 23ec <_ZN4listIhLi128EE15remove_by_indexEj>
#     }
#     return;
     d8c:	0480006f          	j	dd4 <_ZL11action_takehPKc+0x15c>
#       continue;
     d90:	00000013          	nop
#   for (uint32_t i = 0; i < LOCATION_MAX_OBJECTS; i++) {
     d94:	fec42783          	lw	a5,-20(s0)
     d98:	00178793          	add	a5,a5,1
     d9c:	fef42623          	sw	a5,-20(s0)
     da0:	fec42703          	lw	a4,-20(s0)
     da4:	07f00793          	li	a5,127
     da8:	f4e7fce3          	bgeu	a5,a4,d00 <_ZL11action_takehPKc+0x88>
     dac:	0080006f          	j	db4 <_ZL11action_takehPKc+0x13c>
#       break;
     db0:	00000013          	nop
#   }
#   uart_send_str(obj);
     db4:	fd842503          	lw	a0,-40(s0)
     db8:	00001097          	auipc	ra,0x1
     dbc:	d40080e7          	jalr	-704(ra) # 1af8 <_ZL13uart_send_strPKc>
#   uart_send_str(" not here\r\n\r\n");
     dc0:	000037b7          	lui	a5,0x3
     dc4:	bcc78513          	add	a0,a5,-1076 # 2bcc <_ZN4listIhLi8EE6removeEh+0x5e8>
     dc8:	00001097          	auipc	ra,0x1
     dcc:	d30080e7          	jalr	-720(ra) # 1af8 <_ZL13uart_send_strPKc>
     dd0:	0080006f          	j	dd8 <_ZL11action_takehPKc+0x160>
#     return;
     dd4:	00000013          	nop
# }
     dd8:	02c12083          	lw	ra,44(sp)
     ddc:	02812403          	lw	s0,40(sp)
     de0:	03010113          	add	sp,sp,48
     de4:	00008067          	ret

00000de8 <_ZL11action_drophPKc>:
# 
# static auto action_drop(entity_id_t eid, name_t obj) -> void {
     de8:	fd010113          	add	sp,sp,-48
     dec:	02112623          	sw	ra,44(sp)
     df0:	02812423          	sw	s0,40(sp)
     df4:	03010413          	add	s0,sp,48
     df8:	00050793          	mv	a5,a0
     dfc:	fcb42c23          	sw	a1,-40(s0)
     e00:	fcf40fa3          	sb	a5,-33(s0)
#   entity &ent = entities[eid];
     e04:	fdf44703          	lbu	a4,-33(s0)
     e08:	00070793          	mv	a5,a4
     e0c:	00179793          	sll	a5,a5,0x1
     e10:	00e787b3          	add	a5,a5,a4
     e14:	00279793          	sll	a5,a5,0x2
     e18:	40e787b3          	sub	a5,a5,a4
     e1c:	00279793          	sll	a5,a5,0x2
     e20:	00003737          	lui	a4,0x3
     e24:	65870713          	add	a4,a4,1624 # 3658 <_ZL8entities>
     e28:	00e787b3          	add	a5,a5,a4
     e2c:	fef42423          	sw	a5,-24(s0)
#   list<object_id_t, ENTITY_MAX_OBJECTS> &lso = ent.objects;
     e30:	fe842783          	lw	a5,-24(s0)
     e34:	00878793          	add	a5,a5,8
     e38:	fef42223          	sw	a5,-28(s0)
#   for (uint32_t i = 0; i < ENTITY_MAX_OBJECTS; i++) {
     e3c:	fe042623          	sw	zero,-20(s0)
     e40:	0d00006f          	j	f10 <_ZL11action_drophPKc+0x128>
#     object_id_t const oid = lso.at(i);
     e44:	fec42583          	lw	a1,-20(s0)
     e48:	fe442503          	lw	a0,-28(s0)
     e4c:	00001097          	auipc	ra,0x1
     e50:	4d4080e7          	jalr	1236(ra) # 2320 <_ZN4listIhLi32EE2atEj>
     e54:	00050793          	mv	a5,a0
     e58:	fef401a3          	sb	a5,-29(s0)
#     if (!oid) {
     e5c:	fe344783          	lbu	a5,-29(s0)
     e60:	0c078063          	beqz	a5,f20 <_ZL11action_drophPKc+0x138>
#       break;
#     }
#     if (!strings_equal(objects[oid].name, obj)) {
     e64:	fe344783          	lbu	a5,-29(s0)
     e68:	00003737          	lui	a4,0x3
     e6c:	64870713          	add	a4,a4,1608 # 3648 <_ZL7objects>
     e70:	00279793          	sll	a5,a5,0x2
     e74:	00f707b3          	add	a5,a4,a5
     e78:	0007a783          	lw	a5,0(a5)
     e7c:	fd842583          	lw	a1,-40(s0)
     e80:	00078513          	mv	a0,a5
     e84:	00001097          	auipc	ra,0x1
     e88:	a40080e7          	jalr	-1472(ra) # 18c4 <_ZL13strings_equalPKcS0_>
     e8c:	00050793          	mv	a5,a0
     e90:	0017c793          	xor	a5,a5,1
     e94:	0ff7f793          	zext.b	a5,a5
     e98:	06079463          	bnez	a5,f00 <_ZL11action_drophPKc+0x118>
#       continue;
#     }
#     if (locations[ent.location].objects.add(oid)) {
     e9c:	fe842783          	lw	a5,-24(s0)
     ea0:	0047c783          	lbu	a5,4(a5)
     ea4:	00078713          	mv	a4,a5
     ea8:	00070793          	mv	a5,a4
     eac:	00279793          	sll	a5,a5,0x2
     eb0:	00e787b3          	add	a5,a5,a4
     eb4:	00379793          	sll	a5,a5,0x3
     eb8:	40e787b3          	sub	a5,a5,a4
     ebc:	00279793          	sll	a5,a5,0x2
     ec0:	00003737          	lui	a4,0x3
     ec4:	6dc70713          	add	a4,a4,1756 # 36dc <_ZL9locations>
     ec8:	00e787b3          	add	a5,a5,a4
     ecc:	00478793          	add	a5,a5,4
     ed0:	fe344703          	lbu	a4,-29(s0)
     ed4:	00070593          	mv	a1,a4
     ed8:	00078513          	mv	a0,a5
     edc:	00001097          	auipc	ra,0x1
     ee0:	588080e7          	jalr	1416(ra) # 2464 <_ZN4listIhLi128EE3addEh>
     ee4:	00050793          	mv	a5,a0
     ee8:	06078663          	beqz	a5,f54 <_ZL11action_drophPKc+0x16c>
#       lso.remove_by_index(i);
     eec:	fec42583          	lw	a1,-20(s0)
     ef0:	fe442503          	lw	a0,-28(s0)
     ef4:	00001097          	auipc	ra,0x1
     ef8:	5f4080e7          	jalr	1524(ra) # 24e8 <_ZN4listIhLi32EE15remove_by_indexEj>
#     }
#     return;
     efc:	0580006f          	j	f54 <_ZL11action_drophPKc+0x16c>
#       continue;
     f00:	00000013          	nop
#   for (uint32_t i = 0; i < ENTITY_MAX_OBJECTS; i++) {
     f04:	fec42783          	lw	a5,-20(s0)
     f08:	00178793          	add	a5,a5,1
     f0c:	fef42623          	sw	a5,-20(s0)
     f10:	fec42703          	lw	a4,-20(s0)
     f14:	01f00793          	li	a5,31
     f18:	f2e7f6e3          	bgeu	a5,a4,e44 <_ZL11action_drophPKc+0x5c>
     f1c:	0080006f          	j	f24 <_ZL11action_drophPKc+0x13c>
#       break;
     f20:	00000013          	nop
#   }
#   uart_send_str("u don't have ");
     f24:	000037b7          	lui	a5,0x3
     f28:	bdc78513          	add	a0,a5,-1060 # 2bdc <_ZN4listIhLi8EE6removeEh+0x5f8>
     f2c:	00001097          	auipc	ra,0x1
     f30:	bcc080e7          	jalr	-1076(ra) # 1af8 <_ZL13uart_send_strPKc>
#   uart_send_str(obj);
     f34:	fd842503          	lw	a0,-40(s0)
     f38:	00001097          	auipc	ra,0x1
     f3c:	bc0080e7          	jalr	-1088(ra) # 1af8 <_ZL13uart_send_strPKc>
#   uart_send_str("\r\n\r\n");
     f40:	000037b7          	lui	a5,0x3
     f44:	bec78513          	add	a0,a5,-1044 # 2bec <_ZN4listIhLi8EE6removeEh+0x608>
     f48:	00001097          	auipc	ra,0x1
     f4c:	bb0080e7          	jalr	-1104(ra) # 1af8 <_ZL13uart_send_strPKc>
     f50:	0080006f          	j	f58 <_ZL11action_drophPKc+0x170>
#     return;
     f54:	00000013          	nop
# }
     f58:	02c12083          	lw	ra,44(sp)
     f5c:	02812403          	lw	s0,40(sp)
     f60:	03010113          	add	sp,sp,48
     f64:	00008067          	ret

00000f68 <_ZL9action_gohh>:
# 
# static auto action_go(entity_id_t eid, direction_t dir) -> void {
     f68:	fd010113          	add	sp,sp,-48
     f6c:	02112623          	sw	ra,44(sp)
     f70:	02812423          	sw	s0,40(sp)
     f74:	03010413          	add	s0,sp,48
     f78:	00050793          	mv	a5,a0
     f7c:	00058713          	mv	a4,a1
     f80:	fcf40fa3          	sb	a5,-33(s0)
     f84:	00070793          	mv	a5,a4
     f88:	fcf40f23          	sb	a5,-34(s0)
#   entity &ent = entities[eid];
     f8c:	fdf44703          	lbu	a4,-33(s0)
     f90:	00070793          	mv	a5,a4
     f94:	00179793          	sll	a5,a5,0x1
     f98:	00e787b3          	add	a5,a5,a4
     f9c:	00279793          	sll	a5,a5,0x2
     fa0:	40e787b3          	sub	a5,a5,a4
     fa4:	00279793          	sll	a5,a5,0x2
     fa8:	00003737          	lui	a4,0x3
     fac:	65870713          	add	a4,a4,1624 # 3658 <_ZL8entities>
     fb0:	00e787b3          	add	a5,a5,a4
     fb4:	fef42623          	sw	a5,-20(s0)
#   location &loc = locations[ent.location];
     fb8:	fec42783          	lw	a5,-20(s0)
     fbc:	0047c783          	lbu	a5,4(a5)
     fc0:	00078713          	mv	a4,a5
     fc4:	00070793          	mv	a5,a4
     fc8:	00279793          	sll	a5,a5,0x2
     fcc:	00e787b3          	add	a5,a5,a4
     fd0:	00379793          	sll	a5,a5,0x3
     fd4:	40e787b3          	sub	a5,a5,a4
     fd8:	00279793          	sll	a5,a5,0x2
     fdc:	00003737          	lui	a4,0x3
     fe0:	6dc70713          	add	a4,a4,1756 # 36dc <_ZL9locations>
     fe4:	00e787b3          	add	a5,a5,a4
     fe8:	fef42423          	sw	a5,-24(s0)
#   location_id_t const to = loc.exits[dir];
     fec:	fde44783          	lbu	a5,-34(s0)
     ff0:	fe842703          	lw	a4,-24(s0)
     ff4:	00f707b3          	add	a5,a4,a5
     ff8:	0947c783          	lbu	a5,148(a5)
     ffc:	fef403a3          	sb	a5,-25(s0)
#   if (!to) {
    1000:	fe744783          	lbu	a5,-25(s0)
    1004:	00079c63          	bnez	a5,101c <_ZL9action_gohh+0xb4>
#     uart_send_str("cannot go there\r\n\r\n");
    1008:	000037b7          	lui	a5,0x3
    100c:	bf478513          	add	a0,a5,-1036 # 2bf4 <_ZN4listIhLi8EE6removeEh+0x610>
    1010:	00001097          	auipc	ra,0x1
    1014:	ae8080e7          	jalr	-1304(ra) # 1af8 <_ZL13uart_send_strPKc>
#     return;
    1018:	0780006f          	j	1090 <_ZL9action_gohh+0x128>
#   }
#   if (locations[to].entities.add(eid)) {
    101c:	fe744703          	lbu	a4,-25(s0)
    1020:	00070793          	mv	a5,a4
    1024:	00279793          	sll	a5,a5,0x2
    1028:	00e787b3          	add	a5,a5,a4
    102c:	00379793          	sll	a5,a5,0x3
    1030:	40e787b3          	sub	a5,a5,a4
    1034:	00279793          	sll	a5,a5,0x2
    1038:	08078713          	add	a4,a5,128
    103c:	000037b7          	lui	a5,0x3
    1040:	6dc78793          	add	a5,a5,1756 # 36dc <_ZL9locations>
    1044:	00f707b3          	add	a5,a4,a5
    1048:	00878793          	add	a5,a5,8
    104c:	fdf44703          	lbu	a4,-33(s0)
    1050:	00070593          	mv	a1,a4
    1054:	00078513          	mv	a0,a5
    1058:	00001097          	auipc	ra,0x1
    105c:	508080e7          	jalr	1288(ra) # 2560 <_ZN4listIhLi8EE3addEh>
    1060:	00050793          	mv	a5,a0
    1064:	02078663          	beqz	a5,1090 <_ZL9action_gohh+0x128>
#     loc.entities.remove(eid);
    1068:	fe842783          	lw	a5,-24(s0)
    106c:	08878793          	add	a5,a5,136
    1070:	fdf44703          	lbu	a4,-33(s0)
    1074:	00070593          	mv	a1,a4
    1078:	00078513          	mv	a0,a5
    107c:	00001097          	auipc	ra,0x1
    1080:	568080e7          	jalr	1384(ra) # 25e4 <_ZN4listIhLi8EE6removeEh>
#     ent.location = to;
    1084:	fec42783          	lw	a5,-20(s0)
    1088:	fe744703          	lbu	a4,-25(s0)
    108c:	00e78223          	sb	a4,4(a5)
#   }
# }
    1090:	02c12083          	lw	ra,44(sp)
    1094:	02812403          	lw	s0,40(sp)
    1098:	03010113          	add	sp,sp,48
    109c:	00008067          	ret

000010a0 <_ZL11action_givehPKcS0_>:
# 
# static auto action_give(entity_id_t eid, name_t obj, name_t to_ent) -> void {
    10a0:	fc010113          	add	sp,sp,-64
    10a4:	02112e23          	sw	ra,60(sp)
    10a8:	02812c23          	sw	s0,56(sp)
    10ac:	04010413          	add	s0,sp,64
    10b0:	00050793          	mv	a5,a0
    10b4:	fcb42423          	sw	a1,-56(s0)
    10b8:	fcc42223          	sw	a2,-60(s0)
    10bc:	fcf407a3          	sb	a5,-49(s0)
#   entity &ent = entities[eid];
    10c0:	fcf44703          	lbu	a4,-49(s0)
    10c4:	00070793          	mv	a5,a4
    10c8:	00179793          	sll	a5,a5,0x1
    10cc:	00e787b3          	add	a5,a5,a4
    10d0:	00279793          	sll	a5,a5,0x2
    10d4:	40e787b3          	sub	a5,a5,a4
    10d8:	00279793          	sll	a5,a5,0x2
    10dc:	00003737          	lui	a4,0x3
    10e0:	65870713          	add	a4,a4,1624 # 3658 <_ZL8entities>
    10e4:	00e787b3          	add	a5,a5,a4
    10e8:	fef42223          	sw	a5,-28(s0)
#   location &loc = locations[ent.location];
    10ec:	fe442783          	lw	a5,-28(s0)
    10f0:	0047c783          	lbu	a5,4(a5)
    10f4:	00078713          	mv	a4,a5
    10f8:	00070793          	mv	a5,a4
    10fc:	00279793          	sll	a5,a5,0x2
    1100:	00e787b3          	add	a5,a5,a4
    1104:	00379793          	sll	a5,a5,0x3
    1108:	40e787b3          	sub	a5,a5,a4
    110c:	00279793          	sll	a5,a5,0x2
    1110:	00003737          	lui	a4,0x3
    1114:	6dc70713          	add	a4,a4,1756 # 36dc <_ZL9locations>
    1118:	00e787b3          	add	a5,a5,a4
    111c:	fef42023          	sw	a5,-32(s0)
#   list<object_id_t, LOCATION_MAX_ENTITIES> &lse = loc.entities;
    1120:	fe042783          	lw	a5,-32(s0)
    1124:	08878793          	add	a5,a5,136
    1128:	fcf42e23          	sw	a5,-36(s0)
#   for (uint32_t i = 0; i < LOCATION_MAX_ENTITIES; i++) {
    112c:	fe042623          	sw	zero,-20(s0)
    1130:	1840006f          	j	12b4 <_ZL11action_givehPKcS0_+0x214>
#     if (!lse.at(i)) {
    1134:	fec42583          	lw	a1,-20(s0)
    1138:	fdc42503          	lw	a0,-36(s0)
    113c:	00001097          	auipc	ra,0x1
    1140:	19c080e7          	jalr	412(ra) # 22d8 <_ZN4listIhLi8EE2atEj>
    1144:	00050793          	mv	a5,a0
    1148:	0017b793          	seqz	a5,a5
    114c:	0ff7f793          	zext.b	a5,a5
    1150:	16079a63          	bnez	a5,12c4 <_ZL11action_givehPKcS0_+0x224>
#       break;
#     }
#     entity &to = entities[lse.at(i)];
    1154:	fec42583          	lw	a1,-20(s0)
    1158:	fdc42503          	lw	a0,-36(s0)
    115c:	00001097          	auipc	ra,0x1
    1160:	17c080e7          	jalr	380(ra) # 22d8 <_ZN4listIhLi8EE2atEj>
    1164:	00050793          	mv	a5,a0
    1168:	00078713          	mv	a4,a5
    116c:	00070793          	mv	a5,a4
    1170:	00179793          	sll	a5,a5,0x1
    1174:	00e787b3          	add	a5,a5,a4
    1178:	00279793          	sll	a5,a5,0x2
    117c:	40e787b3          	sub	a5,a5,a4
    1180:	00279793          	sll	a5,a5,0x2
    1184:	00003737          	lui	a4,0x3
    1188:	65870713          	add	a4,a4,1624 # 3658 <_ZL8entities>
    118c:	00e787b3          	add	a5,a5,a4
    1190:	fcf42c23          	sw	a5,-40(s0)
#     if (!strings_equal(to.name, to_ent)) {
    1194:	fd842783          	lw	a5,-40(s0)
    1198:	0007a783          	lw	a5,0(a5)
    119c:	fc442583          	lw	a1,-60(s0)
    11a0:	00078513          	mv	a0,a5
    11a4:	00000097          	auipc	ra,0x0
    11a8:	720080e7          	jalr	1824(ra) # 18c4 <_ZL13strings_equalPKcS0_>
    11ac:	00050793          	mv	a5,a0
    11b0:	0017c793          	xor	a5,a5,1
    11b4:	0ff7f793          	zext.b	a5,a5
    11b8:	0e079663          	bnez	a5,12a4 <_ZL11action_givehPKcS0_+0x204>
#       continue;
#     }
#     list<object_id_t, ENTITY_MAX_OBJECTS> &lso = ent.objects;
    11bc:	fe442783          	lw	a5,-28(s0)
    11c0:	00878793          	add	a5,a5,8
    11c4:	fcf42a23          	sw	a5,-44(s0)
#     for (uint32_t j = 0; j < ENTITY_MAX_OBJECTS; j++) {
    11c8:	fe042423          	sw	zero,-24(s0)
    11cc:	0a40006f          	j	1270 <_ZL11action_givehPKcS0_+0x1d0>
#       object_id_t const oid = lso.at(j);
    11d0:	fe842583          	lw	a1,-24(s0)
    11d4:	fd442503          	lw	a0,-44(s0)
    11d8:	00001097          	auipc	ra,0x1
    11dc:	148080e7          	jalr	328(ra) # 2320 <_ZN4listIhLi32EE2atEj>
    11e0:	00050793          	mv	a5,a0
    11e4:	fcf409a3          	sb	a5,-45(s0)
#       if (!oid) {
    11e8:	fd344783          	lbu	a5,-45(s0)
    11ec:	08078a63          	beqz	a5,1280 <_ZL11action_givehPKcS0_+0x1e0>
#         break;
#       }
#       if (!strings_equal(objects[oid].name, obj)) {
    11f0:	fd344783          	lbu	a5,-45(s0)
    11f4:	00003737          	lui	a4,0x3
    11f8:	64870713          	add	a4,a4,1608 # 3648 <_ZL7objects>
    11fc:	00279793          	sll	a5,a5,0x2
    1200:	00f707b3          	add	a5,a4,a5
    1204:	0007a783          	lw	a5,0(a5)
    1208:	fc842583          	lw	a1,-56(s0)
    120c:	00078513          	mv	a0,a5
    1210:	00000097          	auipc	ra,0x0
    1214:	6b4080e7          	jalr	1716(ra) # 18c4 <_ZL13strings_equalPKcS0_>
    1218:	00050793          	mv	a5,a0
    121c:	0017c793          	xor	a5,a5,1
    1220:	0ff7f793          	zext.b	a5,a5
    1224:	02079e63          	bnez	a5,1260 <_ZL11action_givehPKcS0_+0x1c0>
#         continue;
#       }
#       if (to.objects.add(oid)) {
    1228:	fd842783          	lw	a5,-40(s0)
    122c:	00878793          	add	a5,a5,8
    1230:	fd344703          	lbu	a4,-45(s0)
    1234:	00070593          	mv	a1,a4
    1238:	00078513          	mv	a0,a5
    123c:	00001097          	auipc	ra,0x1
    1240:	12c080e7          	jalr	300(ra) # 2368 <_ZN4listIhLi32EE3addEh>
    1244:	00050793          	mv	a5,a0
    1248:	0a078063          	beqz	a5,12e8 <_ZL11action_givehPKcS0_+0x248>
#         lso.remove_by_index(j);
    124c:	fe842583          	lw	a1,-24(s0)
    1250:	fd442503          	lw	a0,-44(s0)
    1254:	00001097          	auipc	ra,0x1
    1258:	294080e7          	jalr	660(ra) # 24e8 <_ZN4listIhLi32EE15remove_by_indexEj>
#       }
#       return;
    125c:	08c0006f          	j	12e8 <_ZL11action_givehPKcS0_+0x248>
#         continue;
    1260:	00000013          	nop
#     for (uint32_t j = 0; j < ENTITY_MAX_OBJECTS; j++) {
    1264:	fe842783          	lw	a5,-24(s0)
    1268:	00178793          	add	a5,a5,1
    126c:	fef42423          	sw	a5,-24(s0)
    1270:	fe842703          	lw	a4,-24(s0)
    1274:	01f00793          	li	a5,31
    1278:	f4e7fce3          	bgeu	a5,a4,11d0 <_ZL11action_givehPKcS0_+0x130>
    127c:	0080006f          	j	1284 <_ZL11action_givehPKcS0_+0x1e4>
#         break;
    1280:	00000013          	nop
#     }
#     uart_send_str(obj);
    1284:	fc842503          	lw	a0,-56(s0)
    1288:	00001097          	auipc	ra,0x1
    128c:	870080e7          	jalr	-1936(ra) # 1af8 <_ZL13uart_send_strPKc>
#     uart_send_str(" not in inventory\r\n\r\n");
    1290:	000037b7          	lui	a5,0x3
    1294:	c0878513          	add	a0,a5,-1016 # 2c08 <_ZN4listIhLi8EE6removeEh+0x624>
    1298:	00001097          	auipc	ra,0x1
    129c:	860080e7          	jalr	-1952(ra) # 1af8 <_ZL13uart_send_strPKc>
#     return;
    12a0:	04c0006f          	j	12ec <_ZL11action_givehPKcS0_+0x24c>
#       continue;
    12a4:	00000013          	nop
#   for (uint32_t i = 0; i < LOCATION_MAX_ENTITIES; i++) {
    12a8:	fec42783          	lw	a5,-20(s0)
    12ac:	00178793          	add	a5,a5,1
    12b0:	fef42623          	sw	a5,-20(s0)
    12b4:	fec42703          	lw	a4,-20(s0)
    12b8:	00700793          	li	a5,7
    12bc:	e6e7fce3          	bgeu	a5,a4,1134 <_ZL11action_givehPKcS0_+0x94>
    12c0:	0080006f          	j	12c8 <_ZL11action_givehPKcS0_+0x228>
#       break;
    12c4:	00000013          	nop
#   }
#   uart_send_str(to_ent);
    12c8:	fc442503          	lw	a0,-60(s0)
    12cc:	00001097          	auipc	ra,0x1
    12d0:	82c080e7          	jalr	-2004(ra) # 1af8 <_ZL13uart_send_strPKc>
#   uart_send_str(" is not here\r\n\r\n");
    12d4:	000037b7          	lui	a5,0x3
    12d8:	c2078513          	add	a0,a5,-992 # 2c20 <_ZN4listIhLi8EE6removeEh+0x63c>
    12dc:	00001097          	auipc	ra,0x1
    12e0:	81c080e7          	jalr	-2020(ra) # 1af8 <_ZL13uart_send_strPKc>
    12e4:	0080006f          	j	12ec <_ZL11action_givehPKcS0_+0x24c>
#       return;
    12e8:	00000013          	nop
# }
    12ec:	03c12083          	lw	ra,60(sp)
    12f0:	03812403          	lw	s0,56(sp)
    12f4:	04010113          	add	sp,sp,64
    12f8:	00008067          	ret

000012fc <_ZL10print_helpv>:
# 
# static auto print_help() -> void {
    12fc:	ff010113          	add	sp,sp,-16
    1300:	00112623          	sw	ra,12(sp)
    1304:	00812423          	sw	s0,8(sp)
    1308:	01010413          	add	s0,sp,16
#   uart_send_str(
    130c:	000037b7          	lui	a5,0x3
    1310:	c3478513          	add	a0,a5,-972 # 2c34 <_ZN4listIhLi8EE6removeEh+0x650>
    1314:	00000097          	auipc	ra,0x0
    1318:	7e4080e7          	jalr	2020(ra) # 1af8 <_ZL13uart_send_strPKc>
#       "\r\ncommand:\r\n  n: go north\r\n  e: go east\r\n  s: go south\r\n  w: "
#       "go west\r\n  i: "
#       "display inventory\r\n  t <object>: take object\r\n  d <object>: drop "
#       "object\r\n  g <object> <entity>: give object to entity\r\n  help: this "
#       "message\r\n\r\n");
# }
    131c:	00000013          	nop
    1320:	00c12083          	lw	ra,12(sp)
    1324:	00812403          	lw	s0,8(sp)
    1328:	01010113          	add	sp,sp,16
    132c:	00008067          	ret

00001330 <_ZL27input_escape_sequence_clearv>:
# 
# static char input_escape_sequence[8];
# static auto input_escape_sequence_clear() -> void {
    1330:	fe010113          	add	sp,sp,-32
    1334:	00812e23          	sw	s0,28(sp)
    1338:	02010413          	add	s0,sp,32
#   for (uint32_t i = 0; i < sizeof(input_escape_sequence); ++i) {
    133c:	fe042623          	sw	zero,-20(s0)
    1340:	0280006f          	j	1368 <_ZL27input_escape_sequence_clearv+0x38>
#     input_escape_sequence[i] = '0';
    1344:	000047b7          	lui	a5,0x4
    1348:	a0878713          	add	a4,a5,-1528 # 3a08 <_ZL21input_escape_sequence>
    134c:	fec42783          	lw	a5,-20(s0)
    1350:	00f707b3          	add	a5,a4,a5
    1354:	03000713          	li	a4,48
    1358:	00e78023          	sb	a4,0(a5)
#   for (uint32_t i = 0; i < sizeof(input_escape_sequence); ++i) {
    135c:	fec42783          	lw	a5,-20(s0)
    1360:	00178793          	add	a5,a5,1
    1364:	fef42623          	sw	a5,-20(s0)
    1368:	fec42703          	lw	a4,-20(s0)
    136c:	00700793          	li	a5,7
    1370:	fce7fae3          	bgeu	a5,a4,1344 <_ZL27input_escape_sequence_clearv+0x14>
#   }
# }
    1374:	00000013          	nop
    1378:	00000013          	nop
    137c:	01c12403          	lw	s0,28(sp)
    1380:	02010113          	add	sp,sp,32
    1384:	00008067          	ret

00001388 <_ZZL5inputR14command_bufferENKUlcE_clEc>:
#           if (ch == 0x7e) {
#             // escape sequence 0x1B 0x5B 0x33 0x7E
#             // delete
#             buf.del();
#             buf.apply_on_chars_from_cursor_to_end(
#                 [](char c) { uart_send_char(c); });
    1388:	fe010113          	add	sp,sp,-32
    138c:	00112e23          	sw	ra,28(sp)
    1390:	00812c23          	sw	s0,24(sp)
    1394:	02010413          	add	s0,sp,32
    1398:	fea42623          	sw	a0,-20(s0)
    139c:	00058793          	mv	a5,a1
    13a0:	fef405a3          	sb	a5,-21(s0)
    13a4:	feb44783          	lbu	a5,-21(s0)
    13a8:	00078513          	mv	a0,a5
    13ac:	00000097          	auipc	ra,0x0
    13b0:	7b4080e7          	jalr	1972(ra) # 1b60 <_ZL14uart_send_charc>
    13b4:	00000013          	nop
    13b8:	01c12083          	lw	ra,28(sp)
    13bc:	01812403          	lw	s0,24(sp)
    13c0:	02010113          	add	sp,sp,32
    13c4:	00008067          	ret

000013c8 <_ZZL5inputR14command_bufferENUlcE_4_FUNEc>:
    13c8:	fe010113          	add	sp,sp,-32
    13cc:	00112e23          	sw	ra,28(sp)
    13d0:	00812c23          	sw	s0,24(sp)
    13d4:	02010413          	add	s0,sp,32
    13d8:	00050793          	mv	a5,a0
    13dc:	fef407a3          	sb	a5,-17(s0)
    13e0:	fef44783          	lbu	a5,-17(s0)
    13e4:	00078593          	mv	a1,a5
    13e8:	00000513          	li	a0,0
    13ec:	00000097          	auipc	ra,0x0
    13f0:	f9c080e7          	jalr	-100(ra) # 1388 <_ZZL5inputR14command_bufferENKUlcE_clEc>
    13f4:	01c12083          	lw	ra,28(sp)
    13f8:	01812403          	lw	s0,24(sp)
    13fc:	02010113          	add	sp,sp,32
    1400:	00008067          	ret

00001404 <_ZZL5inputR14command_bufferENKUlcE_cvPFvcEEv>:
    1404:	fe010113          	add	sp,sp,-32
    1408:	00812e23          	sw	s0,28(sp)
    140c:	02010413          	add	s0,sp,32
    1410:	fea42623          	sw	a0,-20(s0)
    1414:	000017b7          	lui	a5,0x1
    1418:	3c878793          	add	a5,a5,968 # 13c8 <_ZZL5inputR14command_bufferENUlcE_4_FUNEc>
    141c:	00078513          	mv	a0,a5
    1420:	01c12403          	lw	s0,28(sp)
    1424:	02010113          	add	sp,sp,32
    1428:	00008067          	ret

0000142c <_ZZL5inputR14command_bufferENKUlcE0_clEc>:
#     }
#     if (ch == CHAR_BACKSPACE) {
#       if (buf.backspace()) {
#         uart_send_char(ch);
#         buf.apply_on_chars_from_cursor_to_end(
#             [](char c) { uart_send_char(c); });
    142c:	fe010113          	add	sp,sp,-32
    1430:	00112e23          	sw	ra,28(sp)
    1434:	00812c23          	sw	s0,24(sp)
    1438:	02010413          	add	s0,sp,32
    143c:	fea42623          	sw	a0,-20(s0)
    1440:	00058793          	mv	a5,a1
    1444:	fef405a3          	sb	a5,-21(s0)
    1448:	feb44783          	lbu	a5,-21(s0)
    144c:	00078513          	mv	a0,a5
    1450:	00000097          	auipc	ra,0x0
    1454:	710080e7          	jalr	1808(ra) # 1b60 <_ZL14uart_send_charc>
    1458:	00000013          	nop
    145c:	01c12083          	lw	ra,28(sp)
    1460:	01812403          	lw	s0,24(sp)
    1464:	02010113          	add	sp,sp,32
    1468:	00008067          	ret

0000146c <_ZZL5inputR14command_bufferENUlcE0_4_FUNEc>:
    146c:	fe010113          	add	sp,sp,-32
    1470:	00112e23          	sw	ra,28(sp)
    1474:	00812c23          	sw	s0,24(sp)
    1478:	02010413          	add	s0,sp,32
    147c:	00050793          	mv	a5,a0
    1480:	fef407a3          	sb	a5,-17(s0)
    1484:	fef44783          	lbu	a5,-17(s0)
    1488:	00078593          	mv	a1,a5
    148c:	00000513          	li	a0,0
    1490:	00000097          	auipc	ra,0x0
    1494:	f9c080e7          	jalr	-100(ra) # 142c <_ZZL5inputR14command_bufferENKUlcE0_clEc>
    1498:	01c12083          	lw	ra,28(sp)
    149c:	01812403          	lw	s0,24(sp)
    14a0:	02010113          	add	sp,sp,32
    14a4:	00008067          	ret

000014a8 <_ZZL5inputR14command_bufferENKUlcE0_cvPFvcEEv>:
    14a8:	fe010113          	add	sp,sp,-32
    14ac:	00812e23          	sw	s0,28(sp)
    14b0:	02010413          	add	s0,sp,32
    14b4:	fea42623          	sw	a0,-20(s0)
    14b8:	000017b7          	lui	a5,0x1
    14bc:	46c78793          	add	a5,a5,1132 # 146c <_ZZL5inputR14command_bufferENUlcE0_4_FUNEc>
    14c0:	00078513          	mv	a0,a5
    14c4:	01c12403          	lw	s0,28(sp)
    14c8:	02010113          	add	sp,sp,32
    14cc:	00008067          	ret

000014d0 <_ZZL5inputR14command_bufferENKUlcE1_clEc>:
#       return;
#     } else {
#       uart_send_char(ch);
#       buf.insert(ch);
#       buf.apply_on_chars_from_cursor_to_end(
#           [](char const c) { uart_send_char(c); });
    14d0:	fe010113          	add	sp,sp,-32
    14d4:	00112e23          	sw	ra,28(sp)
    14d8:	00812c23          	sw	s0,24(sp)
    14dc:	02010413          	add	s0,sp,32
    14e0:	fea42623          	sw	a0,-20(s0)
    14e4:	00058793          	mv	a5,a1
    14e8:	fef405a3          	sb	a5,-21(s0)
    14ec:	feb44783          	lbu	a5,-21(s0)
    14f0:	00078513          	mv	a0,a5
    14f4:	00000097          	auipc	ra,0x0
    14f8:	66c080e7          	jalr	1644(ra) # 1b60 <_ZL14uart_send_charc>
    14fc:	00000013          	nop
    1500:	01c12083          	lw	ra,28(sp)
    1504:	01812403          	lw	s0,24(sp)
    1508:	02010113          	add	sp,sp,32
    150c:	00008067          	ret

00001510 <_ZZL5inputR14command_bufferENUlcE1_4_FUNEc>:
    1510:	fe010113          	add	sp,sp,-32
    1514:	00112e23          	sw	ra,28(sp)
    1518:	00812c23          	sw	s0,24(sp)
    151c:	02010413          	add	s0,sp,32
    1520:	00050793          	mv	a5,a0
    1524:	fef407a3          	sb	a5,-17(s0)
    1528:	fef44783          	lbu	a5,-17(s0)
    152c:	00078593          	mv	a1,a5
    1530:	00000513          	li	a0,0
    1534:	00000097          	auipc	ra,0x0
    1538:	f9c080e7          	jalr	-100(ra) # 14d0 <_ZZL5inputR14command_bufferENKUlcE1_clEc>
    153c:	01c12083          	lw	ra,28(sp)
    1540:	01812403          	lw	s0,24(sp)
    1544:	02010113          	add	sp,sp,32
    1548:	00008067          	ret

0000154c <_ZZL5inputR14command_bufferENKUlcE1_cvPFvcEEv>:
    154c:	fe010113          	add	sp,sp,-32
    1550:	00812e23          	sw	s0,28(sp)
    1554:	02010413          	add	s0,sp,32
    1558:	fea42623          	sw	a0,-20(s0)
    155c:	000017b7          	lui	a5,0x1
    1560:	51078793          	add	a5,a5,1296 # 1510 <_ZZL5inputR14command_bufferENUlcE1_4_FUNEc>
    1564:	00078513          	mv	a0,a5
    1568:	01c12403          	lw	s0,28(sp)
    156c:	02010113          	add	sp,sp,32
    1570:	00008067          	ret

00001574 <_ZL5inputR14command_buffer>:
# static auto input(command_buffer &buf) -> void {
    1574:	fd010113          	add	sp,sp,-48
    1578:	02112623          	sw	ra,44(sp)
    157c:	02812423          	sw	s0,40(sp)
    1580:	03010413          	add	s0,sp,48
    1584:	fca42e23          	sw	a0,-36(s0)
#   buf.reset();
    1588:	fdc42503          	lw	a0,-36(s0)
    158c:	00001097          	auipc	ra,0x1
    1590:	ab8080e7          	jalr	-1352(ra) # 2044 <_ZN14command_buffer5resetEv>
#     char const ch = uart_read_char();
    1594:	00000097          	auipc	ra,0x0
    1598:	618080e7          	jalr	1560(ra) # 1bac <_ZL14uart_read_charv>
    159c:	00050793          	mv	a5,a0
    15a0:	fef407a3          	sb	a5,-17(s0)
#     if (ch == 0x1B) {
    15a4:	fef44703          	lbu	a4,-17(s0)
    15a8:	01b00793          	li	a5,27
    15ac:	00f71c63          	bne	a4,a5,15c4 <_ZL5inputR14command_buffer+0x50>
#       input_escape_sequence[0] = 0x1B;
    15b0:	000047b7          	lui	a5,0x4
    15b4:	a0878793          	add	a5,a5,-1528 # 3a08 <_ZL21input_escape_sequence>
    15b8:	01b00713          	li	a4,27
    15bc:	00e78023          	sb	a4,0(a5)
#       continue;
    15c0:	2f00006f          	j	18b0 <_ZL5inputR14command_buffer+0x33c>
#     if (input_escape_sequence[0] == 0x1B) {
    15c4:	000047b7          	lui	a5,0x4
    15c8:	a0878793          	add	a5,a5,-1528 # 3a08 <_ZL21input_escape_sequence>
    15cc:	0007c703          	lbu	a4,0(a5)
    15d0:	01b00793          	li	a5,27
    15d4:	18f71663          	bne	a4,a5,1760 <_ZL5inputR14command_buffer+0x1ec>
#       if (ch == 0x5B) {
    15d8:	fef44703          	lbu	a4,-17(s0)
    15dc:	05b00793          	li	a5,91
    15e0:	00f71c63          	bne	a4,a5,15f8 <_ZL5inputR14command_buffer+0x84>
#         input_escape_sequence[1] = 0x5B;
    15e4:	000047b7          	lui	a5,0x4
    15e8:	a0878793          	add	a5,a5,-1528 # 3a08 <_ZL21input_escape_sequence>
    15ec:	05b00713          	li	a4,91
    15f0:	00e780a3          	sb	a4,1(a5)
#         continue;
    15f4:	2bc0006f          	j	18b0 <_ZL5inputR14command_buffer+0x33c>
#       if (input_escape_sequence[1] == 0x5B) {
    15f8:	000047b7          	lui	a5,0x4
    15fc:	a0878793          	add	a5,a5,-1528 # 3a08 <_ZL21input_escape_sequence>
    1600:	0017c703          	lbu	a4,1(a5)
    1604:	05b00793          	li	a5,91
    1608:	14f71c63          	bne	a4,a5,1760 <_ZL5inputR14command_buffer+0x1ec>
#         if (ch == 0x44) {
    160c:	fef44703          	lbu	a4,-17(s0)
    1610:	04400793          	li	a5,68
    1614:	04f71463          	bne	a4,a5,165c <_ZL5inputR14command_buffer+0xe8>
#           if (buf.move_cursor_left()) {
    1618:	fdc42503          	lw	a0,-36(s0)
    161c:	00001097          	auipc	ra,0x1
    1620:	acc080e7          	jalr	-1332(ra) # 20e8 <_ZN14command_buffer16move_cursor_leftEv>
    1624:	00050793          	mv	a5,a0
    1628:	02078463          	beqz	a5,1650 <_ZL5inputR14command_buffer+0xdc>
#             uart_send_char(0x1B);
    162c:	01b00513          	li	a0,27
    1630:	00000097          	auipc	ra,0x0
    1634:	530080e7          	jalr	1328(ra) # 1b60 <_ZL14uart_send_charc>
#             uart_send_char(0x5B);
    1638:	05b00513          	li	a0,91
    163c:	00000097          	auipc	ra,0x0
    1640:	524080e7          	jalr	1316(ra) # 1b60 <_ZL14uart_send_charc>
#             uart_send_char(0x44);
    1644:	04400513          	li	a0,68
    1648:	00000097          	auipc	ra,0x0
    164c:	518080e7          	jalr	1304(ra) # 1b60 <_ZL14uart_send_charc>
#           input_escape_sequence_clear();
    1650:	00000097          	auipc	ra,0x0
    1654:	ce0080e7          	jalr	-800(ra) # 1330 <_ZL27input_escape_sequence_clearv>
#           continue;
    1658:	2580006f          	j	18b0 <_ZL5inputR14command_buffer+0x33c>
#         if (ch == 0x43) {
    165c:	fef44703          	lbu	a4,-17(s0)
    1660:	04300793          	li	a5,67
    1664:	04f71463          	bne	a4,a5,16ac <_ZL5inputR14command_buffer+0x138>
#           if (buf.move_cursor_right()) {
    1668:	fdc42503          	lw	a0,-36(s0)
    166c:	00001097          	auipc	ra,0x1
    1670:	acc080e7          	jalr	-1332(ra) # 2138 <_ZN14command_buffer17move_cursor_rightEv>
    1674:	00050793          	mv	a5,a0
    1678:	02078463          	beqz	a5,16a0 <_ZL5inputR14command_buffer+0x12c>
#             uart_send_char(0x1B);
    167c:	01b00513          	li	a0,27
    1680:	00000097          	auipc	ra,0x0
    1684:	4e0080e7          	jalr	1248(ra) # 1b60 <_ZL14uart_send_charc>
#             uart_send_char(0x5B);
    1688:	05b00513          	li	a0,91
    168c:	00000097          	auipc	ra,0x0
    1690:	4d4080e7          	jalr	1236(ra) # 1b60 <_ZL14uart_send_charc>
#             uart_send_char(0x43);
    1694:	04300513          	li	a0,67
    1698:	00000097          	auipc	ra,0x0
    169c:	4c8080e7          	jalr	1224(ra) # 1b60 <_ZL14uart_send_charc>
#           input_escape_sequence_clear();
    16a0:	00000097          	auipc	ra,0x0
    16a4:	c90080e7          	jalr	-880(ra) # 1330 <_ZL27input_escape_sequence_clearv>
#           continue;
    16a8:	2080006f          	j	18b0 <_ZL5inputR14command_buffer+0x33c>
#         if (ch == 0x33) {
    16ac:	fef44703          	lbu	a4,-17(s0)
    16b0:	03300793          	li	a5,51
    16b4:	00f71c63          	bne	a4,a5,16cc <_ZL5inputR14command_buffer+0x158>
#           input_escape_sequence[2] = 0x33;
    16b8:	000047b7          	lui	a5,0x4
    16bc:	a0878793          	add	a5,a5,-1528 # 3a08 <_ZL21input_escape_sequence>
    16c0:	03300713          	li	a4,51
    16c4:	00e78123          	sb	a4,2(a5)
#           continue;
    16c8:	1e80006f          	j	18b0 <_ZL5inputR14command_buffer+0x33c>
#         if (input_escape_sequence[2] == 0x33) {
    16cc:	000047b7          	lui	a5,0x4
    16d0:	a0878793          	add	a5,a5,-1528 # 3a08 <_ZL21input_escape_sequence>
    16d4:	0027c703          	lbu	a4,2(a5)
    16d8:	03300793          	li	a5,51
    16dc:	06f71c63          	bne	a4,a5,1754 <_ZL5inputR14command_buffer+0x1e0>
#           if (ch == 0x7e) {
    16e0:	fef44703          	lbu	a4,-17(s0)
    16e4:	07e00793          	li	a5,126
    16e8:	06f71063          	bne	a4,a5,1748 <_ZL5inputR14command_buffer+0x1d4>
#             buf.del();
    16ec:	fdc42503          	lw	a0,-36(s0)
    16f0:	00001097          	auipc	ra,0x1
    16f4:	8ac080e7          	jalr	-1876(ra) # 1f9c <_ZN14command_buffer3delEv>
#             buf.apply_on_chars_from_cursor_to_end(
    16f8:	fe440793          	add	a5,s0,-28
    16fc:	00078513          	mv	a0,a5
    1700:	00000097          	auipc	ra,0x0
    1704:	d04080e7          	jalr	-764(ra) # 1404 <_ZZL5inputR14command_bufferENKUlcE_cvPFvcEEv>
    1708:	00050793          	mv	a5,a0
    170c:	00078593          	mv	a1,a5
    1710:	fdc42503          	lw	a0,-36(s0)
    1714:	00001097          	auipc	ra,0x1
    1718:	a7c080e7          	jalr	-1412(ra) # 2190 <_ZN14command_buffer33apply_on_chars_from_cursor_to_endEPFvcE>
#             uart_send_char(' ');
    171c:	02000513          	li	a0,32
    1720:	00000097          	auipc	ra,0x0
    1724:	440080e7          	jalr	1088(ra) # 1b60 <_ZL14uart_send_charc>
#             uart_send_move_back(buf.characters_after_cursor() + 1);
    1728:	fdc42503          	lw	a0,-36(s0)
    172c:	00001097          	auipc	ra,0x1
    1730:	ae0080e7          	jalr	-1312(ra) # 220c <_ZN14command_buffer23characters_after_cursorEv>
    1734:	00050793          	mv	a5,a0
    1738:	00178793          	add	a5,a5,1
    173c:	00078513          	mv	a0,a5
    1740:	00000097          	auipc	ra,0x0
    1744:	330080e7          	jalr	816(ra) # 1a70 <_ZL19uart_send_move_backj>
#           input_escape_sequence_clear();
    1748:	00000097          	auipc	ra,0x0
    174c:	be8080e7          	jalr	-1048(ra) # 1330 <_ZL27input_escape_sequence_clearv>
#           continue;
    1750:	1600006f          	j	18b0 <_ZL5inputR14command_buffer+0x33c>
#         input_escape_sequence_clear();
    1754:	00000097          	auipc	ra,0x0
    1758:	bdc080e7          	jalr	-1060(ra) # 1330 <_ZL27input_escape_sequence_clearv>
#         continue;
    175c:	1540006f          	j	18b0 <_ZL5inputR14command_buffer+0x33c>
#     if (ch == CHAR_BACKSPACE) {
    1760:	fef44703          	lbu	a4,-17(s0)
    1764:	07f00793          	li	a5,127
    1768:	06f71e63          	bne	a4,a5,17e4 <_ZL5inputR14command_buffer+0x270>
#       if (buf.backspace()) {
    176c:	fdc42503          	lw	a0,-36(s0)
    1770:	00000097          	auipc	ra,0x0
    1774:	720080e7          	jalr	1824(ra) # 1e90 <_ZN14command_buffer9backspaceEv>
    1778:	00050793          	mv	a5,a0
    177c:	10078663          	beqz	a5,1888 <_ZL5inputR14command_buffer+0x314>
#         uart_send_char(ch);
    1780:	fef44783          	lbu	a5,-17(s0)
    1784:	00078513          	mv	a0,a5
    1788:	00000097          	auipc	ra,0x0
    178c:	3d8080e7          	jalr	984(ra) # 1b60 <_ZL14uart_send_charc>
#         buf.apply_on_chars_from_cursor_to_end(
    1790:	fe840793          	add	a5,s0,-24
    1794:	00078513          	mv	a0,a5
    1798:	00000097          	auipc	ra,0x0
    179c:	d10080e7          	jalr	-752(ra) # 14a8 <_ZZL5inputR14command_bufferENKUlcE0_cvPFvcEEv>
    17a0:	00050793          	mv	a5,a0
    17a4:	00078593          	mv	a1,a5
    17a8:	fdc42503          	lw	a0,-36(s0)
    17ac:	00001097          	auipc	ra,0x1
    17b0:	9e4080e7          	jalr	-1564(ra) # 2190 <_ZN14command_buffer33apply_on_chars_from_cursor_to_endEPFvcE>
#         uart_send_char(' ');
    17b4:	02000513          	li	a0,32
    17b8:	00000097          	auipc	ra,0x0
    17bc:	3a8080e7          	jalr	936(ra) # 1b60 <_ZL14uart_send_charc>
#         uart_send_move_back(buf.characters_after_cursor() + 1);
    17c0:	fdc42503          	lw	a0,-36(s0)
    17c4:	00001097          	auipc	ra,0x1
    17c8:	a48080e7          	jalr	-1464(ra) # 220c <_ZN14command_buffer23characters_after_cursorEv>
    17cc:	00050793          	mv	a5,a0
    17d0:	00178793          	add	a5,a5,1
    17d4:	00078513          	mv	a0,a5
    17d8:	00000097          	auipc	ra,0x0
    17dc:	298080e7          	jalr	664(ra) # 1a70 <_ZL19uart_send_move_backj>
    17e0:	0a80006f          	j	1888 <_ZL5inputR14command_buffer+0x314>
#     } else if (ch == CHAR_CARRIAGE_RETURN || buf.is_full()) {
    17e4:	fef44703          	lbu	a4,-17(s0)
    17e8:	00d00793          	li	a5,13
    17ec:	00f70c63          	beq	a4,a5,1804 <_ZL5inputR14command_buffer+0x290>
    17f0:	fdc42503          	lw	a0,-36(s0)
    17f4:	00001097          	auipc	ra,0x1
    17f8:	8c0080e7          	jalr	-1856(ra) # 20b4 <_ZN14command_buffer7is_fullEv>
    17fc:	00050793          	mv	a5,a0
    1800:	00078663          	beqz	a5,180c <_ZL5inputR14command_buffer+0x298>
    1804:	00100793          	li	a5,1
    1808:	0080006f          	j	1810 <_ZL5inputR14command_buffer+0x29c>
    180c:	00000793          	li	a5,0
    1810:	00078a63          	beqz	a5,1824 <_ZL5inputR14command_buffer+0x2b0>
#       buf.set_eos();
    1814:	fdc42503          	lw	a0,-36(s0)
    1818:	00001097          	auipc	ra,0x1
    181c:	864080e7          	jalr	-1948(ra) # 207c <_ZN14command_buffer7set_eosEv>
#       return;
    1820:	0940006f          	j	18b4 <_ZL5inputR14command_buffer+0x340>
#       uart_send_char(ch);
    1824:	fef44783          	lbu	a5,-17(s0)
    1828:	00078513          	mv	a0,a5
    182c:	00000097          	auipc	ra,0x0
    1830:	334080e7          	jalr	820(ra) # 1b60 <_ZL14uart_send_charc>
#       buf.insert(ch);
    1834:	fef44783          	lbu	a5,-17(s0)
    1838:	00078593          	mv	a1,a5
    183c:	fdc42503          	lw	a0,-36(s0)
    1840:	00000097          	auipc	ra,0x0
    1844:	504080e7          	jalr	1284(ra) # 1d44 <_ZN14command_buffer6insertEc>
#       buf.apply_on_chars_from_cursor_to_end(
    1848:	fec40793          	add	a5,s0,-20
    184c:	00078513          	mv	a0,a5
    1850:	00000097          	auipc	ra,0x0
    1854:	cfc080e7          	jalr	-772(ra) # 154c <_ZZL5inputR14command_bufferENKUlcE1_cvPFvcEEv>
    1858:	00050793          	mv	a5,a0
    185c:	00078593          	mv	a1,a5
    1860:	fdc42503          	lw	a0,-36(s0)
    1864:	00001097          	auipc	ra,0x1
    1868:	92c080e7          	jalr	-1748(ra) # 2190 <_ZN14command_buffer33apply_on_chars_from_cursor_to_endEPFvcE>
#       uart_send_move_back(buf.characters_after_cursor());
    186c:	fdc42503          	lw	a0,-36(s0)
    1870:	00001097          	auipc	ra,0x1
    1874:	99c080e7          	jalr	-1636(ra) # 220c <_ZN14command_buffer23characters_after_cursorEv>
    1878:	00050793          	mv	a5,a0
    187c:	00078513          	mv	a0,a5
    1880:	00000097          	auipc	ra,0x0
    1884:	1f0080e7          	jalr	496(ra) # 1a70 <_ZL19uart_send_move_backj>
#     }
#     led_set(~uint8_t(buf.input_length()));
    1888:	fdc42503          	lw	a0,-36(s0)
    188c:	00001097          	auipc	ra,0x1
    1890:	9dc080e7          	jalr	-1572(ra) # 2268 <_ZN14command_buffer12input_lengthEv>
    1894:	00050793          	mv	a5,a0
    1898:	0ff7f793          	zext.b	a5,a5
    189c:	fff7c793          	not	a5,a5
    18a0:	0ff7f793          	zext.b	a5,a5
    18a4:	00078513          	mv	a0,a5
    18a8:	00000097          	auipc	ra,0x0
    18ac:	220080e7          	jalr	544(ra) # 1ac8 <_ZL7led_seth>
#   }
    18b0:	ce5ff06f          	j	1594 <_ZL5inputR14command_buffer+0x20>
# }
    18b4:	02c12083          	lw	ra,44(sp)
    18b8:	02812403          	lw	s0,40(sp)
    18bc:	03010113          	add	sp,sp,48
    18c0:	00008067          	ret

000018c4 <_ZL13strings_equalPKcS0_>:
# 
# static auto strings_equal(char const *s1, char const *s2) -> bool {
    18c4:	fe010113          	add	sp,sp,-32
    18c8:	00812e23          	sw	s0,28(sp)
    18cc:	02010413          	add	s0,sp,32
    18d0:	fea42623          	sw	a0,-20(s0)
    18d4:	feb42423          	sw	a1,-24(s0)
#   while (true) {
#     if (*s1 - *s2)
    18d8:	fec42783          	lw	a5,-20(s0)
    18dc:	0007c703          	lbu	a4,0(a5)
    18e0:	fe842783          	lw	a5,-24(s0)
    18e4:	0007c783          	lbu	a5,0(a5)
    18e8:	00f70663          	beq	a4,a5,18f4 <_ZL13strings_equalPKcS0_+0x30>
#       return false;
    18ec:	00000793          	li	a5,0
    18f0:	0400006f          	j	1930 <_ZL13strings_equalPKcS0_+0x6c>
#     if (!*s1 && !*s2)
    18f4:	fec42783          	lw	a5,-20(s0)
    18f8:	0007c783          	lbu	a5,0(a5)
    18fc:	00079c63          	bnez	a5,1914 <_ZL13strings_equalPKcS0_+0x50>
    1900:	fe842783          	lw	a5,-24(s0)
    1904:	0007c783          	lbu	a5,0(a5)
    1908:	00079663          	bnez	a5,1914 <_ZL13strings_equalPKcS0_+0x50>
#       return true;
    190c:	00100793          	li	a5,1
    1910:	0200006f          	j	1930 <_ZL13strings_equalPKcS0_+0x6c>
#     s1++;
    1914:	fec42783          	lw	a5,-20(s0)
    1918:	00178793          	add	a5,a5,1
    191c:	fef42623          	sw	a5,-20(s0)
#     s2++;
    1920:	fe842783          	lw	a5,-24(s0)
    1924:	00178793          	add	a5,a5,1
    1928:	fef42423          	sw	a5,-24(s0)
#     if (*s1 - *s2)
    192c:	fadff06f          	j	18d8 <_ZL13strings_equalPKcS0_+0x14>
#   }
# }
    1930:	00078513          	mv	a0,a5
    1934:	01c12403          	lw	s0,28(sp)
    1938:	02010113          	add	sp,sp,32
    193c:	00008067          	ret

00001940 <_ZL11string_copyPKcjPc>:
# 
# static auto string_copy(char const *src, uint32_t src_len, char *dst) -> void {
    1940:	fe010113          	add	sp,sp,-32
    1944:	00812e23          	sw	s0,28(sp)
    1948:	02010413          	add	s0,sp,32
    194c:	fea42623          	sw	a0,-20(s0)
    1950:	feb42423          	sw	a1,-24(s0)
    1954:	fec42223          	sw	a2,-28(s0)
#   while (src_len--) {
    1958:	0240006f          	j	197c <_ZL11string_copyPKcjPc+0x3c>
#     *dst++ = *src++;
    195c:	fec42783          	lw	a5,-20(s0)
    1960:	00178713          	add	a4,a5,1
    1964:	fee42623          	sw	a4,-20(s0)
    1968:	0007c703          	lbu	a4,0(a5)
    196c:	fe442783          	lw	a5,-28(s0)
    1970:	00178693          	add	a3,a5,1
    1974:	fed42223          	sw	a3,-28(s0)
    1978:	00e78023          	sb	a4,0(a5)
#   while (src_len--) {
    197c:	fe842783          	lw	a5,-24(s0)
    1980:	fff78713          	add	a4,a5,-1
    1984:	fee42423          	sw	a4,-24(s0)
    1988:	00f037b3          	snez	a5,a5
    198c:	0ff7f793          	zext.b	a5,a5
    1990:	fc0796e3          	bnez	a5,195c <_ZL11string_copyPKcjPc+0x1c>
#   }
# }
    1994:	00000013          	nop
    1998:	00000013          	nop
    199c:	01c12403          	lw	s0,28(sp)
    19a0:	02010113          	add	sp,sp,32
    19a4:	00008067          	ret

000019a8 <_ZL18uart_send_hex_bytec>:
# 
# static auto uart_send_hex_byte(char const ch) -> void {
    19a8:	fe010113          	add	sp,sp,-32
    19ac:	00112e23          	sw	ra,28(sp)
    19b0:	00812c23          	sw	s0,24(sp)
    19b4:	02010413          	add	s0,sp,32
    19b8:	00050793          	mv	a5,a0
    19bc:	fef407a3          	sb	a5,-17(s0)
#   uart_send_hex_nibble((ch & 0xf0) >> 4);
    19c0:	fef44783          	lbu	a5,-17(s0)
    19c4:	0047d793          	srl	a5,a5,0x4
    19c8:	0ff7f793          	zext.b	a5,a5
    19cc:	00078513          	mv	a0,a5
    19d0:	00000097          	auipc	ra,0x0
    19d4:	034080e7          	jalr	52(ra) # 1a04 <_ZL20uart_send_hex_nibblec>
#   uart_send_hex_nibble(ch & 0x0f);
    19d8:	fef44783          	lbu	a5,-17(s0)
    19dc:	00f7f793          	and	a5,a5,15
    19e0:	0ff7f793          	zext.b	a5,a5
    19e4:	00078513          	mv	a0,a5
    19e8:	00000097          	auipc	ra,0x0
    19ec:	01c080e7          	jalr	28(ra) # 1a04 <_ZL20uart_send_hex_nibblec>
# }
    19f0:	00000013          	nop
    19f4:	01c12083          	lw	ra,28(sp)
    19f8:	01812403          	lw	s0,24(sp)
    19fc:	02010113          	add	sp,sp,32
    1a00:	00008067          	ret

00001a04 <_ZL20uart_send_hex_nibblec>:
# 
# static auto uart_send_hex_nibble(char const nibble) -> void {
    1a04:	fe010113          	add	sp,sp,-32
    1a08:	00112e23          	sw	ra,28(sp)
    1a0c:	00812c23          	sw	s0,24(sp)
    1a10:	02010413          	add	s0,sp,32
    1a14:	00050793          	mv	a5,a0
    1a18:	fef407a3          	sb	a5,-17(s0)
#   if (nibble < 10) {
    1a1c:	fef44703          	lbu	a4,-17(s0)
    1a20:	00900793          	li	a5,9
    1a24:	02e7e063          	bltu	a5,a4,1a44 <_ZL20uart_send_hex_nibblec+0x40>
#     uart_send_char('0' + nibble);
    1a28:	fef44783          	lbu	a5,-17(s0)
    1a2c:	03078793          	add	a5,a5,48
    1a30:	0ff7f793          	zext.b	a5,a5
    1a34:	00078513          	mv	a0,a5
    1a38:	00000097          	auipc	ra,0x0
    1a3c:	128080e7          	jalr	296(ra) # 1b60 <_ZL14uart_send_charc>
#   } else {
#     uart_send_char('A' + (nibble - 10));
#   }
# }
    1a40:	01c0006f          	j	1a5c <_ZL20uart_send_hex_nibblec+0x58>
#     uart_send_char('A' + (nibble - 10));
    1a44:	fef44783          	lbu	a5,-17(s0)
    1a48:	03778793          	add	a5,a5,55
    1a4c:	0ff7f793          	zext.b	a5,a5
    1a50:	00078513          	mv	a0,a5
    1a54:	00000097          	auipc	ra,0x0
    1a58:	10c080e7          	jalr	268(ra) # 1b60 <_ZL14uart_send_charc>
# }
    1a5c:	00000013          	nop
    1a60:	01c12083          	lw	ra,28(sp)
    1a64:	01812403          	lw	s0,24(sp)
    1a68:	02010113          	add	sp,sp,32
    1a6c:	00008067          	ret

00001a70 <_ZL19uart_send_move_backj>:
# 
# static auto uart_send_move_back(uint32_t const n) -> void {
    1a70:	fd010113          	add	sp,sp,-48
    1a74:	02112623          	sw	ra,44(sp)
    1a78:	02812423          	sw	s0,40(sp)
    1a7c:	03010413          	add	s0,sp,48
    1a80:	fca42e23          	sw	a0,-36(s0)
#   for (uint32_t i = 0; i < n; ++i) {
    1a84:	fe042623          	sw	zero,-20(s0)
    1a88:	01c0006f          	j	1aa4 <_ZL19uart_send_move_backj+0x34>
#     uart_send_char('\b');
    1a8c:	00800513          	li	a0,8
    1a90:	00000097          	auipc	ra,0x0
    1a94:	0d0080e7          	jalr	208(ra) # 1b60 <_ZL14uart_send_charc>
#   for (uint32_t i = 0; i < n; ++i) {
    1a98:	fec42783          	lw	a5,-20(s0)
    1a9c:	00178793          	add	a5,a5,1
    1aa0:	fef42623          	sw	a5,-20(s0)
    1aa4:	fec42703          	lw	a4,-20(s0)
    1aa8:	fdc42783          	lw	a5,-36(s0)
    1aac:	fef760e3          	bltu	a4,a5,1a8c <_ZL19uart_send_move_backj+0x1c>
#   }
# }
    1ab0:	00000013          	nop
    1ab4:	00000013          	nop
    1ab8:	02c12083          	lw	ra,44(sp)
    1abc:	02812403          	lw	s0,40(sp)
    1ac0:	03010113          	add	sp,sp,48
    1ac4:	00008067          	ret

00001ac8 <_ZL7led_seth>:
# 
# #include "os_common.hpp"
# 
# static auto led_set(uint8_t bits) -> void { *LED = bits; }
    1ac8:	fe010113          	add	sp,sp,-32
    1acc:	00812e23          	sw	s0,28(sp)
    1ad0:	02010413          	add	s0,sp,32
    1ad4:	00050793          	mv	a5,a0
    1ad8:	fef407a3          	sb	a5,-17(s0)
    1adc:	fff00793          	li	a5,-1
    1ae0:	fef44703          	lbu	a4,-17(s0)
    1ae4:	00e78023          	sb	a4,0(a5)
    1ae8:	00000013          	nop
    1aec:	01c12403          	lw	s0,28(sp)
    1af0:	02010113          	add	sp,sp,32
    1af4:	00008067          	ret

00001af8 <_ZL13uart_send_strPKc>:
# 
# static auto uart_send_str(char const *str) -> void {
    1af8:	fe010113          	add	sp,sp,-32
    1afc:	00812e23          	sw	s0,28(sp)
    1b00:	02010413          	add	s0,sp,32
    1b04:	fea42623          	sw	a0,-20(s0)
#   while (*str) {
    1b08:	0380006f          	j	1b40 <_ZL13uart_send_strPKc+0x48>
#     while (*UART_OUT)
    1b0c:	00000013          	nop
    1b10:	ffe00793          	li	a5,-2
    1b14:	0007c783          	lbu	a5,0(a5)
    1b18:	0ff7f793          	zext.b	a5,a5
    1b1c:	00f037b3          	snez	a5,a5
    1b20:	0ff7f793          	zext.b	a5,a5
    1b24:	fe0796e3          	bnez	a5,1b10 <_ZL13uart_send_strPKc+0x18>
#       ;
#     *UART_OUT = *str++;
    1b28:	fec42783          	lw	a5,-20(s0)
    1b2c:	00178713          	add	a4,a5,1
    1b30:	fee42623          	sw	a4,-20(s0)
    1b34:	ffe00713          	li	a4,-2
    1b38:	0007c783          	lbu	a5,0(a5)
    1b3c:	00f70023          	sb	a5,0(a4)
#   while (*str) {
    1b40:	fec42783          	lw	a5,-20(s0)
    1b44:	0007c783          	lbu	a5,0(a5)
    1b48:	fc0792e3          	bnez	a5,1b0c <_ZL13uart_send_strPKc+0x14>
#   }
# }
    1b4c:	00000013          	nop
    1b50:	00000013          	nop
    1b54:	01c12403          	lw	s0,28(sp)
    1b58:	02010113          	add	sp,sp,32
    1b5c:	00008067          	ret

00001b60 <_ZL14uart_send_charc>:
# 
# static auto uart_send_char(char const ch) -> void {
    1b60:	fe010113          	add	sp,sp,-32
    1b64:	00812e23          	sw	s0,28(sp)
    1b68:	02010413          	add	s0,sp,32
    1b6c:	00050793          	mv	a5,a0
    1b70:	fef407a3          	sb	a5,-17(s0)
#   while (*UART_OUT)
    1b74:	00000013          	nop
    1b78:	ffe00793          	li	a5,-2
    1b7c:	0007c783          	lbu	a5,0(a5)
    1b80:	0ff7f793          	zext.b	a5,a5
    1b84:	00f037b3          	snez	a5,a5
    1b88:	0ff7f793          	zext.b	a5,a5
    1b8c:	fe0796e3          	bnez	a5,1b78 <_ZL14uart_send_charc+0x18>
#     ;
#   *UART_OUT = ch;
    1b90:	ffe00793          	li	a5,-2
    1b94:	fef44703          	lbu	a4,-17(s0)
    1b98:	00e78023          	sb	a4,0(a5)
# }
    1b9c:	00000013          	nop
    1ba0:	01c12403          	lw	s0,28(sp)
    1ba4:	02010113          	add	sp,sp,32
    1ba8:	00008067          	ret

00001bac <_ZL14uart_read_charv>:
# 
# static auto uart_read_char() -> char {
    1bac:	fe010113          	add	sp,sp,-32
    1bb0:	00812e23          	sw	s0,28(sp)
    1bb4:	02010413          	add	s0,sp,32
#   char ch;
#   while ((ch = *UART_IN) == 0)
    1bb8:	00000013          	nop
    1bbc:	ffd00793          	li	a5,-3
    1bc0:	0007c783          	lbu	a5,0(a5)
    1bc4:	fef407a3          	sb	a5,-17(s0)
    1bc8:	fef44783          	lbu	a5,-17(s0)
    1bcc:	0017b793          	seqz	a5,a5
    1bd0:	0ff7f793          	zext.b	a5,a5
    1bd4:	fe0794e3          	bnez	a5,1bbc <_ZL14uart_read_charv+0x10>
#     ;
#   return ch;
    1bd8:	fef44783          	lbu	a5,-17(s0)
# }
    1bdc:	00078513          	mv	a0,a5
    1be0:	01c12403          	lw	s0,28(sp)
    1be4:	02010113          	add	sp,sp,32
    1be8:	00008067          	ret

00001bec <_ZL15action_mem_testv>:
# 
# static auto action_mem_test() -> void {
    1bec:	fe010113          	add	sp,sp,-32
    1bf0:	00112e23          	sw	ra,28(sp)
    1bf4:	00812c23          	sw	s0,24(sp)
    1bf8:	02010413          	add	s0,sp,32
#   uart_send_str("testing memory (write)\r\n");
    1bfc:	000037b7          	lui	a5,0x3
    1c00:	d1078513          	add	a0,a5,-752 # 2d10 <_ZN4listIhLi8EE6removeEh+0x72c>
    1c04:	00000097          	auipc	ra,0x0
    1c08:	ef4080e7          	jalr	-268(ra) # 1af8 <_ZL13uart_send_strPKc>
#   char *ptr = (char *)0x10000;
    1c0c:	000107b7          	lui	a5,0x10
    1c10:	fef42623          	sw	a5,-20(s0)
#   char const *end = (char *)MEMORY_TOP - 1024; // -1024 to avoid the stack
    1c14:	002007b7          	lui	a5,0x200
    1c18:	c0078793          	add	a5,a5,-1024 # 1ffc00 <__bss_end+0x1fc1f0>
    1c1c:	fef42223          	sw	a5,-28(s0)
#   char ch = 0;
    1c20:	fe0405a3          	sb	zero,-21(s0)
#   while (ptr < end) {
    1c24:	0200006f          	j	1c44 <_ZL15action_mem_testv+0x58>
#     *ptr++ = ch++;
    1c28:	feb44703          	lbu	a4,-21(s0)
    1c2c:	00170793          	add	a5,a4,1
    1c30:	fef405a3          	sb	a5,-21(s0)
    1c34:	fec42783          	lw	a5,-20(s0)
    1c38:	00178693          	add	a3,a5,1
    1c3c:	fed42623          	sw	a3,-20(s0)
    1c40:	00e78023          	sb	a4,0(a5)
#   while (ptr < end) {
    1c44:	fec42703          	lw	a4,-20(s0)
    1c48:	fe442783          	lw	a5,-28(s0)
    1c4c:	fcf76ee3          	bltu	a4,a5,1c28 <_ZL15action_mem_testv+0x3c>
#   }
#   uart_send_str("testing memory (read)\r\n");
    1c50:	000037b7          	lui	a5,0x3
    1c54:	d2c78513          	add	a0,a5,-724 # 2d2c <_ZN4listIhLi8EE6removeEh+0x748>
    1c58:	00000097          	auipc	ra,0x0
    1c5c:	ea0080e7          	jalr	-352(ra) # 1af8 <_ZL13uart_send_strPKc>
#   ptr = (char *)0x10000;
    1c60:	000107b7          	lui	a5,0x10
    1c64:	fef42623          	sw	a5,-20(s0)
#   ch = 0;
    1c68:	fe0405a3          	sb	zero,-21(s0)
#   while (ptr < end) {
    1c6c:	0440006f          	j	1cb0 <_ZL15action_mem_testv+0xc4>
#     if (*ptr++ != ch++) {
    1c70:	fec42783          	lw	a5,-20(s0)
    1c74:	00178713          	add	a4,a5,1 # 10001 <__bss_end+0xc5f1>
    1c78:	fee42623          	sw	a4,-20(s0)
    1c7c:	0007c703          	lbu	a4,0(a5)
    1c80:	feb44783          	lbu	a5,-21(s0)
    1c84:	00178693          	add	a3,a5,1
    1c88:	fed405a3          	sb	a3,-21(s0)
    1c8c:	40f707b3          	sub	a5,a4,a5
    1c90:	00f037b3          	snez	a5,a5
    1c94:	0ff7f793          	zext.b	a5,a5
    1c98:	00078c63          	beqz	a5,1cb0 <_ZL15action_mem_testv+0xc4>
#       uart_send_str("!!! test memory failed\r\n");
    1c9c:	000037b7          	lui	a5,0x3
    1ca0:	d4478513          	add	a0,a5,-700 # 2d44 <_ZN4listIhLi8EE6removeEh+0x760>
    1ca4:	00000097          	auipc	ra,0x0
    1ca8:	e54080e7          	jalr	-428(ra) # 1af8 <_ZL13uart_send_strPKc>
#       return;
    1cac:	0200006f          	j	1ccc <_ZL15action_mem_testv+0xe0>
#   while (ptr < end) {
    1cb0:	fec42703          	lw	a4,-20(s0)
    1cb4:	fe442783          	lw	a5,-28(s0)
    1cb8:	faf76ce3          	bltu	a4,a5,1c70 <_ZL15action_mem_testv+0x84>
#     }
#   }
#   uart_send_str("testing memory succeeded\r\n");
    1cbc:	000037b7          	lui	a5,0x3
    1cc0:	d6078513          	add	a0,a5,-672 # 2d60 <_ZN4listIhLi8EE6removeEh+0x77c>
    1cc4:	00000097          	auipc	ra,0x0
    1cc8:	e34080e7          	jalr	-460(ra) # 1af8 <_ZL13uart_send_strPKc>
# }
    1ccc:	01c12083          	lw	ra,28(sp)
    1cd0:	01812403          	lw	s0,24(sp)
    1cd4:	02010113          	add	sp,sp,32
    1cd8:	00008067          	ret

00001cdc <memset>:
# 
# // built-in function called by compiler
# extern "C" auto memset(void *str, int ch, int n) -> void * {
    1cdc:	fd010113          	add	sp,sp,-48
    1ce0:	02812623          	sw	s0,44(sp)
    1ce4:	03010413          	add	s0,sp,48
    1ce8:	fca42e23          	sw	a0,-36(s0)
    1cec:	fcb42c23          	sw	a1,-40(s0)
    1cf0:	fcc42a23          	sw	a2,-44(s0)
#   char *ptr = reinterpret_cast<char *>(str);
    1cf4:	fdc42783          	lw	a5,-36(s0)
    1cf8:	fef42623          	sw	a5,-20(s0)
#   while (n--) {
    1cfc:	01c0006f          	j	1d18 <memset+0x3c>
#     *ptr++ = (char)ch;
    1d00:	fd842783          	lw	a5,-40(s0)
    1d04:	0ff7f713          	zext.b	a4,a5
    1d08:	fec42783          	lw	a5,-20(s0)
    1d0c:	00178693          	add	a3,a5,1
    1d10:	fed42623          	sw	a3,-20(s0)
    1d14:	00e78023          	sb	a4,0(a5)
#   while (n--) {
    1d18:	fd442783          	lw	a5,-44(s0)
    1d1c:	fff78713          	add	a4,a5,-1
    1d20:	fce42a23          	sw	a4,-44(s0)
    1d24:	00f037b3          	snez	a5,a5
    1d28:	0ff7f793          	zext.b	a5,a5
    1d2c:	fc079ae3          	bnez	a5,1d00 <memset+0x24>
#   }
#   return str;
    1d30:	fdc42783          	lw	a5,-36(s0)
# }
    1d34:	00078513          	mv	a0,a5
    1d38:	02c12403          	lw	s0,44(sp)
    1d3c:	03010113          	add	sp,sp,48
    1d40:	00008067          	ret

00001d44 <_ZN14command_buffer6insertEc>:
#   auto insert(char const ch) -> bool {
    1d44:	fd010113          	add	sp,sp,-48
    1d48:	02812623          	sw	s0,44(sp)
    1d4c:	03010413          	add	s0,sp,48
    1d50:	fca42e23          	sw	a0,-36(s0)
    1d54:	00058793          	mv	a5,a1
    1d58:	fcf40da3          	sb	a5,-37(s0)
#     if (end_ == sizeof(line_) - 1) {
    1d5c:	fdc42783          	lw	a5,-36(s0)
    1d60:	0517c703          	lbu	a4,81(a5)
    1d64:	04f00793          	li	a5,79
    1d68:	00f71663          	bne	a4,a5,1d74 <_ZN14command_buffer6insertEc+0x30>
#       return false;
    1d6c:	00000793          	li	a5,0
    1d70:	1100006f          	j	1e80 <_ZN14command_buffer6insertEc+0x13c>
#     if (cursor_ == end_) {
    1d74:	fdc42783          	lw	a5,-36(s0)
    1d78:	0507c703          	lbu	a4,80(a5)
    1d7c:	fdc42783          	lw	a5,-36(s0)
    1d80:	0517c783          	lbu	a5,81(a5)
    1d84:	04f71c63          	bne	a4,a5,1ddc <_ZN14command_buffer6insertEc+0x98>
#       line_[cursor_] = ch;
    1d88:	fdc42783          	lw	a5,-36(s0)
    1d8c:	0507c783          	lbu	a5,80(a5)
    1d90:	00078713          	mv	a4,a5
    1d94:	fdc42783          	lw	a5,-36(s0)
    1d98:	00e787b3          	add	a5,a5,a4
    1d9c:	fdb44703          	lbu	a4,-37(s0)
    1da0:	00e78023          	sb	a4,0(a5)
#       ++cursor_;
    1da4:	fdc42783          	lw	a5,-36(s0)
    1da8:	0507c783          	lbu	a5,80(a5)
    1dac:	00178793          	add	a5,a5,1
    1db0:	0ff7f713          	zext.b	a4,a5
    1db4:	fdc42783          	lw	a5,-36(s0)
    1db8:	04e78823          	sb	a4,80(a5)
#       ++end_;
    1dbc:	fdc42783          	lw	a5,-36(s0)
    1dc0:	0517c783          	lbu	a5,81(a5)
    1dc4:	00178793          	add	a5,a5,1
    1dc8:	0ff7f713          	zext.b	a4,a5
    1dcc:	fdc42783          	lw	a5,-36(s0)
    1dd0:	04e788a3          	sb	a4,81(a5)
#       return true;
    1dd4:	00100793          	li	a5,1
    1dd8:	0a80006f          	j	1e80 <_ZN14command_buffer6insertEc+0x13c>
#     ++end_;
    1ddc:	fdc42783          	lw	a5,-36(s0)
    1de0:	0517c783          	lbu	a5,81(a5)
    1de4:	00178793          	add	a5,a5,1
    1de8:	0ff7f713          	zext.b	a4,a5
    1dec:	fdc42783          	lw	a5,-36(s0)
    1df0:	04e788a3          	sb	a4,81(a5)
#     for (uint32_t i = end_; i > cursor_; --i) {
    1df4:	fdc42783          	lw	a5,-36(s0)
    1df8:	0517c783          	lbu	a5,81(a5)
    1dfc:	fef42623          	sw	a5,-20(s0)
    1e00:	0340006f          	j	1e34 <_ZN14command_buffer6insertEc+0xf0>
#       line_[i] = line_[i - 1];
    1e04:	fec42783          	lw	a5,-20(s0)
    1e08:	fff78793          	add	a5,a5,-1
    1e0c:	fdc42703          	lw	a4,-36(s0)
    1e10:	00f707b3          	add	a5,a4,a5
    1e14:	0007c703          	lbu	a4,0(a5)
    1e18:	fdc42683          	lw	a3,-36(s0)
    1e1c:	fec42783          	lw	a5,-20(s0)
    1e20:	00f687b3          	add	a5,a3,a5
    1e24:	00e78023          	sb	a4,0(a5)
#     for (uint32_t i = end_; i > cursor_; --i) {
    1e28:	fec42783          	lw	a5,-20(s0)
    1e2c:	fff78793          	add	a5,a5,-1
    1e30:	fef42623          	sw	a5,-20(s0)
    1e34:	fdc42783          	lw	a5,-36(s0)
    1e38:	0507c783          	lbu	a5,80(a5)
    1e3c:	00078713          	mv	a4,a5
    1e40:	fec42783          	lw	a5,-20(s0)
    1e44:	fcf760e3          	bltu	a4,a5,1e04 <_ZN14command_buffer6insertEc+0xc0>
#     line_[cursor_] = ch;
    1e48:	fdc42783          	lw	a5,-36(s0)
    1e4c:	0507c783          	lbu	a5,80(a5)
    1e50:	00078713          	mv	a4,a5
    1e54:	fdc42783          	lw	a5,-36(s0)
    1e58:	00e787b3          	add	a5,a5,a4
    1e5c:	fdb44703          	lbu	a4,-37(s0)
    1e60:	00e78023          	sb	a4,0(a5)
#     ++cursor_;
    1e64:	fdc42783          	lw	a5,-36(s0)
    1e68:	0507c783          	lbu	a5,80(a5)
    1e6c:	00178793          	add	a5,a5,1
    1e70:	0ff7f713          	zext.b	a4,a5
    1e74:	fdc42783          	lw	a5,-36(s0)
    1e78:	04e78823          	sb	a4,80(a5)
#     return true;
    1e7c:	00100793          	li	a5,1
#   }
    1e80:	00078513          	mv	a0,a5
    1e84:	02c12403          	lw	s0,44(sp)
    1e88:	03010113          	add	sp,sp,48
    1e8c:	00008067          	ret

00001e90 <_ZN14command_buffer9backspaceEv>:
#   auto backspace() -> bool {
    1e90:	fd010113          	add	sp,sp,-48
    1e94:	02812623          	sw	s0,44(sp)
    1e98:	03010413          	add	s0,sp,48
    1e9c:	fca42e23          	sw	a0,-36(s0)
#     if (cursor_ == 0) {
    1ea0:	fdc42783          	lw	a5,-36(s0)
    1ea4:	0507c783          	lbu	a5,80(a5)
    1ea8:	00079663          	bnez	a5,1eb4 <_ZN14command_buffer9backspaceEv+0x24>
#       return false;
    1eac:	00000793          	li	a5,0
    1eb0:	0dc0006f          	j	1f8c <_ZN14command_buffer9backspaceEv+0xfc>
#     if (cursor_ == end_) {
    1eb4:	fdc42783          	lw	a5,-36(s0)
    1eb8:	0507c703          	lbu	a4,80(a5)
    1ebc:	fdc42783          	lw	a5,-36(s0)
    1ec0:	0517c783          	lbu	a5,81(a5)
    1ec4:	02f71e63          	bne	a4,a5,1f00 <_ZN14command_buffer9backspaceEv+0x70>
#       --end_;
    1ec8:	fdc42783          	lw	a5,-36(s0)
    1ecc:	0517c783          	lbu	a5,81(a5)
    1ed0:	fff78793          	add	a5,a5,-1
    1ed4:	0ff7f713          	zext.b	a4,a5
    1ed8:	fdc42783          	lw	a5,-36(s0)
    1edc:	04e788a3          	sb	a4,81(a5)
#       --cursor_;
    1ee0:	fdc42783          	lw	a5,-36(s0)
    1ee4:	0507c783          	lbu	a5,80(a5)
    1ee8:	fff78793          	add	a5,a5,-1
    1eec:	0ff7f713          	zext.b	a4,a5
    1ef0:	fdc42783          	lw	a5,-36(s0)
    1ef4:	04e78823          	sb	a4,80(a5)
#       return true;
    1ef8:	00100793          	li	a5,1
    1efc:	0900006f          	j	1f8c <_ZN14command_buffer9backspaceEv+0xfc>
#     for (uint32_t i = cursor_ - 1; i < end_; ++i) {
    1f00:	fdc42783          	lw	a5,-36(s0)
    1f04:	0507c783          	lbu	a5,80(a5)
    1f08:	fff78793          	add	a5,a5,-1
    1f0c:	fef42623          	sw	a5,-20(s0)
    1f10:	0340006f          	j	1f44 <_ZN14command_buffer9backspaceEv+0xb4>
#       line_[i] = line_[i + 1];
    1f14:	fec42783          	lw	a5,-20(s0)
    1f18:	00178793          	add	a5,a5,1
    1f1c:	fdc42703          	lw	a4,-36(s0)
    1f20:	00f707b3          	add	a5,a4,a5
    1f24:	0007c703          	lbu	a4,0(a5)
    1f28:	fdc42683          	lw	a3,-36(s0)
    1f2c:	fec42783          	lw	a5,-20(s0)
    1f30:	00f687b3          	add	a5,a3,a5
    1f34:	00e78023          	sb	a4,0(a5)
#     for (uint32_t i = cursor_ - 1; i < end_; ++i) {
    1f38:	fec42783          	lw	a5,-20(s0)
    1f3c:	00178793          	add	a5,a5,1
    1f40:	fef42623          	sw	a5,-20(s0)
    1f44:	fdc42783          	lw	a5,-36(s0)
    1f48:	0517c783          	lbu	a5,81(a5)
    1f4c:	00078713          	mv	a4,a5
    1f50:	fec42783          	lw	a5,-20(s0)
    1f54:	fce7e0e3          	bltu	a5,a4,1f14 <_ZN14command_buffer9backspaceEv+0x84>
#     --cursor_;
    1f58:	fdc42783          	lw	a5,-36(s0)
    1f5c:	0507c783          	lbu	a5,80(a5)
    1f60:	fff78793          	add	a5,a5,-1
    1f64:	0ff7f713          	zext.b	a4,a5
    1f68:	fdc42783          	lw	a5,-36(s0)
    1f6c:	04e78823          	sb	a4,80(a5)
#     --end_;
    1f70:	fdc42783          	lw	a5,-36(s0)
    1f74:	0517c783          	lbu	a5,81(a5)
    1f78:	fff78793          	add	a5,a5,-1
    1f7c:	0ff7f713          	zext.b	a4,a5
    1f80:	fdc42783          	lw	a5,-36(s0)
    1f84:	04e788a3          	sb	a4,81(a5)
#     return true;
    1f88:	00100793          	li	a5,1
#   }
    1f8c:	00078513          	mv	a0,a5
    1f90:	02c12403          	lw	s0,44(sp)
    1f94:	03010113          	add	sp,sp,48
    1f98:	00008067          	ret

00001f9c <_ZN14command_buffer3delEv>:
#   auto del() -> void {
    1f9c:	fd010113          	add	sp,sp,-48
    1fa0:	02812623          	sw	s0,44(sp)
    1fa4:	03010413          	add	s0,sp,48
    1fa8:	fca42e23          	sw	a0,-36(s0)
#     if (cursor_ == end_) {
    1fac:	fdc42783          	lw	a5,-36(s0)
    1fb0:	0507c703          	lbu	a4,80(a5)
    1fb4:	fdc42783          	lw	a5,-36(s0)
    1fb8:	0517c783          	lbu	a5,81(a5)
    1fbc:	06f70c63          	beq	a4,a5,2034 <_ZN14command_buffer3delEv+0x98>
#     for (uint32_t i = cursor_ + 1; i < end_; ++i) {
    1fc0:	fdc42783          	lw	a5,-36(s0)
    1fc4:	0507c783          	lbu	a5,80(a5)
    1fc8:	00178793          	add	a5,a5,1
    1fcc:	fef42623          	sw	a5,-20(s0)
    1fd0:	0340006f          	j	2004 <_ZN14command_buffer3delEv+0x68>
#       line_[i - 1] = line_[i];
    1fd4:	fec42783          	lw	a5,-20(s0)
    1fd8:	fff78793          	add	a5,a5,-1
    1fdc:	fdc42683          	lw	a3,-36(s0)
    1fe0:	fec42703          	lw	a4,-20(s0)
    1fe4:	00e68733          	add	a4,a3,a4
    1fe8:	00074703          	lbu	a4,0(a4)
    1fec:	fdc42683          	lw	a3,-36(s0)
    1ff0:	00f687b3          	add	a5,a3,a5
    1ff4:	00e78023          	sb	a4,0(a5)
#     for (uint32_t i = cursor_ + 1; i < end_; ++i) {
    1ff8:	fec42783          	lw	a5,-20(s0)
    1ffc:	00178793          	add	a5,a5,1
    2000:	fef42623          	sw	a5,-20(s0)
    2004:	fdc42783          	lw	a5,-36(s0)
    2008:	0517c783          	lbu	a5,81(a5)
    200c:	00078713          	mv	a4,a5
    2010:	fec42783          	lw	a5,-20(s0)
    2014:	fce7e0e3          	bltu	a5,a4,1fd4 <_ZN14command_buffer3delEv+0x38>
#     --end_;
    2018:	fdc42783          	lw	a5,-36(s0)
    201c:	0517c783          	lbu	a5,81(a5)
    2020:	fff78793          	add	a5,a5,-1
    2024:	0ff7f713          	zext.b	a4,a5
    2028:	fdc42783          	lw	a5,-36(s0)
    202c:	04e788a3          	sb	a4,81(a5)
    2030:	0080006f          	j	2038 <_ZN14command_buffer3delEv+0x9c>
#       return;
    2034:	00000013          	nop
#   }
    2038:	02c12403          	lw	s0,44(sp)
    203c:	03010113          	add	sp,sp,48
    2040:	00008067          	ret

00002044 <_ZN14command_buffer5resetEv>:
#   auto reset() -> void { cursor_ = end_ = 0; }
    2044:	fe010113          	add	sp,sp,-32
    2048:	00812e23          	sw	s0,28(sp)
    204c:	02010413          	add	s0,sp,32
    2050:	fea42623          	sw	a0,-20(s0)
    2054:	fec42783          	lw	a5,-20(s0)
    2058:	040788a3          	sb	zero,81(a5)
    205c:	fec42783          	lw	a5,-20(s0)
    2060:	0517c703          	lbu	a4,81(a5)
    2064:	fec42783          	lw	a5,-20(s0)
    2068:	04e78823          	sb	a4,80(a5)
    206c:	00000013          	nop
    2070:	01c12403          	lw	s0,28(sp)
    2074:	02010113          	add	sp,sp,32
    2078:	00008067          	ret

0000207c <_ZN14command_buffer7set_eosEv>:
#   auto set_eos() -> void { line_[end_] = '\0'; }
    207c:	fe010113          	add	sp,sp,-32
    2080:	00812e23          	sw	s0,28(sp)
    2084:	02010413          	add	s0,sp,32
    2088:	fea42623          	sw	a0,-20(s0)
    208c:	fec42783          	lw	a5,-20(s0)
    2090:	0517c783          	lbu	a5,81(a5)
    2094:	00078713          	mv	a4,a5
    2098:	fec42783          	lw	a5,-20(s0)
    209c:	00e787b3          	add	a5,a5,a4
    20a0:	00078023          	sb	zero,0(a5)
    20a4:	00000013          	nop
    20a8:	01c12403          	lw	s0,28(sp)
    20ac:	02010113          	add	sp,sp,32
    20b0:	00008067          	ret

000020b4 <_ZN14command_buffer7is_fullEv>:
#   auto is_full() -> bool { return end_ == sizeof(line_) - 1; }
    20b4:	fe010113          	add	sp,sp,-32
    20b8:	00812e23          	sw	s0,28(sp)
    20bc:	02010413          	add	s0,sp,32
    20c0:	fea42623          	sw	a0,-20(s0)
    20c4:	fec42783          	lw	a5,-20(s0)
    20c8:	0517c783          	lbu	a5,81(a5)
    20cc:	fb178793          	add	a5,a5,-79
    20d0:	0017b793          	seqz	a5,a5
    20d4:	0ff7f793          	zext.b	a5,a5
    20d8:	00078513          	mv	a0,a5
    20dc:	01c12403          	lw	s0,28(sp)
    20e0:	02010113          	add	sp,sp,32
    20e4:	00008067          	ret

000020e8 <_ZN14command_buffer16move_cursor_leftEv>:
#   auto move_cursor_left() -> bool {
    20e8:	fe010113          	add	sp,sp,-32
    20ec:	00812e23          	sw	s0,28(sp)
    20f0:	02010413          	add	s0,sp,32
    20f4:	fea42623          	sw	a0,-20(s0)
#     if (cursor_ == 0) {
    20f8:	fec42783          	lw	a5,-20(s0)
    20fc:	0507c783          	lbu	a5,80(a5)
    2100:	00079663          	bnez	a5,210c <_ZN14command_buffer16move_cursor_leftEv+0x24>
#       return false;
    2104:	00000793          	li	a5,0
    2108:	0200006f          	j	2128 <_ZN14command_buffer16move_cursor_leftEv+0x40>
#     --cursor_;
    210c:	fec42783          	lw	a5,-20(s0)
    2110:	0507c783          	lbu	a5,80(a5)
    2114:	fff78793          	add	a5,a5,-1
    2118:	0ff7f713          	zext.b	a4,a5
    211c:	fec42783          	lw	a5,-20(s0)
    2120:	04e78823          	sb	a4,80(a5)
#     return true;
    2124:	00100793          	li	a5,1
#   }
    2128:	00078513          	mv	a0,a5
    212c:	01c12403          	lw	s0,28(sp)
    2130:	02010113          	add	sp,sp,32
    2134:	00008067          	ret

00002138 <_ZN14command_buffer17move_cursor_rightEv>:
#   auto move_cursor_right() -> bool {
    2138:	fe010113          	add	sp,sp,-32
    213c:	00812e23          	sw	s0,28(sp)
    2140:	02010413          	add	s0,sp,32
    2144:	fea42623          	sw	a0,-20(s0)
#     if (cursor_ == end_) {
    2148:	fec42783          	lw	a5,-20(s0)
    214c:	0507c703          	lbu	a4,80(a5)
    2150:	fec42783          	lw	a5,-20(s0)
    2154:	0517c783          	lbu	a5,81(a5)
    2158:	00f71663          	bne	a4,a5,2164 <_ZN14command_buffer17move_cursor_rightEv+0x2c>
#       return false;
    215c:	00000793          	li	a5,0
    2160:	0200006f          	j	2180 <_ZN14command_buffer17move_cursor_rightEv+0x48>
#     ++cursor_;
    2164:	fec42783          	lw	a5,-20(s0)
    2168:	0507c783          	lbu	a5,80(a5)
    216c:	00178793          	add	a5,a5,1
    2170:	0ff7f713          	zext.b	a4,a5
    2174:	fec42783          	lw	a5,-20(s0)
    2178:	04e78823          	sb	a4,80(a5)
#     return true;
    217c:	00100793          	li	a5,1
#   }
    2180:	00078513          	mv	a0,a5
    2184:	01c12403          	lw	s0,28(sp)
    2188:	02010113          	add	sp,sp,32
    218c:	00008067          	ret

00002190 <_ZN14command_buffer33apply_on_chars_from_cursor_to_endEPFvcE>:
#   auto apply_on_chars_from_cursor_to_end(void (*f)(char)) -> void {
    2190:	fd010113          	add	sp,sp,-48
    2194:	02112623          	sw	ra,44(sp)
    2198:	02812423          	sw	s0,40(sp)
    219c:	03010413          	add	s0,sp,48
    21a0:	fca42e23          	sw	a0,-36(s0)
    21a4:	fcb42c23          	sw	a1,-40(s0)
#     for (uint32_t i = cursor_; i < end_; ++i) {
    21a8:	fdc42783          	lw	a5,-36(s0)
    21ac:	0507c783          	lbu	a5,80(a5)
    21b0:	fef42623          	sw	a5,-20(s0)
    21b4:	02c0006f          	j	21e0 <_ZN14command_buffer33apply_on_chars_from_cursor_to_endEPFvcE+0x50>
#       f(line_[i]);
    21b8:	fd842783          	lw	a5,-40(s0)
    21bc:	fdc42683          	lw	a3,-36(s0)
    21c0:	fec42703          	lw	a4,-20(s0)
    21c4:	00e68733          	add	a4,a3,a4
    21c8:	00074703          	lbu	a4,0(a4)
    21cc:	00070513          	mv	a0,a4
    21d0:	000780e7          	jalr	a5
#     for (uint32_t i = cursor_; i < end_; ++i) {
    21d4:	fec42783          	lw	a5,-20(s0)
    21d8:	00178793          	add	a5,a5,1
    21dc:	fef42623          	sw	a5,-20(s0)
    21e0:	fdc42783          	lw	a5,-36(s0)
    21e4:	0517c783          	lbu	a5,81(a5)
    21e8:	00078713          	mv	a4,a5
    21ec:	fec42783          	lw	a5,-20(s0)
    21f0:	fce7e4e3          	bltu	a5,a4,21b8 <_ZN14command_buffer33apply_on_chars_from_cursor_to_endEPFvcE+0x28>
#   }
    21f4:	00000013          	nop
    21f8:	00000013          	nop
    21fc:	02c12083          	lw	ra,44(sp)
    2200:	02812403          	lw	s0,40(sp)
    2204:	03010113          	add	sp,sp,48
    2208:	00008067          	ret

0000220c <_ZN14command_buffer23characters_after_cursorEv>:
#   auto characters_after_cursor() -> uint32_t { return end_ - cursor_; }
    220c:	fe010113          	add	sp,sp,-32
    2210:	00812e23          	sw	s0,28(sp)
    2214:	02010413          	add	s0,sp,32
    2218:	fea42623          	sw	a0,-20(s0)
    221c:	fec42783          	lw	a5,-20(s0)
    2220:	0517c783          	lbu	a5,81(a5)
    2224:	00078713          	mv	a4,a5
    2228:	fec42783          	lw	a5,-20(s0)
    222c:	0507c783          	lbu	a5,80(a5)
    2230:	40f707b3          	sub	a5,a4,a5
    2234:	00078513          	mv	a0,a5
    2238:	01c12403          	lw	s0,28(sp)
    223c:	02010113          	add	sp,sp,32
    2240:	00008067          	ret

00002244 <_ZN14command_buffer12command_lineEv>:
#   auto command_line() -> char * { return line_; }
    2244:	fe010113          	add	sp,sp,-32
    2248:	00812e23          	sw	s0,28(sp)
    224c:	02010413          	add	s0,sp,32
    2250:	fea42623          	sw	a0,-20(s0)
    2254:	fec42783          	lw	a5,-20(s0)
    2258:	00078513          	mv	a0,a5
    225c:	01c12403          	lw	s0,28(sp)
    2260:	02010113          	add	sp,sp,32
    2264:	00008067          	ret

00002268 <_ZN14command_buffer12input_lengthEv>:
#   auto input_length() -> uint32_t { return end_; }
    2268:	fe010113          	add	sp,sp,-32
    226c:	00812e23          	sw	s0,28(sp)
    2270:	02010413          	add	s0,sp,32
    2274:	fea42623          	sw	a0,-20(s0)
    2278:	fec42783          	lw	a5,-20(s0)
    227c:	0517c783          	lbu	a5,81(a5)
    2280:	00078513          	mv	a0,a5
    2284:	01c12403          	lw	s0,28(sp)
    2288:	02010113          	add	sp,sp,32
    228c:	00008067          	ret

00002290 <_ZN4listIhLi128EE2atEj>:
#   auto at(uint32_t const i) -> Type {
    2290:	fe010113          	add	sp,sp,-32
    2294:	00812e23          	sw	s0,28(sp)
    2298:	02010413          	add	s0,sp,32
    229c:	fea42623          	sw	a0,-20(s0)
    22a0:	feb42423          	sw	a1,-24(s0)
#     if (i > Size - 1) {
    22a4:	fe842703          	lw	a4,-24(s0)
    22a8:	07f00793          	li	a5,127
    22ac:	00e7f663          	bgeu	a5,a4,22b8 <_ZN4listIhLi128EE2atEj+0x28>
#       return {};
    22b0:	00000793          	li	a5,0
    22b4:	0140006f          	j	22c8 <_ZN4listIhLi128EE2atEj+0x38>
#     return data[i];
    22b8:	fec42703          	lw	a4,-20(s0)
    22bc:	fe842783          	lw	a5,-24(s0)
    22c0:	00f707b3          	add	a5,a4,a5
    22c4:	0007c783          	lbu	a5,0(a5)
#   }
    22c8:	00078513          	mv	a0,a5
    22cc:	01c12403          	lw	s0,28(sp)
    22d0:	02010113          	add	sp,sp,32
    22d4:	00008067          	ret

000022d8 <_ZN4listIhLi8EE2atEj>:
#   auto at(uint32_t const i) -> Type {
    22d8:	fe010113          	add	sp,sp,-32
    22dc:	00812e23          	sw	s0,28(sp)
    22e0:	02010413          	add	s0,sp,32
    22e4:	fea42623          	sw	a0,-20(s0)
    22e8:	feb42423          	sw	a1,-24(s0)
#     if (i > Size - 1) {
    22ec:	fe842703          	lw	a4,-24(s0)
    22f0:	00700793          	li	a5,7
    22f4:	00e7f663          	bgeu	a5,a4,2300 <_ZN4listIhLi8EE2atEj+0x28>
#       return {};
    22f8:	00000793          	li	a5,0
    22fc:	0140006f          	j	2310 <_ZN4listIhLi8EE2atEj+0x38>
#     return data[i];
    2300:	fec42703          	lw	a4,-20(s0)
    2304:	fe842783          	lw	a5,-24(s0)
    2308:	00f707b3          	add	a5,a4,a5
    230c:	0007c783          	lbu	a5,0(a5)
#   }
    2310:	00078513          	mv	a0,a5
    2314:	01c12403          	lw	s0,28(sp)
    2318:	02010113          	add	sp,sp,32
    231c:	00008067          	ret

00002320 <_ZN4listIhLi32EE2atEj>:
#   auto at(uint32_t const i) -> Type {
    2320:	fe010113          	add	sp,sp,-32
    2324:	00812e23          	sw	s0,28(sp)
    2328:	02010413          	add	s0,sp,32
    232c:	fea42623          	sw	a0,-20(s0)
    2330:	feb42423          	sw	a1,-24(s0)
#     if (i > Size - 1) {
    2334:	fe842703          	lw	a4,-24(s0)
    2338:	01f00793          	li	a5,31
    233c:	00e7f663          	bgeu	a5,a4,2348 <_ZN4listIhLi32EE2atEj+0x28>
#       return {};
    2340:	00000793          	li	a5,0
    2344:	0140006f          	j	2358 <_ZN4listIhLi32EE2atEj+0x38>
#     return data[i];
    2348:	fec42703          	lw	a4,-20(s0)
    234c:	fe842783          	lw	a5,-24(s0)
    2350:	00f707b3          	add	a5,a4,a5
    2354:	0007c783          	lbu	a5,0(a5)
#   }
    2358:	00078513          	mv	a0,a5
    235c:	01c12403          	lw	s0,28(sp)
    2360:	02010113          	add	sp,sp,32
    2364:	00008067          	ret

00002368 <_ZN4listIhLi32EE3addEh>:
#   auto add(Type elem) -> bool {
    2368:	fe010113          	add	sp,sp,-32
    236c:	00812e23          	sw	s0,28(sp)
    2370:	02010413          	add	s0,sp,32
    2374:	fea42623          	sw	a0,-20(s0)
    2378:	00058793          	mv	a5,a1
    237c:	fef405a3          	sb	a5,-21(s0)
#     if (len == Size - 1) {
    2380:	fec42783          	lw	a5,-20(s0)
    2384:	0207a703          	lw	a4,32(a5)
    2388:	01f00793          	li	a5,31
    238c:	00f71663          	bne	a4,a5,2398 <_ZN4listIhLi32EE3addEh+0x30>
#       return false;
    2390:	00000793          	li	a5,0
    2394:	0480006f          	j	23dc <_ZN4listIhLi32EE3addEh+0x74>
#     data[len] = elem;
    2398:	fec42783          	lw	a5,-20(s0)
    239c:	0207a783          	lw	a5,32(a5)
    23a0:	fec42703          	lw	a4,-20(s0)
    23a4:	00f707b3          	add	a5,a4,a5
    23a8:	feb44703          	lbu	a4,-21(s0)
    23ac:	00e78023          	sb	a4,0(a5)
#     ++len;
    23b0:	fec42783          	lw	a5,-20(s0)
    23b4:	0207a783          	lw	a5,32(a5)
    23b8:	00178713          	add	a4,a5,1
    23bc:	fec42783          	lw	a5,-20(s0)
    23c0:	02e7a023          	sw	a4,32(a5)
#     data[len] = {};
    23c4:	fec42783          	lw	a5,-20(s0)
    23c8:	0207a783          	lw	a5,32(a5)
    23cc:	fec42703          	lw	a4,-20(s0)
    23d0:	00f707b3          	add	a5,a4,a5
    23d4:	00078023          	sb	zero,0(a5)
#     return true;
    23d8:	00100793          	li	a5,1
#   }
    23dc:	00078513          	mv	a0,a5
    23e0:	01c12403          	lw	s0,28(sp)
    23e4:	02010113          	add	sp,sp,32
    23e8:	00008067          	ret

000023ec <_ZN4listIhLi128EE15remove_by_indexEj>:
#   auto remove_by_index(uint32_t i) -> void {
    23ec:	fe010113          	add	sp,sp,-32
    23f0:	00812e23          	sw	s0,28(sp)
    23f4:	02010413          	add	s0,sp,32
    23f8:	fea42623          	sw	a0,-20(s0)
    23fc:	feb42423          	sw	a1,-24(s0)
#       data[i] = data[i + 1];
    2400:	fe842783          	lw	a5,-24(s0)
    2404:	00178793          	add	a5,a5,1
    2408:	fec42703          	lw	a4,-20(s0)
    240c:	00f707b3          	add	a5,a4,a5
    2410:	0007c703          	lbu	a4,0(a5)
    2414:	fec42683          	lw	a3,-20(s0)
    2418:	fe842783          	lw	a5,-24(s0)
    241c:	00f687b3          	add	a5,a3,a5
    2420:	00e78023          	sb	a4,0(a5)
#       if (data[i] == Type{}) {
    2424:	fec42703          	lw	a4,-20(s0)
    2428:	fe842783          	lw	a5,-24(s0)
    242c:	00f707b3          	add	a5,a4,a5
    2430:	0007c783          	lbu	a5,0(a5)
    2434:	00079a63          	bnez	a5,2448 <_ZN4listIhLi128EE15remove_by_indexEj+0x5c>
#         len = i;
    2438:	fec42783          	lw	a5,-20(s0)
    243c:	fe842703          	lw	a4,-24(s0)
    2440:	08e7a023          	sw	a4,128(a5)
#         return;
    2444:	0140006f          	j	2458 <_ZN4listIhLi128EE15remove_by_indexEj+0x6c>
#       ++i;
    2448:	fe842783          	lw	a5,-24(s0)
    244c:	00178793          	add	a5,a5,1
    2450:	fef42423          	sw	a5,-24(s0)
#       data[i] = data[i + 1];
    2454:	fadff06f          	j	2400 <_ZN4listIhLi128EE15remove_by_indexEj+0x14>
#   }
    2458:	01c12403          	lw	s0,28(sp)
    245c:	02010113          	add	sp,sp,32
    2460:	00008067          	ret

00002464 <_ZN4listIhLi128EE3addEh>:
#   auto add(Type elem) -> bool {
    2464:	fe010113          	add	sp,sp,-32
    2468:	00812e23          	sw	s0,28(sp)
    246c:	02010413          	add	s0,sp,32
    2470:	fea42623          	sw	a0,-20(s0)
    2474:	00058793          	mv	a5,a1
    2478:	fef405a3          	sb	a5,-21(s0)
#     if (len == Size - 1) {
    247c:	fec42783          	lw	a5,-20(s0)
    2480:	0807a703          	lw	a4,128(a5)
    2484:	07f00793          	li	a5,127
    2488:	00f71663          	bne	a4,a5,2494 <_ZN4listIhLi128EE3addEh+0x30>
#       return false;
    248c:	00000793          	li	a5,0
    2490:	0480006f          	j	24d8 <_ZN4listIhLi128EE3addEh+0x74>
#     data[len] = elem;
    2494:	fec42783          	lw	a5,-20(s0)
    2498:	0807a783          	lw	a5,128(a5)
    249c:	fec42703          	lw	a4,-20(s0)
    24a0:	00f707b3          	add	a5,a4,a5
    24a4:	feb44703          	lbu	a4,-21(s0)
    24a8:	00e78023          	sb	a4,0(a5)
#     ++len;
    24ac:	fec42783          	lw	a5,-20(s0)
    24b0:	0807a783          	lw	a5,128(a5)
    24b4:	00178713          	add	a4,a5,1
    24b8:	fec42783          	lw	a5,-20(s0)
    24bc:	08e7a023          	sw	a4,128(a5)
#     data[len] = {};
    24c0:	fec42783          	lw	a5,-20(s0)
    24c4:	0807a783          	lw	a5,128(a5)
    24c8:	fec42703          	lw	a4,-20(s0)
    24cc:	00f707b3          	add	a5,a4,a5
    24d0:	00078023          	sb	zero,0(a5)
#     return true;
    24d4:	00100793          	li	a5,1
#   }
    24d8:	00078513          	mv	a0,a5
    24dc:	01c12403          	lw	s0,28(sp)
    24e0:	02010113          	add	sp,sp,32
    24e4:	00008067          	ret

000024e8 <_ZN4listIhLi32EE15remove_by_indexEj>:
#   auto remove_by_index(uint32_t i) -> void {
    24e8:	fe010113          	add	sp,sp,-32
    24ec:	00812e23          	sw	s0,28(sp)
    24f0:	02010413          	add	s0,sp,32
    24f4:	fea42623          	sw	a0,-20(s0)
    24f8:	feb42423          	sw	a1,-24(s0)
#       data[i] = data[i + 1];
    24fc:	fe842783          	lw	a5,-24(s0)
    2500:	00178793          	add	a5,a5,1
    2504:	fec42703          	lw	a4,-20(s0)
    2508:	00f707b3          	add	a5,a4,a5
    250c:	0007c703          	lbu	a4,0(a5)
    2510:	fec42683          	lw	a3,-20(s0)
    2514:	fe842783          	lw	a5,-24(s0)
    2518:	00f687b3          	add	a5,a3,a5
    251c:	00e78023          	sb	a4,0(a5)
#       if (data[i] == Type{}) {
    2520:	fec42703          	lw	a4,-20(s0)
    2524:	fe842783          	lw	a5,-24(s0)
    2528:	00f707b3          	add	a5,a4,a5
    252c:	0007c783          	lbu	a5,0(a5)
    2530:	00079a63          	bnez	a5,2544 <_ZN4listIhLi32EE15remove_by_indexEj+0x5c>
#         len = i;
    2534:	fec42783          	lw	a5,-20(s0)
    2538:	fe842703          	lw	a4,-24(s0)
    253c:	02e7a023          	sw	a4,32(a5)
#         return;
    2540:	0140006f          	j	2554 <_ZN4listIhLi32EE15remove_by_indexEj+0x6c>
#       ++i;
    2544:	fe842783          	lw	a5,-24(s0)
    2548:	00178793          	add	a5,a5,1
    254c:	fef42423          	sw	a5,-24(s0)
#       data[i] = data[i + 1];
    2550:	fadff06f          	j	24fc <_ZN4listIhLi32EE15remove_by_indexEj+0x14>
#   }
    2554:	01c12403          	lw	s0,28(sp)
    2558:	02010113          	add	sp,sp,32
    255c:	00008067          	ret

00002560 <_ZN4listIhLi8EE3addEh>:
#   auto add(Type elem) -> bool {
    2560:	fe010113          	add	sp,sp,-32
    2564:	00812e23          	sw	s0,28(sp)
    2568:	02010413          	add	s0,sp,32
    256c:	fea42623          	sw	a0,-20(s0)
    2570:	00058793          	mv	a5,a1
    2574:	fef405a3          	sb	a5,-21(s0)
#     if (len == Size - 1) {
    2578:	fec42783          	lw	a5,-20(s0)
    257c:	0087a703          	lw	a4,8(a5)
    2580:	00700793          	li	a5,7
    2584:	00f71663          	bne	a4,a5,2590 <_ZN4listIhLi8EE3addEh+0x30>
#       return false;
    2588:	00000793          	li	a5,0
    258c:	0480006f          	j	25d4 <_ZN4listIhLi8EE3addEh+0x74>
#     data[len] = elem;
    2590:	fec42783          	lw	a5,-20(s0)
    2594:	0087a783          	lw	a5,8(a5)
    2598:	fec42703          	lw	a4,-20(s0)
    259c:	00f707b3          	add	a5,a4,a5
    25a0:	feb44703          	lbu	a4,-21(s0)
    25a4:	00e78023          	sb	a4,0(a5)
#     ++len;
    25a8:	fec42783          	lw	a5,-20(s0)
    25ac:	0087a783          	lw	a5,8(a5)
    25b0:	00178713          	add	a4,a5,1
    25b4:	fec42783          	lw	a5,-20(s0)
    25b8:	00e7a423          	sw	a4,8(a5)
#     data[len] = {};
    25bc:	fec42783          	lw	a5,-20(s0)
    25c0:	0087a783          	lw	a5,8(a5)
    25c4:	fec42703          	lw	a4,-20(s0)
    25c8:	00f707b3          	add	a5,a4,a5
    25cc:	00078023          	sb	zero,0(a5)
#     return true;
    25d0:	00100793          	li	a5,1
#   }
    25d4:	00078513          	mv	a0,a5
    25d8:	01c12403          	lw	s0,28(sp)
    25dc:	02010113          	add	sp,sp,32
    25e0:	00008067          	ret

000025e4 <_ZN4listIhLi8EE6removeEh>:
#   auto remove(Type elem) -> bool {
    25e4:	fd010113          	add	sp,sp,-48
    25e8:	02812623          	sw	s0,44(sp)
    25ec:	03010413          	add	s0,sp,48
    25f0:	fca42e23          	sw	a0,-36(s0)
    25f4:	00058793          	mv	a5,a1
    25f8:	fcf40da3          	sb	a5,-37(s0)
#     for (uint32_t i = 0; i < Size - 1; ++i) {
    25fc:	fe042623          	sw	zero,-20(s0)
    2600:	0a00006f          	j	26a0 <_ZN4listIhLi8EE6removeEh+0xbc>
#       if (data[i] != elem) {
    2604:	fdc42703          	lw	a4,-36(s0)
    2608:	fec42783          	lw	a5,-20(s0)
    260c:	00f707b3          	add	a5,a4,a5
    2610:	0007c783          	lbu	a5,0(a5)
    2614:	fdb44703          	lbu	a4,-37(s0)
    2618:	06f71c63          	bne	a4,a5,2690 <_ZN4listIhLi8EE6removeEh+0xac>
#       for (uint32_t j = i; j < Size - 1; ++j) {
    261c:	fec42783          	lw	a5,-20(s0)
    2620:	fef42423          	sw	a5,-24(s0)
    2624:	05c0006f          	j	2680 <_ZN4listIhLi8EE6removeEh+0x9c>
#         data[j] = data[j + 1];
    2628:	fe842783          	lw	a5,-24(s0)
    262c:	00178793          	add	a5,a5,1
    2630:	fdc42703          	lw	a4,-36(s0)
    2634:	00f707b3          	add	a5,a4,a5
    2638:	0007c703          	lbu	a4,0(a5)
    263c:	fdc42683          	lw	a3,-36(s0)
    2640:	fe842783          	lw	a5,-24(s0)
    2644:	00f687b3          	add	a5,a3,a5
    2648:	00e78023          	sb	a4,0(a5)
#         if (data[j] == Type{}) {
    264c:	fdc42703          	lw	a4,-36(s0)
    2650:	fe842783          	lw	a5,-24(s0)
    2654:	00f707b3          	add	a5,a4,a5
    2658:	0007c783          	lbu	a5,0(a5)
    265c:	00079c63          	bnez	a5,2674 <_ZN4listIhLi8EE6removeEh+0x90>
#           len = j;
    2660:	fdc42783          	lw	a5,-36(s0)
    2664:	fe842703          	lw	a4,-24(s0)
    2668:	00e7a423          	sw	a4,8(a5)
#           return true;
    266c:	00100793          	li	a5,1
    2670:	0400006f          	j	26b0 <_ZN4listIhLi8EE6removeEh+0xcc>
#       for (uint32_t j = i; j < Size - 1; ++j) {
    2674:	fe842783          	lw	a5,-24(s0)
    2678:	00178793          	add	a5,a5,1
    267c:	fef42423          	sw	a5,-24(s0)
    2680:	fe842703          	lw	a4,-24(s0)
    2684:	00600793          	li	a5,6
    2688:	fae7f0e3          	bgeu	a5,a4,2628 <_ZN4listIhLi8EE6removeEh+0x44>
    268c:	0080006f          	j	2694 <_ZN4listIhLi8EE6removeEh+0xb0>
#         continue;
    2690:	00000013          	nop
#     for (uint32_t i = 0; i < Size - 1; ++i) {
    2694:	fec42783          	lw	a5,-20(s0)
    2698:	00178793          	add	a5,a5,1
    269c:	fef42623          	sw	a5,-20(s0)
    26a0:	fec42703          	lw	a4,-20(s0)
    26a4:	00600793          	li	a5,6
    26a8:	f4e7fee3          	bgeu	a5,a4,2604 <_ZN4listIhLi8EE6removeEh+0x20>
#     return false;
    26ac:	00000793          	li	a5,0
#   }
    26b0:	00078513          	mv	a0,a5
    26b4:	02c12403          	lw	s0,44(sp)
    26b8:	03010113          	add	sp,sp,48
    26bc:	00008067          	ret
