
os:     file format elf32-littleriscv


Disassembly of section .text:

00000000 <_start>:
# # generated - do not edit (see `configuration.py`)
# .global _start
# _start:
#     li sp, 0x200000
       0:	00200137          	lui	sp,0x200
#     j run
       4:	0040006f          	j	8 <run>

00000008 <run>:
# }
# 
# static auto action_sdcard_status() -> void {
#   uint32_t const status = *SDCARD_STATUS;
#   uart_send_cstr("SDCARD_STATUS: 0x");
#   uart_send_hex_byte(char(status >> 24));
       8:	f8010113          	addi	sp,sp,-128 # 1fff80 <__bss_end+0x1fdbcc>
       c:	06112e23          	sw	ra,124(sp)
      10:	06812c23          	sw	s0,120(sp)
      14:	07212823          	sw	s2,112(sp)
      18:	07312623          	sw	s3,108(sp)
      1c:	07412423          	sw	s4,104(sp)
      20:	07512223          	sw	s5,100(sp)
      24:	06912a23          	sw	s1,116(sp)
#   uart_send_hex_byte(char(status >> 16));
      28:	7c8010ef          	jal	17f0 <_ZL12initiate_bssv>
#   // initiate statics in freestanding build
# 
#   led_set(0b0000);
#   // turn on all leds
# 
#   uart_send_cstr(ascii_art);
      2c:	000027b7          	lui	a5,0x2
# static auto led_set(int32_t const bits) -> void { *LED = bits; }
      30:	fe002e23          	sw	zero,-4(zero) # fffffffc <__bss_end+0xffffdc48>
      34:	3b07a503          	lw	a0,944(a5) # 23b0 <_ZL9ascii_art>
#   uart_send_cstr(hello);
# 
#   mut active_entity = entity_id_t{1};
      38:	00100413          	li	s0,1
#   mut cmd_buf = command_buffer{};
# 
#   while (true) {
#     mut &ent = entity_by_id(active_entity);
#     print_location(ent.location, active_entity);
      3c:	00002ab7          	lui	s5,0x2
#   uart_send_cstr(ascii_art);
      40:	424010ef          	jal	1464 <_ZL14uart_send_cstrPKc>
#   uart_send_cstr(hello);
      44:	000027b7          	lui	a5,0x2
      48:	3ac7a503          	lw	a0,940(a5) # 23ac <_ZL5hello>
#     uart_send_cstr(ent.name);
#     uart_send_cstr(" > ");
      4c:	00002a37          	lui	s4,0x2
#     input(cmd_buf);
#     uart_send_cstr("\r\n");
      50:	000029b7          	lui	s3,0x2
#   uart_send_cstr(hello);
      54:	410010ef          	jal	1464 <_ZL14uart_send_cstrPKc>
#   mut cmd_buf = command_buffer{};
      58:	05200613          	li	a2,82
      5c:	00000593          	li	a1,0
      60:	00c10513          	addi	a0,sp,12
      64:	74c010ef          	jal	17b0 <memset>
#     handle_input(active_entity, cmd_buf);
#     active_entity = active_entity == 1 ? 2 : 1;
      68:	00300913          	li	s2,3
#     print_location(ent.location, active_entity);
      6c:	00141793          	slli	a5,s0,0x1
      70:	008787b3          	add	a5,a5,s0
      74:	00279793          	slli	a5,a5,0x2
      78:	408787b3          	sub	a5,a5,s0
      7c:	00279793          	slli	a5,a5,0x2
      80:	fd8a8493          	addi	s1,s5,-40 # 1fd8 <_ZL8entities>
      84:	00f484b3          	add	s1,s1,a5
      88:	0044c503          	lbu	a0,4(s1)
      8c:	00040593          	mv	a1,s0
      90:	4b8000ef          	jal	548 <_ZL14print_locationhh>
#     uart_send_cstr(ent.name);
      94:	0004a503          	lw	a0,0(s1)
      98:	3cc010ef          	jal	1464 <_ZL14uart_send_cstrPKc>
#     uart_send_cstr(" > ");
      9c:	c84a0513          	addi	a0,s4,-892 # 1c84 <_ZNK4spanIcE8for_eachIZL12string_printS0_EUlT_E_EEvS2_.isra.0+0x424>
      a0:	3c4010ef          	jal	1464 <_ZL14uart_send_cstrPKc>
#     input(cmd_buf);
      a4:	00c10513          	addi	a0,sp,12
      a8:	709000ef          	jal	fb0 <_ZL5inputR14command_buffer>
#     uart_send_cstr("\r\n");
      ac:	cd098513          	addi	a0,s3,-816 # 1cd0 <_ZNK4spanIcE8for_eachIZL12string_printS0_EUlT_E_EEvS2_.isra.0+0x470>
      b0:	3b4010ef          	jal	1464 <_ZL14uart_send_cstrPKc>
#     handle_input(active_entity, cmd_buf);
      b4:	00040513          	mv	a0,s0
      b8:	00c10593          	addi	a1,sp,12
#     active_entity = active_entity == 1 ? 2 : 1;
      bc:	40890433          	sub	s0,s2,s0
#     handle_input(active_entity, cmd_buf);
      c0:	124000ef          	jal	1e4 <_ZL12handle_inputhR14command_buffer>
#     active_entity = active_entity == 1 ? 2 : 1;
      c4:	0ff47413          	zext.b	s0,s0
      c8:	fa5ff06f          	j	6c <run+0x64>

000000cc <_ZL18string_equals_cstr4spanIcEPKc>:
#   }
# }
# 
# static auto string_equals_cstr(string const str, cstr s) -> bool {
      cc:	ff010113          	addi	sp,sp,-16
      d0:	00a12423          	sw	a0,8(sp)
      d4:	00b12623          	sw	a1,12(sp)
#   mut e = str.for_each_until_false([&s](let ch) {
#     if (*s != '\0' && *s == ch) {
      d8:	00064783          	lbu	a5,0(a2)
#   }
# 
#   auto
#   for_each_until_false(callable_returns_bool<Type> auto f) const -> position {
#     Type *it = begin_;
#     for (; it < end_; ++it) {
      dc:	00b56e63          	bltu	a0,a1,f8 <_ZL18string_equals_cstr4spanIcEPKc+0x2c>
#       ++s;
#       return true;
#     }
#     return false;
#   });
#   return *s == '\0' && str.is_at_end(e);
      e0:	40b50533          	sub	a0,a0,a1
      e4:	00153593          	seqz	a1,a0
      e8:	0017b513          	seqz	a0,a5
# }
      ec:	00a5f533          	and	a0,a1,a0
      f0:	01010113          	addi	sp,sp,16
      f4:	00008067          	ret
#     if (*s != '\0' && *s == ch) {
      f8:	fe0784e3          	beqz	a5,e0 <_ZL18string_equals_cstr4spanIcEPKc+0x14>
      fc:	00054703          	lbu	a4,0(a0)
     100:	fef710e3          	bne	a4,a5,e0 <_ZL18string_equals_cstr4spanIcEPKc+0x14>
#       ++s;
     104:	00160613          	addi	a2,a2,1
     108:	00150513          	addi	a0,a0,1
     10c:	fcdff06f          	j	d8 <_ZL18string_equals_cstr4spanIcEPKc+0xc>

00000110 <_ZL12string_print4spanIcE>:
# 
# static auto string_print(string const str) -> void {
     110:	fe010113          	addi	sp,sp,-32
     114:	00a12423          	sw	a0,8(sp)
#   str.for_each([](let ch) { uart_send_char(ch); });
     118:	00810513          	addi	a0,sp,8
# static auto string_print(string const str) -> void {
     11c:	00112e23          	sw	ra,28(sp)
     120:	00b12623          	sw	a1,12(sp)
#   str.for_each([](let ch) { uart_send_char(ch); });
     124:	73c010ef          	jal	1860 <_ZNK4spanIcE8for_eachIZL12string_printS0_EUlT_E_EEvS2_.isra.0>
# }
     128:	01c12083          	lw	ra,28(sp)
     12c:	02010113          	addi	sp,sp,32
     130:	00008067          	ret

00000134 <_ZL16string_next_word4spanIcE>:
#   string word{};
#   string rem{};
# };
# 
# static auto
# string_next_word(string const str) -> struct string_next_word_return {
     134:	fe010113          	addi	sp,sp,-32
     138:	00b12423          	sw	a1,8(sp)
     13c:	00c12623          	sw	a2,12(sp)
#     Type *it = begin_;
     140:	00058713          	mv	a4,a1
#     for (; it < end_; ++it) {
     144:	02c76e63          	bltu	a4,a2,180 <_ZL16string_next_word4spanIcE+0x4c>
#         return {};
     148:	00000793          	li	a5,0
     14c:	00000693          	li	a3,0
#       if (pos.ptr > end_ || pos.ptr < begin_) {
     150:	02e67e63          	bgeu	a2,a4,18c <_ZL16string_next_word4spanIcE+0x58>
     154:	00d12823          	sw	a3,16(sp)
     158:	00f12a23          	sw	a5,20(sp)
#       if (pos.ptr > end_ || pos.ptr < begin_) {
     15c:	00e66c63          	bltu	a2,a4,174 <_ZL16string_next_word4spanIcE+0x40>
     160:	00b76a63          	bltu	a4,a1,174 <_ZL16string_next_word4spanIcE+0x40>
#     Type *it = begin_;
     164:	00070793          	mv	a5,a4
#       if (!f(*it)) {
     168:	02000693          	li	a3,32
#     for (; it < end_; ++it) {
     16c:	04c7e263          	bltu	a5,a2,1b0 <_ZL16string_next_word4spanIcE+0x7c>
#       if (pos.ptr > end_ || pos.ptr < begin_) {
     170:	04f67463          	bgeu	a2,a5,1b8 <_ZL16string_next_word4spanIcE+0x84>
#         return {};
     174:	00000613          	li	a2,0
     178:	00000793          	li	a5,0
     17c:	0400006f          	j	1bc <_ZL16string_next_word4spanIcE+0x88>
#   mut ce =
#       str.for_each_until_false([](let ch) { return ch != ' ' && ch != '\0'; });
     180:	00074783          	lbu	a5,0(a4)
     184:	0df7f793          	andi	a5,a5,223
     188:	00079a63          	bnez	a5,19c <_ZL16string_next_word4spanIcE+0x68>
#       if (pos.ptr > end_ || pos.ptr < begin_) {
     18c:	00b76c63          	bltu	a4,a1,1a4 <_ZL16string_next_word4spanIcE+0x70>
#     return {begin_, pos.ptr};
     190:	00070793          	mv	a5,a4
     194:	00058693          	mv	a3,a1
     198:	fbdff06f          	j	154 <_ZL16string_next_word4spanIcE+0x20>
#     for (; it < end_; ++it) {
     19c:	00170713          	addi	a4,a4,1
     1a0:	fa5ff06f          	j	144 <_ZL16string_next_word4spanIcE+0x10>
#         return {};
     1a4:	00000793          	li	a5,0
     1a8:	00000693          	li	a3,0
     1ac:	fa9ff06f          	j	154 <_ZL16string_next_word4spanIcE+0x20>
#       if (!f(*it)) {
     1b0:	0007c583          	lbu	a1,0(a5)
     1b4:	02d58463          	beq	a1,a3,1dc <_ZL16string_next_word4spanIcE+0xa8>
#       if (pos.ptr > end_ || pos.ptr < begin_) {
     1b8:	fae7eee3          	bltu	a5,a4,174 <_ZL16string_next_word4spanIcE+0x40>
#   let word = str.subspan_ending_at(ce);
#   let rem = str.subspan_starting_at(ce);
#   let rem_trimmed = rem.subspan_starting_at(
#       rem.for_each_until_false([](let ch) { return ch == ' '; }));
#   return {word, rem_trimmed};
     1bc:	01012703          	lw	a4,16(sp)
     1c0:	00f52423          	sw	a5,8(a0)
     1c4:	00c52623          	sw	a2,12(a0)
     1c8:	00e52023          	sw	a4,0(a0)
     1cc:	01412703          	lw	a4,20(sp)
     1d0:	00e52223          	sw	a4,4(a0)
# }
     1d4:	02010113          	addi	sp,sp,32
     1d8:	00008067          	ret
#     for (; it < end_; ++it) {
     1dc:	00178793          	addi	a5,a5,1
     1e0:	f8dff06f          	j	16c <_ZL16string_next_word4spanIcE+0x38>

000001e4 <_ZL12handle_inputhR14command_buffer>:
# 
# static auto
# handle_input(entity_id_t const eid, command_buffer &cmd_buf) -> void {
     1e4:	fb010113          	addi	sp,sp,-80
     1e8:	04812423          	sw	s0,72(sp)
     1ec:	04912223          	sw	s1,68(sp)
     1f0:	05212023          	sw	s2,64(sp)
     1f4:	03312e23          	sw	s3,60(sp)
     1f8:	03412c23          	sw	s4,56(sp)
     1fc:	04112623          	sw	ra,76(sp)
#     }
#   }
# 
#   auto characters_after_cursor() const -> size_t { return end_ - cursor_; }
# 
#   auto input_length() const -> size_t { return end_; }
     200:	0515c603          	lbu	a2,81(a1)
     204:	00050913          	mv	s2,a0
# 
#   let line = cmd_buf.string();
#   let w1 = string_next_word(line);
     208:	02010513          	addi	a0,sp,32
     20c:	00c58633          	add	a2,a1,a2
     210:	f25ff0ef          	jal	134 <_ZL16string_next_word4spanIcE>
#   let cmd = w1.word;
     214:	02012483          	lw	s1,32(sp)
     218:	02412403          	lw	s0,36(sp)
#   let args = w1.rem;
     21c:	02812a03          	lw	s4,40(sp)
     220:	02c12983          	lw	s3,44(sp)
# 
#   if (string_equals_cstr(cmd, "help")) {
     224:	00002637          	lui	a2,0x2
     228:	c8860613          	addi	a2,a2,-888 # 1c88 <_ZNK4spanIcE8for_eachIZL12string_printS0_EUlT_E_EEvS2_.isra.0+0x428>
     22c:	00048513          	mv	a0,s1
     230:	00040593          	mv	a1,s0
#   let cmd = w1.word;
     234:	00912823          	sw	s1,16(sp)
     238:	00812a23          	sw	s0,20(sp)
#   let args = w1.rem;
     23c:	01412c23          	sw	s4,24(sp)
     240:	01312e23          	sw	s3,28(sp)
#   if (string_equals_cstr(cmd, "help")) {
     244:	e89ff0ef          	jal	cc <_ZL18string_equals_cstr4spanIcEPKc>
     248:	02050263          	beqz	a0,26c <_ZL12handle_inputhR14command_buffer+0x88>
#   } else if (string_equals_cstr(cmd, "q")) {
#     exit(0);
#   } else {
#     uart_send_cstr("not understood\r\n\r\n");
#   }
# }
     24c:	04812403          	lw	s0,72(sp)
     250:	04c12083          	lw	ra,76(sp)
     254:	04412483          	lw	s1,68(sp)
     258:	04012903          	lw	s2,64(sp)
     25c:	03c12983          	lw	s3,60(sp)
     260:	03812a03          	lw	s4,56(sp)
     264:	05010113          	addi	sp,sp,80
#     print_help();
     268:	53d0006f          	j	fa4 <_ZL10print_helpv>
#   } else if (string_equals_cstr(cmd, "i")) {
     26c:	00002637          	lui	a2,0x2
     270:	c9060613          	addi	a2,a2,-880 # 1c90 <_ZNK4spanIcE8for_eachIZL12string_printS0_EUlT_E_EEvS2_.isra.0+0x430>
     274:	00048513          	mv	a0,s1
     278:	00040593          	mv	a1,s0
     27c:	e51ff0ef          	jal	cc <_ZL18string_equals_cstr4spanIcEPKc>
     280:	02050a63          	beqz	a0,2b4 <_ZL12handle_inputhR14command_buffer+0xd0>
#     action_inventory(eid);
     284:	00090513          	mv	a0,s2
     288:	4b8000ef          	jal	740 <_ZL16action_inventoryh>
#     uart_send_cstr("\r\n");
     28c:	00002537          	lui	a0,0x2
     290:	cd050513          	addi	a0,a0,-816 # 1cd0 <_ZNK4spanIcE8for_eachIZL12string_printS0_EUlT_E_EEvS2_.isra.0+0x470>
# }
     294:	04812403          	lw	s0,72(sp)
     298:	04c12083          	lw	ra,76(sp)
     29c:	04412483          	lw	s1,68(sp)
     2a0:	04012903          	lw	s2,64(sp)
     2a4:	03c12983          	lw	s3,60(sp)
     2a8:	03812a03          	lw	s4,56(sp)
     2ac:	05010113          	addi	sp,sp,80
#     uart_send_cstr("not understood\r\n\r\n");
     2b0:	1b40106f          	j	1464 <_ZL14uart_send_cstrPKc>
#   } else if (string_equals_cstr(cmd, "t")) {
     2b4:	00002637          	lui	a2,0x2
     2b8:	c9460613          	addi	a2,a2,-876 # 1c94 <_ZNK4spanIcE8for_eachIZL12string_printS0_EUlT_E_EEvS2_.isra.0+0x434>
     2bc:	00048513          	mv	a0,s1
     2c0:	00040593          	mv	a1,s0
     2c4:	e09ff0ef          	jal	cc <_ZL18string_equals_cstr4spanIcEPKc>
     2c8:	02050863          	beqz	a0,2f8 <_ZL12handle_inputhR14command_buffer+0x114>
# }
     2cc:	04812403          	lw	s0,72(sp)
     2d0:	04c12083          	lw	ra,76(sp)
     2d4:	04412483          	lw	s1,68(sp)
#     action_take(eid, args);
     2d8:	000a0593          	mv	a1,s4
     2dc:	00098613          	mv	a2,s3
# }
     2e0:	03812a03          	lw	s4,56(sp)
     2e4:	03c12983          	lw	s3,60(sp)
#     action_take(eid, args);
     2e8:	00090513          	mv	a0,s2
# }
     2ec:	04012903          	lw	s2,64(sp)
     2f0:	05010113          	addi	sp,sp,80
#     action_take(eid, args);
     2f4:	5380006f          	j	82c <_ZL11action_takeh4spanIcE>
#   } else if (string_equals_cstr(cmd, "d")) {
     2f8:	00002637          	lui	a2,0x2
     2fc:	c9860613          	addi	a2,a2,-872 # 1c98 <_ZNK4spanIcE8for_eachIZL12string_printS0_EUlT_E_EEvS2_.isra.0+0x438>
     300:	00048513          	mv	a0,s1
     304:	00040593          	mv	a1,s0
     308:	dc5ff0ef          	jal	cc <_ZL18string_equals_cstr4spanIcEPKc>
     30c:	02050863          	beqz	a0,33c <_ZL12handle_inputhR14command_buffer+0x158>
# }
     310:	04812403          	lw	s0,72(sp)
     314:	04c12083          	lw	ra,76(sp)
     318:	04412483          	lw	s1,68(sp)
#     action_drop(eid, args);
     31c:	000a0593          	mv	a1,s4
     320:	00098613          	mv	a2,s3
# }
     324:	03812a03          	lw	s4,56(sp)
     328:	03c12983          	lw	s3,60(sp)
#     action_drop(eid, args);
     32c:	00090513          	mv	a0,s2
# }
     330:	04012903          	lw	s2,64(sp)
     334:	05010113          	addi	sp,sp,80
#     action_drop(eid, args);
     338:	6b00006f          	j	9e8 <_ZL11action_droph4spanIcE>
#   } else if (string_equals_cstr(cmd, "n")) {
     33c:	00002637          	lui	a2,0x2
     340:	00040593          	mv	a1,s0
     344:	c9c60613          	addi	a2,a2,-868 # 1c9c <_ZNK4spanIcE8for_eachIZL12string_printS0_EUlT_E_EEvS2_.isra.0+0x43c>
     348:	00048513          	mv	a0,s1
     34c:	d81ff0ef          	jal	cc <_ZL18string_equals_cstr4spanIcEPKc>
#     action_go(eid, 1);
     350:	00100593          	li	a1,1
#   } else if (string_equals_cstr(cmd, "n")) {
     354:	02051063          	bnez	a0,374 <_ZL12handle_inputhR14command_buffer+0x190>
#   } else if (string_equals_cstr(cmd, "e")) {
     358:	00002637          	lui	a2,0x2
     35c:	c3860613          	addi	a2,a2,-968 # 1c38 <_ZNK4spanIcE8for_eachIZL12string_printS0_EUlT_E_EEvS2_.isra.0+0x3d8>
     360:	00048513          	mv	a0,s1
     364:	00040593          	mv	a1,s0
     368:	d65ff0ef          	jal	cc <_ZL18string_equals_cstr4spanIcEPKc>
     36c:	02050663          	beqz	a0,398 <_ZL12handle_inputhR14command_buffer+0x1b4>
#     action_go(eid, 2);
     370:	00200593          	li	a1,2
# }
     374:	04812403          	lw	s0,72(sp)
     378:	04c12083          	lw	ra,76(sp)
     37c:	04412483          	lw	s1,68(sp)
     380:	03c12983          	lw	s3,60(sp)
     384:	03812a03          	lw	s4,56(sp)
#     action_go(eid, 2);
     388:	00090513          	mv	a0,s2
# }
     38c:	04012903          	lw	s2,64(sp)
     390:	05010113          	addi	sp,sp,80
#     action_go(eid, 2);
     394:	0110006f          	j	ba4 <_ZL9action_gohh>
#   } else if (string_equals_cstr(cmd, "s")) {
     398:	00002637          	lui	a2,0x2
     39c:	00040593          	mv	a1,s0
     3a0:	ca060613          	addi	a2,a2,-864 # 1ca0 <_ZNK4spanIcE8for_eachIZL12string_printS0_EUlT_E_EEvS2_.isra.0+0x440>
     3a4:	00048513          	mv	a0,s1
     3a8:	d25ff0ef          	jal	cc <_ZL18string_equals_cstr4spanIcEPKc>
#     action_go(eid, 3);
     3ac:	00300593          	li	a1,3
#   } else if (string_equals_cstr(cmd, "s")) {
     3b0:	fc0512e3          	bnez	a0,374 <_ZL12handle_inputhR14command_buffer+0x190>
#   } else if (string_equals_cstr(cmd, "w")) {
     3b4:	00002637          	lui	a2,0x2
     3b8:	00040593          	mv	a1,s0
     3bc:	ca460613          	addi	a2,a2,-860 # 1ca4 <_ZNK4spanIcE8for_eachIZL12string_printS0_EUlT_E_EEvS2_.isra.0+0x444>
     3c0:	00048513          	mv	a0,s1
     3c4:	d09ff0ef          	jal	cc <_ZL18string_equals_cstr4spanIcEPKc>
#     action_go(eid, 4);
     3c8:	00400593          	li	a1,4
#   } else if (string_equals_cstr(cmd, "w")) {
     3cc:	fa0514e3          	bnez	a0,374 <_ZL12handle_inputhR14command_buffer+0x190>
#   } else if (string_equals_cstr(cmd, "g")) {
     3d0:	00002637          	lui	a2,0x2
     3d4:	ca860613          	addi	a2,a2,-856 # 1ca8 <_ZNK4spanIcE8for_eachIZL12string_printS0_EUlT_E_EEvS2_.isra.0+0x448>
     3d8:	00048513          	mv	a0,s1
     3dc:	00040593          	mv	a1,s0
     3e0:	cedff0ef          	jal	cc <_ZL18string_equals_cstr4spanIcEPKc>
     3e4:	02050863          	beqz	a0,414 <_ZL12handle_inputhR14command_buffer+0x230>
# }
     3e8:	04812403          	lw	s0,72(sp)
     3ec:	04c12083          	lw	ra,76(sp)
     3f0:	04412483          	lw	s1,68(sp)
#     action_give(eid, args);
     3f4:	000a0593          	mv	a1,s4
     3f8:	00098613          	mv	a2,s3
# }
     3fc:	03812a03          	lw	s4,56(sp)
     400:	03c12983          	lw	s3,60(sp)
#     action_give(eid, args);
     404:	00090513          	mv	a0,s2
# }
     408:	04012903          	lw	s2,64(sp)
     40c:	05010113          	addi	sp,sp,80
#     action_give(eid, args);
     410:	0c90006f          	j	cd8 <_ZL11action_giveh4spanIcE>
#   } else if (string_equals_cstr(cmd, "m")) {
     414:	00002637          	lui	a2,0x2
     418:	cac60613          	addi	a2,a2,-852 # 1cac <_ZNK4spanIcE8for_eachIZL12string_printS0_EUlT_E_EEvS2_.isra.0+0x44c>
     41c:	00048513          	mv	a0,s1
     420:	00040593          	mv	a1,s0
     424:	ca9ff0ef          	jal	cc <_ZL18string_equals_cstr4spanIcEPKc>
     428:	02050263          	beqz	a0,44c <_ZL12handle_inputhR14command_buffer+0x268>
# }
     42c:	04812403          	lw	s0,72(sp)
     430:	04c12083          	lw	ra,76(sp)
     434:	04412483          	lw	s1,68(sp)
     438:	04012903          	lw	s2,64(sp)
     43c:	03c12983          	lw	s3,60(sp)
     440:	03812a03          	lw	s4,56(sp)
     444:	05010113          	addi	sp,sp,80
#     action_mem_test();
     448:	0680106f          	j	14b0 <_ZL15action_mem_testv>
#   } else if (string_equals_cstr(cmd, "sds")) {
     44c:	01012503          	lw	a0,16(sp)
     450:	01412583          	lw	a1,20(sp)
     454:	00002637          	lui	a2,0x2
     458:	cb060613          	addi	a2,a2,-848 # 1cb0 <_ZNK4spanIcE8for_eachIZL12string_printS0_EUlT_E_EEvS2_.isra.0+0x450>
     45c:	c71ff0ef          	jal	cc <_ZL18string_equals_cstr4spanIcEPKc>
     460:	02050263          	beqz	a0,484 <_ZL12handle_inputhR14command_buffer+0x2a0>
# }
     464:	04812403          	lw	s0,72(sp)
     468:	04c12083          	lw	ra,76(sp)
     46c:	04412483          	lw	s1,68(sp)
     470:	04012903          	lw	s2,64(sp)
     474:	03c12983          	lw	s3,60(sp)
     478:	03812a03          	lw	s4,56(sp)
     47c:	05010113          	addi	sp,sp,80
#     action_sdcard_status();
     480:	2740106f          	j	16f4 <_ZL20action_sdcard_statusv>
#   } else if (string_equals_cstr(cmd, "sdr")) {
     484:	01012503          	lw	a0,16(sp)
     488:	01412583          	lw	a1,20(sp)
     48c:	00002637          	lui	a2,0x2
     490:	cb460613          	addi	a2,a2,-844 # 1cb4 <_ZNK4spanIcE8for_eachIZL12string_printS0_EUlT_E_EEvS2_.isra.0+0x454>
     494:	c39ff0ef          	jal	cc <_ZL18string_equals_cstr4spanIcEPKc>
     498:	02050663          	beqz	a0,4c4 <_ZL12handle_inputhR14command_buffer+0x2e0>
# }
     49c:	04812403          	lw	s0,72(sp)
#     action_sdcard_test_read(args);
     4a0:	01812503          	lw	a0,24(sp)
     4a4:	01c12583          	lw	a1,28(sp)
# }
     4a8:	04c12083          	lw	ra,76(sp)
     4ac:	04412483          	lw	s1,68(sp)
     4b0:	04012903          	lw	s2,64(sp)
     4b4:	03c12983          	lw	s3,60(sp)
     4b8:	03812a03          	lw	s4,56(sp)
     4bc:	05010113          	addi	sp,sp,80
#     action_sdcard_test_read(args);
     4c0:	1100106f          	j	15d0 <_ZL23action_sdcard_test_read4spanIcE>
#   } else if (string_equals_cstr(cmd, "sdw")) {
     4c4:	01012503          	lw	a0,16(sp)
     4c8:	01412583          	lw	a1,20(sp)
     4cc:	00002637          	lui	a2,0x2
     4d0:	cb860613          	addi	a2,a2,-840 # 1cb8 <_ZNK4spanIcE8for_eachIZL12string_printS0_EUlT_E_EEvS2_.isra.0+0x458>
     4d4:	bf9ff0ef          	jal	cc <_ZL18string_equals_cstr4spanIcEPKc>
     4d8:	02050663          	beqz	a0,504 <_ZL12handle_inputhR14command_buffer+0x320>
# }
     4dc:	04812403          	lw	s0,72(sp)
#     action_sdcard_test_write(args);
     4e0:	01812503          	lw	a0,24(sp)
     4e4:	01c12583          	lw	a1,28(sp)
# }
     4e8:	04c12083          	lw	ra,76(sp)
     4ec:	04412483          	lw	s1,68(sp)
     4f0:	04012903          	lw	s2,64(sp)
     4f4:	03c12983          	lw	s3,60(sp)
     4f8:	03812a03          	lw	s4,56(sp)
     4fc:	05010113          	addi	sp,sp,80
#     action_sdcard_test_write(args);
     500:	1600106f          	j	1660 <_ZL24action_sdcard_test_write4spanIcE>
#   } else if (string_equals_cstr(cmd, "q")) {
     504:	01012503          	lw	a0,16(sp)
     508:	01412583          	lw	a1,20(sp)
     50c:	00002637          	lui	a2,0x2
     510:	cbc60613          	addi	a2,a2,-836 # 1cbc <_ZNK4spanIcE8for_eachIZL12string_printS0_EUlT_E_EEvS2_.isra.0+0x45c>
     514:	bb9ff0ef          	jal	cc <_ZL18string_equals_cstr4spanIcEPKc>
     518:	00051863          	bnez	a0,528 <_ZL12handle_inputhR14command_buffer+0x344>
#     uart_send_cstr("not understood\r\n\r\n");
     51c:	00002537          	lui	a0,0x2
     520:	cc050513          	addi	a0,a0,-832 # 1cc0 <_ZNK4spanIcE8for_eachIZL12string_printS0_EUlT_E_EEvS2_.isra.0+0x460>
     524:	d71ff06f          	j	294 <_ZL12handle_inputhR14command_buffer+0xb0>
# }
     528:	04c12083          	lw	ra,76(sp)
     52c:	04812403          	lw	s0,72(sp)
     530:	04412483          	lw	s1,68(sp)
     534:	04012903          	lw	s2,64(sp)
     538:	03c12983          	lw	s3,60(sp)
     53c:	03812a03          	lw	s4,56(sp)
     540:	05010113          	addi	sp,sp,80
     544:	00008067          	ret

00000548 <_ZL14print_locationhh>:
# 
# static auto print_location(location_id_t const lid,
#                            entity_id_t const eid_excluded_from_output) -> void {
     548:	fd010113          	addi	sp,sp,-48
     54c:	02812423          	sw	s0,40(sp)
     550:	03212023          	sw	s2,32(sp)
     554:	02112623          	sw	ra,44(sp)
     558:	02912223          	sw	s1,36(sp)
     55c:	01312e23          	sw	s3,28(sp)
     560:	01412c23          	sw	s4,24(sp)
     564:	01512a23          	sw	s5,20(sp)
     568:	01612823          	sw	s6,16(sp)
     56c:	01712623          	sw	s7,12(sp)
     570:	01812423          	sw	s8,8(sp)
#   return objects[id];
# }
# 
# static auto location_by_id(location_id_t const id) -> location & {
#   if constexpr (safe_arrays) {
#     if (id >= sizeof(locations) / sizeof(location)) {
     574:	00400713          	li	a4,4
#                            entity_id_t const eid_excluded_from_output) -> void {
     578:	00058913          	mv	s2,a1
     57c:	00002437          	lui	s0,0x2
#     if (id >= sizeof(locations) / sizeof(location)) {
     580:	10a76663          	bltu	a4,a0,68c <_ZL14print_locationhh+0x144>
     584:	05c40793          	addi	a5,s0,92 # 205c <_ZL9locations>
#       return locations[0];
#     }
#   }
#   return locations[id];
     588:	00251413          	slli	s0,a0,0x2
     58c:	00a40433          	add	s0,s0,a0
     590:	00341413          	slli	s0,s0,0x3
     594:	00a40433          	add	s0,s0,a0
     598:	00241413          	slli	s0,s0,0x2
     59c:	00878433          	add	s0,a5,s0
#   uart_send_cstr("u r in ");
     5a0:	00002537          	lui	a0,0x2
     5a4:	cd450513          	addi	a0,a0,-812 # 1cd4 <_ZNK4spanIcE8for_eachIZL12string_printS0_EUlT_E_EEvS2_.isra.0+0x474>
     5a8:	6bd000ef          	jal	1464 <_ZL14uart_send_cstrPKc>
#   uart_send_cstr(loc.name);
     5ac:	00042503          	lw	a0,0(s0)
     5b0:	000029b7          	lui	s3,0x2
#     }
#     return {i};
#   }
# 
#   auto for_each(callable_returns_void<Type> auto f) const -> void {
#     for (size_t i = 0; i < len; ++i) {
     5b4:	00000493          	li	s1,0
     5b8:	6ad000ef          	jal	1464 <_ZL14uart_send_cstrPKc>
#   uart_send_cstr("\r\nu c: ");
     5bc:	00002537          	lui	a0,0x2
     5c0:	cdc50513          	addi	a0,a0,-804 # 1cdc <_ZNK4spanIcE8for_eachIZL12string_printS0_EUlT_E_EEvS2_.isra.0+0x47c>
     5c4:	6a1000ef          	jal	1464 <_ZL14uart_send_cstrPKc>
#         uart_send_cstr(", ");
     5c8:	00002ab7          	lui	s5,0x2
#     if (id >= sizeof(objects) / sizeof(object)) {
     5cc:	00300b13          	li	s6,3
     5d0:	fc898993          	addi	s3,s3,-56 # 1fc8 <_ZL7objects>
     5d4:	09442783          	lw	a5,148(s0)
     5d8:	0af4ee63          	bltu	s1,a5,694 <_ZL14print_locationhh+0x14c>
#     if (!counter) {
     5dc:	00049863          	bnez	s1,5ec <_ZL14print_locationhh+0xa4>
#       uart_send_cstr("nothing");
     5e0:	00002537          	lui	a0,0x2
     5e4:	ce850513          	addi	a0,a0,-792 # 1ce8 <_ZNK4spanIcE8for_eachIZL12string_printS0_EUlT_E_EEvS2_.isra.0+0x488>
     5e8:	67d000ef          	jal	1464 <_ZL14uart_send_cstrPKc>
#     uart_send_cstr("\r\n");
     5ec:	000029b7          	lui	s3,0x2
     5f0:	cd098513          	addi	a0,s3,-816 # 1cd0 <_ZNK4spanIcE8for_eachIZL12string_printS0_EUlT_E_EEvS2_.isra.0+0x470>
     5f4:	671000ef          	jal	1464 <_ZL14uart_send_cstrPKc>
#     loc.entities.for_each([&counter, eid_excluded_from_output](let id) {
     5f8:	000024b7          	lui	s1,0x2
#     mut counter = 0;
     5fc:	00000793          	li	a5,0
     600:	00000c13          	li	s8,0
#     if (id >= sizeof(entities) / sizeof(entity)) {
     604:	00200a13          	li	s4,2
     608:	fd848493          	addi	s1,s1,-40 # 1fd8 <_ZL8entities>
#         uart_send_cstr(", ");
     60c:	00002ab7          	lui	s5,0x2
     610:	0a042703          	lw	a4,160(s0)
     614:	0aec6a63          	bltu	s8,a4,6c8 <_ZL14print_locationhh+0x180>
#     if (counter != 0) {
     618:	00078863          	beqz	a5,628 <_ZL14print_locationhh+0xe0>
#       uart_send_cstr(" is here\r\n");
     61c:	00002537          	lui	a0,0x2
     620:	cf050513          	addi	a0,a0,-784 # 1cf0 <_ZNK4spanIcE8for_eachIZL12string_printS0_EUlT_E_EEvS2_.isra.0+0x490>
     624:	641000ef          	jal	1464 <_ZL14uart_send_cstrPKc>
#     uart_send_cstr("exits: ");
     628:	00002537          	lui	a0,0x2
     62c:	cfc50513          	addi	a0,a0,-772 # 1cfc <_ZNK4spanIcE8for_eachIZL12string_printS0_EUlT_E_EEvS2_.isra.0+0x49c>
     630:	635000ef          	jal	1464 <_ZL14uart_send_cstrPKc>
#     lse.for_each([&counter](let loc_link) {
     634:	00440913          	addi	s2,s0,4
     638:	00000493          	li	s1,0
#         uart_send_cstr(", ");
     63c:	00002a37          	lui	s4,0x2
     640:	01042783          	lw	a5,16(s0)
     644:	0cf4ea63          	bltu	s1,a5,718 <_ZL14print_locationhh+0x1d0>
#     if (counter == 0) {
     648:	00049863          	bnez	s1,658 <_ZL14print_locationhh+0x110>
#       uart_send_cstr("none");
     64c:	00002537          	lui	a0,0x2
     650:	d0450513          	addi	a0,a0,-764 # 1d04 <_ZNK4spanIcE8for_eachIZL12string_printS0_EUlT_E_EEvS2_.isra.0+0x4a4>
     654:	611000ef          	jal	1464 <_ZL14uart_send_cstrPKc>
# }
     658:	02812403          	lw	s0,40(sp)
     65c:	02c12083          	lw	ra,44(sp)
     660:	02412483          	lw	s1,36(sp)
     664:	02012903          	lw	s2,32(sp)
     668:	01812a03          	lw	s4,24(sp)
     66c:	01412a83          	lw	s5,20(sp)
     670:	01012b03          	lw	s6,16(sp)
     674:	00c12b83          	lw	s7,12(sp)
     678:	00812c03          	lw	s8,8(sp)
#     uart_send_cstr("\r\n");
     67c:	cd098513          	addi	a0,s3,-816
# }
     680:	01c12983          	lw	s3,28(sp)
     684:	03010113          	addi	sp,sp,48
#     uart_send_cstr("\r\n");
     688:	5dd0006f          	j	1464 <_ZL14uart_send_cstrPKc>
     68c:	05c40413          	addi	s0,s0,92
     690:	f11ff06f          	j	5a0 <_ZL14print_locationhh+0x58>
#       f(data[i]);
     694:	009407b3          	add	a5,s0,s1
     698:	0147ca03          	lbu	s4,20(a5)
#       if (counter++) {
     69c:	00048663          	beqz	s1,6a8 <_ZL14print_locationhh+0x160>
#         uart_send_cstr(", ");
     6a0:	ce4a8513          	addi	a0,s5,-796 # 1ce4 <_ZNK4spanIcE8for_eachIZL12string_printS0_EUlT_E_EEvS2_.isra.0+0x484>
     6a4:	5c1000ef          	jal	1464 <_ZL14uart_send_cstrPKc>
#       return objects[0];
     6a8:	00098793          	mv	a5,s3
#     if (id >= sizeof(objects) / sizeof(object)) {
     6ac:	014b6663          	bltu	s6,s4,6b8 <_ZL14print_locationhh+0x170>
#   return objects[id];
     6b0:	002a1a13          	slli	s4,s4,0x2
     6b4:	014987b3          	add	a5,s3,s4
#       uart_send_cstr(object_by_id(id).name);
     6b8:	0007a503          	lw	a0,0(a5)
#     for (size_t i = 0; i < len; ++i) {
     6bc:	00148493          	addi	s1,s1,1
     6c0:	5a5000ef          	jal	1464 <_ZL14uart_send_cstrPKc>
     6c4:	f11ff06f          	j	5d4 <_ZL14print_locationhh+0x8c>
#       f(data[i]);
     6c8:	01840733          	add	a4,s0,s8
     6cc:	09874b83          	lbu	s7,152(a4)
#       if (id == eid_excluded_from_output) {
     6d0:	05790063          	beq	s2,s7,710 <_ZL14print_locationhh+0x1c8>
#       if (counter++) {
     6d4:	00178b13          	addi	s6,a5,1
     6d8:	00078663          	beqz	a5,6e4 <_ZL14print_locationhh+0x19c>
#         uart_send_cstr(", ");
     6dc:	ce4a8513          	addi	a0,s5,-796
     6e0:	585000ef          	jal	1464 <_ZL14uart_send_cstrPKc>
#       return entities[0];
     6e4:	00048793          	mv	a5,s1
#     if (id >= sizeof(entities) / sizeof(entity)) {
     6e8:	017a6e63          	bltu	s4,s7,704 <_ZL14print_locationhh+0x1bc>
#   return entities[id];
     6ec:	001b9793          	slli	a5,s7,0x1
     6f0:	017787b3          	add	a5,a5,s7
     6f4:	00279793          	slli	a5,a5,0x2
     6f8:	417787b3          	sub	a5,a5,s7
     6fc:	00279793          	slli	a5,a5,0x2
     700:	00f487b3          	add	a5,s1,a5
#       uart_send_cstr(entity_by_id(id).name);
     704:	0007a503          	lw	a0,0(a5)
     708:	55d000ef          	jal	1464 <_ZL14uart_send_cstrPKc>
#       if (counter++) {
     70c:	000b0793          	mv	a5,s6
#     for (size_t i = 0; i < len; ++i) {
     710:	001c0c13          	addi	s8,s8,1
     714:	efdff06f          	j	610 <_ZL14print_locationhh+0xc8>
     718:	00094a83          	lbu	s5,0(s2)
#       if (counter++) {
     71c:	00048663          	beqz	s1,728 <_ZL14print_locationhh+0x1e0>
#         uart_send_cstr(", ");
     720:	ce4a0513          	addi	a0,s4,-796 # 1ce4 <_ZNK4spanIcE8for_eachIZL12string_printS0_EUlT_E_EEvS2_.isra.0+0x484>
     724:	541000ef          	jal	1464 <_ZL14uart_send_cstrPKc>
#       uart_send_cstr(link_by_id(loc_link.link));
     728:	000a8513          	mv	a0,s5
     72c:	50d000ef          	jal	1438 <_ZL10link_by_idh>
     730:	535000ef          	jal	1464 <_ZL14uart_send_cstrPKc>
     734:	00148493          	addi	s1,s1,1
     738:	00290913          	addi	s2,s2,2
     73c:	f05ff06f          	j	640 <_ZL14print_locationhh+0xf8>

00000740 <_ZL16action_inventoryh>:
# static auto action_inventory(entity_id_t const eid) -> void {
     740:	fe010113          	addi	sp,sp,-32
     744:	00912a23          	sw	s1,20(sp)
     748:	00050493          	mv	s1,a0
#   uart_send_cstr("u have: ");
     74c:	00002537          	lui	a0,0x2
     750:	d0c50513          	addi	a0,a0,-756 # 1d0c <_ZNK4spanIcE8for_eachIZL12string_printS0_EUlT_E_EEvS2_.isra.0+0x4ac>
# static auto action_inventory(entity_id_t const eid) -> void {
     754:	00812c23          	sw	s0,24(sp)
     758:	00112e23          	sw	ra,28(sp)
     75c:	01212823          	sw	s2,16(sp)
     760:	01312623          	sw	s3,12(sp)
     764:	01412423          	sw	s4,8(sp)
     768:	01512223          	sw	s5,4(sp)
#   uart_send_cstr("u have: ");
     76c:	4f9000ef          	jal	1464 <_ZL14uart_send_cstrPKc>
#     if (id >= sizeof(entities) / sizeof(entity)) {
     770:	00200713          	li	a4,2
     774:	00002437          	lui	s0,0x2
     778:	06976c63          	bltu	a4,s1,7f0 <_ZL16action_inventoryh+0xb0>
     77c:	fd840793          	addi	a5,s0,-40 # 1fd8 <_ZL8entities>
#   return entities[id];
     780:	00149413          	slli	s0,s1,0x1
     784:	00940433          	add	s0,s0,s1
     788:	00241413          	slli	s0,s0,0x2
     78c:	40940433          	sub	s0,s0,s1
     790:	00241413          	slli	s0,s0,0x2
     794:	00878433          	add	s0,a5,s0
     798:	00002937          	lui	s2,0x2
     79c:	00000493          	li	s1,0
#       uart_send_cstr(", ");
     7a0:	00002a37          	lui	s4,0x2
#     if (id >= sizeof(objects) / sizeof(object)) {
     7a4:	00300a93          	li	s5,3
     7a8:	fc890913          	addi	s2,s2,-56 # 1fc8 <_ZL7objects>
     7ac:	02842783          	lw	a5,40(s0)
     7b0:	04f4e463          	bltu	s1,a5,7f8 <_ZL16action_inventoryh+0xb8>
#   if (counter == 0) {
     7b4:	00049863          	bnez	s1,7c4 <_ZL16action_inventoryh+0x84>
#     uart_send_cstr("nothing");
     7b8:	00002537          	lui	a0,0x2
     7bc:	ce850513          	addi	a0,a0,-792 # 1ce8 <_ZNK4spanIcE8for_eachIZL12string_printS0_EUlT_E_EEvS2_.isra.0+0x488>
     7c0:	4a5000ef          	jal	1464 <_ZL14uart_send_cstrPKc>
# }
     7c4:	01812403          	lw	s0,24(sp)
     7c8:	01c12083          	lw	ra,28(sp)
     7cc:	01412483          	lw	s1,20(sp)
     7d0:	01012903          	lw	s2,16(sp)
     7d4:	00c12983          	lw	s3,12(sp)
     7d8:	00812a03          	lw	s4,8(sp)
     7dc:	00412a83          	lw	s5,4(sp)
#   uart_send_cstr("\r\n");
     7e0:	00002537          	lui	a0,0x2
     7e4:	cd050513          	addi	a0,a0,-816 # 1cd0 <_ZNK4spanIcE8for_eachIZL12string_printS0_EUlT_E_EEvS2_.isra.0+0x470>
# }
     7e8:	02010113          	addi	sp,sp,32
#   uart_send_cstr("\r\n");
     7ec:	4790006f          	j	1464 <_ZL14uart_send_cstrPKc>
     7f0:	fd840413          	addi	s0,s0,-40
     7f4:	fa5ff06f          	j	798 <_ZL16action_inventoryh+0x58>
#       f(data[i]);
     7f8:	009407b3          	add	a5,s0,s1
     7fc:	0087c983          	lbu	s3,8(a5)
#     if (counter++) {
     800:	00048663          	beqz	s1,80c <_ZL16action_inventoryh+0xcc>
#       uart_send_cstr(", ");
     804:	ce4a0513          	addi	a0,s4,-796 # 1ce4 <_ZNK4spanIcE8for_eachIZL12string_printS0_EUlT_E_EEvS2_.isra.0+0x484>
     808:	45d000ef          	jal	1464 <_ZL14uart_send_cstrPKc>
#       return objects[0];
     80c:	00090793          	mv	a5,s2
#     if (id >= sizeof(objects) / sizeof(object)) {
     810:	013ae663          	bltu	s5,s3,81c <_ZL16action_inventoryh+0xdc>
#   return objects[id];
     814:	00299993          	slli	s3,s3,0x2
     818:	013907b3          	add	a5,s2,s3
#     uart_send_cstr(object_by_id(id).name);
     81c:	0007a503          	lw	a0,0(a5)
#     for (size_t i = 0; i < len; ++i) {
     820:	00148493          	addi	s1,s1,1
     824:	441000ef          	jal	1464 <_ZL14uart_send_cstrPKc>
     828:	f85ff06f          	j	7ac <_ZL16action_inventoryh+0x6c>

0000082c <_ZL11action_takeh4spanIcE>:
# static auto action_take(entity_id_t const eid, string const args) -> void {
     82c:	fb010113          	addi	sp,sp,-80
     830:	04112623          	sw	ra,76(sp)
     834:	04812423          	sw	s0,72(sp)
     838:	04912223          	sw	s1,68(sp)
     83c:	05212023          	sw	s2,64(sp)
     840:	03312e23          	sw	s3,60(sp)
     844:	03412c23          	sw	s4,56(sp)
     848:	03512a23          	sw	s5,52(sp)
     84c:	03612823          	sw	s6,48(sp)
     850:	03712623          	sw	s7,44(sp)
     854:	03812423          	sw	s8,40(sp)
     858:	00b12423          	sw	a1,8(sp)
     85c:	00c12623          	sw	a2,12(sp)
#   if (args.is_empty()) {
     860:	02b61e63          	bne	a2,a1,89c <_ZL11action_takeh4spanIcE+0x70>
#     uart_send_cstr("take what\r\n\r\n");
     864:	00002537          	lui	a0,0x2
     868:	d1850513          	addi	a0,a0,-744 # 1d18 <_ZNK4spanIcE8for_eachIZL12string_printS0_EUlT_E_EEvS2_.isra.0+0x4b8>
# }
     86c:	04812403          	lw	s0,72(sp)
     870:	04c12083          	lw	ra,76(sp)
     874:	04412483          	lw	s1,68(sp)
     878:	04012903          	lw	s2,64(sp)
     87c:	03c12983          	lw	s3,60(sp)
     880:	03812a03          	lw	s4,56(sp)
     884:	03412a83          	lw	s5,52(sp)
     888:	03012b03          	lw	s6,48(sp)
     88c:	02c12b83          	lw	s7,44(sp)
     890:	02812c03          	lw	s8,40(sp)
     894:	05010113          	addi	sp,sp,80
#     uart_send_cstr(" not here\r\n\r\n");
     898:	3cd0006f          	j	1464 <_ZL14uart_send_cstrPKc>
     89c:	000024b7          	lui	s1,0x2
#     if (id >= sizeof(entities) / sizeof(entity)) {
     8a0:	00200713          	li	a4,2
     8a4:	fd848793          	addi	a5,s1,-40 # 1fd8 <_ZL8entities>
     8a8:	00058b13          	mv	s6,a1
     8ac:	00060a93          	mv	s5,a2
#       return entities[0];
     8b0:	fd848493          	addi	s1,s1,-40
#     if (id >= sizeof(entities) / sizeof(entity)) {
     8b4:	00a76e63          	bltu	a4,a0,8d0 <_ZL11action_takeh4spanIcE+0xa4>
#   return entities[id];
     8b8:	00151493          	slli	s1,a0,0x1
     8bc:	00a484b3          	add	s1,s1,a0
     8c0:	00249493          	slli	s1,s1,0x2
     8c4:	40a484b3          	sub	s1,s1,a0
     8c8:	00249493          	slli	s1,s1,0x2
     8cc:	009784b3          	add	s1,a5,s1
#   mut &lso = location_by_id(ent.location).objects;
     8d0:	0044c783          	lbu	a5,4(s1)
#     if (id >= sizeof(locations) / sizeof(location)) {
     8d4:	00002437          	lui	s0,0x2
     8d8:	00400693          	li	a3,4
     8dc:	05c40713          	addi	a4,s0,92 # 205c <_ZL9locations>
#       return locations[0];
     8e0:	05c40413          	addi	s0,s0,92
#     if (id >= sizeof(locations) / sizeof(location)) {
     8e4:	00f6ee63          	bltu	a3,a5,900 <_ZL11action_takeh4spanIcE+0xd4>
#   return locations[id];
     8e8:	00279413          	slli	s0,a5,0x2
     8ec:	00f40433          	add	s0,s0,a5
     8f0:	00341413          	slli	s0,s0,0x3
     8f4:	00f40433          	add	s0,s0,a5
     8f8:	00241413          	slli	s0,s0,0x2
     8fc:	00870433          	add	s0,a4,s0
#     for (; i < len; ++i) {
     900:	09442983          	lw	s3,148(s0)
     904:	00002bb7          	lui	s7,0x2
#     size_t i = 0;
     908:	00000a13          	li	s4,0
#     if (id >= sizeof(objects) / sizeof(object)) {
     90c:	00300c13          	li	s8,3
     910:	fc8b8b93          	addi	s7,s7,-56 # 1fc8 <_ZL7objects>
#     for (; i < len; ++i) {
     914:	033a1063          	bne	s4,s3,934 <_ZL11action_takeh4spanIcE+0x108>
#   str.for_each([](let ch) { uart_send_char(ch); });
     918:	01810513          	addi	a0,sp,24
     91c:	01612c23          	sw	s6,24(sp)
     920:	01512e23          	sw	s5,28(sp)
     924:	73d000ef          	jal	1860 <_ZNK4spanIcE8for_eachIZL12string_printS0_EUlT_E_EEvS2_.isra.0>
#     uart_send_cstr(" not here\r\n\r\n");
     928:	00002537          	lui	a0,0x2
     92c:	d2850513          	addi	a0,a0,-728 # 1d28 <_ZNK4spanIcE8for_eachIZL12string_printS0_EUlT_E_EEvS2_.isra.0+0x4c8>
     930:	f3dff06f          	j	86c <_ZL11action_takeh4spanIcE+0x40>
#       if (!f(data[i])) {
     934:	01440933          	add	s2,s0,s4
     938:	01494783          	lbu	a5,20(s2)
#       return objects[0];
     93c:	000b8713          	mv	a4,s7
#     if (id >= sizeof(objects) / sizeof(object)) {
     940:	00fc6663          	bltu	s8,a5,94c <_ZL11action_takeh4spanIcE+0x120>
#   return objects[id];
     944:	00279793          	slli	a5,a5,0x2
     948:	00fb8733          	add	a4,s7,a5
#     if (string_equals_cstr(args, object_by_id(id).name)) {
     94c:	00072603          	lw	a2,0(a4)
     950:	00812503          	lw	a0,8(sp)
     954:	00c12583          	lw	a1,12(sp)
     958:	f74ff0ef          	jal	cc <_ZL18string_equals_cstr4spanIcEPKc>
     95c:	00051663          	bnez	a0,968 <_ZL11action_takeh4spanIcE+0x13c>
#     for (; i < len; ++i) {
     960:	001a0a13          	addi	s4,s4,1
     964:	fb1ff06f          	j	914 <_ZL11action_takeh4spanIcE+0xe8>
#     return {};
     968:	00000713          	li	a4,0
#     if (pos.index < len) {
     96c:	013a7463          	bgeu	s4,s3,974 <_ZL11action_takeh4spanIcE+0x148>
#       return data[pos.index];
     970:	01494703          	lbu	a4,20(s2)
#     if (len == Size - 1) {
     974:	0284a783          	lw	a5,40(s1)
     978:	01f00693          	li	a3,31
     97c:	02d78863          	beq	a5,a3,9ac <_ZL11action_takeh4spanIcE+0x180>
#     data[len] = elem;
     980:	00f486b3          	add	a3,s1,a5
     984:	00e68423          	sb	a4,8(a3)
#     ++len;
     988:	00178793          	addi	a5,a5,1
     98c:	02f4a423          	sw	a5,40(s1)
#     if (pos.index >= len) {
     990:	013a7e63          	bgeu	s4,s3,9ac <_ZL11action_takeh4spanIcE+0x180>
#     --len;
     994:	fff98793          	addi	a5,s3,-1
     998:	08f42a23          	sw	a5,148(s0)
     99c:	008989b3          	add	s3,s3,s0
     9a0:	00090793          	mv	a5,s2
#     for (size_t i = pos.index; i < len; ++i) {
     9a4:	00178793          	addi	a5,a5,1
     9a8:	03379a63          	bne	a5,s3,9dc <_ZL11action_takeh4spanIcE+0x1b0>
# }
     9ac:	04c12083          	lw	ra,76(sp)
     9b0:	04812403          	lw	s0,72(sp)
     9b4:	04412483          	lw	s1,68(sp)
     9b8:	04012903          	lw	s2,64(sp)
     9bc:	03c12983          	lw	s3,60(sp)
     9c0:	03812a03          	lw	s4,56(sp)
     9c4:	03412a83          	lw	s5,52(sp)
     9c8:	03012b03          	lw	s6,48(sp)
     9cc:	02c12b83          	lw	s7,44(sp)
     9d0:	02812c03          	lw	s8,40(sp)
     9d4:	05010113          	addi	sp,sp,80
     9d8:	00008067          	ret
#       data[i] = data[i + 1];
     9dc:	0147c703          	lbu	a4,20(a5)
     9e0:	00e789a3          	sb	a4,19(a5)
#     for (size_t i = pos.index; i < len; ++i) {
     9e4:	fc1ff06f          	j	9a4 <_ZL11action_takeh4spanIcE+0x178>

000009e8 <_ZL11action_droph4spanIcE>:
# static auto action_drop(entity_id_t const eid, string const args) -> void {
     9e8:	fb010113          	addi	sp,sp,-80
     9ec:	04112623          	sw	ra,76(sp)
     9f0:	04812423          	sw	s0,72(sp)
     9f4:	04912223          	sw	s1,68(sp)
     9f8:	05212023          	sw	s2,64(sp)
     9fc:	03312e23          	sw	s3,60(sp)
     a00:	03412c23          	sw	s4,56(sp)
     a04:	03512a23          	sw	s5,52(sp)
     a08:	03612823          	sw	s6,48(sp)
     a0c:	03712623          	sw	s7,44(sp)
     a10:	00b12423          	sw	a1,8(sp)
     a14:	00c12623          	sw	a2,12(sp)
#   if (args.size() == 0) {
     a18:	02b61c63          	bne	a2,a1,a50 <_ZL11action_droph4spanIcE+0x68>
#     uart_send_cstr("drop what\r\n\r\n");
     a1c:	00002537          	lui	a0,0x2
     a20:	d3850513          	addi	a0,a0,-712 # 1d38 <_ZNK4spanIcE8for_eachIZL12string_printS0_EUlT_E_EEvS2_.isra.0+0x4d8>
# }
     a24:	04812403          	lw	s0,72(sp)
     a28:	04c12083          	lw	ra,76(sp)
     a2c:	04412483          	lw	s1,68(sp)
     a30:	04012903          	lw	s2,64(sp)
     a34:	03c12983          	lw	s3,60(sp)
     a38:	03812a03          	lw	s4,56(sp)
     a3c:	03412a83          	lw	s5,52(sp)
     a40:	03012b03          	lw	s6,48(sp)
     a44:	02c12b83          	lw	s7,44(sp)
     a48:	05010113          	addi	sp,sp,80
#     uart_send_cstr("\r\n\r\n");
     a4c:	2190006f          	j	1464 <_ZL14uart_send_cstrPKc>
     a50:	00002437          	lui	s0,0x2
#     if (id >= sizeof(entities) / sizeof(entity)) {
     a54:	00200713          	li	a4,2
     a58:	fd840793          	addi	a5,s0,-40 # 1fd8 <_ZL8entities>
     a5c:	00058a93          	mv	s5,a1
     a60:	00060a13          	mv	s4,a2
#       return entities[0];
     a64:	fd840413          	addi	s0,s0,-40
#     if (id >= sizeof(entities) / sizeof(entity)) {
     a68:	00a76e63          	bltu	a4,a0,a84 <_ZL11action_droph4spanIcE+0x9c>
#   return entities[id];
     a6c:	00151413          	slli	s0,a0,0x1
     a70:	00a40433          	add	s0,s0,a0
     a74:	00241413          	slli	s0,s0,0x2
     a78:	40a40433          	sub	s0,s0,a0
     a7c:	00241413          	slli	s0,s0,0x2
     a80:	00878433          	add	s0,a5,s0
#     for (; i < len; ++i) {
     a84:	02842903          	lw	s2,40(s0)
     a88:	00002b37          	lui	s6,0x2
#     size_t i = 0;
     a8c:	00000993          	li	s3,0
#     if (id >= sizeof(objects) / sizeof(object)) {
     a90:	00300b93          	li	s7,3
     a94:	fc8b0b13          	addi	s6,s6,-56 # 1fc8 <_ZL7objects>
#     for (; i < len; ++i) {
     a98:	03299663          	bne	s3,s2,ac4 <_ZL11action_droph4spanIcE+0xdc>
#     uart_send_cstr("u don't have ");
     a9c:	00002537          	lui	a0,0x2
     aa0:	d4850513          	addi	a0,a0,-696 # 1d48 <_ZNK4spanIcE8for_eachIZL12string_printS0_EUlT_E_EEvS2_.isra.0+0x4e8>
     aa4:	1c1000ef          	jal	1464 <_ZL14uart_send_cstrPKc>
#   str.for_each([](let ch) { uart_send_char(ch); });
     aa8:	01810513          	addi	a0,sp,24
     aac:	01512c23          	sw	s5,24(sp)
     ab0:	01412e23          	sw	s4,28(sp)
     ab4:	5ad000ef          	jal	1860 <_ZNK4spanIcE8for_eachIZL12string_printS0_EUlT_E_EEvS2_.isra.0>
#     uart_send_cstr("\r\n\r\n");
     ab8:	00002537          	lui	a0,0x2
     abc:	8cc50513          	addi	a0,a0,-1844 # 18cc <_ZNK4spanIcE8for_eachIZL12string_printS0_EUlT_E_EEvS2_.isra.0+0x6c>
     ac0:	f65ff06f          	j	a24 <_ZL11action_droph4spanIcE+0x3c>
#       if (!f(data[i])) {
     ac4:	013404b3          	add	s1,s0,s3
     ac8:	0084c783          	lbu	a5,8(s1)
#       return objects[0];
     acc:	000b0713          	mv	a4,s6
#     if (id >= sizeof(objects) / sizeof(object)) {
     ad0:	00fbe663          	bltu	s7,a5,adc <_ZL11action_droph4spanIcE+0xf4>
#   return objects[id];
     ad4:	00279793          	slli	a5,a5,0x2
     ad8:	00fb0733          	add	a4,s6,a5
#     if (string_equals_cstr(args, object_by_id(id).name)) {
     adc:	00072603          	lw	a2,0(a4)
     ae0:	00812503          	lw	a0,8(sp)
     ae4:	00c12583          	lw	a1,12(sp)
     ae8:	de4ff0ef          	jal	cc <_ZL18string_equals_cstr4spanIcEPKc>
     aec:	00051663          	bnez	a0,af8 <_ZL11action_droph4spanIcE+0x110>
#     for (; i < len; ++i) {
     af0:	00198993          	addi	s3,s3,1
     af4:	fa5ff06f          	j	a98 <_ZL11action_droph4spanIcE+0xb0>
#   if (location_by_id(ent.location).objects.add(lso.at(pos))) {
     af8:	00444703          	lbu	a4,4(s0)
#     if (id >= sizeof(locations) / sizeof(location)) {
     afc:	000027b7          	lui	a5,0x2
     b00:	00400613          	li	a2,4
     b04:	05c78693          	addi	a3,a5,92 # 205c <_ZL9locations>
#       return locations[0];
     b08:	05c78793          	addi	a5,a5,92
#     if (id >= sizeof(locations) / sizeof(location)) {
     b0c:	00e66e63          	bltu	a2,a4,b28 <_ZL11action_droph4spanIcE+0x140>
#   return locations[id];
     b10:	00271793          	slli	a5,a4,0x2
     b14:	00e787b3          	add	a5,a5,a4
     b18:	00379793          	slli	a5,a5,0x3
     b1c:	00e787b3          	add	a5,a5,a4
     b20:	00279793          	slli	a5,a5,0x2
     b24:	00f687b3          	add	a5,a3,a5
#     return {};
     b28:	00000693          	li	a3,0
#     if (pos.index < len) {
     b2c:	0129f463          	bgeu	s3,s2,b34 <_ZL11action_droph4spanIcE+0x14c>
#       return data[pos.index];
     b30:	0084c683          	lbu	a3,8(s1)
#     if (len == Size - 1) {
     b34:	0947a703          	lw	a4,148(a5)
     b38:	07f00613          	li	a2,127
     b3c:	02c70863          	beq	a4,a2,b6c <_ZL11action_droph4spanIcE+0x184>
#     data[len] = elem;
     b40:	00e78633          	add	a2,a5,a4
     b44:	00d60a23          	sb	a3,20(a2)
#     ++len;
     b48:	00170713          	addi	a4,a4,1
     b4c:	08e7aa23          	sw	a4,148(a5)
#     if (pos.index >= len) {
     b50:	0129fe63          	bgeu	s3,s2,b6c <_ZL11action_droph4spanIcE+0x184>
#     --len;
     b54:	fff90793          	addi	a5,s2,-1
     b58:	02f42423          	sw	a5,40(s0)
     b5c:	00890933          	add	s2,s2,s0
     b60:	00048793          	mv	a5,s1
#     for (size_t i = pos.index; i < len; ++i) {
     b64:	00178793          	addi	a5,a5,1
     b68:	03279863          	bne	a5,s2,b98 <_ZL11action_droph4spanIcE+0x1b0>
# }
     b6c:	04c12083          	lw	ra,76(sp)
     b70:	04812403          	lw	s0,72(sp)
     b74:	04412483          	lw	s1,68(sp)
     b78:	04012903          	lw	s2,64(sp)
     b7c:	03c12983          	lw	s3,60(sp)
     b80:	03812a03          	lw	s4,56(sp)
     b84:	03412a83          	lw	s5,52(sp)
     b88:	03012b03          	lw	s6,48(sp)
     b8c:	02c12b83          	lw	s7,44(sp)
     b90:	05010113          	addi	sp,sp,80
     b94:	00008067          	ret
#       data[i] = data[i + 1];
     b98:	0087c703          	lbu	a4,8(a5)
     b9c:	00e783a3          	sb	a4,7(a5)
#     for (size_t i = pos.index; i < len; ++i) {
     ba0:	fc5ff06f          	j	b64 <_ZL11action_droph4spanIcE+0x17c>

00000ba4 <_ZL9action_gohh>:
#     if (id >= sizeof(entities) / sizeof(entity)) {
     ba4:	000026b7          	lui	a3,0x2
     ba8:	00200713          	li	a4,2
     bac:	fd868793          	addi	a5,a3,-40 # 1fd8 <_ZL8entities>
#       return entities[0];
     bb0:	fd868693          	addi	a3,a3,-40
#     if (id >= sizeof(entities) / sizeof(entity)) {
     bb4:	00a76e63          	bltu	a4,a0,bd0 <_ZL9action_gohh+0x2c>
#   return entities[id];
     bb8:	00151693          	slli	a3,a0,0x1
     bbc:	00a686b3          	add	a3,a3,a0
     bc0:	00269693          	slli	a3,a3,0x2
     bc4:	40a686b3          	sub	a3,a3,a0
     bc8:	00269693          	slli	a3,a3,0x2
     bcc:	00d786b3          	add	a3,a5,a3
#   mut &loc = location_by_id(ent.location);
     bd0:	0046c703          	lbu	a4,4(a3)
#     if (id >= sizeof(locations) / sizeof(location)) {
     bd4:	000027b7          	lui	a5,0x2
     bd8:	00400613          	li	a2,4
     bdc:	05c78813          	addi	a6,a5,92 # 205c <_ZL9locations>
#       return locations[0];
     be0:	05c78793          	addi	a5,a5,92
#     if (id >= sizeof(locations) / sizeof(location)) {
     be4:	00e66e63          	bltu	a2,a4,c00 <_ZL9action_gohh+0x5c>
#   return locations[id];
     be8:	00271793          	slli	a5,a4,0x2
     bec:	00e787b3          	add	a5,a5,a4
     bf0:	00379793          	slli	a5,a5,0x3
     bf4:	00e787b3          	add	a5,a5,a4
     bf8:	00279793          	slli	a5,a5,0x2
     bfc:	00f807b3          	add	a5,a6,a5
#     for (; i < len; ++i) {
     c00:	0107a883          	lw	a7,16(a5)
     c04:	00478613          	addi	a2,a5,4
#     size_t i = 0;
     c08:	00000713          	li	a4,0
#     for (; i < len; ++i) {
     c0c:	01171863          	bne	a4,a7,c1c <_ZL9action_gohh+0x78>
#     uart_send_cstr("cannot go there\r\n\r\n");
     c10:	00002537          	lui	a0,0x2
     c14:	d5850513          	addi	a0,a0,-680 # 1d58 <_ZNK4spanIcE8for_eachIZL12string_printS0_EUlT_E_EEvS2_.isra.0+0x4f8>
     c18:	04d0006f          	j	1464 <_ZL14uart_send_cstrPKc>
#     if (lnk.link == link_id) {
     c1c:	00064303          	lbu	t1,0(a2)
     c20:	00260613          	addi	a2,a2,2
     c24:	00b30663          	beq	t1,a1,c30 <_ZL9action_gohh+0x8c>
     c28:	00170713          	addi	a4,a4,1
     c2c:	fe1ff06f          	j	c0c <_ZL9action_gohh+0x68>
#     if (pos.index < len) {
     c30:	07177863          	bgeu	a4,a7,ca0 <_ZL9action_gohh+0xfc>
#       return data[pos.index];
     c34:	00171713          	slli	a4,a4,0x1
     c38:	00e78733          	add	a4,a5,a4
     c3c:	00574603          	lbu	a2,5(a4)
#     if (id >= sizeof(locations) / sizeof(location)) {
     c40:	00400593          	li	a1,4
#       return locations[0];
     c44:	00080713          	mv	a4,a6
#     if (id >= sizeof(locations) / sizeof(location)) {
     c48:	00c5ee63          	bltu	a1,a2,c64 <_ZL9action_gohh+0xc0>
#   return locations[id];
     c4c:	00261713          	slli	a4,a2,0x2
     c50:	00c70733          	add	a4,a4,a2
     c54:	00371713          	slli	a4,a4,0x3
     c58:	00c70733          	add	a4,a4,a2
     c5c:	00271713          	slli	a4,a4,0x2
     c60:	00e80733          	add	a4,a6,a4
#     if (len == Size - 1) {
     c64:	0a072583          	lw	a1,160(a4)
     c68:	00700813          	li	a6,7
     c6c:	07058463          	beq	a1,a6,cd4 <_ZL9action_gohh+0x130>
#     data[len] = elem;
     c70:	00b70833          	add	a6,a4,a1
     c74:	08a80c23          	sb	a0,152(a6)
#     ++len;
     c78:	00158593          	addi	a1,a1,1
     c7c:	0ab72023          	sw	a1,160(a4)
#     for (size_t i = 0; i < len; ++i) {
     c80:	00000813          	li	a6,0
     c84:	0a07a583          	lw	a1,160(a5)
     c88:	02b87a63          	bgeu	a6,a1,cbc <_ZL9action_gohh+0x118>
#       if (data[i] != elem) {
     c8c:	01078733          	add	a4,a5,a6
     c90:	09874883          	lbu	a7,152(a4)
     c94:	00a88a63          	beq	a7,a0,ca8 <_ZL9action_gohh+0x104>
#     for (size_t i = 0; i < len; ++i) {
     c98:	00180813          	addi	a6,a6,1
     c9c:	fe9ff06f          	j	c84 <_ZL9action_gohh+0xe0>
#     return {};
     ca0:	00000613          	li	a2,0
     ca4:	fa9ff06f          	j	c4c <_ZL9action_gohh+0xa8>
#       --len;
     ca8:	fff58593          	addi	a1,a1,-1
     cac:	0ab7a023          	sw	a1,160(a5)
#       for (size_t j = i; j < len; ++j) {
     cb0:	00170513          	addi	a0,a4,1
     cb4:	40f70733          	sub	a4,a4,a5
     cb8:	00b76663          	bltu	a4,a1,cc4 <_ZL9action_gohh+0x120>
#     ent.location = loc_exit.location;
     cbc:	00c68223          	sb	a2,4(a3)
     cc0:	00008067          	ret
#         data[j] = data[j + 1];
     cc4:	09854703          	lbu	a4,152(a0)
     cc8:	08e50ba3          	sb	a4,151(a0)
     ccc:	00050713          	mv	a4,a0
     cd0:	fe1ff06f          	j	cb0 <_ZL9action_gohh+0x10c>
# }
     cd4:	00008067          	ret

00000cd8 <_ZL11action_giveh4spanIcE>:
# static auto action_give(entity_id_t const eid, string const args) -> void {
     cd8:	f8010113          	addi	sp,sp,-128
     cdc:	06912a23          	sw	s1,116(sp)
     ce0:	00050493          	mv	s1,a0
#   let w1 = string_next_word(args);
     ce4:	03010513          	addi	a0,sp,48
# static auto action_give(entity_id_t const eid, string const args) -> void {
     ce8:	07212823          	sw	s2,112(sp)
     cec:	07312623          	sw	s3,108(sp)
     cf0:	06112e23          	sw	ra,124(sp)
     cf4:	06812c23          	sw	s0,120(sp)
     cf8:	07412423          	sw	s4,104(sp)
     cfc:	07512223          	sw	s5,100(sp)
     d00:	07612023          	sw	s6,96(sp)
     d04:	05712e23          	sw	s7,92(sp)
     d08:	05812c23          	sw	s8,88(sp)
     d0c:	05912a23          	sw	s9,84(sp)
     d10:	05a12823          	sw	s10,80(sp)
     d14:	00b12423          	sw	a1,8(sp)
     d18:	00c12623          	sw	a2,12(sp)
#   let w1 = string_next_word(args);
     d1c:	c18ff0ef          	jal	134 <_ZL16string_next_word4spanIcE>
#   let obj_nm = w1.word;
     d20:	03012903          	lw	s2,48(sp)
     d24:	03412983          	lw	s3,52(sp)
     d28:	01212c23          	sw	s2,24(sp)
     d2c:	01312e23          	sw	s3,28(sp)
#   if (obj_nm.is_empty()) {
     d30:	05299263          	bne	s3,s2,d74 <_ZL11action_giveh4spanIcE+0x9c>
#     uart_send_cstr("give what\r\n\r\n");
     d34:	00002537          	lui	a0,0x2
     d38:	d6c50513          	addi	a0,a0,-660 # 1d6c <_ZNK4spanIcE8for_eachIZL12string_printS0_EUlT_E_EEvS2_.isra.0+0x50c>
# }
     d3c:	07812403          	lw	s0,120(sp)
     d40:	07c12083          	lw	ra,124(sp)
     d44:	07412483          	lw	s1,116(sp)
     d48:	07012903          	lw	s2,112(sp)
     d4c:	06c12983          	lw	s3,108(sp)
     d50:	06812a03          	lw	s4,104(sp)
     d54:	06412a83          	lw	s5,100(sp)
     d58:	06012b03          	lw	s6,96(sp)
     d5c:	05c12b83          	lw	s7,92(sp)
     d60:	05812c03          	lw	s8,88(sp)
     d64:	05412c83          	lw	s9,84(sp)
     d68:	05012d03          	lw	s10,80(sp)
     d6c:	08010113          	addi	sp,sp,128
#     uart_send_cstr(" is not here\r\n\r\n");
     d70:	6f40006f          	j	1464 <_ZL14uart_send_cstrPKc>
#   let w2 = string_next_word(w1.rem);
     d74:	03812583          	lw	a1,56(sp)
     d78:	03c12603          	lw	a2,60(sp)
     d7c:	04010513          	addi	a0,sp,64
     d80:	bb4ff0ef          	jal	134 <_ZL16string_next_word4spanIcE>
#   let to_ent_nm = w2.word;
     d84:	04012a83          	lw	s5,64(sp)
     d88:	04412b03          	lw	s6,68(sp)
     d8c:	03512023          	sw	s5,32(sp)
     d90:	03612223          	sw	s6,36(sp)
#   if (to_ent_nm.is_empty()) {
     d94:	015b1863          	bne	s6,s5,da4 <_ZL11action_giveh4spanIcE+0xcc>
#     uart_send_cstr("give to whom\r\n\r\n");
     d98:	00002537          	lui	a0,0x2
     d9c:	d7c50513          	addi	a0,a0,-644 # 1d7c <_ZNK4spanIcE8for_eachIZL12string_printS0_EUlT_E_EEvS2_.isra.0+0x51c>
     da0:	f9dff06f          	j	d3c <_ZL11action_giveh4spanIcE+0x64>
#     if (id >= sizeof(entities) / sizeof(entity)) {
     da4:	00002437          	lui	s0,0x2
     da8:	00200793          	li	a5,2
     dac:	fd840a13          	addi	s4,s0,-40 # 1fd8 <_ZL8entities>
#       return entities[0];
     db0:	fd840413          	addi	s0,s0,-40
#     if (id >= sizeof(entities) / sizeof(entity)) {
     db4:	0097ee63          	bltu	a5,s1,dd0 <_ZL11action_giveh4spanIcE+0xf8>
#   return entities[id];
     db8:	00149413          	slli	s0,s1,0x1
     dbc:	00940433          	add	s0,s0,s1
     dc0:	00241413          	slli	s0,s0,0x2
     dc4:	40940433          	sub	s0,s0,s1
     dc8:	00241413          	slli	s0,s0,0x2
     dcc:	008a0433          	add	s0,s4,s0
#   let &loc = location_by_id(from_entity.location);
     dd0:	00444783          	lbu	a5,4(s0)
#     if (id >= sizeof(locations) / sizeof(location)) {
     dd4:	000024b7          	lui	s1,0x2
     dd8:	00400693          	li	a3,4
     ddc:	05c48713          	addi	a4,s1,92 # 205c <_ZL9locations>
#       return locations[0];
     de0:	05c48493          	addi	s1,s1,92
#     if (id >= sizeof(locations) / sizeof(location)) {
     de4:	00f6ee63          	bltu	a3,a5,e00 <_ZL11action_giveh4spanIcE+0x128>
#   return locations[id];
     de8:	00279493          	slli	s1,a5,0x2
     dec:	00f484b3          	add	s1,s1,a5
     df0:	00349493          	slli	s1,s1,0x3
     df4:	00f484b3          	add	s1,s1,a5
     df8:	00249493          	slli	s1,s1,0x2
     dfc:	009704b3          	add	s1,a4,s1
#     for (; i < len; ++i) {
     e00:	0a04ac03          	lw	s8,160(s1)
#     size_t i = 0;
     e04:	00000b93          	li	s7,0
#     if (id >= sizeof(entities) / sizeof(entity)) {
     e08:	00200d13          	li	s10,2
#     for (; i < len; ++i) {
     e0c:	038b9063          	bne	s7,s8,e2c <_ZL11action_giveh4spanIcE+0x154>
#   str.for_each([](let ch) { uart_send_char(ch); });
     e10:	02810513          	addi	a0,sp,40
     e14:	03512423          	sw	s5,40(sp)
     e18:	03612623          	sw	s6,44(sp)
     e1c:	245000ef          	jal	1860 <_ZNK4spanIcE8for_eachIZL12string_printS0_EUlT_E_EEvS2_.isra.0>
#     uart_send_cstr(" is not here\r\n\r\n");
     e20:	00002537          	lui	a0,0x2
     e24:	da850513          	addi	a0,a0,-600 # 1da8 <_ZNK4spanIcE8for_eachIZL12string_printS0_EUlT_E_EEvS2_.isra.0+0x548>
     e28:	f15ff06f          	j	d3c <_ZL11action_giveh4spanIcE+0x64>
#       if (!f(data[i])) {
     e2c:	01748cb3          	add	s9,s1,s7
     e30:	098cc703          	lbu	a4,152(s9)
#       return entities[0];
     e34:	000a0793          	mv	a5,s4
#     if (id >= sizeof(entities) / sizeof(entity)) {
     e38:	00ed6e63          	bltu	s10,a4,e54 <_ZL11action_giveh4spanIcE+0x17c>
#   return entities[id];
     e3c:	00171793          	slli	a5,a4,0x1
     e40:	00e787b3          	add	a5,a5,a4
     e44:	00279793          	slli	a5,a5,0x2
     e48:	40e787b3          	sub	a5,a5,a4
     e4c:	00279793          	slli	a5,a5,0x2
     e50:	00fa07b3          	add	a5,s4,a5
#     if (string_equals_cstr(to_ent_nm, entity_by_id(id).name)) {
     e54:	0007a603          	lw	a2,0(a5)
     e58:	000a8513          	mv	a0,s5
     e5c:	000b0593          	mv	a1,s6
     e60:	03512023          	sw	s5,32(sp)
     e64:	03612223          	sw	s6,36(sp)
     e68:	a64ff0ef          	jal	cc <_ZL18string_equals_cstr4spanIcEPKc>
     e6c:	0c051a63          	bnez	a0,f40 <_ZL11action_giveh4spanIcE+0x268>
#     for (; i < len; ++i) {
     e70:	001b8b93          	addi	s7,s7,1
     e74:	f99ff06f          	j	e0c <_ZL11action_giveh4spanIcE+0x134>
#       if (!f(data[i])) {
     e78:	01540a33          	add	s4,s0,s5
     e7c:	008a4783          	lbu	a5,8(s4)
#       return objects[0];
     e80:	000b0713          	mv	a4,s6
#     if (id >= sizeof(objects) / sizeof(object)) {
     e84:	00fc6663          	bltu	s8,a5,e90 <_ZL11action_giveh4spanIcE+0x1b8>
#   return objects[id];
     e88:	00279793          	slli	a5,a5,0x2
     e8c:	00fb0733          	add	a4,s6,a5
#     if (string_equals_cstr(obj_nm, object_by_id(id).name)) {
     e90:	00072603          	lw	a2,0(a4)
     e94:	00090513          	mv	a0,s2
     e98:	00098593          	mv	a1,s3
     e9c:	01212c23          	sw	s2,24(sp)
     ea0:	01312e23          	sw	s3,28(sp)
     ea4:	a28ff0ef          	jal	cc <_ZL18string_equals_cstr4spanIcEPKc>
     ea8:	00051c63          	bnez	a0,ec0 <_ZL11action_giveh4spanIcE+0x1e8>
#     for (; i < len; ++i) {
     eac:	001a8a93          	addi	s5,s5,1
     eb0:	0d40006f          	j	f84 <_ZL11action_giveh4spanIcE+0x2ac>
#       data[i] = data[i + 1];
     eb4:	0087c683          	lbu	a3,8(a5)
     eb8:	00d783a3          	sb	a3,7(a5)
#     for (size_t i = pos.index; i < len; ++i) {
     ebc:	0440006f          	j	f00 <_ZL11action_giveh4spanIcE+0x228>
#     return {};
     ec0:	00000713          	li	a4,0
#     if (pos.index < len) {
     ec4:	017af463          	bgeu	s5,s7,ecc <_ZL11action_giveh4spanIcE+0x1f4>
#       return data[pos.index];
     ec8:	008a4703          	lbu	a4,8(s4)
#     if (len == Size - 1) {
     ecc:	0284a783          	lw	a5,40(s1)
     ed0:	01f00693          	li	a3,31
     ed4:	02d78a63          	beq	a5,a3,f08 <_ZL11action_giveh4spanIcE+0x230>
#     data[len] = elem;
     ed8:	00f486b3          	add	a3,s1,a5
     edc:	00e68423          	sb	a4,8(a3)
#     ++len;
     ee0:	00178793          	addi	a5,a5,1
     ee4:	02f4a423          	sw	a5,40(s1)
#     if (pos.index >= len) {
     ee8:	02842703          	lw	a4,40(s0)
     eec:	00eafe63          	bgeu	s5,a4,f08 <_ZL11action_giveh4spanIcE+0x230>
#     --len;
     ef0:	fff70793          	addi	a5,a4,-1
     ef4:	02f42423          	sw	a5,40(s0)
     ef8:	00e40733          	add	a4,s0,a4
     efc:	000a0793          	mv	a5,s4
#     for (size_t i = pos.index; i < len; ++i) {
     f00:	00178793          	addi	a5,a5,1
     f04:	fae798e3          	bne	a5,a4,eb4 <_ZL11action_giveh4spanIcE+0x1dc>
# }
     f08:	07c12083          	lw	ra,124(sp)
     f0c:	07812403          	lw	s0,120(sp)
     f10:	07412483          	lw	s1,116(sp)
     f14:	07012903          	lw	s2,112(sp)
     f18:	06c12983          	lw	s3,108(sp)
     f1c:	06812a03          	lw	s4,104(sp)
     f20:	06412a83          	lw	s5,100(sp)
     f24:	06012b03          	lw	s6,96(sp)
     f28:	05c12b83          	lw	s7,92(sp)
     f2c:	05812c03          	lw	s8,88(sp)
     f30:	05412c83          	lw	s9,84(sp)
     f34:	05012d03          	lw	s10,80(sp)
     f38:	08010113          	addi	sp,sp,128
     f3c:	00008067          	ret
#     return {};
     f40:	00000793          	li	a5,0
#     if (pos.index < len) {
     f44:	018bfa63          	bgeu	s7,s8,f58 <_ZL11action_giveh4spanIcE+0x280>
#       return data[pos.index];
     f48:	098cc783          	lbu	a5,152(s9)
#     if (id >= sizeof(entities) / sizeof(entity)) {
     f4c:	00200713          	li	a4,2
#       return entities[0];
     f50:	000a0493          	mv	s1,s4
#     if (id >= sizeof(entities) / sizeof(entity)) {
     f54:	00f76e63          	bltu	a4,a5,f70 <_ZL11action_giveh4spanIcE+0x298>
#   return entities[id];
     f58:	00179493          	slli	s1,a5,0x1
     f5c:	00f484b3          	add	s1,s1,a5
     f60:	00249493          	slli	s1,s1,0x2
     f64:	40f484b3          	sub	s1,s1,a5
     f68:	00249493          	slli	s1,s1,0x2
     f6c:	009a04b3          	add	s1,s4,s1
#     for (; i < len; ++i) {
     f70:	02842b83          	lw	s7,40(s0)
     f74:	00002b37          	lui	s6,0x2
#     size_t i = 0;
     f78:	00000a93          	li	s5,0
#     if (id >= sizeof(objects) / sizeof(object)) {
     f7c:	00300c13          	li	s8,3
     f80:	fc8b0b13          	addi	s6,s6,-56 # 1fc8 <_ZL7objects>
#     for (; i < len; ++i) {
     f84:	ef7a9ae3          	bne	s5,s7,e78 <_ZL11action_giveh4spanIcE+0x1a0>
#   str.for_each([](let ch) { uart_send_char(ch); });
     f88:	02810513          	addi	a0,sp,40
     f8c:	03212423          	sw	s2,40(sp)
     f90:	03312623          	sw	s3,44(sp)
     f94:	0cd000ef          	jal	1860 <_ZNK4spanIcE8for_eachIZL12string_printS0_EUlT_E_EEvS2_.isra.0>
#     uart_send_cstr(" not in inventory\r\n\r\n");
     f98:	00002537          	lui	a0,0x2
     f9c:	d9050513          	addi	a0,a0,-624 # 1d90 <_ZNK4spanIcE8for_eachIZL12string_printS0_EUlT_E_EEvS2_.isra.0+0x530>
     fa0:	d9dff06f          	j	d3c <_ZL11action_giveh4spanIcE+0x64>

00000fa4 <_ZL10print_helpv>:
#   uart_send_cstr(
     fa4:	00002537          	lui	a0,0x2
     fa8:	dbc50513          	addi	a0,a0,-580 # 1dbc <_ZNK4spanIcE8for_eachIZL12string_printS0_EUlT_E_EEvS2_.isra.0+0x55c>
     fac:	4b80006f          	j	1464 <_ZL14uart_send_cstrPKc>

00000fb0 <_ZL5inputR14command_buffer>:
# static auto input(command_buffer &cmd_buf) -> void {
     fb0:	fd010113          	addi	sp,sp,-48
     fb4:	02812423          	sw	s0,40(sp)
     fb8:	02912223          	sw	s1,36(sp)
     fbc:	01312e23          	sw	s3,28(sp)
     fc0:	01412c23          	sw	s4,24(sp)
     fc4:	01512a23          	sw	s5,20(sp)
     fc8:	01612823          	sw	s6,16(sp)
     fcc:	01712623          	sw	s7,12(sp)
     fd0:	01812423          	sw	s8,8(sp)
     fd4:	01912223          	sw	s9,4(sp)
     fd8:	01a12023          	sw	s10,0(sp)
     fdc:	02112623          	sw	ra,44(sp)
     fe0:	03212023          	sw	s2,32(sp)
     fe4:	00050413          	mv	s0,a0
#   auto reset() -> void { cursor_ = end_ = 0; }
     fe8:	040508a3          	sb	zero,81(a0)
     fec:	04050823          	sb	zero,80(a0)
#   mut escape_sequence_parameter = 0;
     ff0:	00000d13          	li	s10,0
#   mut state = input_state::NORMAL;
     ff4:	00000493          	li	s1,0
#     switch (state) {
     ff8:	00100993          	li	s3,1
     ffc:	00200a13          	li	s4,2
#       if (ch >= '0' && ch <= '9') {
    1000:	00900a93          	li	s5,9
#         switch (ch) {
    1004:	04400b13          	li	s6,68
#             uart_send_cstr("\x1B[D");
    1008:	00002bb7          	lui	s7,0x2
#         switch (ch) {
    100c:	07e00c13          	li	s8,126
#           if (escape_sequence_parameter == 3) {
    1010:	00300c93          	li	s9,3
#     let ch = uart_read_char();
    1014:	488000ef          	jal	149c <_ZL14uart_read_charv>
#     led_set(~ch);
    1018:	fff54793          	not	a5,a0
    101c:	fef02e23          	sw	a5,-4(zero) # fffffffc <__bss_end+0xffffdc48>
#     let ch = uart_read_char();
    1020:	00050913          	mv	s2,a0
#     switch (state) {
    1024:	17348863          	beq	s1,s3,1194 <_ZL5inputR14command_buffer+0x1e4>
    1028:	17448e63          	beq	s1,s4,11a4 <_ZL5inputR14command_buffer+0x1f4>
#       if (ch == 0x1B) {
    102c:	01b00793          	li	a5,27
    1030:	06f50663          	beq	a0,a5,109c <_ZL5inputR14command_buffer+0xec>
#       } else if (ch == char_backspace) {
    1034:	07f00793          	li	a5,127
    1038:	08f51863          	bne	a0,a5,10c8 <_ZL5inputR14command_buffer+0x118>
#     if (cursor_ == 0) {
    103c:	05044603          	lbu	a2,80(s0)
    1040:	00000493          	li	s1,0
    1044:	fc0608e3          	beqz	a2,1014 <_ZL5inputR14command_buffer+0x64>
#     if (cursor_ == end_) {
    1048:	05144583          	lbu	a1,81(s0)
#       --cursor_;
    104c:	fff60693          	addi	a3,a2,-1
    1050:	0ff6f693          	zext.b	a3,a3
#       --end_;
    1054:	fff58713          	addi	a4,a1,-1
    1058:	0ff77713          	zext.b	a4,a4
    105c:	00c407b3          	add	a5,s0,a2
#     if (cursor_ == end_) {
    1060:	04b61863          	bne	a2,a1,10b0 <_ZL5inputR14command_buffer+0x100>
#       --end_;
    1064:	04e408a3          	sb	a4,81(s0)
#       --cursor_;
    1068:	04d40823          	sb	a3,80(s0)
#           uart_send_char(ch);
    106c:	07f00513          	li	a0,127
    1070:	418000ef          	jal	1488 <_ZL14uart_send_charc>
#           cmd_buf.apply_on_chars_from_cursor_to_end(
    1074:	00040513          	mv	a0,s0
    1078:	7a0000ef          	jal	1818 <_ZNK14command_buffer33apply_on_chars_from_cursor_to_endIZL5inputRS_EUlT_E_EEvOS2_.isra.0>
#           uart_send_char(' ');
    107c:	02000513          	li	a0,32
    1080:	408000ef          	jal	1488 <_ZL14uart_send_charc>
#   auto characters_after_cursor() const -> size_t { return end_ - cursor_; }
    1084:	05144503          	lbu	a0,81(s0)
    1088:	05044783          	lbu	a5,80(s0)
    108c:	40f50533          	sub	a0,a0,a5
#           uart_send_move_back(cmd_buf.characters_after_cursor() + 1);
    1090:	00150513          	addi	a0,a0,1
#         uart_send_move_back(cmd_buf.characters_after_cursor());
    1094:	2d8000ef          	jal	136c <_ZL19uart_send_move_backj>
    1098:	1400006f          	j	11d8 <_ZL5inputR14command_buffer+0x228>
#         state = input_state::ESCAPE;
    109c:	00100493          	li	s1,1
    10a0:	f75ff06f          	j	1014 <_ZL5inputR14command_buffer+0x64>
#       line_[i] = line_[i + 1];
    10a4:	0007c603          	lbu	a2,0(a5)
    10a8:	00178793          	addi	a5,a5,1
    10ac:	fec78f23          	sb	a2,-2(a5)
#     for (size_t i = cursor_ - 1; i < end_; ++i) {
    10b0:	40878633          	sub	a2,a5,s0
    10b4:	fff60613          	addi	a2,a2,-1
    10b8:	feb666e3          	bltu	a2,a1,10a4 <_ZL5inputR14command_buffer+0xf4>
#     --cursor_;
    10bc:	04d40823          	sb	a3,80(s0)
#     --end_;
    10c0:	04e408a3          	sb	a4,81(s0)
#     return true;
    10c4:	fa9ff06f          	j	106c <_ZL5inputR14command_buffer+0xbc>
#       } else if (ch == CHAR_CARRIAGE_RETURN || cmd_buf.is_full()) {
    10c8:	00d00713          	li	a4,13
#     if (cursor_ == end_) {
    10cc:	05144783          	lbu	a5,81(s0)
    10d0:	00e50663          	beq	a0,a4,10dc <_ZL5inputR14command_buffer+0x12c>
    10d4:	04f00493          	li	s1,79
    10d8:	04979263          	bne	a5,s1,111c <_ZL5inputR14command_buffer+0x16c>
#   auto set_eos() -> void { line_[end_] = '\0'; }
    10dc:	00f407b3          	add	a5,s0,a5
    10e0:	00078023          	sb	zero,0(a5)
# }
    10e4:	02c12083          	lw	ra,44(sp)
    10e8:	02812403          	lw	s0,40(sp)
    10ec:	02412483          	lw	s1,36(sp)
    10f0:	02012903          	lw	s2,32(sp)
    10f4:	01c12983          	lw	s3,28(sp)
    10f8:	01812a03          	lw	s4,24(sp)
    10fc:	01412a83          	lw	s5,20(sp)
    1100:	01012b03          	lw	s6,16(sp)
    1104:	00c12b83          	lw	s7,12(sp)
    1108:	00812c03          	lw	s8,8(sp)
    110c:	00412c83          	lw	s9,4(sp)
    1110:	00012d03          	lw	s10,0(sp)
    1114:	03010113          	addi	sp,sp,48
    1118:	00008067          	ret
#         uart_send_char(ch);
    111c:	36c000ef          	jal	1488 <_ZL14uart_send_charc>
#     if (end_ == sizeof(line_) - 1) {
    1120:	05144683          	lbu	a3,81(s0)
    1124:	02968663          	beq	a3,s1,1150 <_ZL5inputR14command_buffer+0x1a0>
#     if (cursor_ == end_) {
    1128:	05044703          	lbu	a4,80(s0)
#       ++end_;
    112c:	00168793          	addi	a5,a3,1
    1130:	0ff7f793          	zext.b	a5,a5
#       ++cursor_;
    1134:	00170613          	addi	a2,a4,1
    1138:	0ff67613          	zext.b	a2,a2
#     if (cursor_ == end_) {
    113c:	02e69663          	bne	a3,a4,1168 <_ZL5inputR14command_buffer+0x1b8>
#       line_[cursor_] = ch;
    1140:	00d406b3          	add	a3,s0,a3
    1144:	01268023          	sb	s2,0(a3)
#       ++cursor_;
    1148:	04c40823          	sb	a2,80(s0)
#       ++end_;
    114c:	04f408a3          	sb	a5,81(s0)
#         cmd_buf.apply_on_chars_from_cursor_to_end(
    1150:	00040513          	mv	a0,s0
    1154:	6c4000ef          	jal	1818 <_ZNK14command_buffer33apply_on_chars_from_cursor_to_endIZL5inputRS_EUlT_E_EEvOS2_.isra.0>
#   auto characters_after_cursor() const -> size_t { return end_ - cursor_; }
    1158:	05144503          	lbu	a0,81(s0)
    115c:	05044783          	lbu	a5,80(s0)
#         uart_send_move_back(cmd_buf.characters_after_cursor());
    1160:	40f50533          	sub	a0,a0,a5
    1164:	f31ff06f          	j	1094 <_ZL5inputR14command_buffer+0xe4>
#     ++end_;
    1168:	04f408a3          	sb	a5,81(s0)
#     for (size_t i = end_; i > cursor_; --i) {
    116c:	00f76a63          	bltu	a4,a5,1180 <_ZL5inputR14command_buffer+0x1d0>
#     line_[cursor_] = ch;
    1170:	00e40733          	add	a4,s0,a4
    1174:	01270023          	sb	s2,0(a4)
#     ++cursor_;
    1178:	04c40823          	sb	a2,80(s0)
#     return true;
    117c:	fd5ff06f          	j	1150 <_ZL5inputR14command_buffer+0x1a0>
#       line_[i] = line_[i - 1];
    1180:	fff78793          	addi	a5,a5,-1
    1184:	00f406b3          	add	a3,s0,a5
    1188:	0006c583          	lbu	a1,0(a3)
    118c:	00b680a3          	sb	a1,1(a3)
#     for (size_t i = end_; i > cursor_; --i) {
    1190:	fddff06f          	j	116c <_ZL5inputR14command_buffer+0x1bc>
#       if (ch == 0x5B) {
    1194:	fa550493          	addi	s1,a0,-91
    1198:	0014b493          	seqz	s1,s1
    119c:	00149493          	slli	s1,s1,0x1
    11a0:	e75ff06f          	j	1014 <_ZL5inputR14command_buffer+0x64>
#       if (ch >= '0' && ch <= '9') {
    11a4:	fd050713          	addi	a4,a0,-48
    11a8:	0ff77793          	zext.b	a5,a4
    11ac:	00faec63          	bltu	s5,a5,11c4 <_ZL5inputR14command_buffer+0x214>
#         escape_sequence_parameter = escape_sequence_parameter * 10 + (ch - '0');
    11b0:	002d1793          	slli	a5,s10,0x2
    11b4:	01a787b3          	add	a5,a5,s10
    11b8:	00179793          	slli	a5,a5,0x1
    11bc:	00f70d33          	add	s10,a4,a5
    11c0:	e55ff06f          	j	1014 <_ZL5inputR14command_buffer+0x64>
#         switch (ch) {
    11c4:	01650e63          	beq	a0,s6,11e0 <_ZL5inputR14command_buffer+0x230>
    11c8:	05850a63          	beq	a0,s8,121c <_ZL5inputR14command_buffer+0x26c>
    11cc:	04300793          	li	a5,67
    11d0:	02f50663          	beq	a0,a5,11fc <_ZL5inputR14command_buffer+0x24c>
#         escape_sequence_parameter = 0;
    11d4:	00000d13          	li	s10,0
#         state = input_state::NORMAL;
    11d8:	00000493          	li	s1,0
    11dc:	e39ff06f          	j	1014 <_ZL5inputR14command_buffer+0x64>
#     if (cursor_ == 0) {
    11e0:	05044783          	lbu	a5,80(s0)
    11e4:	fe0788e3          	beqz	a5,11d4 <_ZL5inputR14command_buffer+0x224>
#     --cursor_;
    11e8:	fff78793          	addi	a5,a5,-1
    11ec:	04f40823          	sb	a5,80(s0)
#             uart_send_cstr("\x1B[D");
    11f0:	ef4b8513          	addi	a0,s7,-268 # 1ef4 <_ZNK4spanIcE8for_eachIZL12string_printS0_EUlT_E_EEvS2_.isra.0+0x694>
#             uart_send_cstr("\x1B[C");
    11f4:	270000ef          	jal	1464 <_ZL14uart_send_cstrPKc>
    11f8:	fddff06f          	j	11d4 <_ZL5inputR14command_buffer+0x224>
#     if (cursor_ == end_) {
    11fc:	05044783          	lbu	a5,80(s0)
    1200:	05144703          	lbu	a4,81(s0)
    1204:	fcf708e3          	beq	a4,a5,11d4 <_ZL5inputR14command_buffer+0x224>
#     ++cursor_;
    1208:	00178793          	addi	a5,a5,1
    120c:	00002537          	lui	a0,0x2
    1210:	04f40823          	sb	a5,80(s0)
    1214:	ef850513          	addi	a0,a0,-264 # 1ef8 <_ZNK4spanIcE8for_eachIZL12string_printS0_EUlT_E_EEvS2_.isra.0+0x698>
    1218:	fddff06f          	j	11f4 <_ZL5inputR14command_buffer+0x244>
#           if (escape_sequence_parameter == 3) {
    121c:	fb9d1ce3          	bne	s10,s9,11d4 <_ZL5inputR14command_buffer+0x224>
#     if (cursor_ == end_) {
    1220:	05044783          	lbu	a5,80(s0)
    1224:	05144703          	lbu	a4,81(s0)
    1228:	00e78e63          	beq	a5,a4,1244 <_ZL5inputR14command_buffer+0x294>
#     for (size_t i = cursor_ + 1; i < end_; ++i) {
    122c:	00f407b3          	add	a5,s0,a5
    1230:	00178793          	addi	a5,a5,1
    1234:	408786b3          	sub	a3,a5,s0
    1238:	02e6ea63          	bltu	a3,a4,126c <_ZL5inputR14command_buffer+0x2bc>
#     --end_;
    123c:	fff70713          	addi	a4,a4,-1
    1240:	04e408a3          	sb	a4,81(s0)
#             cmd_buf.apply_on_chars_from_cursor_to_end(
    1244:	00040513          	mv	a0,s0
    1248:	5d0000ef          	jal	1818 <_ZNK14command_buffer33apply_on_chars_from_cursor_to_endIZL5inputRS_EUlT_E_EEvOS2_.isra.0>
#             uart_send_char(' ');
    124c:	02000513          	li	a0,32
    1250:	238000ef          	jal	1488 <_ZL14uart_send_charc>
#   auto characters_after_cursor() const -> size_t { return end_ - cursor_; }
    1254:	05144503          	lbu	a0,81(s0)
    1258:	05044783          	lbu	a5,80(s0)
    125c:	40f50533          	sub	a0,a0,a5
#             uart_send_move_back(cmd_buf.characters_after_cursor() + 1);
    1260:	00150513          	addi	a0,a0,1
    1264:	108000ef          	jal	136c <_ZL19uart_send_move_backj>
    1268:	f6dff06f          	j	11d4 <_ZL5inputR14command_buffer+0x224>
#       line_[i - 1] = line_[i];
    126c:	0007c683          	lbu	a3,0(a5)
    1270:	fed78fa3          	sb	a3,-1(a5)
#     for (size_t i = cursor_ + 1; i < end_; ++i) {
    1274:	fbdff06f          	j	1230 <_ZL5inputR14command_buffer+0x280>

00001278 <_ZL16string_to_uint324spanIcE>:
# static auto string_to_uint32(string const str) -> uint32_t {
    1278:	ff010113          	addi	sp,sp,-16
    127c:	00a12423          	sw	a0,8(sp)
#     Type *it = begin_;
    1280:	00050713          	mv	a4,a0
    1284:	00b12623          	sw	a1,12(sp)
#   mut num = 0u;
    1288:	00000513          	li	a0,0
#     if (ch <= '0' || ch >= '9') {
    128c:	00700613          	li	a2,7
#     for (; it < end_; ++it) {
    1290:	00b76663          	bltu	a4,a1,129c <_ZL16string_to_uint324spanIcE+0x24>
# }
    1294:	01010113          	addi	sp,sp,16
    1298:	00008067          	ret
#       if (!f(*it)) {
    129c:	00074683          	lbu	a3,0(a4)
#     if (ch <= '0' || ch >= '9') {
    12a0:	fcf68793          	addi	a5,a3,-49
    12a4:	0ff7f793          	zext.b	a5,a5
    12a8:	fef666e3          	bltu	a2,a5,1294 <_ZL16string_to_uint324spanIcE+0x1c>
#     num = num * 10 + uint32_t(ch - '0');
    12ac:	00251793          	slli	a5,a0,0x2
    12b0:	00a787b3          	add	a5,a5,a0
    12b4:	00179793          	slli	a5,a5,0x1
    12b8:	fd078793          	addi	a5,a5,-48
    12bc:	00d78533          	add	a0,a5,a3
#     for (; it < end_; ++it) {
    12c0:	00170713          	addi	a4,a4,1
    12c4:	fcdff06f          	j	1290 <_ZL16string_to_uint324spanIcE+0x18>

000012c8 <_ZL20uart_send_hex_uint32jb>:
#                                  bool const separate_half_words) -> void {
    12c8:	ff010113          	addi	sp,sp,-16
    12cc:	00812423          	sw	s0,8(sp)
    12d0:	00050413          	mv	s0,a0
#   uart_send_hex_byte(uint8_t(i >> 24));
    12d4:	01855513          	srli	a0,a0,0x18
#                                  bool const separate_half_words) -> void {
    12d8:	00912223          	sw	s1,4(sp)
    12dc:	00112623          	sw	ra,12(sp)
    12e0:	00058493          	mv	s1,a1
#   uart_send_hex_byte(uint8_t(i >> 24));
    12e4:	040000ef          	jal	1324 <_ZL18uart_send_hex_byteh>
#   uart_send_hex_byte(uint8_t(i >> 16));
    12e8:	01045513          	srli	a0,s0,0x10
    12ec:	0ff57513          	zext.b	a0,a0
    12f0:	034000ef          	jal	1324 <_ZL18uart_send_hex_byteh>
#   if (separate_half_words) {
    12f4:	00048663          	beqz	s1,1300 <_ZL20uart_send_hex_uint32jb+0x38>
#     uart_send_char(':');
    12f8:	03a00513          	li	a0,58
    12fc:	18c000ef          	jal	1488 <_ZL14uart_send_charc>
#   uart_send_hex_byte(uint8_t(i >> 8));
    1300:	00845513          	srli	a0,s0,0x8
    1304:	0ff57513          	zext.b	a0,a0
    1308:	01c000ef          	jal	1324 <_ZL18uart_send_hex_byteh>
#   uart_send_hex_byte(uint8_t(i));
    130c:	0ff47513          	zext.b	a0,s0
# }
    1310:	00812403          	lw	s0,8(sp)
    1314:	00c12083          	lw	ra,12(sp)
    1318:	00412483          	lw	s1,4(sp)
    131c:	01010113          	addi	sp,sp,16
#   uart_send_hex_byte(uint8_t(i));
    1320:	0040006f          	j	1324 <_ZL18uart_send_hex_byteh>

00001324 <_ZL18uart_send_hex_byteh>:
# static auto uart_send_hex_byte(uint8_t const ch) -> void {
    1324:	ff010113          	addi	sp,sp,-16
    1328:	00812423          	sw	s0,8(sp)
    132c:	00050413          	mv	s0,a0
#   uart_send_hex_nibble(ch >> 4);
    1330:	00455513          	srli	a0,a0,0x4
# static auto uart_send_hex_byte(uint8_t const ch) -> void {
    1334:	00112623          	sw	ra,12(sp)
#   uart_send_hex_nibble(ch >> 4);
    1338:	018000ef          	jal	1350 <_ZL20uart_send_hex_nibbleh>
#   uart_send_hex_nibble(ch & 0x0f);
    133c:	00f47513          	andi	a0,s0,15
# }
    1340:	00812403          	lw	s0,8(sp)
    1344:	00c12083          	lw	ra,12(sp)
    1348:	01010113          	addi	sp,sp,16
#   uart_send_hex_nibble(ch & 0x0f);
    134c:	0040006f          	j	1350 <_ZL20uart_send_hex_nibbleh>

00001350 <_ZL20uart_send_hex_nibbleh>:
#   if (nibble < 10) {
    1350:	00900793          	li	a5,9
    1354:	00a7e863          	bltu	a5,a0,1364 <_ZL20uart_send_hex_nibbleh+0x14>
#     uart_send_char('0' + char(nibble));
    1358:	03050513          	addi	a0,a0,48
#     uart_send_char('A' + char(nibble - 10));
    135c:	0ff57513          	zext.b	a0,a0
    1360:	1280006f          	j	1488 <_ZL14uart_send_charc>
    1364:	03750513          	addi	a0,a0,55
    1368:	ff5ff06f          	j	135c <_ZL20uart_send_hex_nibbleh+0xc>

0000136c <_ZL19uart_send_move_backj>:
# static auto uart_send_move_back(size_t const n) -> void {
    136c:	ff010113          	addi	sp,sp,-16
    1370:	00812423          	sw	s0,8(sp)
    1374:	00912223          	sw	s1,4(sp)
    1378:	00112623          	sw	ra,12(sp)
    137c:	00050413          	mv	s0,a0
#   for (mut i = 0u; i < n; ++i) {
    1380:	00000493          	li	s1,0
    1384:	00849c63          	bne	s1,s0,139c <_ZL19uart_send_move_backj+0x30>
# }
    1388:	00c12083          	lw	ra,12(sp)
    138c:	00812403          	lw	s0,8(sp)
    1390:	00412483          	lw	s1,4(sp)
    1394:	01010113          	addi	sp,sp,16
    1398:	00008067          	ret
#     uart_send_char('\b');
    139c:	00800513          	li	a0,8
    13a0:	0e8000ef          	jal	1488 <_ZL14uart_send_charc>
#   for (mut i = 0u; i < n; ++i) {
    13a4:	00148493          	addi	s1,s1,1
    13a8:	fddff06f          	j	1384 <_ZL19uart_send_move_backj+0x18>

000013ac <_ZL12entity_by_idh>:
#     if (id >= sizeof(entities) / sizeof(entity)) {
    13ac:	000027b7          	lui	a5,0x2
    13b0:	00200693          	li	a3,2
    13b4:	fd878713          	addi	a4,a5,-40 # 1fd8 <_ZL8entities>
    13b8:	02a6e063          	bltu	a3,a0,13d8 <_ZL12entity_by_idh+0x2c>
#   return entities[id];
    13bc:	00151793          	slli	a5,a0,0x1
    13c0:	00a787b3          	add	a5,a5,a0
    13c4:	00279793          	slli	a5,a5,0x2
    13c8:	40a78533          	sub	a0,a5,a0
    13cc:	00251513          	slli	a0,a0,0x2
    13d0:	00a70533          	add	a0,a4,a0
    13d4:	00008067          	ret
#       return entities[0];
    13d8:	fd878513          	addi	a0,a5,-40
# }
    13dc:	00008067          	ret

000013e0 <_ZL12object_by_idh>:
#     if (id >= sizeof(objects) / sizeof(object)) {
    13e0:	000027b7          	lui	a5,0x2
    13e4:	00300693          	li	a3,3
    13e8:	fc878713          	addi	a4,a5,-56 # 1fc8 <_ZL7objects>
    13ec:	00a6e863          	bltu	a3,a0,13fc <_ZL12object_by_idh+0x1c>
#   return objects[id];
    13f0:	00251513          	slli	a0,a0,0x2
    13f4:	00a70533          	add	a0,a4,a0
    13f8:	00008067          	ret
#       return objects[0];
    13fc:	fc878513          	addi	a0,a5,-56
# }
    1400:	00008067          	ret

00001404 <_ZL14location_by_idh>:
#     if (id >= sizeof(locations) / sizeof(location)) {
    1404:	000027b7          	lui	a5,0x2
    1408:	00400693          	li	a3,4
    140c:	05c78713          	addi	a4,a5,92 # 205c <_ZL9locations>
    1410:	02a6e063          	bltu	a3,a0,1430 <_ZL14location_by_idh+0x2c>
#   return locations[id];
    1414:	00251793          	slli	a5,a0,0x2
    1418:	00a787b3          	add	a5,a5,a0
    141c:	00379793          	slli	a5,a5,0x3
    1420:	00a78533          	add	a0,a5,a0
    1424:	00251513          	slli	a0,a0,0x2
    1428:	00a70533          	add	a0,a4,a0
    142c:	00008067          	ret
#       return locations[0];
    1430:	05c78513          	addi	a0,a5,92
# }
    1434:	00008067          	ret

00001438 <_ZL10link_by_idh>:
# 
# static auto link_by_id(link_id_t const id) -> cstr {
#   if constexpr (safe_arrays) {
#     if (id >= sizeof(links) / sizeof(cstr)) {
    1438:	000027b7          	lui	a5,0x2
    143c:	00600713          	li	a4,6
    1440:	39078793          	addi	a5,a5,912 # 2390 <_ZL5links>
    1444:	00a77663          	bgeu	a4,a0,1450 <_ZL10link_by_idh+0x18>
#       return links[0];
#     }
#   }
#   return links[id];
    1448:	0007a503          	lw	a0,0(a5)
# }
    144c:	00008067          	ret
#   return links[id];
    1450:	00251513          	slli	a0,a0,0x2
    1454:	00a787b3          	add	a5,a5,a0
    1458:	ff1ff06f          	j	1448 <_ZL10link_by_idh+0x10>

0000145c <_ZL7led_seti>:
    145c:	fea02e23          	sw	a0,-4(zero) # fffffffc <__bss_end+0xffffdc48>
    1460:	00008067          	ret

00001464 <_ZL14uart_send_cstrPKc>:
#     while (*UART_OUT != -1)
    1464:	fff00713          	li	a4,-1
#   while (*str) {
    1468:	00054783          	lbu	a5,0(a0)
    146c:	00079463          	bnez	a5,1474 <_ZL14uart_send_cstrPKc+0x10>
# }
    1470:	00008067          	ret
#     while (*UART_OUT != -1)
    1474:	ff802683          	lw	a3,-8(zero) # fffffff8 <__bss_end+0xffffdc44>
    1478:	fee69ee3          	bne	a3,a4,1474 <_ZL14uart_send_cstrPKc+0x10>
#     *UART_OUT = *str++;
    147c:	00150513          	addi	a0,a0,1
    1480:	fef02c23          	sw	a5,-8(zero) # fffffff8 <__bss_end+0xffffdc44>
    1484:	fe5ff06f          	j	1468 <_ZL14uart_send_cstrPKc+0x4>

00001488 <_ZL14uart_send_charc>:
#   while (*UART_OUT != -1)
    1488:	fff00793          	li	a5,-1
    148c:	ff802703          	lw	a4,-8(zero) # fffffff8 <__bss_end+0xffffdc44>
    1490:	fef71ee3          	bne	a4,a5,148c <_ZL14uart_send_charc+0x4>
#   *UART_OUT = ch;
    1494:	fea02c23          	sw	a0,-8(zero) # fffffff8 <__bss_end+0xffffdc44>
# }
    1498:	00008067          	ret

0000149c <_ZL14uart_read_charv>:
#   while ((ch = *UART_IN) == -1)
    149c:	fff00793          	li	a5,-1
    14a0:	ff402503          	lw	a0,-12(zero) # fffffff4 <__bss_end+0xffffdc40>
    14a4:	fef50ee3          	beq	a0,a5,14a0 <_ZL14uart_read_charv+0x4>
# }
    14a8:	0ff57513          	zext.b	a0,a0
    14ac:	00008067          	ret

000014b0 <_ZL15action_mem_testv>:
#   uart_send_cstr("testing memory (write)\r\n");
    14b0:	00002537          	lui	a0,0x2
# static auto action_mem_test() -> void {
    14b4:	fe010113          	addi	sp,sp,-32
#   uart_send_cstr("testing memory (write)\r\n");
    14b8:	efc50513          	addi	a0,a0,-260 # 1efc <_ZNK4spanIcE8for_eachIZL12string_printS0_EUlT_E_EEvS2_.isra.0+0x69c>
# static auto action_mem_test() -> void {
    14bc:	00812c23          	sw	s0,24(sp)
    14c0:	00112e23          	sw	ra,28(sp)
#   char *ptr = &__heap_start;
    14c4:	00002437          	lui	s0,0x2
# static auto action_mem_test() -> void {
    14c8:	00912a23          	sw	s1,20(sp)
    14cc:	01212823          	sw	s2,16(sp)
    14d0:	01312623          	sw	s3,12(sp)
    14d4:	01412423          	sw	s4,8(sp)
    14d8:	01512223          	sw	s5,4(sp)
    14dc:	01612023          	sw	s6,0(sp)
#   uart_send_cstr("testing memory (write)\r\n");
    14e0:	f85ff0ef          	jal	1464 <_ZL14uart_send_cstrPKc>
#   char *ptr = &__heap_start;
    14e4:	3b440713          	addi	a4,s0,948 # 23b4 <__bss_end>
#   char ch = 0;
    14e8:	00000793          	li	a5,0
    14ec:	3b440413          	addi	s0,s0,948
#   while (ptr < end) {
    14f0:	001f06b7          	lui	a3,0x1f0
    14f4:	06d76263          	bltu	a4,a3,1558 <_ZL15action_mem_testv+0xa8>
#   uart_send_cstr("testing memory (read)\r\n");
    14f8:	00002537          	lui	a0,0x2
    14fc:	f1850513          	addi	a0,a0,-232 # 1f18 <_ZNK4spanIcE8for_eachIZL12string_printS0_EUlT_E_EEvS2_.isra.0+0x6b8>
    1500:	f65ff0ef          	jal	1464 <_ZL14uart_send_cstrPKc>
#   bool failed = false;
    1504:	00000793          	li	a5,0
#   ch = 0;
    1508:	00000493          	li	s1,0
#   while (ptr < end) {
    150c:	001f0937          	lui	s2,0x1f0
#       uart_send_cstr("at ");
    1510:	000029b7          	lui	s3,0x2
#       uart_send_cstr(" expected ");
    1514:	00002a37          	lui	s4,0x2
#       uart_send_cstr(" got ");
    1518:	00002ab7          	lui	s5,0x2
#       uart_send_cstr("\r\n");
    151c:	00002b37          	lui	s6,0x2
#   while (ptr < end) {
    1520:	05246663          	bltu	s0,s2,156c <_ZL15action_mem_testv+0xbc>
#   if (failed) {
    1524:	0a078063          	beqz	a5,15c4 <_ZL15action_mem_testv+0x114>
#     uart_send_cstr("testing memory FAILED\r\n");
    1528:	00002537          	lui	a0,0x2
    152c:	f4850513          	addi	a0,a0,-184 # 1f48 <_ZNK4spanIcE8for_eachIZL12string_printS0_EUlT_E_EEvS2_.isra.0+0x6e8>
# }
    1530:	01812403          	lw	s0,24(sp)
    1534:	01c12083          	lw	ra,28(sp)
    1538:	01412483          	lw	s1,20(sp)
    153c:	01012903          	lw	s2,16(sp)
    1540:	00c12983          	lw	s3,12(sp)
    1544:	00812a03          	lw	s4,8(sp)
    1548:	00412a83          	lw	s5,4(sp)
    154c:	00012b03          	lw	s6,0(sp)
    1550:	02010113          	addi	sp,sp,32
#     uart_send_cstr("testing memory succeeded\r\n");
    1554:	f11ff06f          	j	1464 <_ZL14uart_send_cstrPKc>
#     *ptr = ch;
    1558:	00f70023          	sb	a5,0(a4)
#     ++ch;
    155c:	00178793          	addi	a5,a5,1
#     ++ptr;
    1560:	00170713          	addi	a4,a4,1
#     ++ch;
    1564:	0ff7f793          	zext.b	a5,a5
    1568:	f8dff06f          	j	14f4 <_ZL15action_mem_testv+0x44>
#     if (*ptr != ch) {
    156c:	00044703          	lbu	a4,0(s0)
    1570:	04970263          	beq	a4,s1,15b4 <_ZL15action_mem_testv+0x104>
#       uart_send_cstr("at ");
    1574:	f3098513          	addi	a0,s3,-208 # 1f30 <_ZNK4spanIcE8for_eachIZL12string_printS0_EUlT_E_EEvS2_.isra.0+0x6d0>
    1578:	eedff0ef          	jal	1464 <_ZL14uart_send_cstrPKc>
#       uart_send_hex_uint32(uint32_t(ptr), true);
    157c:	00100593          	li	a1,1
    1580:	00040513          	mv	a0,s0
    1584:	d45ff0ef          	jal	12c8 <_ZL20uart_send_hex_uint32jb>
#       uart_send_cstr(" expected ");
    1588:	f34a0513          	addi	a0,s4,-204 # 1f34 <_ZNK4spanIcE8for_eachIZL12string_printS0_EUlT_E_EEvS2_.isra.0+0x6d4>
    158c:	ed9ff0ef          	jal	1464 <_ZL14uart_send_cstrPKc>
#       uart_send_hex_byte(ch);
    1590:	00048513          	mv	a0,s1
    1594:	d91ff0ef          	jal	1324 <_ZL18uart_send_hex_byteh>
#       uart_send_cstr(" got ");
    1598:	f40a8513          	addi	a0,s5,-192 # 1f40 <_ZNK4spanIcE8for_eachIZL12string_printS0_EUlT_E_EEvS2_.isra.0+0x6e0>
    159c:	ec9ff0ef          	jal	1464 <_ZL14uart_send_cstrPKc>
#       uart_send_hex_byte(*ptr);
    15a0:	00044503          	lbu	a0,0(s0)
    15a4:	d81ff0ef          	jal	1324 <_ZL18uart_send_hex_byteh>
#       uart_send_cstr("\r\n");
    15a8:	cd0b0513          	addi	a0,s6,-816 # 1cd0 <_ZNK4spanIcE8for_eachIZL12string_printS0_EUlT_E_EEvS2_.isra.0+0x470>
    15ac:	eb9ff0ef          	jal	1464 <_ZL14uart_send_cstrPKc>
#       failed = true;
    15b0:	00100793          	li	a5,1
#     ++ch;
    15b4:	00148493          	addi	s1,s1,1
#     ++ptr;
    15b8:	00140413          	addi	s0,s0,1
#     ++ch;
    15bc:	0ff4f493          	zext.b	s1,s1
    15c0:	f61ff06f          	j	1520 <_ZL15action_mem_testv+0x70>
#     uart_send_cstr("testing memory succeeded\r\n");
    15c4:	00002537          	lui	a0,0x2
    15c8:	f6050513          	addi	a0,a0,-160 # 1f60 <_ZNK4spanIcE8for_eachIZL12string_printS0_EUlT_E_EEvS2_.isra.0+0x700>
    15cc:	f65ff06f          	j	1530 <_ZL15action_mem_testv+0x80>

000015d0 <_ZL23action_sdcard_test_read4spanIcE>:
# static auto action_sdcard_test_read(string const args) -> void {
    15d0:	dd010113          	addi	sp,sp,-560
    15d4:	00a12423          	sw	a0,8(sp)
    15d8:	00058613          	mv	a2,a1
    15dc:	00b12623          	sw	a1,12(sp)
#   let w1 = string_next_word(args);
    15e0:	00050593          	mv	a1,a0
    15e4:	01010513          	addi	a0,sp,16
# static auto action_sdcard_test_read(string const args) -> void {
    15e8:	22112623          	sw	ra,556(sp)
    15ec:	22812423          	sw	s0,552(sp)
    15f0:	22912223          	sw	s1,548(sp)
    15f4:	23212023          	sw	s2,544(sp)
#   let w1 = string_next_word(args);
    15f8:	b3dfe0ef          	jal	134 <_ZL16string_next_word4spanIcE>
#   if (w1.word.is_empty()) {
    15fc:	01012503          	lw	a0,16(sp)
    1600:	01412583          	lw	a1,20(sp)
    1604:	02b51263          	bne	a0,a1,1628 <_ZL23action_sdcard_test_read4spanIcE+0x58>
#     uart_send_cstr("<sector>\r\n");
    1608:	00002537          	lui	a0,0x2
    160c:	f7c50513          	addi	a0,a0,-132 # 1f7c <_ZNK4spanIcE8for_eachIZL12string_printS0_EUlT_E_EEvS2_.isra.0+0x71c>
# }
    1610:	22812403          	lw	s0,552(sp)
    1614:	22c12083          	lw	ra,556(sp)
    1618:	22412483          	lw	s1,548(sp)
    161c:	22012903          	lw	s2,544(sp)
    1620:	23010113          	addi	sp,sp,560
#   uart_send_cstr("\r\n");
    1624:	e41ff06f          	j	1464 <_ZL14uart_send_cstrPKc>
#   let sector = string_to_uint32(w1.word);
    1628:	c51ff0ef          	jal	1278 <_ZL16string_to_uint324spanIcE>
#   sdcard_read_blocking(sector, buf);
    162c:	02010493          	addi	s1,sp,32
    1630:	00048593          	mv	a1,s1
    1634:	124000ef          	jal	1758 <_ZL20sdcard_read_blockingjPc>
#   for (mut i = 0u; i < sizeof(buf); ++i) {
    1638:	00000413          	li	s0,0
    163c:	20000913          	li	s2,512
#     uart_send_char(buf[i]);
    1640:	008487b3          	add	a5,s1,s0
    1644:	0007c503          	lbu	a0,0(a5)
#   for (mut i = 0u; i < sizeof(buf); ++i) {
    1648:	00140413          	addi	s0,s0,1
#     uart_send_char(buf[i]);
    164c:	e3dff0ef          	jal	1488 <_ZL14uart_send_charc>
#   for (mut i = 0u; i < sizeof(buf); ++i) {
    1650:	ff2418e3          	bne	s0,s2,1640 <_ZL23action_sdcard_test_read4spanIcE+0x70>
#   uart_send_cstr("\r\n");
    1654:	00002537          	lui	a0,0x2
    1658:	cd050513          	addi	a0,a0,-816 # 1cd0 <_ZNK4spanIcE8for_eachIZL12string_printS0_EUlT_E_EEvS2_.isra.0+0x470>
    165c:	fb5ff06f          	j	1610 <_ZL23action_sdcard_test_read4spanIcE+0x40>

00001660 <_ZL24action_sdcard_test_write4spanIcE>:
# static auto action_sdcard_test_write(string const args) -> void {
    1660:	dd010113          	addi	sp,sp,-560
    1664:	00a12423          	sw	a0,8(sp)
    1668:	00058613          	mv	a2,a1
    166c:	00b12623          	sw	a1,12(sp)
#   let w1 = string_next_word(args);
    1670:	00050593          	mv	a1,a0
    1674:	01010513          	addi	a0,sp,16
# static auto action_sdcard_test_write(string const args) -> void {
    1678:	22112623          	sw	ra,556(sp)
#   let w1 = string_next_word(args);
    167c:	ab9fe0ef          	jal	134 <_ZL16string_next_word4spanIcE>
#   if (w1.word.is_empty()) {
    1680:	01012703          	lw	a4,16(sp)
    1684:	01412783          	lw	a5,20(sp)
    1688:	00f71c63          	bne	a4,a5,16a0 <_ZL24action_sdcard_test_write4spanIcE+0x40>
# }
    168c:	22c12083          	lw	ra,556(sp)
#     uart_send_cstr("<sector> <text>\r\n");
    1690:	00002537          	lui	a0,0x2
    1694:	f8850513          	addi	a0,a0,-120 # 1f88 <_ZNK4spanIcE8for_eachIZL12string_printS0_EUlT_E_EEvS2_.isra.0+0x728>
# }
    1698:	23010113          	addi	sp,sp,560
#     uart_send_cstr("<sector> <text>\r\n");
    169c:	dc9ff06f          	j	1464 <_ZL14uart_send_cstrPKc>
#   char buf[512]{};
    16a0:	20000613          	li	a2,512
    16a4:	00000593          	li	a1,0
    16a8:	02010513          	addi	a0,sp,32
    16ac:	104000ef          	jal	17b0 <memset>
#     for (Type *it = begin_; it < end_; ++it) {
    16b0:	01812783          	lw	a5,24(sp)
    16b4:	01c12683          	lw	a3,28(sp)
#   mut *buf_ptr = buf;
    16b8:	02010713          	addi	a4,sp,32
    16bc:	02d7e263          	bltu	a5,a3,16e0 <_ZL24action_sdcard_test_write4spanIcE+0x80>
#   size_t const sector = string_to_uint32(w1.word);
    16c0:	01412583          	lw	a1,20(sp)
    16c4:	01012503          	lw	a0,16(sp)
    16c8:	bb1ff0ef          	jal	1278 <_ZL16string_to_uint324spanIcE>
#   sdcard_write_blocking(sector, buf);
    16cc:	02010593          	addi	a1,sp,32
    16d0:	0b4000ef          	jal	1784 <_ZL21sdcard_write_blockingjPKc>
# }
    16d4:	22c12083          	lw	ra,556(sp)
    16d8:	23010113          	addi	sp,sp,560
    16dc:	00008067          	ret
#     *buf_ptr = ch;
    16e0:	0007c603          	lbu	a2,0(a5)
#     ++buf_ptr;
    16e4:	00170713          	addi	a4,a4,1
    16e8:	00178793          	addi	a5,a5,1
#     *buf_ptr = ch;
    16ec:	fec70fa3          	sb	a2,-1(a4)
    16f0:	fcdff06f          	j	16bc <_ZL24action_sdcard_test_write4spanIcE+0x5c>

000016f4 <_ZL20action_sdcard_statusv>:
# static auto action_sdcard_status() -> void {
    16f4:	ff010113          	addi	sp,sp,-16
    16f8:	00812423          	sw	s0,8(sp)
#   uart_send_cstr("SDCARD_STATUS: 0x");
    16fc:	00002537          	lui	a0,0x2
#   uint32_t const status = *SDCARD_STATUS;
    1700:	fe402403          	lw	s0,-28(zero) # ffffffe4 <__bss_end+0xffffdc30>
#   uart_send_cstr("SDCARD_STATUS: 0x");
    1704:	f9c50513          	addi	a0,a0,-100 # 1f9c <_ZNK4spanIcE8for_eachIZL12string_printS0_EUlT_E_EEvS2_.isra.0+0x73c>
# static auto action_sdcard_status() -> void {
    1708:	00112623          	sw	ra,12(sp)
#   uart_send_cstr("SDCARD_STATUS: 0x");
    170c:	d59ff0ef          	jal	1464 <_ZL14uart_send_cstrPKc>
#   uart_send_hex_byte(char(status >> 24));
    1710:	01845513          	srli	a0,s0,0x18
    1714:	c11ff0ef          	jal	1324 <_ZL18uart_send_hex_byteh>
#   uart_send_hex_byte(char(status >> 16));
    1718:	01045513          	srli	a0,s0,0x10
    171c:	0ff57513          	zext.b	a0,a0
    1720:	c05ff0ef          	jal	1324 <_ZL18uart_send_hex_byteh>
#   uart_send_char(':');
    1724:	03a00513          	li	a0,58
    1728:	d61ff0ef          	jal	1488 <_ZL14uart_send_charc>
#   uart_send_hex_byte(char(status >> 8));
    172c:	00845513          	srli	a0,s0,0x8
    1730:	0ff57513          	zext.b	a0,a0
    1734:	bf1ff0ef          	jal	1324 <_ZL18uart_send_hex_byteh>
#   uart_send_hex_byte(char(status));
    1738:	0ff47513          	zext.b	a0,s0
    173c:	be9ff0ef          	jal	1324 <_ZL18uart_send_hex_byteh>
#   uart_send_cstr("\r\n");
# }
    1740:	00812403          	lw	s0,8(sp)
    1744:	00c12083          	lw	ra,12(sp)
#   uart_send_cstr("\r\n");
    1748:	00002537          	lui	a0,0x2
    174c:	cd050513          	addi	a0,a0,-816 # 1cd0 <_ZNK4spanIcE8for_eachIZL12string_printS0_EUlT_E_EEvS2_.isra.0+0x470>
# }
    1750:	01010113          	addi	sp,sp,16
#   uart_send_cstr("\r\n");
    1754:	d11ff06f          	j	1464 <_ZL14uart_send_cstrPKc>

00001758 <_ZL20sdcard_read_blockingjPc>:
# 
# static auto sdcard_read_blocking(size_t const sector,
#                                  int8_t *buffer512B) -> void {
#   while (*SDCARD_BUSY)
    1758:	ff002783          	lw	a5,-16(zero) # fffffff0 <__bss_end+0xffffdc3c>
    175c:	fe079ee3          	bnez	a5,1758 <_ZL20sdcard_read_blockingjPc>
#     ;
#   *SDCARD_READ_SECTOR = sector;
    1760:	fea02623          	sw	a0,-20(zero) # ffffffec <__bss_end+0xffffdc38>
#   while (*SDCARD_BUSY)
    1764:	ff002783          	lw	a5,-16(zero) # fffffff0 <__bss_end+0xffffdc3c>
    1768:	fe079ee3          	bnez	a5,1764 <_ZL20sdcard_read_blockingjPc+0xc>
    176c:	20058793          	addi	a5,a1,512
#     ;
#   for (size_t i = 0; i < 512; ++i) {
#     *buffer512B = char(*SDCARD_NEXT_BYTE);
    1770:	fe802703          	lw	a4,-24(zero) # ffffffe8 <__bss_end+0xffffdc34>
#     ++buffer512B;
    1774:	00158593          	addi	a1,a1,1
#     *buffer512B = char(*SDCARD_NEXT_BYTE);
    1778:	fee58fa3          	sb	a4,-1(a1)
#   for (size_t i = 0; i < 512; ++i) {
    177c:	feb79ae3          	bne	a5,a1,1770 <_ZL20sdcard_read_blockingjPc+0x18>
#   }
# }
    1780:	00008067          	ret

00001784 <_ZL21sdcard_write_blockingjPKc>:
# 
# static auto sdcard_write_blocking(size_t const sector,
#                                   int8_t const *buffer512B) -> void {
#   while (*SDCARD_BUSY)
    1784:	ff002783          	lw	a5,-16(zero) # fffffff0 <__bss_end+0xffffdc3c>
    1788:	fe079ee3          	bnez	a5,1784 <_ZL21sdcard_write_blockingjPKc>
    178c:	20058793          	addi	a5,a1,512
#     ;
#   for (size_t i = 0; i < 512; ++i) {
#     *SDCARD_NEXT_BYTE = *buffer512B;
    1790:	0005c703          	lbu	a4,0(a1)
#     ++buffer512B;
    1794:	00158593          	addi	a1,a1,1
#     *SDCARD_NEXT_BYTE = *buffer512B;
    1798:	fee02423          	sw	a4,-24(zero) # ffffffe8 <__bss_end+0xffffdc34>
#   for (size_t i = 0; i < 512; ++i) {
    179c:	feb79ae3          	bne	a5,a1,1790 <_ZL21sdcard_write_blockingjPKc+0xc>
#   }
#   *SDCARD_WRITE_SECTOR = sector;
    17a0:	fea02023          	sw	a0,-32(zero) # ffffffe0 <__bss_end+0xffffdc2c>
#   while (*SDCARD_BUSY)
    17a4:	ff002783          	lw	a5,-16(zero) # fffffff0 <__bss_end+0xffffdc3c>
    17a8:	fe079ee3          	bnez	a5,17a4 <_ZL21sdcard_write_blockingjPKc+0x20>
#     ;
# }
    17ac:	00008067          	ret

000017b0 <memset>:
# 
# // built-in function called by compiler
# extern "C" auto memset(void *str, int ch, int n) -> void * {
#   char *ptr = reinterpret_cast<char *>(str);
#   while (n--) {
    17b0:	00c50633          	add	a2,a0,a2
#   char *ptr = reinterpret_cast<char *>(str);
    17b4:	00050793          	mv	a5,a0
#   while (n--) {
    17b8:	00c79463          	bne	a5,a2,17c0 <memset+0x10>
#     *ptr = char(ch);
#     ++ptr;
#   }
#   return str;
# }
    17bc:	00008067          	ret
#     *ptr = char(ch);
    17c0:	00b78023          	sb	a1,0(a5)
#     ++ptr;
    17c4:	00178793          	addi	a5,a5,1
    17c8:	ff1ff06f          	j	17b8 <memset+0x8>

000017cc <memcpy>:
# 
# // built-in function called by compiler
# extern "C" auto memcpy(void *dst, void const *src, size_t n) -> void * {
#   char *p1 = reinterpret_cast<char *>(dst);
#   char const *p2 = reinterpret_cast<char const *>(src);
#   while (n--) {
    17cc:	00000793          	li	a5,0
    17d0:	00f61463          	bne	a2,a5,17d8 <memcpy+0xc>
#     *p1 = *p2;
#     ++p1;
#     ++p2;
#   }
#   return dst;
# }
    17d4:	00008067          	ret
#     *p1 = *p2;
    17d8:	00f58733          	add	a4,a1,a5
    17dc:	00074683          	lbu	a3,0(a4)
    17e0:	00f50733          	add	a4,a0,a5
    17e4:	00178793          	addi	a5,a5,1
    17e8:	00d70023          	sb	a3,0(a4)
#     ++p2;
    17ec:	fe5ff06f          	j	17d0 <memcpy+0x4>

000017f0 <_ZL12initiate_bssv>:
# 
# // zero bss section
# static auto initiate_bss() -> void {
#   memset(&__bss_start, 0, &__bss_end - &__bss_start);
    17f0:	00002537          	lui	a0,0x2
    17f4:	000027b7          	lui	a5,0x2
    17f8:	3b450613          	addi	a2,a0,948 # 23b4 <__bss_end>
    17fc:	3b478793          	addi	a5,a5,948 # 23b4 <__bss_end>
    1800:	40c78633          	sub	a2,a5,a2
    1804:	00000593          	li	a1,0
    1808:	3b450513          	addi	a0,a0,948
    180c:	fa5ff06f          	j	17b0 <memset>

00001810 <_ZL16initiate_staticsv>:
# }
# 
# static auto initiate_statics() -> void {}
    1810:	00008067          	ret

00001814 <_ZL4exiti>:
# 
    1814:	00008067          	ret

00001818 <_ZNK14command_buffer33apply_on_chars_from_cursor_to_endIZL5inputRS_EUlT_E_EEvOS2_.isra.0>:
#   auto apply_on_chars_from_cursor_to_end(
    1818:	ff010113          	addi	sp,sp,-16
    181c:	00812423          	sw	s0,8(sp)
    1820:	00112623          	sw	ra,12(sp)
    1824:	00912223          	sw	s1,4(sp)
#     for (size_t i = cursor_; i < end_; ++i) {
    1828:	05054483          	lbu	s1,80(a0)
#   auto apply_on_chars_from_cursor_to_end(
    182c:	00050413          	mv	s0,a0
#     for (size_t i = cursor_; i < end_; ++i) {
    1830:	05144783          	lbu	a5,81(s0)
    1834:	00f4ec63          	bltu	s1,a5,184c <_ZNK14command_buffer33apply_on_chars_from_cursor_to_endIZL5inputRS_EUlT_E_EEvOS2_.isra.0+0x34>
#   }
    1838:	00c12083          	lw	ra,12(sp)
    183c:	00812403          	lw	s0,8(sp)
    1840:	00412483          	lw	s1,4(sp)
    1844:	01010113          	addi	sp,sp,16
    1848:	00008067          	ret
#       f(line_[i]);
    184c:	009407b3          	add	a5,s0,s1
#               [](let c) { uart_send_char(c); });
    1850:	0007c503          	lbu	a0,0(a5)
#     for (size_t i = cursor_; i < end_; ++i) {
    1854:	00148493          	addi	s1,s1,1
    1858:	c31ff0ef          	jal	1488 <_ZL14uart_send_charc>
    185c:	fd5ff06f          	j	1830 <_ZNK14command_buffer33apply_on_chars_from_cursor_to_endIZL5inputRS_EUlT_E_EEvOS2_.isra.0+0x18>

00001860 <_ZNK4spanIcE8for_eachIZL12string_printS0_EUlT_E_EEvS2_.isra.0>:
#   auto for_each(callable_returns_void<Type> auto f) const -> void {
    1860:	ff010113          	addi	sp,sp,-16
    1864:	00812423          	sw	s0,8(sp)
#     for (Type *it = begin_; it < end_; ++it) {
    1868:	00052403          	lw	s0,0(a0)
#   auto for_each(callable_returns_void<Type> auto f) const -> void {
    186c:	00912223          	sw	s1,4(sp)
    1870:	00112623          	sw	ra,12(sp)
    1874:	00050493          	mv	s1,a0
#     for (Type *it = begin_; it < end_; ++it) {
    1878:	0044a783          	lw	a5,4(s1)
    187c:	00f46c63          	bltu	s0,a5,1894 <_ZNK4spanIcE8for_eachIZL12string_printS0_EUlT_E_EEvS2_.isra.0+0x34>
#   }
    1880:	00c12083          	lw	ra,12(sp)
    1884:	00812403          	lw	s0,8(sp)
    1888:	00412483          	lw	s1,4(sp)
    188c:	01010113          	addi	sp,sp,16
    1890:	00008067          	ret
#   str.for_each([](let ch) { uart_send_char(ch); });
    1894:	00044503          	lbu	a0,0(s0)
#     for (Type *it = begin_; it < end_; ++it) {
    1898:	00140413          	addi	s0,s0,1
    189c:	bedff0ef          	jal	1488 <_ZL14uart_send_charc>
    18a0:	fd9ff06f          	j	1878 <_ZNK4spanIcE8for_eachIZL12string_printS0_EUlT_E_EEvS2_.isra.0+0x18>
