
os:     file format elf32-littleriscv


Disassembly of section .text:

00000000 <_start>:
# # generated - do not edit (see `configuration.py`)
# .global _start
# _start:
#     li sp, 0x200000
       0:	00200137          	lui	sp,0x200
#     j run
       4:	0040006f          	j	8 <run>

00000008 <run>:
#     ++buf_ptr;
#   });
#   size_t const sector = string_to_uint32(w1.word);
#   sdcard_write_blocking(sector, buf);
# }
# 
       8:	f8010113          	addi	sp,sp,-128 # 1fff80 <__bss_end+0x1fdb90>
       c:	06112e23          	sw	ra,124(sp)
      10:	06812c23          	sw	s0,120(sp)
      14:	07212823          	sw	s2,112(sp)
      18:	07312623          	sw	s3,108(sp)
      1c:	07412423          	sw	s4,104(sp)
      20:	07512223          	sw	s5,100(sp)
      24:	06912a23          	sw	s1,116(sp)
# static auto action_sdcard_status() -> void {
      28:	011010ef          	jal	1838 <_ZL12initiate_bssv>
#   // initiate statics in freestanding build
# 
#   led_set(0b0000);
#   // turn on all leds
# 
#   uart_send_cstr(ascii_art);
      2c:	000027b7          	lui	a5,0x2
# static auto led_set(int32_t const bits) -> void { *LED = bits; }
      30:	fe002e23          	sw	zero,-4(zero) # fffffffc <__bss_end+0xffffdc0c>
      34:	3e47a503          	lw	a0,996(a5) # 23e4 <_ZL9ascii_art>
#   uart_send_cstr(hello);
# 
#   mut active_entity = entity_id_t{1};
      38:	00100413          	li	s0,1
#   mut cmd_buf = command_buffer{};
# 
#   while (true) {
#     mut &ent = entities[active_entity];
#     print_location(ent.location, active_entity);
      3c:	00002ab7          	lui	s5,0x2
#   uart_send_cstr(ascii_art);
      40:	46c010ef          	jal	14ac <_ZL14uart_send_cstrPKc>
#   uart_send_cstr(hello);
      44:	000027b7          	lui	a5,0x2
      48:	3e07a503          	lw	a0,992(a5) # 23e0 <_ZL5hello>
#     uart_send_cstr(ent.name);
#     uart_send_cstr(" > ");
      4c:	00002a37          	lui	s4,0x2
#     input(cmd_buf);
#     uart_send_cstr("\r\n");
      50:	000029b7          	lui	s3,0x2
#   uart_send_cstr(hello);
      54:	458010ef          	jal	14ac <_ZL14uart_send_cstrPKc>
#   mut cmd_buf = command_buffer{};
      58:	05200613          	li	a2,82
      5c:	00000593          	li	a1,0
      60:	00c10513          	addi	a0,sp,12
      64:	794010ef          	jal	17f8 <memset>
#     handle_input(active_entity, cmd_buf);
#     active_entity = active_entity == 1 ? 2 : 1;
      68:	00300913          	li	s2,3
#     print_location(ent.location, active_entity);
      6c:	00141793          	slli	a5,s0,0x1
      70:	008787b3          	add	a5,a5,s0
      74:	00279793          	slli	a5,a5,0x2
      78:	408787b3          	sub	a5,a5,s0
      7c:	00279793          	slli	a5,a5,0x2
      80:	024a8493          	addi	s1,s5,36 # 2024 <_ZL8entities>
      84:	00f484b3          	add	s1,s1,a5
      88:	0044c503          	lbu	a0,4(s1)
      8c:	00040593          	mv	a1,s0
      90:	4b8000ef          	jal	548 <_ZL14print_locationhh>
#     uart_send_cstr(ent.name);
      94:	0004a503          	lw	a0,0(s1)
      98:	414010ef          	jal	14ac <_ZL14uart_send_cstrPKc>
#     uart_send_cstr(" > ");
      9c:	ccca0513          	addi	a0,s4,-820 # 1ccc <_ZNK4spanIcE8for_eachIZL12string_printS0_EUlT_E_EEvS2_.isra.0+0x424>
      a0:	40c010ef          	jal	14ac <_ZL14uart_send_cstrPKc>
#     input(cmd_buf);
      a4:	00c10513          	addi	a0,sp,12
      a8:	78d000ef          	jal	1034 <_ZL5inputR14command_buffer>
#     uart_send_cstr("\r\n");
      ac:	cd098513          	addi	a0,s3,-816 # 1cd0 <_ZNK4spanIcE8for_eachIZL12string_printS0_EUlT_E_EEvS2_.isra.0+0x428>
      b0:	3fc010ef          	jal	14ac <_ZL14uart_send_cstrPKc>
#     handle_input(active_entity, cmd_buf);
      b4:	00040513          	mv	a0,s0
      b8:	00c10593          	addi	a1,sp,12
#     active_entity = active_entity == 1 ? 2 : 1;
      bc:	40890433          	sub	s0,s2,s0
#     handle_input(active_entity, cmd_buf);
      c0:	124000ef          	jal	1e4 <_ZL12handle_inputhR14command_buffer>
#     active_entity = active_entity == 1 ? 2 : 1;
      c4:	0ff47413          	zext.b	s0,s0
      c8:	fa5ff06f          	j	6c <run+0x64>

000000cc <_ZL18string_equals_cstr4spanIcEPKc>:
#   }
# }
# 
# static auto string_equals_cstr(string const str, char const *cstr) -> bool {
      cc:	ff010113          	addi	sp,sp,-16
      d0:	00a12423          	sw	a0,8(sp)
      d4:	00b12623          	sw	a1,12(sp)
#   mut e = str.for_each_until_false([&cstr](let ch) {
#     if (*cstr && *cstr == ch) {
      d8:	00064783          	lbu	a5,0(a2)
#   }
# 
#   auto
#   for_each_until_false(callable_returns_bool<Type> auto f) const -> position {
#     Type *it = begin_;
#     for (; it < end_; ++it) {
      dc:	00b56e63          	bltu	a0,a1,f8 <_ZL18string_equals_cstr4spanIcEPKc+0x2c>
#       ++cstr;
#       return true;
#     }
#     return false;
#   });
#   return *cstr == '\0' && str.is_at_end(e);
      e0:	40b50533          	sub	a0,a0,a1
      e4:	00153593          	seqz	a1,a0
      e8:	0017b513          	seqz	a0,a5
# }
      ec:	00a5f533          	and	a0,a1,a0
      f0:	01010113          	addi	sp,sp,16
      f4:	00008067          	ret
#     if (*cstr && *cstr == ch) {
      f8:	fe0784e3          	beqz	a5,e0 <_ZL18string_equals_cstr4spanIcEPKc+0x14>
      fc:	00054703          	lbu	a4,0(a0)
     100:	fef710e3          	bne	a4,a5,e0 <_ZL18string_equals_cstr4spanIcEPKc+0x14>
#       ++cstr;
     104:	00160613          	addi	a2,a2,1
     108:	00150513          	addi	a0,a0,1
     10c:	fcdff06f          	j	d8 <_ZL18string_equals_cstr4spanIcEPKc+0xc>

00000110 <_ZL12string_print4spanIcE>:
# 
# static auto string_print(string const str) -> void {
     110:	fe010113          	addi	sp,sp,-32
     114:	00a12423          	sw	a0,8(sp)
#   str.for_each([](let ch) { uart_send_char(ch); });
     118:	00810513          	addi	a0,sp,8
# static auto string_print(string const str) -> void {
     11c:	00112e23          	sw	ra,28(sp)
     120:	00b12623          	sw	a1,12(sp)
#   str.for_each([](let ch) { uart_send_char(ch); });
     124:	784010ef          	jal	18a8 <_ZNK4spanIcE8for_eachIZL12string_printS0_EUlT_E_EEvS2_.isra.0>
# }
     128:	01c12083          	lw	ra,28(sp)
     12c:	02010113          	addi	sp,sp,32
     130:	00008067          	ret

00000134 <_ZL16string_next_word4spanIcE>:
#   string word{};
#   string rem{};
# };
# 
# static auto
# string_next_word(string const str) -> struct string_next_word_return {
     134:	fe010113          	addi	sp,sp,-32
     138:	00b12423          	sw	a1,8(sp)
     13c:	00c12623          	sw	a2,12(sp)
#     Type *it = begin_;
     140:	00058713          	mv	a4,a1
#     for (; it < end_; ++it) {
     144:	02c76e63          	bltu	a4,a2,180 <_ZL16string_next_word4spanIcE+0x4c>
#         return {};
     148:	00000793          	li	a5,0
     14c:	00000693          	li	a3,0
#       if (pos.ptr > end_ || pos.ptr < begin_) {
     150:	02e67e63          	bgeu	a2,a4,18c <_ZL16string_next_word4spanIcE+0x58>
     154:	00d12823          	sw	a3,16(sp)
     158:	00f12a23          	sw	a5,20(sp)
#       if (pos.ptr > end_ || pos.ptr < begin_) {
     15c:	00e66c63          	bltu	a2,a4,174 <_ZL16string_next_word4spanIcE+0x40>
     160:	00b76a63          	bltu	a4,a1,174 <_ZL16string_next_word4spanIcE+0x40>
#     Type *it = begin_;
     164:	00070793          	mv	a5,a4
#       if (!f(*it)) {
     168:	02000693          	li	a3,32
#     for (; it < end_; ++it) {
     16c:	04c7e263          	bltu	a5,a2,1b0 <_ZL16string_next_word4spanIcE+0x7c>
#       if (pos.ptr > end_ || pos.ptr < begin_) {
     170:	04f67463          	bgeu	a2,a5,1b8 <_ZL16string_next_word4spanIcE+0x84>
#         return {};
     174:	00000613          	li	a2,0
     178:	00000793          	li	a5,0
     17c:	0400006f          	j	1bc <_ZL16string_next_word4spanIcE+0x88>
#   mut ce =
#       str.for_each_until_false([](let ch) { return ch != ' ' && ch != '\0'; });
     180:	00074783          	lbu	a5,0(a4)
     184:	0df7f793          	andi	a5,a5,223
     188:	00079a63          	bnez	a5,19c <_ZL16string_next_word4spanIcE+0x68>
#       if (pos.ptr > end_ || pos.ptr < begin_) {
     18c:	00b76c63          	bltu	a4,a1,1a4 <_ZL16string_next_word4spanIcE+0x70>
#     return {begin_, pos.ptr};
     190:	00070793          	mv	a5,a4
     194:	00058693          	mv	a3,a1
     198:	fbdff06f          	j	154 <_ZL16string_next_word4spanIcE+0x20>
#     for (; it < end_; ++it) {
     19c:	00170713          	addi	a4,a4,1
     1a0:	fa5ff06f          	j	144 <_ZL16string_next_word4spanIcE+0x10>
#         return {};
     1a4:	00000793          	li	a5,0
     1a8:	00000693          	li	a3,0
     1ac:	fa9ff06f          	j	154 <_ZL16string_next_word4spanIcE+0x20>
#       if (!f(*it)) {
     1b0:	0007c583          	lbu	a1,0(a5)
     1b4:	02d58463          	beq	a1,a3,1dc <_ZL16string_next_word4spanIcE+0xa8>
#       if (pos.ptr > end_ || pos.ptr < begin_) {
     1b8:	fae7eee3          	bltu	a5,a4,174 <_ZL16string_next_word4spanIcE+0x40>
#   let word = str.subspan_ending_at(ce);
#   let rem = str.subspan_starting_at(ce);
#   let rem_trimmed = rem.subspan_starting_at(
#       rem.for_each_until_false([](let ch) { return ch == ' '; }));
#   return {word, rem_trimmed};
     1bc:	01012703          	lw	a4,16(sp)
     1c0:	00f52423          	sw	a5,8(a0)
     1c4:	00c52623          	sw	a2,12(a0)
     1c8:	00e52023          	sw	a4,0(a0)
     1cc:	01412703          	lw	a4,20(sp)
     1d0:	00e52223          	sw	a4,4(a0)
# }
     1d4:	02010113          	addi	sp,sp,32
     1d8:	00008067          	ret
#     for (; it < end_; ++it) {
     1dc:	00178793          	addi	a5,a5,1
     1e0:	f8dff06f          	j	16c <_ZL16string_next_word4spanIcE+0x38>

000001e4 <_ZL12handle_inputhR14command_buffer>:
# 
# static auto
# handle_input(entity_id_t const eid, command_buffer &cmd_buf) -> void {
     1e4:	fb010113          	addi	sp,sp,-80
     1e8:	04812423          	sw	s0,72(sp)
     1ec:	04912223          	sw	s1,68(sp)
     1f0:	05212023          	sw	s2,64(sp)
     1f4:	03312e23          	sw	s3,60(sp)
     1f8:	03412c23          	sw	s4,56(sp)
     1fc:	04112623          	sw	ra,76(sp)
#     }
#   }
# 
#   auto characters_after_cursor() const -> size_t { return end_ - cursor_; }
# 
#   auto input_length() const -> size_t { return end_; }
     200:	0515c603          	lbu	a2,81(a1)
     204:	00050913          	mv	s2,a0
# 
#   let line = cmd_buf.string();
#   let w1 = string_next_word(line);
     208:	02010513          	addi	a0,sp,32
     20c:	00c58633          	add	a2,a1,a2
     210:	f25ff0ef          	jal	134 <_ZL16string_next_word4spanIcE>
#   let cmd = w1.word;
     214:	02012483          	lw	s1,32(sp)
     218:	02412403          	lw	s0,36(sp)
#   let args = w1.rem;
     21c:	02812a03          	lw	s4,40(sp)
     220:	02c12983          	lw	s3,44(sp)
# 
#   if (string_equals_cstr(cmd, "help")) {
     224:	00002637          	lui	a2,0x2
     228:	cd460613          	addi	a2,a2,-812 # 1cd4 <_ZNK4spanIcE8for_eachIZL12string_printS0_EUlT_E_EEvS2_.isra.0+0x42c>
     22c:	00048513          	mv	a0,s1
     230:	00040593          	mv	a1,s0
#   let cmd = w1.word;
     234:	00912823          	sw	s1,16(sp)
     238:	00812a23          	sw	s0,20(sp)
#   let args = w1.rem;
     23c:	01412c23          	sw	s4,24(sp)
     240:	01312e23          	sw	s3,28(sp)
#   if (string_equals_cstr(cmd, "help")) {
     244:	e89ff0ef          	jal	cc <_ZL18string_equals_cstr4spanIcEPKc>
     248:	02050263          	beqz	a0,26c <_ZL12handle_inputhR14command_buffer+0x88>
#   } else if (string_equals_cstr(cmd, "q")) {
#     exit(0);
#   } else {
#     uart_send_cstr("not understood\r\n\r\n");
#   }
# }
     24c:	04812403          	lw	s0,72(sp)
     250:	04c12083          	lw	ra,76(sp)
     254:	04412483          	lw	s1,68(sp)
     258:	04012903          	lw	s2,64(sp)
     25c:	03c12983          	lw	s3,60(sp)
     260:	03812a03          	lw	s4,56(sp)
     264:	05010113          	addi	sp,sp,80
#     print_help();
     268:	5ad0006f          	j	1014 <_ZL10print_helpv>
#   } else if (string_equals_cstr(cmd, "i")) {
     26c:	00002637          	lui	a2,0x2
     270:	cdc60613          	addi	a2,a2,-804 # 1cdc <_ZNK4spanIcE8for_eachIZL12string_printS0_EUlT_E_EEvS2_.isra.0+0x434>
     274:	00048513          	mv	a0,s1
     278:	00040593          	mv	a1,s0
     27c:	e51ff0ef          	jal	cc <_ZL18string_equals_cstr4spanIcEPKc>
     280:	02050a63          	beqz	a0,2b4 <_ZL12handle_inputhR14command_buffer+0xd0>
#     action_inventory(eid);
     284:	00090513          	mv	a0,s2
     288:	4e8000ef          	jal	770 <_ZL16action_inventoryh>
#     uart_send_cstr("\r\n");
     28c:	00002537          	lui	a0,0x2
     290:	cd050513          	addi	a0,a0,-816 # 1cd0 <_ZNK4spanIcE8for_eachIZL12string_printS0_EUlT_E_EEvS2_.isra.0+0x428>
# }
     294:	04812403          	lw	s0,72(sp)
     298:	04c12083          	lw	ra,76(sp)
     29c:	04412483          	lw	s1,68(sp)
     2a0:	04012903          	lw	s2,64(sp)
     2a4:	03c12983          	lw	s3,60(sp)
     2a8:	03812a03          	lw	s4,56(sp)
     2ac:	05010113          	addi	sp,sp,80
#     uart_send_cstr("not understood\r\n\r\n");
     2b0:	1fc0106f          	j	14ac <_ZL14uart_send_cstrPKc>
#   } else if (string_equals_cstr(cmd, "t")) {
     2b4:	00002637          	lui	a2,0x2
     2b8:	ce060613          	addi	a2,a2,-800 # 1ce0 <_ZNK4spanIcE8for_eachIZL12string_printS0_EUlT_E_EEvS2_.isra.0+0x438>
     2bc:	00048513          	mv	a0,s1
     2c0:	00040593          	mv	a1,s0
     2c4:	e09ff0ef          	jal	cc <_ZL18string_equals_cstr4spanIcEPKc>
     2c8:	02050863          	beqz	a0,2f8 <_ZL12handle_inputhR14command_buffer+0x114>
# }
     2cc:	04812403          	lw	s0,72(sp)
     2d0:	04c12083          	lw	ra,76(sp)
     2d4:	04412483          	lw	s1,68(sp)
#     action_take(eid, args);
     2d8:	000a0593          	mv	a1,s4
     2dc:	00098613          	mv	a2,s3
# }
     2e0:	03812a03          	lw	s4,56(sp)
     2e4:	03c12983          	lw	s3,60(sp)
#     action_take(eid, args);
     2e8:	00090513          	mv	a0,s2
# }
     2ec:	04012903          	lw	s2,64(sp)
     2f0:	05010113          	addi	sp,sp,80
#     action_take(eid, args);
     2f4:	5500006f          	j	844 <_ZL11action_takeh4spanIcE>
#   } else if (string_equals_cstr(cmd, "d")) {
     2f8:	00002637          	lui	a2,0x2
     2fc:	ce460613          	addi	a2,a2,-796 # 1ce4 <_ZNK4spanIcE8for_eachIZL12string_printS0_EUlT_E_EEvS2_.isra.0+0x43c>
     300:	00048513          	mv	a0,s1
     304:	00040593          	mv	a1,s0
     308:	dc5ff0ef          	jal	cc <_ZL18string_equals_cstr4spanIcEPKc>
     30c:	02050863          	beqz	a0,33c <_ZL12handle_inputhR14command_buffer+0x158>
# }
     310:	04812403          	lw	s0,72(sp)
     314:	04c12083          	lw	ra,76(sp)
     318:	04412483          	lw	s1,68(sp)
#     action_drop(eid, args);
     31c:	000a0593          	mv	a1,s4
     320:	00098613          	mv	a2,s3
# }
     324:	03812a03          	lw	s4,56(sp)
     328:	03c12983          	lw	s3,60(sp)
#     action_drop(eid, args);
     32c:	00090513          	mv	a0,s2
# }
     330:	04012903          	lw	s2,64(sp)
     334:	05010113          	addi	sp,sp,80
#     action_drop(eid, args);
     338:	7000006f          	j	a38 <_ZL11action_droph4spanIcE>
#   } else if (string_equals_cstr(cmd, "n")) {
     33c:	00002637          	lui	a2,0x2
     340:	00040593          	mv	a1,s0
     344:	ce860613          	addi	a2,a2,-792 # 1ce8 <_ZNK4spanIcE8for_eachIZL12string_printS0_EUlT_E_EEvS2_.isra.0+0x440>
     348:	00048513          	mv	a0,s1
     34c:	d81ff0ef          	jal	cc <_ZL18string_equals_cstr4spanIcEPKc>
#     action_go(eid, 0);
     350:	00000593          	li	a1,0
#   } else if (string_equals_cstr(cmd, "n")) {
     354:	02051063          	bnez	a0,374 <_ZL12handle_inputhR14command_buffer+0x190>
#   } else if (string_equals_cstr(cmd, "e")) {
     358:	00002637          	lui	a2,0x2
     35c:	cec60613          	addi	a2,a2,-788 # 1cec <_ZNK4spanIcE8for_eachIZL12string_printS0_EUlT_E_EEvS2_.isra.0+0x444>
     360:	00048513          	mv	a0,s1
     364:	00040593          	mv	a1,s0
     368:	d65ff0ef          	jal	cc <_ZL18string_equals_cstr4spanIcEPKc>
     36c:	02050663          	beqz	a0,398 <_ZL12handle_inputhR14command_buffer+0x1b4>
#     action_go(eid, 1);
     370:	00100593          	li	a1,1
# }
     374:	04812403          	lw	s0,72(sp)
     378:	04c12083          	lw	ra,76(sp)
     37c:	04412483          	lw	s1,68(sp)
     380:	03c12983          	lw	s3,60(sp)
     384:	03812a03          	lw	s4,56(sp)
#     action_go(eid, 1);
     388:	00090513          	mv	a0,s2
# }
     38c:	04012903          	lw	s2,64(sp)
     390:	05010113          	addi	sp,sp,80
#     action_go(eid, 1);
     394:	0850006f          	j	c18 <_ZL9action_gohh>
#   } else if (string_equals_cstr(cmd, "s")) {
     398:	00002637          	lui	a2,0x2
     39c:	00040593          	mv	a1,s0
     3a0:	cf060613          	addi	a2,a2,-784 # 1cf0 <_ZNK4spanIcE8for_eachIZL12string_printS0_EUlT_E_EEvS2_.isra.0+0x448>
     3a4:	00048513          	mv	a0,s1
     3a8:	d25ff0ef          	jal	cc <_ZL18string_equals_cstr4spanIcEPKc>
#     action_go(eid, 2);
     3ac:	00200593          	li	a1,2
#   } else if (string_equals_cstr(cmd, "s")) {
     3b0:	fc0512e3          	bnez	a0,374 <_ZL12handle_inputhR14command_buffer+0x190>
#   } else if (string_equals_cstr(cmd, "w")) {
     3b4:	00002637          	lui	a2,0x2
     3b8:	00040593          	mv	a1,s0
     3bc:	cf460613          	addi	a2,a2,-780 # 1cf4 <_ZNK4spanIcE8for_eachIZL12string_printS0_EUlT_E_EEvS2_.isra.0+0x44c>
     3c0:	00048513          	mv	a0,s1
     3c4:	d09ff0ef          	jal	cc <_ZL18string_equals_cstr4spanIcEPKc>
#     action_go(eid, 3);
     3c8:	00300593          	li	a1,3
#   } else if (string_equals_cstr(cmd, "w")) {
     3cc:	fa0514e3          	bnez	a0,374 <_ZL12handle_inputhR14command_buffer+0x190>
#   } else if (string_equals_cstr(cmd, "g")) {
     3d0:	00002637          	lui	a2,0x2
     3d4:	cf860613          	addi	a2,a2,-776 # 1cf8 <_ZNK4spanIcE8for_eachIZL12string_printS0_EUlT_E_EEvS2_.isra.0+0x450>
     3d8:	00048513          	mv	a0,s1
     3dc:	00040593          	mv	a1,s0
     3e0:	cedff0ef          	jal	cc <_ZL18string_equals_cstr4spanIcEPKc>
     3e4:	02050863          	beqz	a0,414 <_ZL12handle_inputhR14command_buffer+0x230>
# }
     3e8:	04812403          	lw	s0,72(sp)
     3ec:	04c12083          	lw	ra,76(sp)
     3f0:	04412483          	lw	s1,68(sp)
#     action_give(eid, args);
     3f4:	000a0593          	mv	a1,s4
     3f8:	00098613          	mv	a2,s3
# }
     3fc:	03812a03          	lw	s4,56(sp)
     400:	03c12983          	lw	s3,60(sp)
#     action_give(eid, args);
     404:	00090513          	mv	a0,s2
# }
     408:	04012903          	lw	s2,64(sp)
     40c:	05010113          	addi	sp,sp,80
#     action_give(eid, args);
     410:	1090006f          	j	d18 <_ZL11action_giveh4spanIcE>
#   } else if (string_equals_cstr(cmd, "m")) {
     414:	00002637          	lui	a2,0x2
     418:	cfc60613          	addi	a2,a2,-772 # 1cfc <_ZNK4spanIcE8for_eachIZL12string_printS0_EUlT_E_EEvS2_.isra.0+0x454>
     41c:	00048513          	mv	a0,s1
     420:	00040593          	mv	a1,s0
     424:	ca9ff0ef          	jal	cc <_ZL18string_equals_cstr4spanIcEPKc>
     428:	02050263          	beqz	a0,44c <_ZL12handle_inputhR14command_buffer+0x268>
# }
     42c:	04812403          	lw	s0,72(sp)
     430:	04c12083          	lw	ra,76(sp)
     434:	04412483          	lw	s1,68(sp)
     438:	04012903          	lw	s2,64(sp)
     43c:	03c12983          	lw	s3,60(sp)
     440:	03812a03          	lw	s4,56(sp)
     444:	05010113          	addi	sp,sp,80
#     action_mem_test();
     448:	0b00106f          	j	14f8 <_ZL15action_mem_testv>
#   } else if (string_equals_cstr(cmd, "sds")) {
     44c:	01012503          	lw	a0,16(sp)
     450:	01412583          	lw	a1,20(sp)
     454:	00002637          	lui	a2,0x2
     458:	d0060613          	addi	a2,a2,-768 # 1d00 <_ZNK4spanIcE8for_eachIZL12string_printS0_EUlT_E_EEvS2_.isra.0+0x458>
     45c:	c71ff0ef          	jal	cc <_ZL18string_equals_cstr4spanIcEPKc>
     460:	02050263          	beqz	a0,484 <_ZL12handle_inputhR14command_buffer+0x2a0>
# }
     464:	04812403          	lw	s0,72(sp)
     468:	04c12083          	lw	ra,76(sp)
     46c:	04412483          	lw	s1,68(sp)
     470:	04012903          	lw	s2,64(sp)
     474:	03c12983          	lw	s3,60(sp)
     478:	03812a03          	lw	s4,56(sp)
     47c:	05010113          	addi	sp,sp,80
#     action_sdcard_status();
     480:	2bc0106f          	j	173c <_ZL20action_sdcard_statusv>
#   } else if (string_equals_cstr(cmd, "sdr")) {
     484:	01012503          	lw	a0,16(sp)
     488:	01412583          	lw	a1,20(sp)
     48c:	00002637          	lui	a2,0x2
     490:	d0460613          	addi	a2,a2,-764 # 1d04 <_ZNK4spanIcE8for_eachIZL12string_printS0_EUlT_E_EEvS2_.isra.0+0x45c>
     494:	c39ff0ef          	jal	cc <_ZL18string_equals_cstr4spanIcEPKc>
     498:	02050663          	beqz	a0,4c4 <_ZL12handle_inputhR14command_buffer+0x2e0>
# }
     49c:	04812403          	lw	s0,72(sp)
#     action_sdcard_test_read(args);
     4a0:	01812503          	lw	a0,24(sp)
     4a4:	01c12583          	lw	a1,28(sp)
# }
     4a8:	04c12083          	lw	ra,76(sp)
     4ac:	04412483          	lw	s1,68(sp)
     4b0:	04012903          	lw	s2,64(sp)
     4b4:	03c12983          	lw	s3,60(sp)
     4b8:	03812a03          	lw	s4,56(sp)
     4bc:	05010113          	addi	sp,sp,80
#     action_sdcard_test_read(args);
     4c0:	1580106f          	j	1618 <_ZL23action_sdcard_test_read4spanIcE>
#   } else if (string_equals_cstr(cmd, "sdw")) {
     4c4:	01012503          	lw	a0,16(sp)
     4c8:	01412583          	lw	a1,20(sp)
     4cc:	00002637          	lui	a2,0x2
     4d0:	d0860613          	addi	a2,a2,-760 # 1d08 <_ZNK4spanIcE8for_eachIZL12string_printS0_EUlT_E_EEvS2_.isra.0+0x460>
     4d4:	bf9ff0ef          	jal	cc <_ZL18string_equals_cstr4spanIcEPKc>
     4d8:	02050663          	beqz	a0,504 <_ZL12handle_inputhR14command_buffer+0x320>
# }
     4dc:	04812403          	lw	s0,72(sp)
#     action_sdcard_test_write(args);
     4e0:	01812503          	lw	a0,24(sp)
     4e4:	01c12583          	lw	a1,28(sp)
# }
     4e8:	04c12083          	lw	ra,76(sp)
     4ec:	04412483          	lw	s1,68(sp)
     4f0:	04012903          	lw	s2,64(sp)
     4f4:	03c12983          	lw	s3,60(sp)
     4f8:	03812a03          	lw	s4,56(sp)
     4fc:	05010113          	addi	sp,sp,80
#     action_sdcard_test_write(args);
     500:	1a80106f          	j	16a8 <_ZL24action_sdcard_test_write4spanIcE>
#   } else if (string_equals_cstr(cmd, "q")) {
     504:	01012503          	lw	a0,16(sp)
     508:	01412583          	lw	a1,20(sp)
     50c:	00002637          	lui	a2,0x2
     510:	d0c60613          	addi	a2,a2,-756 # 1d0c <_ZNK4spanIcE8for_eachIZL12string_printS0_EUlT_E_EEvS2_.isra.0+0x464>
     514:	bb9ff0ef          	jal	cc <_ZL18string_equals_cstr4spanIcEPKc>
     518:	00051863          	bnez	a0,528 <_ZL12handle_inputhR14command_buffer+0x344>
#     uart_send_cstr("not understood\r\n\r\n");
     51c:	00002537          	lui	a0,0x2
     520:	d1050513          	addi	a0,a0,-752 # 1d10 <_ZNK4spanIcE8for_eachIZL12string_printS0_EUlT_E_EEvS2_.isra.0+0x468>
     524:	d71ff06f          	j	294 <_ZL12handle_inputhR14command_buffer+0xb0>
# }
     528:	04c12083          	lw	ra,76(sp)
     52c:	04812403          	lw	s0,72(sp)
     530:	04412483          	lw	s1,68(sp)
     534:	04012903          	lw	s2,64(sp)
     538:	03c12983          	lw	s3,60(sp)
     53c:	03812a03          	lw	s4,56(sp)
     540:	05010113          	addi	sp,sp,80
     544:	00008067          	ret

00000548 <_ZL14print_locationhh>:
# 
# static auto print_location(location_id_t const lid,
#                            entity_id_t const eid_exclude_from_output) -> void {
     548:	fb010113          	addi	sp,sp,-80
     54c:	03312e23          	sw	s3,60(sp)
     550:	00050993          	mv	s3,a0
#   mut &loc = locations[lid];
#   uart_send_cstr("u r in ");
     554:	00002537          	lui	a0,0x2
     558:	d2450513          	addi	a0,a0,-732 # 1d24 <_ZNK4spanIcE8for_eachIZL12string_printS0_EUlT_E_EEvS2_.isra.0+0x47c>
#                            entity_id_t const eid_exclude_from_output) -> void {
     55c:	04112623          	sw	ra,76(sp)
     560:	00b12623          	sw	a1,12(sp)
     564:	04812423          	sw	s0,72(sp)
     568:	04912223          	sw	s1,68(sp)
     56c:	05212023          	sw	s2,64(sp)
     570:	03412c23          	sw	s4,56(sp)
     574:	03512a23          	sw	s5,52(sp)
     578:	03712623          	sw	s7,44(sp)
     57c:	03812423          	sw	s8,40(sp)
     580:	03912223          	sw	s9,36(sp)
     584:	03612823          	sw	s6,48(sp)
     588:	03a12023          	sw	s10,32(sp)
     58c:	01b12e23          	sw	s11,28(sp)
#   uart_send_cstr(loc.name);
     590:	00299913          	slli	s2,s3,0x2
#   uart_send_cstr("u r in ");
     594:	719000ef          	jal	14ac <_ZL14uart_send_cstrPKc>
#   uart_send_cstr(loc.name);
     598:	000024b7          	lui	s1,0x2
     59c:	013907b3          	add	a5,s2,s3
     5a0:	00579793          	slli	a5,a5,0x5
     5a4:	0a848413          	addi	s0,s1,168 # 20a8 <_ZL9locations>
     5a8:	00f40433          	add	s0,s0,a5
     5ac:	00042503          	lw	a0,0(s0)
     5b0:	00040a93          	mv	s5,s0
#     }
#     return {i};
#   }
# 
#   auto for_each(callable_returns_void<Type> auto f) const -> void {
#     for (size_t i = 0; i < len; ++i) {
     5b4:	00040b93          	mv	s7,s0
     5b8:	6f5000ef          	jal	14ac <_ZL14uart_send_cstrPKc>
#   uart_send_cstr("\r\nu c: ");
     5bc:	00002537          	lui	a0,0x2
     5c0:	d2c50513          	addi	a0,a0,-724 # 1d2c <_ZNK4spanIcE8for_eachIZL12string_printS0_EUlT_E_EEvS2_.isra.0+0x484>
     5c4:	6e9000ef          	jal	14ac <_ZL14uart_send_cstrPKc>
     5c8:	00000a13          	li	s4,0
     5cc:	0a848493          	addi	s1,s1,168
#   // print objects at location
#   {
#     mut counter = 0;
#     loc.objects.for_each([&counter](let id) {
#       if (counter++) {
#         uart_send_cstr(", ");
     5d0:	00002c37          	lui	s8,0x2
#       }
#       uart_send_cstr(objects[id].name);
     5d4:	00002cb7          	lui	s9,0x2
     5d8:	08442783          	lw	a5,132(s0)
     5dc:	0cfa6a63          	bltu	s4,a5,6b0 <_ZL14print_locationhh+0x168>
#     });
#     if (!counter) {
     5e0:	000a1863          	bnez	s4,5f0 <_ZL14print_locationhh+0xa8>
#       uart_send_cstr("nothing");
     5e4:	00002537          	lui	a0,0x2
     5e8:	d3850513          	addi	a0,a0,-712 # 1d38 <_ZNK4spanIcE8for_eachIZL12string_printS0_EUlT_E_EEvS2_.isra.0+0x490>
     5ec:	6c1000ef          	jal	14ac <_ZL14uart_send_cstrPKc>
#     }
#     uart_send_cstr("\r\n");
     5f0:	00002bb7          	lui	s7,0x2
     5f4:	cd0b8513          	addi	a0,s7,-816 # 1cd0 <_ZNK4spanIcE8for_eachIZL12string_printS0_EUlT_E_EEvS2_.isra.0+0x428>
     5f8:	01390a33          	add	s4,s2,s3
     5fc:	6b1000ef          	jal	14ac <_ZL14uart_send_cstrPKc>
     600:	005a1a13          	slli	s4,s4,0x5
#   }
# 
#   // print entities in location
#   {
#     mut counter = 0;
     604:	00000793          	li	a5,0
     608:	00000b13          	li	s6,0
     60c:	01448a33          	add	s4,s1,s4
#         return;
#       }
#       if (counter++) {
#         uart_send_cstr(", ");
#       }
#       uart_send_cstr(entities[id].name);
     610:	00002c37          	lui	s8,0x2
#         uart_send_cstr(", ");
     614:	00002cb7          	lui	s9,0x2
     618:	090a2683          	lw	a3,144(s4)
     61c:	0cdb6263          	bltu	s6,a3,6e0 <_ZL14print_locationhh+0x198>
#     });
#     if (counter != 0) {
     620:	00078863          	beqz	a5,630 <_ZL14print_locationhh+0xe8>
#       uart_send_cstr(" is here\r\n");
     624:	00002537          	lui	a0,0x2
     628:	d4050513          	addi	a0,a0,-704 # 1d40 <_ZNK4spanIcE8for_eachIZL12string_printS0_EUlT_E_EEvS2_.isra.0+0x498>
     62c:	681000ef          	jal	14ac <_ZL14uart_send_cstrPKc>
#   auto length() const -> size_t { return len; }
     630:	01390933          	add	s2,s2,s3
     634:	00591913          	slli	s2,s2,0x5
#   }
# 
#   // print exits from location
#   {
#     mut counter = 0;
#     uart_send_cstr("exits: ");
     638:	00002537          	lui	a0,0x2
     63c:	012484b3          	add	s1,s1,s2
     640:	d4c50513          	addi	a0,a0,-692 # 1d4c <_ZNK4spanIcE8for_eachIZL12string_printS0_EUlT_E_EEvS2_.isra.0+0x4a4>
     644:	669000ef          	jal	14ac <_ZL14uart_send_cstrPKc>
     648:	09c4a983          	lw	s3,156(s1)
#     mut &lse = loc.exits;
#     let n = lse.length();
#     for (mut i = 0u; i < n; ++i) {
     64c:	00002437          	lui	s0,0x2
     650:	3c840413          	addi	s0,s0,968 # 23c8 <_ZL10exit_names>
     654:	00000913          	li	s2,0
#     mut counter = 0;
     658:	00000793          	li	a5,0
#     for (mut i = 0u; i < n; ++i) {
     65c:	0d391a63          	bne	s2,s3,730 <_ZL14print_locationhh+0x1e8>
#       if (counter++) {
#         uart_send_cstr(", ");
#       }
#       uart_send_cstr(exit_names[i]);
#     }
#     if (counter == 0) {
     660:	00079863          	bnez	a5,670 <_ZL14print_locationhh+0x128>
#       uart_send_cstr("none");
     664:	00002537          	lui	a0,0x2
     668:	d5450513          	addi	a0,a0,-684 # 1d54 <_ZNK4spanIcE8for_eachIZL12string_printS0_EUlT_E_EEvS2_.isra.0+0x4ac>
     66c:	641000ef          	jal	14ac <_ZL14uart_send_cstrPKc>
#     }
#     uart_send_cstr("\r\n");
#   }
# }
     670:	04812403          	lw	s0,72(sp)
     674:	04c12083          	lw	ra,76(sp)
     678:	04412483          	lw	s1,68(sp)
     67c:	04012903          	lw	s2,64(sp)
     680:	03c12983          	lw	s3,60(sp)
     684:	03812a03          	lw	s4,56(sp)
     688:	03412a83          	lw	s5,52(sp)
     68c:	03012b03          	lw	s6,48(sp)
     690:	02812c03          	lw	s8,40(sp)
     694:	02412c83          	lw	s9,36(sp)
     698:	02012d03          	lw	s10,32(sp)
     69c:	01c12d83          	lw	s11,28(sp)
#     uart_send_cstr("\r\n");
     6a0:	cd0b8513          	addi	a0,s7,-816
# }
     6a4:	02c12b83          	lw	s7,44(sp)
     6a8:	05010113          	addi	sp,sp,80
#     uart_send_cstr("\r\n");
     6ac:	6010006f          	j	14ac <_ZL14uart_send_cstrPKc>
#       f(data[i]);
     6b0:	004bcd03          	lbu	s10,4(s7)
#       if (counter++) {
     6b4:	000a0663          	beqz	s4,6c0 <_ZL14print_locationhh+0x178>
#         uart_send_cstr(", ");
     6b8:	d34c0513          	addi	a0,s8,-716 # 1d34 <_ZNK4spanIcE8for_eachIZL12string_printS0_EUlT_E_EEvS2_.isra.0+0x48c>
     6bc:	5f1000ef          	jal	14ac <_ZL14uart_send_cstrPKc>
#       uart_send_cstr(objects[id].name);
     6c0:	014c8793          	addi	a5,s9,20 # 2014 <_ZL7objects>
     6c4:	002d1d13          	slli	s10,s10,0x2
     6c8:	01a787b3          	add	a5,a5,s10
     6cc:	0007a503          	lw	a0,0(a5)
#     for (size_t i = 0; i < len; ++i) {
     6d0:	001a0a13          	addi	s4,s4,1
     6d4:	001b8b93          	addi	s7,s7,1
     6d8:	5d5000ef          	jal	14ac <_ZL14uart_send_cstrPKc>
     6dc:	efdff06f          	j	5d8 <_ZL14print_locationhh+0x90>
#       f(data[i]);
     6e0:	08844d83          	lbu	s11,136(s0)
#       if (id == eid_exclude_from_output) {
     6e4:	00c12703          	lw	a4,12(sp)
     6e8:	03b70e63          	beq	a4,s11,724 <_ZL14print_locationhh+0x1dc>
#       if (counter++) {
     6ec:	00178d13          	addi	s10,a5,1
     6f0:	00078663          	beqz	a5,6fc <_ZL14print_locationhh+0x1b4>
#         uart_send_cstr(", ");
     6f4:	d34c8513          	addi	a0,s9,-716
     6f8:	5b5000ef          	jal	14ac <_ZL14uart_send_cstrPKc>
#       uart_send_cstr(entities[id].name);
     6fc:	001d9793          	slli	a5,s11,0x1
     700:	01b787b3          	add	a5,a5,s11
     704:	00279793          	slli	a5,a5,0x2
     708:	41b787b3          	sub	a5,a5,s11
     70c:	024c0693          	addi	a3,s8,36
     710:	00279793          	slli	a5,a5,0x2
     714:	00f687b3          	add	a5,a3,a5
     718:	0007a503          	lw	a0,0(a5)
     71c:	591000ef          	jal	14ac <_ZL14uart_send_cstrPKc>
#       if (counter++) {
     720:	000d0793          	mv	a5,s10
#     for (size_t i = 0; i < len; ++i) {
     724:	001b0b13          	addi	s6,s6,1
     728:	00140413          	addi	s0,s0,1
     72c:	eedff06f          	j	618 <_ZL14print_locationhh+0xd0>
#     if (ix < len) {
     730:	09c4a703          	lw	a4,156(s1)
     734:	02e97663          	bgeu	s2,a4,760 <_ZL14print_locationhh+0x218>
#       if (!lse.at(i)) {
     738:	094ac703          	lbu	a4,148(s5)
     73c:	02070263          	beqz	a4,760 <_ZL14print_locationhh+0x218>
#       if (counter++) {
     740:	00178a13          	addi	s4,a5,1
     744:	00078863          	beqz	a5,754 <_ZL14print_locationhh+0x20c>
#         uart_send_cstr(", ");
     748:	00002537          	lui	a0,0x2
     74c:	d3450513          	addi	a0,a0,-716 # 1d34 <_ZNK4spanIcE8for_eachIZL12string_printS0_EUlT_E_EEvS2_.isra.0+0x48c>
     750:	55d000ef          	jal	14ac <_ZL14uart_send_cstrPKc>
#       uart_send_cstr(exit_names[i]);
     754:	00042503          	lw	a0,0(s0)
     758:	555000ef          	jal	14ac <_ZL14uart_send_cstrPKc>
#       if (counter++) {
     75c:	000a0793          	mv	a5,s4
#     for (mut i = 0u; i < n; ++i) {
     760:	00190913          	addi	s2,s2,1
     764:	00440413          	addi	s0,s0,4
     768:	001a8a93          	addi	s5,s5,1
     76c:	ef1ff06f          	j	65c <_ZL14print_locationhh+0x114>

00000770 <_ZL16action_inventoryh>:
# 
# static auto action_inventory(entity_id_t const eid) -> void {
     770:	fe010113          	addi	sp,sp,-32
     774:	00912a23          	sw	s1,20(sp)
     778:	00050493          	mv	s1,a0
     77c:	00812c23          	sw	s0,24(sp)
#   uart_send_cstr("u have: ");
     780:	00002537          	lui	a0,0x2
     784:	00149413          	slli	s0,s1,0x1
     788:	00940433          	add	s0,s0,s1
     78c:	d5c50513          	addi	a0,a0,-676 # 1d5c <_ZNK4spanIcE8for_eachIZL12string_printS0_EUlT_E_EEvS2_.isra.0+0x4b4>
# static auto action_inventory(entity_id_t const eid) -> void {
     790:	01312623          	sw	s3,12(sp)
     794:	01412423          	sw	s4,8(sp)
     798:	01512223          	sw	s5,4(sp)
     79c:	00112e23          	sw	ra,28(sp)
     7a0:	01212823          	sw	s2,16(sp)
     7a4:	00241413          	slli	s0,s0,0x2
#   uart_send_cstr("u have: ");
     7a8:	505000ef          	jal	14ac <_ZL14uart_send_cstrPKc>
#   mut counter = 0;
#   entities[eid].objects.for_each([&counter](let id) {
     7ac:	40940433          	sub	s0,s0,s1
     7b0:	000027b7          	lui	a5,0x2
     7b4:	00241413          	slli	s0,s0,0x2
     7b8:	02478793          	addi	a5,a5,36 # 2024 <_ZL8entities>
     7bc:	00f40433          	add	s0,s0,a5
#     for (size_t i = 0; i < len; ++i) {
     7c0:	00000493          	li	s1,0
     7c4:	00040993          	mv	s3,s0
#     if (counter++) {
#       uart_send_cstr(", ");
     7c8:	00002a37          	lui	s4,0x2
#     }
#     uart_send_cstr(objects[id].name);
     7cc:	00002ab7          	lui	s5,0x2
     7d0:	0289a783          	lw	a5,40(s3)
     7d4:	04f4e063          	bltu	s1,a5,814 <_ZL16action_inventoryh+0xa4>
#   });
#   if (counter == 0) {
     7d8:	00049863          	bnez	s1,7e8 <_ZL16action_inventoryh+0x78>
#     uart_send_cstr("nothing");
     7dc:	00002537          	lui	a0,0x2
     7e0:	d3850513          	addi	a0,a0,-712 # 1d38 <_ZNK4spanIcE8for_eachIZL12string_printS0_EUlT_E_EEvS2_.isra.0+0x490>
     7e4:	4c9000ef          	jal	14ac <_ZL14uart_send_cstrPKc>
#   }
#   uart_send_cstr("\r\n");
# }
     7e8:	01812403          	lw	s0,24(sp)
     7ec:	01c12083          	lw	ra,28(sp)
     7f0:	01412483          	lw	s1,20(sp)
     7f4:	01012903          	lw	s2,16(sp)
     7f8:	00c12983          	lw	s3,12(sp)
     7fc:	00812a03          	lw	s4,8(sp)
     800:	00412a83          	lw	s5,4(sp)
#   uart_send_cstr("\r\n");
     804:	00002537          	lui	a0,0x2
     808:	cd050513          	addi	a0,a0,-816 # 1cd0 <_ZNK4spanIcE8for_eachIZL12string_printS0_EUlT_E_EEvS2_.isra.0+0x428>
# }
     80c:	02010113          	addi	sp,sp,32
#   uart_send_cstr("\r\n");
     810:	49d0006f          	j	14ac <_ZL14uart_send_cstrPKc>
#       f(data[i]);
     814:	00844903          	lbu	s2,8(s0)
#     if (counter++) {
     818:	00048663          	beqz	s1,824 <_ZL16action_inventoryh+0xb4>
#       uart_send_cstr(", ");
     81c:	d34a0513          	addi	a0,s4,-716 # 1d34 <_ZNK4spanIcE8for_eachIZL12string_printS0_EUlT_E_EEvS2_.isra.0+0x48c>
     820:	48d000ef          	jal	14ac <_ZL14uart_send_cstrPKc>
#     uart_send_cstr(objects[id].name);
     824:	014a8793          	addi	a5,s5,20 # 2014 <_ZL7objects>
     828:	00291913          	slli	s2,s2,0x2
     82c:	012787b3          	add	a5,a5,s2
     830:	0007a503          	lw	a0,0(a5)
#     for (size_t i = 0; i < len; ++i) {
     834:	00148493          	addi	s1,s1,1
     838:	00140413          	addi	s0,s0,1
     83c:	471000ef          	jal	14ac <_ZL14uart_send_cstrPKc>
     840:	f91ff06f          	j	7d0 <_ZL16action_inventoryh+0x60>

00000844 <_ZL11action_takeh4spanIcE>:
# 
# static auto action_take(entity_id_t const eid, string const args) -> void {
     844:	fa010113          	addi	sp,sp,-96
     848:	04112e23          	sw	ra,92(sp)
     84c:	04812c23          	sw	s0,88(sp)
     850:	04912a23          	sw	s1,84(sp)
     854:	05212823          	sw	s2,80(sp)
     858:	05312623          	sw	s3,76(sp)
     85c:	05412423          	sw	s4,72(sp)
     860:	05512223          	sw	s5,68(sp)
     864:	05612023          	sw	s6,64(sp)
     868:	03712e23          	sw	s7,60(sp)
     86c:	03812c23          	sw	s8,56(sp)
     870:	03912a23          	sw	s9,52(sp)
     874:	03a12823          	sw	s10,48(sp)
     878:	03b12623          	sw	s11,44(sp)
     87c:	00b12423          	sw	a1,8(sp)
     880:	00c12623          	sw	a2,12(sp)
#   if (args.is_empty()) {
     884:	04b61463          	bne	a2,a1,8cc <_ZL11action_takeh4spanIcE+0x88>
#     uart_send_cstr("take what\r\n\r\n");
     888:	00002537          	lui	a0,0x2
     88c:	d6850513          	addi	a0,a0,-664 # 1d68 <_ZNK4spanIcE8for_eachIZL12string_printS0_EUlT_E_EEvS2_.isra.0+0x4c0>
#   }
# 
#   if (ent.objects.add(lso.at(pos))) {
#     lso.remove_at(pos);
#   }
# }
     890:	05812403          	lw	s0,88(sp)
     894:	05c12083          	lw	ra,92(sp)
     898:	05412483          	lw	s1,84(sp)
     89c:	05012903          	lw	s2,80(sp)
     8a0:	04c12983          	lw	s3,76(sp)
     8a4:	04812a03          	lw	s4,72(sp)
     8a8:	04412a83          	lw	s5,68(sp)
     8ac:	04012b03          	lw	s6,64(sp)
     8b0:	03c12b83          	lw	s7,60(sp)
     8b4:	03812c03          	lw	s8,56(sp)
     8b8:	03412c83          	lw	s9,52(sp)
     8bc:	03012d03          	lw	s10,48(sp)
     8c0:	02c12d83          	lw	s11,44(sp)
     8c4:	06010113          	addi	sp,sp,96
#     uart_send_cstr(" not here\r\n\r\n");
     8c8:	3e50006f          	j	14ac <_ZL14uart_send_cstrPKc>
#   mut &lso = locations[ent.location].objects;
     8cc:	00151493          	slli	s1,a0,0x1
     8d0:	00a487b3          	add	a5,s1,a0
     8d4:	00279793          	slli	a5,a5,0x2
     8d8:	000026b7          	lui	a3,0x2
     8dc:	40a787b3          	sub	a5,a5,a0
     8e0:	02468713          	addi	a4,a3,36 # 2024 <_ZL8entities>
     8e4:	00279793          	slli	a5,a5,0x2
     8e8:	00f707b3          	add	a5,a4,a5
     8ec:	0047cc03          	lbu	s8,4(a5)
#     for (; i < len; ++i) {
     8f0:	00002ab7          	lui	s5,0x2
     8f4:	0a8a8793          	addi	a5,s5,168 # 20a8 <_ZL9locations>
     8f8:	002c1b13          	slli	s6,s8,0x2
     8fc:	018b0733          	add	a4,s6,s8
     900:	00571713          	slli	a4,a4,0x5
     904:	00e78933          	add	s2,a5,a4
     908:	08492a03          	lw	s4,132(s2)
     90c:	00050b93          	mv	s7,a0
     910:	00058d13          	mv	s10,a1
     914:	00060c93          	mv	s9,a2
     918:	00090d93          	mv	s11,s2
#     size_t i = 0;
     91c:	00000413          	li	s0,0
     920:	02468993          	addi	s3,a3,36
     924:	0a8a8a93          	addi	s5,s5,168
#     for (; i < len; ++i) {
     928:	000026b7          	lui	a3,0x2
     92c:	03441063          	bne	s0,s4,94c <_ZL11action_takeh4spanIcE+0x108>
#   str.for_each([](let ch) { uart_send_char(ch); });
     930:	01810513          	addi	a0,sp,24
     934:	01a12c23          	sw	s10,24(sp)
     938:	01912e23          	sw	s9,28(sp)
     93c:	76d000ef          	jal	18a8 <_ZNK4spanIcE8for_eachIZL12string_printS0_EUlT_E_EEvS2_.isra.0>
#     uart_send_cstr(" not here\r\n\r\n");
     940:	00002537          	lui	a0,0x2
     944:	d7850513          	addi	a0,a0,-648 # 1d78 <_ZNK4spanIcE8for_eachIZL12string_printS0_EUlT_E_EEvS2_.isra.0+0x4d0>
     948:	f49ff06f          	j	890 <_ZL11action_takeh4spanIcE+0x4c>
#     if (string_equals_cstr(args, objects[oid].name)) {
     94c:	004dc703          	lbu	a4,4(s11)
     950:	01468793          	addi	a5,a3,20 # 2014 <_ZL7objects>
     954:	00812503          	lw	a0,8(sp)
     958:	00271713          	slli	a4,a4,0x2
     95c:	00e787b3          	add	a5,a5,a4
     960:	0007a603          	lw	a2,0(a5)
     964:	00c12583          	lw	a1,12(sp)
     968:	001d8d93          	addi	s11,s11,1
     96c:	f60ff0ef          	jal	cc <_ZL18string_equals_cstr4spanIcEPKc>
     970:	00051663          	bnez	a0,97c <_ZL11action_takeh4spanIcE+0x138>
     974:	00140413          	addi	s0,s0,1
     978:	fb1ff06f          	j	928 <_ZL11action_takeh4spanIcE+0xe4>
#     return {};
     97c:	00000713          	li	a4,0
#     if (pos.index < len) {
     980:	01447c63          	bgeu	s0,s4,998 <_ZL11action_takeh4spanIcE+0x154>
#       return data[pos.index];
     984:	018b06b3          	add	a3,s6,s8
     988:	00569693          	slli	a3,a3,0x5
     98c:	00da86b3          	add	a3,s5,a3
     990:	008686b3          	add	a3,a3,s0
     994:	0046c703          	lbu	a4,4(a3)
#     if (len == Size - 1) {
     998:	017484b3          	add	s1,s1,s7
     99c:	00249493          	slli	s1,s1,0x2
     9a0:	417484b3          	sub	s1,s1,s7
     9a4:	00249493          	slli	s1,s1,0x2
     9a8:	009986b3          	add	a3,s3,s1
     9ac:	0286a783          	lw	a5,40(a3)
     9b0:	01f00613          	li	a2,31
     9b4:	02c78c63          	beq	a5,a2,9ec <_ZL11action_takeh4spanIcE+0x1a8>
#     data[len] = elem;
     9b8:	00f68633          	add	a2,a3,a5
#     ++len;
     9bc:	00178793          	addi	a5,a5,1
#     data[len] = elem;
     9c0:	00e60423          	sb	a4,8(a2)
#     ++len;
     9c4:	02f6a423          	sw	a5,40(a3)
#     if (pos.index >= len) {
     9c8:	03447263          	bgeu	s0,s4,9ec <_ZL11action_takeh4spanIcE+0x1a8>
#     --len;
     9cc:	018b07b3          	add	a5,s6,s8
     9d0:	00579793          	slli	a5,a5,0x5
     9d4:	00fa8ab3          	add	s5,s5,a5
     9d8:	fffa0713          	addi	a4,s4,-1
     9dc:	08eaa223          	sw	a4,132(s5)
     9e0:	008907b3          	add	a5,s2,s0
#     for (size_t i = pos.index; i < len; ++i) {
     9e4:	00178793          	addi	a5,a5,1
     9e8:	04e46063          	bltu	s0,a4,a28 <_ZL11action_takeh4spanIcE+0x1e4>
# }
     9ec:	05c12083          	lw	ra,92(sp)
     9f0:	05812403          	lw	s0,88(sp)
     9f4:	05412483          	lw	s1,84(sp)
     9f8:	05012903          	lw	s2,80(sp)
     9fc:	04c12983          	lw	s3,76(sp)
     a00:	04812a03          	lw	s4,72(sp)
     a04:	04412a83          	lw	s5,68(sp)
     a08:	04012b03          	lw	s6,64(sp)
     a0c:	03c12b83          	lw	s7,60(sp)
     a10:	03812c03          	lw	s8,56(sp)
     a14:	03412c83          	lw	s9,52(sp)
     a18:	03012d03          	lw	s10,48(sp)
     a1c:	02c12d83          	lw	s11,44(sp)
     a20:	06010113          	addi	sp,sp,96
     a24:	00008067          	ret
#       data[i] = data[i + 1];
     a28:	0047c683          	lbu	a3,4(a5)
     a2c:	00140413          	addi	s0,s0,1
     a30:	00d781a3          	sb	a3,3(a5)
#     for (size_t i = pos.index; i < len; ++i) {
     a34:	fb1ff06f          	j	9e4 <_ZL11action_takeh4spanIcE+0x1a0>

00000a38 <_ZL11action_droph4spanIcE>:
# 
# static auto action_drop(entity_id_t const eid, string const args) -> void {
     a38:	fb010113          	addi	sp,sp,-80
     a3c:	04112623          	sw	ra,76(sp)
     a40:	04812423          	sw	s0,72(sp)
     a44:	04912223          	sw	s1,68(sp)
     a48:	05212023          	sw	s2,64(sp)
     a4c:	03312e23          	sw	s3,60(sp)
     a50:	03412c23          	sw	s4,56(sp)
     a54:	03512a23          	sw	s5,52(sp)
     a58:	03612823          	sw	s6,48(sp)
     a5c:	03712623          	sw	s7,44(sp)
     a60:	03812423          	sw	s8,40(sp)
     a64:	03912223          	sw	s9,36(sp)
     a68:	00b12423          	sw	a1,8(sp)
     a6c:	00c12623          	sw	a2,12(sp)
#   if (args.size() == 0) {
     a70:	04b61063          	bne	a2,a1,ab0 <_ZL11action_droph4spanIcE+0x78>
#     uart_send_cstr("drop what\r\n\r\n");
     a74:	00002537          	lui	a0,0x2
     a78:	d8850513          	addi	a0,a0,-632 # 1d88 <_ZNK4spanIcE8for_eachIZL12string_printS0_EUlT_E_EEvS2_.isra.0+0x4e0>
#   }
# 
#   if (locations[ent.location].objects.add(lso.at(pos))) {
#     lso.remove_at(pos);
#   }
# }
     a7c:	04812403          	lw	s0,72(sp)
     a80:	04c12083          	lw	ra,76(sp)
     a84:	04412483          	lw	s1,68(sp)
     a88:	04012903          	lw	s2,64(sp)
     a8c:	03c12983          	lw	s3,60(sp)
     a90:	03812a03          	lw	s4,56(sp)
     a94:	03412a83          	lw	s5,52(sp)
     a98:	03012b03          	lw	s6,48(sp)
     a9c:	02c12b83          	lw	s7,44(sp)
     aa0:	02812c03          	lw	s8,40(sp)
     aa4:	02412c83          	lw	s9,36(sp)
     aa8:	05010113          	addi	sp,sp,80
#     uart_send_cstr("\r\n\r\n");
     aac:	2010006f          	j	14ac <_ZL14uart_send_cstrPKc>
#     for (; i < len; ++i) {
     ab0:	00151413          	slli	s0,a0,0x1
     ab4:	00a40733          	add	a4,s0,a0
     ab8:	00271713          	slli	a4,a4,0x2
     abc:	00002ab7          	lui	s5,0x2
     ac0:	40a70733          	sub	a4,a4,a0
     ac4:	024a8793          	addi	a5,s5,36 # 2024 <_ZL8entities>
     ac8:	00271713          	slli	a4,a4,0x2
     acc:	00e78933          	add	s2,a5,a4
     ad0:	02892a03          	lw	s4,40(s2)
     ad4:	00050993          	mv	s3,a0
     ad8:	00058b93          	mv	s7,a1
     adc:	00060b13          	mv	s6,a2
     ae0:	00090c13          	mv	s8,s2
#     size_t i = 0;
     ae4:	00000493          	li	s1,0
     ae8:	024a8a93          	addi	s5,s5,36
#     if (string_equals_cstr(args, objects[oid].name)) {
     aec:	00002cb7          	lui	s9,0x2
#     for (; i < len; ++i) {
     af0:	03449663          	bne	s1,s4,b1c <_ZL11action_droph4spanIcE+0xe4>
#     uart_send_cstr("u don't have ");
     af4:	00002537          	lui	a0,0x2
     af8:	d9850513          	addi	a0,a0,-616 # 1d98 <_ZNK4spanIcE8for_eachIZL12string_printS0_EUlT_E_EEvS2_.isra.0+0x4f0>
     afc:	1b1000ef          	jal	14ac <_ZL14uart_send_cstrPKc>
#   str.for_each([](let ch) { uart_send_char(ch); });
     b00:	01810513          	addi	a0,sp,24
     b04:	01712c23          	sw	s7,24(sp)
     b08:	01612e23          	sw	s6,28(sp)
     b0c:	59d000ef          	jal	18a8 <_ZNK4spanIcE8for_eachIZL12string_printS0_EUlT_E_EEvS2_.isra.0>
#     uart_send_cstr("\r\n\r\n");
     b10:	00002537          	lui	a0,0x2
     b14:	91450513          	addi	a0,a0,-1772 # 1914 <_ZNK4spanIcE8for_eachIZL12string_printS0_EUlT_E_EEvS2_.isra.0+0x6c>
     b18:	f65ff06f          	j	a7c <_ZL11action_droph4spanIcE+0x44>
#     if (string_equals_cstr(args, objects[oid].name)) {
     b1c:	008c4703          	lbu	a4,8(s8)
     b20:	014c8793          	addi	a5,s9,20 # 2014 <_ZL7objects>
     b24:	00812503          	lw	a0,8(sp)
     b28:	00271713          	slli	a4,a4,0x2
     b2c:	00e787b3          	add	a5,a5,a4
     b30:	0007a603          	lw	a2,0(a5)
     b34:	00c12583          	lw	a1,12(sp)
     b38:	001c0c13          	addi	s8,s8,1
     b3c:	d90ff0ef          	jal	cc <_ZL18string_equals_cstr4spanIcEPKc>
     b40:	00051663          	bnez	a0,b4c <_ZL11action_droph4spanIcE+0x114>
     b44:	00148493          	addi	s1,s1,1
     b48:	fa9ff06f          	j	af0 <_ZL11action_droph4spanIcE+0xb8>
#   if (locations[ent.location].objects.add(lso.at(pos))) {
     b4c:	013407b3          	add	a5,s0,s3
     b50:	00279793          	slli	a5,a5,0x2
     b54:	413787b3          	sub	a5,a5,s3
     b58:	00279793          	slli	a5,a5,0x2
     b5c:	00fa87b3          	add	a5,s5,a5
     b60:	0047c603          	lbu	a2,4(a5)
#     return {};
     b64:	00000693          	li	a3,0
#     if (pos.index < len) {
     b68:	0144f663          	bgeu	s1,s4,b74 <_ZL11action_droph4spanIcE+0x13c>
#       return data[pos.index];
     b6c:	009787b3          	add	a5,a5,s1
     b70:	0087c683          	lbu	a3,8(a5)
#     if (len == Size - 1) {
     b74:	00261713          	slli	a4,a2,0x2
     b78:	00c70733          	add	a4,a4,a2
     b7c:	000027b7          	lui	a5,0x2
     b80:	00571713          	slli	a4,a4,0x5
     b84:	0a878793          	addi	a5,a5,168 # 20a8 <_ZL9locations>
     b88:	00e787b3          	add	a5,a5,a4
     b8c:	0847a703          	lw	a4,132(a5)
     b90:	07f00613          	li	a2,127
     b94:	04c70063          	beq	a4,a2,bd4 <_ZL11action_droph4spanIcE+0x19c>
#     data[len] = elem;
     b98:	00e78633          	add	a2,a5,a4
#     ++len;
     b9c:	00170713          	addi	a4,a4,1
#     data[len] = elem;
     ba0:	00d60223          	sb	a3,4(a2)
#     ++len;
     ba4:	08e7a223          	sw	a4,132(a5)
#     if (pos.index >= len) {
     ba8:	0344f663          	bgeu	s1,s4,bd4 <_ZL11action_droph4spanIcE+0x19c>
#     --len;
     bac:	01340433          	add	s0,s0,s3
     bb0:	00241413          	slli	s0,s0,0x2
     bb4:	41340433          	sub	s0,s0,s3
     bb8:	00241413          	slli	s0,s0,0x2
     bbc:	fffa0a13          	addi	s4,s4,-1
     bc0:	008a8ab3          	add	s5,s5,s0
     bc4:	034aa423          	sw	s4,40(s5)
     bc8:	009907b3          	add	a5,s2,s1
#     for (size_t i = pos.index; i < len; ++i) {
     bcc:	00178793          	addi	a5,a5,1
     bd0:	0344ec63          	bltu	s1,s4,c08 <_ZL11action_droph4spanIcE+0x1d0>
# }
     bd4:	04c12083          	lw	ra,76(sp)
     bd8:	04812403          	lw	s0,72(sp)
     bdc:	04412483          	lw	s1,68(sp)
     be0:	04012903          	lw	s2,64(sp)
     be4:	03c12983          	lw	s3,60(sp)
     be8:	03812a03          	lw	s4,56(sp)
     bec:	03412a83          	lw	s5,52(sp)
     bf0:	03012b03          	lw	s6,48(sp)
     bf4:	02c12b83          	lw	s7,44(sp)
     bf8:	02812c03          	lw	s8,40(sp)
     bfc:	02412c83          	lw	s9,36(sp)
     c00:	05010113          	addi	sp,sp,80
     c04:	00008067          	ret
#       data[i] = data[i + 1];
     c08:	0087c703          	lbu	a4,8(a5)
     c0c:	00148493          	addi	s1,s1,1
     c10:	00e783a3          	sb	a4,7(a5)
#     for (size_t i = pos.index; i < len; ++i) {
     c14:	fb9ff06f          	j	bcc <_ZL11action_droph4spanIcE+0x194>

00000c18 <_ZL9action_gohh>:
# 
# static auto action_go(entity_id_t const eid, exit_t const exit) -> void {
#   mut &ent = entities[eid];
#   mut &loc = locations[ent.location];
     c18:	00151793          	slli	a5,a0,0x1
     c1c:	00a78733          	add	a4,a5,a0
     c20:	00271713          	slli	a4,a4,0x2
     c24:	000028b7          	lui	a7,0x2
     c28:	40a70733          	sub	a4,a4,a0
     c2c:	02488693          	addi	a3,a7,36 # 2024 <_ZL8entities>
     c30:	00271713          	slli	a4,a4,0x2
     c34:	00e68733          	add	a4,a3,a4
     c38:	00474683          	lbu	a3,4(a4)
#     if (ix < len) {
     c3c:	00002637          	lui	a2,0x2
     c40:	0a860713          	addi	a4,a2,168 # 20a8 <_ZL9locations>
     c44:	00269813          	slli	a6,a3,0x2
     c48:	00d80833          	add	a6,a6,a3
     c4c:	00581693          	slli	a3,a6,0x5
     c50:	00d70733          	add	a4,a4,a3
     c54:	09c72683          	lw	a3,156(a4)
     c58:	02488e13          	addi	t3,a7,36
     c5c:	0a860613          	addi	a2,a2,168
     c60:	00d5f863          	bgeu	a1,a3,c70 <_ZL9action_gohh+0x58>
#       return data[ix];
     c64:	00b705b3          	add	a1,a4,a1
     c68:	0945c883          	lbu	a7,148(a1)
#   let to = loc.exits.at(exit);
#   if (!to) {
     c6c:	00089863          	bnez	a7,c7c <_ZL9action_gohh+0x64>
#     uart_send_cstr("cannot go there\r\n\r\n");
     c70:	00002537          	lui	a0,0x2
     c74:	da850513          	addi	a0,a0,-600 # 1da8 <_ZNK4spanIcE8for_eachIZL12string_printS0_EUlT_E_EEvS2_.isra.0+0x500>
     c78:	0350006f          	j	14ac <_ZL14uart_send_cstrPKc>
#     if (len == Size - 1) {
     c7c:	00289693          	slli	a3,a7,0x2
     c80:	011686b3          	add	a3,a3,a7
     c84:	00569693          	slli	a3,a3,0x5
     c88:	00d606b3          	add	a3,a2,a3
     c8c:	0906a583          	lw	a1,144(a3)
     c90:	00700313          	li	t1,7
     c94:	08658063          	beq	a1,t1,d14 <_ZL9action_gohh+0xfc>
#     data[len] = elem;
     c98:	00b68333          	add	t1,a3,a1
#     ++len;
     c9c:	00158593          	addi	a1,a1,1
#     data[len] = elem;
     ca0:	08a30423          	sb	a0,136(t1)
#     ++len;
     ca4:	08b6a823          	sw	a1,144(a3)
     ca8:	00070313          	mv	t1,a4
#     for (size_t i = 0; i < len; ++i) {
     cac:	00000693          	li	a3,0
     cb0:	09072583          	lw	a1,144(a4)
     cb4:	02b6fa63          	bgeu	a3,a1,ce8 <_ZL9action_gohh+0xd0>
#       if (data[i] != elem) {
     cb8:	08834e83          	lbu	t4,136(t1)
     cbc:	00130313          	addi	t1,t1,1
     cc0:	00ae8663          	beq	t4,a0,ccc <_ZL9action_gohh+0xb4>
#     for (size_t i = 0; i < len; ++i) {
     cc4:	00168693          	addi	a3,a3,1
     cc8:	fe9ff06f          	j	cb0 <_ZL9action_gohh+0x98>
#       --len;
     ccc:	00581813          	slli	a6,a6,0x5
     cd0:	fff58593          	addi	a1,a1,-1
     cd4:	01060633          	add	a2,a2,a6
     cd8:	08b62823          	sw	a1,144(a2)
     cdc:	00d70733          	add	a4,a4,a3
#       for (size_t j = i; j < len; ++j) {
     ce0:	00170713          	addi	a4,a4,1
     ce4:	02b6e063          	bltu	a3,a1,d04 <_ZL9action_gohh+0xec>
#     return;
#   }
#   if (locations[to].entities.add(eid)) {
#     loc.entities.remove(eid);
#     ent.location = to;
     ce8:	00a787b3          	add	a5,a5,a0
     cec:	00279793          	slli	a5,a5,0x2
     cf0:	40a787b3          	sub	a5,a5,a0
     cf4:	00279793          	slli	a5,a5,0x2
     cf8:	00fe07b3          	add	a5,t3,a5
     cfc:	01178223          	sb	a7,4(a5)
     d00:	00008067          	ret
#         data[j] = data[j + 1];
     d04:	08874603          	lbu	a2,136(a4)
     d08:	00168693          	addi	a3,a3,1
     d0c:	08c703a3          	sb	a2,135(a4)
#       for (size_t j = i; j < len; ++j) {
     d10:	fd1ff06f          	j	ce0 <_ZL9action_gohh+0xc8>
#   }
# }
     d14:	00008067          	ret

00000d18 <_ZL11action_giveh4spanIcE>:
# 
# static auto action_give(entity_id_t const eid, string args) -> void {
     d18:	f7010113          	addi	sp,sp,-144
     d1c:	09212023          	sw	s2,128(sp)
     d20:	00050913          	mv	s2,a0
#   let w1 = string_next_word(args);
     d24:	03010513          	addi	a0,sp,48
# static auto action_give(entity_id_t const eid, string args) -> void {
     d28:	07412c23          	sw	s4,120(sp)
     d2c:	07512a23          	sw	s5,116(sp)
     d30:	08112623          	sw	ra,140(sp)
     d34:	08812423          	sw	s0,136(sp)
     d38:	08912223          	sw	s1,132(sp)
     d3c:	07312e23          	sw	s3,124(sp)
     d40:	07612823          	sw	s6,112(sp)
     d44:	07712623          	sw	s7,108(sp)
     d48:	07812423          	sw	s8,104(sp)
     d4c:	07912223          	sw	s9,100(sp)
     d50:	07a12023          	sw	s10,96(sp)
     d54:	05b12e23          	sw	s11,92(sp)
     d58:	00b12423          	sw	a1,8(sp)
     d5c:	00c12623          	sw	a2,12(sp)
#   let w1 = string_next_word(args);
     d60:	bd4ff0ef          	jal	134 <_ZL16string_next_word4spanIcE>
#   let obj_nm = w1.word;
     d64:	03012a03          	lw	s4,48(sp)
     d68:	03412a83          	lw	s5,52(sp)
     d6c:	01412c23          	sw	s4,24(sp)
     d70:	01512e23          	sw	s5,28(sp)
#   if (obj_nm.is_empty()) {
     d74:	054a9463          	bne	s5,s4,dbc <_ZL11action_giveh4spanIcE+0xa4>
#     uart_send_cstr("give what\r\n\r\n");
     d78:	00002537          	lui	a0,0x2
     d7c:	dbc50513          	addi	a0,a0,-580 # 1dbc <_ZNK4spanIcE8for_eachIZL12string_printS0_EUlT_E_EEvS2_.isra.0+0x514>
#   }
# 
#   if (to.objects.add(ent.objects.at(objpos))) {
#     ent.objects.remove_at(objpos);
#   }
# }
     d80:	08812403          	lw	s0,136(sp)
     d84:	08c12083          	lw	ra,140(sp)
     d88:	08412483          	lw	s1,132(sp)
     d8c:	08012903          	lw	s2,128(sp)
     d90:	07c12983          	lw	s3,124(sp)
     d94:	07812a03          	lw	s4,120(sp)
     d98:	07412a83          	lw	s5,116(sp)
     d9c:	07012b03          	lw	s6,112(sp)
     da0:	06c12b83          	lw	s7,108(sp)
     da4:	06812c03          	lw	s8,104(sp)
     da8:	06412c83          	lw	s9,100(sp)
     dac:	06012d03          	lw	s10,96(sp)
     db0:	05c12d83          	lw	s11,92(sp)
     db4:	09010113          	addi	sp,sp,144
#     uart_send_cstr(" is not here\r\n\r\n");
     db8:	6f40006f          	j	14ac <_ZL14uart_send_cstrPKc>
#   let w2 = string_next_word(w1.rem);
     dbc:	03812583          	lw	a1,56(sp)
     dc0:	03c12603          	lw	a2,60(sp)
     dc4:	04010513          	addi	a0,sp,64
     dc8:	b6cff0ef          	jal	134 <_ZL16string_next_word4spanIcE>
#   let to_ent_nm = w2.word;
     dcc:	04012d03          	lw	s10,64(sp)
     dd0:	04412c83          	lw	s9,68(sp)
     dd4:	03a12023          	sw	s10,32(sp)
     dd8:	03912223          	sw	s9,36(sp)
#   if (to_ent_nm.is_empty()) {
     ddc:	01ac9863          	bne	s9,s10,dec <_ZL11action_giveh4spanIcE+0xd4>
#     uart_send_cstr("give to whom\r\n\r\n");
     de0:	00002537          	lui	a0,0x2
     de4:	dcc50513          	addi	a0,a0,-564 # 1dcc <_ZNK4spanIcE8for_eachIZL12string_printS0_EUlT_E_EEvS2_.isra.0+0x524>
     de8:	f99ff06f          	j	d80 <_ZL11action_giveh4spanIcE+0x68>
#   let &loc = locations[ent.location];
     dec:	00191493          	slli	s1,s2,0x1
     df0:	012487b3          	add	a5,s1,s2
     df4:	00279793          	slli	a5,a5,0x2
     df8:	000029b7          	lui	s3,0x2
     dfc:	412787b3          	sub	a5,a5,s2
     e00:	02498713          	addi	a4,s3,36 # 2024 <_ZL8entities>
     e04:	00279793          	slli	a5,a5,0x2
     e08:	00f707b3          	add	a5,a4,a5
     e0c:	0047cb83          	lbu	s7,4(a5)
#     for (; i < len; ++i) {
     e10:	000027b7          	lui	a5,0x2
     e14:	0a878b13          	addi	s6,a5,168 # 20a8 <_ZL9locations>
     e18:	002b9d93          	slli	s11,s7,0x2
     e1c:	017d8733          	add	a4,s11,s7
     e20:	00571713          	slli	a4,a4,0x5
     e24:	00eb0b33          	add	s6,s6,a4
     e28:	090b2683          	lw	a3,144(s6)
#     size_t i = 0;
     e2c:	00000c13          	li	s8,0
     e30:	02498993          	addi	s3,s3,36
     e34:	0a878413          	addi	s0,a5,168
#     for (; i < len; ++i) {
     e38:	02dc1063          	bne	s8,a3,e58 <_ZL11action_giveh4spanIcE+0x140>
#   str.for_each([](let ch) { uart_send_char(ch); });
     e3c:	02810513          	addi	a0,sp,40
     e40:	03a12423          	sw	s10,40(sp)
     e44:	03912623          	sw	s9,44(sp)
     e48:	261000ef          	jal	18a8 <_ZNK4spanIcE8for_eachIZL12string_printS0_EUlT_E_EEvS2_.isra.0>
#     uart_send_cstr(" is not here\r\n\r\n");
     e4c:	00002537          	lui	a0,0x2
     e50:	df850513          	addi	a0,a0,-520 # 1df8 <_ZNK4spanIcE8for_eachIZL12string_printS0_EUlT_E_EEvS2_.isra.0+0x550>
     e54:	f2dff06f          	j	d80 <_ZL11action_giveh4spanIcE+0x68>
#     if (string_equals_cstr(to_ent_nm, entities[id].name)) {
     e58:	088b4703          	lbu	a4,136(s6)
     e5c:	000d0513          	mv	a0,s10
     e60:	000c8593          	mv	a1,s9
     e64:	00171793          	slli	a5,a4,0x1
     e68:	00e787b3          	add	a5,a5,a4
     e6c:	00279793          	slli	a5,a5,0x2
     e70:	40e787b3          	sub	a5,a5,a4
     e74:	00279793          	slli	a5,a5,0x2
     e78:	00f987b3          	add	a5,s3,a5
     e7c:	0007a603          	lw	a2,0(a5)
     e80:	00d12223          	sw	a3,4(sp)
     e84:	03a12023          	sw	s10,32(sp)
     e88:	03912223          	sw	s9,36(sp)
     e8c:	a40ff0ef          	jal	cc <_ZL18string_equals_cstr4spanIcEPKc>
     e90:	00412683          	lw	a3,4(sp)
     e94:	001b0b13          	addi	s6,s6,1
     e98:	16051863          	bnez	a0,1008 <_ZL11action_giveh4spanIcE+0x2f0>
     e9c:	001c0c13          	addi	s8,s8,1
     ea0:	f99ff06f          	j	e38 <_ZL11action_giveh4spanIcE+0x120>
#       return data[pos.index];
     ea4:	017d8bb3          	add	s7,s11,s7
     ea8:	005b9b93          	slli	s7,s7,0x5
     eac:	017407b3          	add	a5,s0,s7
     eb0:	018787b3          	add	a5,a5,s8
     eb4:	0887cb83          	lbu	s7,136(a5)
#     for (; i < len; ++i) {
     eb8:	01248433          	add	s0,s1,s2
     ebc:	00241413          	slli	s0,s0,0x2
     ec0:	41240433          	sub	s0,s0,s2
     ec4:	00241413          	slli	s0,s0,0x2
     ec8:	00898433          	add	s0,s3,s0
     ecc:	02842c83          	lw	s9,40(s0)
     ed0:	00040c13          	mv	s8,s0
#     size_t i = 0;
     ed4:	00000b13          	li	s6,0
#     if (string_equals_cstr(obj_nm, objects[oid].name)) {
     ed8:	00002d37          	lui	s10,0x2
#     for (; i < len; ++i) {
     edc:	039b1063          	bne	s6,s9,efc <_ZL11action_giveh4spanIcE+0x1e4>
#   str.for_each([](let ch) { uart_send_char(ch); });
     ee0:	02810513          	addi	a0,sp,40
     ee4:	03412423          	sw	s4,40(sp)
     ee8:	03512623          	sw	s5,44(sp)
     eec:	1bd000ef          	jal	18a8 <_ZNK4spanIcE8for_eachIZL12string_printS0_EUlT_E_EEvS2_.isra.0>
#     uart_send_cstr(" not in inventory\r\n\r\n");
     ef0:	00002537          	lui	a0,0x2
     ef4:	de050513          	addi	a0,a0,-544 # 1de0 <_ZNK4spanIcE8for_eachIZL12string_printS0_EUlT_E_EEvS2_.isra.0+0x538>
     ef8:	e89ff06f          	j	d80 <_ZL11action_giveh4spanIcE+0x68>
#     if (string_equals_cstr(obj_nm, objects[oid].name)) {
     efc:	008c4703          	lbu	a4,8(s8)
     f00:	014d0793          	addi	a5,s10,20 # 2014 <_ZL7objects>
     f04:	000a0513          	mv	a0,s4
     f08:	00271713          	slli	a4,a4,0x2
     f0c:	00e787b3          	add	a5,a5,a4
     f10:	0007a603          	lw	a2,0(a5)
     f14:	000a8593          	mv	a1,s5
     f18:	01412c23          	sw	s4,24(sp)
     f1c:	01512e23          	sw	s5,28(sp)
     f20:	9acff0ef          	jal	cc <_ZL18string_equals_cstr4spanIcEPKc>
     f24:	001c0c13          	addi	s8,s8,1
     f28:	00051e63          	bnez	a0,f44 <_ZL11action_giveh4spanIcE+0x22c>
     f2c:	001b0b13          	addi	s6,s6,1
     f30:	fadff06f          	j	edc <_ZL11action_giveh4spanIcE+0x1c4>
#       data[i] = data[i + 1];
     f34:	00844783          	lbu	a5,8(s0)
     f38:	001b0b13          	addi	s6,s6,1
     f3c:	00f403a3          	sb	a5,7(s0)
#     for (size_t i = pos.index; i < len; ++i) {
     f40:	0840006f          	j	fc4 <_ZL11action_giveh4spanIcE+0x2ac>
#     return {};
     f44:	00000693          	li	a3,0
#     if (pos.index < len) {
     f48:	039b7063          	bgeu	s6,s9,f68 <_ZL11action_giveh4spanIcE+0x250>
#       return data[pos.index];
     f4c:	012487b3          	add	a5,s1,s2
     f50:	00279793          	slli	a5,a5,0x2
     f54:	412787b3          	sub	a5,a5,s2
     f58:	00279793          	slli	a5,a5,0x2
     f5c:	00f987b3          	add	a5,s3,a5
     f60:	016787b3          	add	a5,a5,s6
     f64:	0087c683          	lbu	a3,8(a5)
#     if (len == Size - 1) {
     f68:	001b9793          	slli	a5,s7,0x1
     f6c:	017787b3          	add	a5,a5,s7
     f70:	00279793          	slli	a5,a5,0x2
     f74:	417787b3          	sub	a5,a5,s7
     f78:	00279793          	slli	a5,a5,0x2
     f7c:	00f987b3          	add	a5,s3,a5
     f80:	0287a703          	lw	a4,40(a5)
     f84:	01f00613          	li	a2,31
     f88:	04c70263          	beq	a4,a2,fcc <_ZL11action_giveh4spanIcE+0x2b4>
#     data[len] = elem;
     f8c:	00e78633          	add	a2,a5,a4
#     ++len;
     f90:	00170713          	addi	a4,a4,1
     f94:	02e7a423          	sw	a4,40(a5)
#     if (pos.index >= len) {
     f98:	012487b3          	add	a5,s1,s2
     f9c:	00279793          	slli	a5,a5,0x2
     fa0:	412787b3          	sub	a5,a5,s2
     fa4:	00279793          	slli	a5,a5,0x2
     fa8:	00f987b3          	add	a5,s3,a5
     fac:	0287a703          	lw	a4,40(a5)
#     data[len] = elem;
     fb0:	00d60423          	sb	a3,8(a2)
#     if (pos.index >= len) {
     fb4:	00eb7c63          	bgeu	s6,a4,fcc <_ZL11action_giveh4spanIcE+0x2b4>
#     --len;
     fb8:	fff70713          	addi	a4,a4,-1
     fbc:	02e7a423          	sw	a4,40(a5)
     fc0:	01640433          	add	s0,s0,s6
#     for (size_t i = pos.index; i < len; ++i) {
     fc4:	00140413          	addi	s0,s0,1
     fc8:	f6eb66e3          	bltu	s6,a4,f34 <_ZL11action_giveh4spanIcE+0x21c>
# }
     fcc:	08c12083          	lw	ra,140(sp)
     fd0:	08812403          	lw	s0,136(sp)
     fd4:	08412483          	lw	s1,132(sp)
     fd8:	08012903          	lw	s2,128(sp)
     fdc:	07c12983          	lw	s3,124(sp)
     fe0:	07812a03          	lw	s4,120(sp)
     fe4:	07412a83          	lw	s5,116(sp)
     fe8:	07012b03          	lw	s6,112(sp)
     fec:	06c12b83          	lw	s7,108(sp)
     ff0:	06812c03          	lw	s8,104(sp)
     ff4:	06412c83          	lw	s9,100(sp)
     ff8:	06012d03          	lw	s10,96(sp)
     ffc:	05c12d83          	lw	s11,92(sp)
    1000:	09010113          	addi	sp,sp,144
    1004:	00008067          	ret
#     if (pos.index < len) {
    1008:	e8dc6ee3          	bltu	s8,a3,ea4 <_ZL11action_giveh4spanIcE+0x18c>
#     return {};
    100c:	00000b93          	li	s7,0
    1010:	ea9ff06f          	j	eb8 <_ZL11action_giveh4spanIcE+0x1a0>

00001014 <_ZL10print_helpv>:
# 
# static auto print_help() -> void {
#   uart_send_cstr(
    1014:	00002537          	lui	a0,0x2
    1018:	e0c50513          	addi	a0,a0,-500 # 1e0c <_ZNK4spanIcE8for_eachIZL12string_printS0_EUlT_E_EEvS2_.isra.0+0x564>
    101c:	4900006f          	j	14ac <_ZL14uart_send_cstrPKc>

00001020 <_ZL27input_escape_sequence_clearv>:
# }
# 
# static char input_escape_sequence[8];
# static auto input_escape_sequence_clear() -> void {
#   for (mut i = 0u; i < sizeof(input_escape_sequence); ++i) {
#     input_escape_sequence[i] = '\0';
    1020:	000027b7          	lui	a5,0x2
    1024:	3e07a423          	sw	zero,1000(a5) # 23e8 <_ZL21input_escape_sequence>
    1028:	3e878793          	addi	a5,a5,1000
    102c:	0007a223          	sw	zero,4(a5)
#   }
# }
    1030:	00008067          	ret

00001034 <_ZL5inputR14command_buffer>:
# 
# enum class input_state { NORMAL, ESCAPE, ESCAPE_BRACKET };
# 
# static auto input(command_buffer &cmd_buf) -> void {
    1034:	fd010113          	addi	sp,sp,-48
    1038:	02812423          	sw	s0,40(sp)
    103c:	02912223          	sw	s1,36(sp)
    1040:	01312e23          	sw	s3,28(sp)
    1044:	01412c23          	sw	s4,24(sp)
    1048:	01512a23          	sw	s5,20(sp)
    104c:	01612823          	sw	s6,16(sp)
    1050:	01712623          	sw	s7,12(sp)
    1054:	01812423          	sw	s8,8(sp)
    1058:	01912223          	sw	s9,4(sp)
    105c:	01a12023          	sw	s10,0(sp)
    1060:	02112623          	sw	ra,44(sp)
    1064:	03212023          	sw	s2,32(sp)
    1068:	00050413          	mv	s0,a0
#   auto reset() -> void { cursor_ = end_ = 0; }
    106c:	040508a3          	sb	zero,81(a0)
    1070:	04050823          	sb	zero,80(a0)
#   cmd_buf.reset();
#   mut state = input_state::NORMAL;
#   mut escape_sequence_parameter = 0;
    1074:	00000d13          	li	s10,0
#   mut state = input_state::NORMAL;
    1078:	00000493          	li	s1,0
# 
#   while (true) {
#     let ch = uart_read_char();
#     led_set(~ch);
#     switch (state) {
    107c:	00100993          	li	s3,1
    1080:	00200a13          	li	s4,2
#         state = input_state::NORMAL;
#       }
#       break;
# 
#     case input_state::ESCAPE_BRACKET:
#       if (ch >= '0' && ch <= '9') {
    1084:	00900a93          	li	s5,9
#         escape_sequence_parameter = escape_sequence_parameter * 10 + (ch - '0');
#       } else {
#         switch (ch) {
    1088:	04400b13          	li	s6,68
#         case 'D': // arrow left
#           if (cmd_buf.move_cursor_left()) {
#             uart_send_cstr("\x1B[D");
    108c:	00002bb7          	lui	s7,0x2
#         switch (ch) {
    1090:	07e00c13          	li	s8,126
#             uart_send_cstr("\x1B[C");
#           }
#           break;
# 
#         case '~': // delete
#           if (escape_sequence_parameter == 3) {
    1094:	00300c93          	li	s9,3
#     let ch = uart_read_char();
    1098:	44c000ef          	jal	14e4 <_ZL14uart_read_charv>
#     led_set(~ch);
    109c:	fff54793          	not	a5,a0
    10a0:	fef02e23          	sw	a5,-4(zero) # fffffffc <__bss_end+0xffffdc0c>
#     let ch = uart_read_char();
    10a4:	00050913          	mv	s2,a0
#     switch (state) {
    10a8:	17348863          	beq	s1,s3,1218 <_ZL5inputR14command_buffer+0x1e4>
    10ac:	17448e63          	beq	s1,s4,1228 <_ZL5inputR14command_buffer+0x1f4>
#       if (ch == 0x1B) {
    10b0:	01b00793          	li	a5,27
    10b4:	06f50663          	beq	a0,a5,1120 <_ZL5inputR14command_buffer+0xec>
#       } else if (ch == char_backspace) {
    10b8:	07f00793          	li	a5,127
    10bc:	08f51863          	bne	a0,a5,114c <_ZL5inputR14command_buffer+0x118>
#     if (cursor_ == 0) {
    10c0:	05044603          	lbu	a2,80(s0)
    10c4:	00000493          	li	s1,0
    10c8:	fc0608e3          	beqz	a2,1098 <_ZL5inputR14command_buffer+0x64>
#     if (cursor_ == end_) {
    10cc:	05144583          	lbu	a1,81(s0)
#       --cursor_;
    10d0:	fff60693          	addi	a3,a2,-1
    10d4:	0ff6f693          	zext.b	a3,a3
#       --end_;
    10d8:	fff58713          	addi	a4,a1,-1
    10dc:	0ff77713          	zext.b	a4,a4
    10e0:	00c407b3          	add	a5,s0,a2
#     if (cursor_ == end_) {
    10e4:	04b61863          	bne	a2,a1,1134 <_ZL5inputR14command_buffer+0x100>
#       --end_;
    10e8:	04e408a3          	sb	a4,81(s0)
#       --cursor_;
    10ec:	04d40823          	sb	a3,80(s0)
#           uart_send_char(ch);
    10f0:	07f00513          	li	a0,127
    10f4:	3dc000ef          	jal	14d0 <_ZL14uart_send_charc>
#           cmd_buf.apply_on_chars_from_cursor_to_end(
    10f8:	00040513          	mv	a0,s0
    10fc:	764000ef          	jal	1860 <_ZNK14command_buffer33apply_on_chars_from_cursor_to_endIZL5inputRS_EUlcE_EEvOT_.isra.0>
#           uart_send_char(' ');
    1100:	02000513          	li	a0,32
    1104:	3cc000ef          	jal	14d0 <_ZL14uart_send_charc>
#   auto characters_after_cursor() const -> size_t { return end_ - cursor_; }
    1108:	05144503          	lbu	a0,81(s0)
    110c:	05044783          	lbu	a5,80(s0)
    1110:	40f50533          	sub	a0,a0,a5
#           uart_send_move_back(cmd_buf.characters_after_cursor() + 1);
    1114:	00150513          	addi	a0,a0,1
#         uart_send_move_back(cmd_buf.characters_after_cursor());
    1118:	34c000ef          	jal	1464 <_ZL19uart_send_move_backj>
    111c:	1400006f          	j	125c <_ZL5inputR14command_buffer+0x228>
#         state = input_state::ESCAPE;
    1120:	00100493          	li	s1,1
    1124:	f75ff06f          	j	1098 <_ZL5inputR14command_buffer+0x64>
#       line_[i] = line_[i + 1];
    1128:	0007c603          	lbu	a2,0(a5)
    112c:	00178793          	addi	a5,a5,1
    1130:	fec78f23          	sb	a2,-2(a5)
#     for (size_t i = cursor_ - 1; i < end_; ++i) {
    1134:	40878633          	sub	a2,a5,s0
    1138:	fff60613          	addi	a2,a2,-1
    113c:	feb666e3          	bltu	a2,a1,1128 <_ZL5inputR14command_buffer+0xf4>
#     --cursor_;
    1140:	04d40823          	sb	a3,80(s0)
#     --end_;
    1144:	04e408a3          	sb	a4,81(s0)
#     return true;
    1148:	fa9ff06f          	j	10f0 <_ZL5inputR14command_buffer+0xbc>
#       } else if (ch == CHAR_CARRIAGE_RETURN || cmd_buf.is_full()) {
    114c:	00d00713          	li	a4,13
#     if (cursor_ == end_) {
    1150:	05144783          	lbu	a5,81(s0)
    1154:	00e50663          	beq	a0,a4,1160 <_ZL5inputR14command_buffer+0x12c>
    1158:	04f00493          	li	s1,79
    115c:	04979263          	bne	a5,s1,11a0 <_ZL5inputR14command_buffer+0x16c>
#   auto set_eos() -> void { line_[end_] = '\0'; }
    1160:	00f407b3          	add	a5,s0,a5
    1164:	00078023          	sb	zero,0(a5)
#         escape_sequence_parameter = 0;
#       }
#       break;
#     }
#   }
# }
    1168:	02c12083          	lw	ra,44(sp)
    116c:	02812403          	lw	s0,40(sp)
    1170:	02412483          	lw	s1,36(sp)
    1174:	02012903          	lw	s2,32(sp)
    1178:	01c12983          	lw	s3,28(sp)
    117c:	01812a03          	lw	s4,24(sp)
    1180:	01412a83          	lw	s5,20(sp)
    1184:	01012b03          	lw	s6,16(sp)
    1188:	00c12b83          	lw	s7,12(sp)
    118c:	00812c03          	lw	s8,8(sp)
    1190:	00412c83          	lw	s9,4(sp)
    1194:	00012d03          	lw	s10,0(sp)
    1198:	03010113          	addi	sp,sp,48
    119c:	00008067          	ret
#         uart_send_char(ch);
    11a0:	330000ef          	jal	14d0 <_ZL14uart_send_charc>
#     if (end_ == sizeof(line_) - 1) {
    11a4:	05144683          	lbu	a3,81(s0)
    11a8:	02968663          	beq	a3,s1,11d4 <_ZL5inputR14command_buffer+0x1a0>
#     if (cursor_ == end_) {
    11ac:	05044703          	lbu	a4,80(s0)
#       ++end_;
    11b0:	00168793          	addi	a5,a3,1
    11b4:	0ff7f793          	zext.b	a5,a5
#       ++cursor_;
    11b8:	00170613          	addi	a2,a4,1
    11bc:	0ff67613          	zext.b	a2,a2
#     if (cursor_ == end_) {
    11c0:	02e69663          	bne	a3,a4,11ec <_ZL5inputR14command_buffer+0x1b8>
#       line_[cursor_] = ch;
    11c4:	00d406b3          	add	a3,s0,a3
    11c8:	01268023          	sb	s2,0(a3)
#       ++cursor_;
    11cc:	04c40823          	sb	a2,80(s0)
#       ++end_;
    11d0:	04f408a3          	sb	a5,81(s0)
#         cmd_buf.apply_on_chars_from_cursor_to_end(
    11d4:	00040513          	mv	a0,s0
    11d8:	688000ef          	jal	1860 <_ZNK14command_buffer33apply_on_chars_from_cursor_to_endIZL5inputRS_EUlcE_EEvOT_.isra.0>
#   auto characters_after_cursor() const -> size_t { return end_ - cursor_; }
    11dc:	05144503          	lbu	a0,81(s0)
    11e0:	05044783          	lbu	a5,80(s0)
#         uart_send_move_back(cmd_buf.characters_after_cursor());
    11e4:	40f50533          	sub	a0,a0,a5
    11e8:	f31ff06f          	j	1118 <_ZL5inputR14command_buffer+0xe4>
#     ++end_;
    11ec:	04f408a3          	sb	a5,81(s0)
#     for (size_t i = end_; i > cursor_; --i) {
    11f0:	00f76a63          	bltu	a4,a5,1204 <_ZL5inputR14command_buffer+0x1d0>
#     line_[cursor_] = ch;
    11f4:	00e40733          	add	a4,s0,a4
    11f8:	01270023          	sb	s2,0(a4)
#     ++cursor_;
    11fc:	04c40823          	sb	a2,80(s0)
#     return true;
    1200:	fd5ff06f          	j	11d4 <_ZL5inputR14command_buffer+0x1a0>
#       line_[i] = line_[i - 1];
    1204:	fff78793          	addi	a5,a5,-1
    1208:	00f406b3          	add	a3,s0,a5
    120c:	0006c583          	lbu	a1,0(a3)
    1210:	00b680a3          	sb	a1,1(a3)
#     for (size_t i = end_; i > cursor_; --i) {
    1214:	fddff06f          	j	11f0 <_ZL5inputR14command_buffer+0x1bc>
#       if (ch == 0x5B) {
    1218:	fa550493          	addi	s1,a0,-91
    121c:	0014b493          	seqz	s1,s1
    1220:	00149493          	slli	s1,s1,0x1
    1224:	e75ff06f          	j	1098 <_ZL5inputR14command_buffer+0x64>
#       if (ch >= '0' && ch <= '9') {
    1228:	fd050713          	addi	a4,a0,-48
    122c:	0ff77793          	zext.b	a5,a4
    1230:	00faec63          	bltu	s5,a5,1248 <_ZL5inputR14command_buffer+0x214>
#         escape_sequence_parameter = escape_sequence_parameter * 10 + (ch - '0');
    1234:	002d1793          	slli	a5,s10,0x2
    1238:	01a787b3          	add	a5,a5,s10
    123c:	00179793          	slli	a5,a5,0x1
    1240:	00f70d33          	add	s10,a4,a5
    1244:	e55ff06f          	j	1098 <_ZL5inputR14command_buffer+0x64>
#         switch (ch) {
    1248:	01650e63          	beq	a0,s6,1264 <_ZL5inputR14command_buffer+0x230>
    124c:	05850a63          	beq	a0,s8,12a0 <_ZL5inputR14command_buffer+0x26c>
    1250:	04300793          	li	a5,67
    1254:	02f50663          	beq	a0,a5,1280 <_ZL5inputR14command_buffer+0x24c>
#         escape_sequence_parameter = 0;
    1258:	00000d13          	li	s10,0
#         state = input_state::NORMAL;
    125c:	00000493          	li	s1,0
    1260:	e39ff06f          	j	1098 <_ZL5inputR14command_buffer+0x64>
#     if (cursor_ == 0) {
    1264:	05044783          	lbu	a5,80(s0)
    1268:	fe0788e3          	beqz	a5,1258 <_ZL5inputR14command_buffer+0x224>
#     --cursor_;
    126c:	fff78793          	addi	a5,a5,-1
    1270:	04f40823          	sb	a5,80(s0)
#             uart_send_cstr("\x1B[D");
    1274:	f44b8513          	addi	a0,s7,-188 # 1f44 <_ZNK4spanIcE8for_eachIZL12string_printS0_EUlT_E_EEvS2_.isra.0+0x69c>
#             uart_send_cstr("\x1B[C");
    1278:	234000ef          	jal	14ac <_ZL14uart_send_cstrPKc>
    127c:	fddff06f          	j	1258 <_ZL5inputR14command_buffer+0x224>
#     if (cursor_ == end_) {
    1280:	05044783          	lbu	a5,80(s0)
    1284:	05144703          	lbu	a4,81(s0)
    1288:	fcf708e3          	beq	a4,a5,1258 <_ZL5inputR14command_buffer+0x224>
#     ++cursor_;
    128c:	00178793          	addi	a5,a5,1
    1290:	00002537          	lui	a0,0x2
    1294:	04f40823          	sb	a5,80(s0)
    1298:	f4850513          	addi	a0,a0,-184 # 1f48 <_ZNK4spanIcE8for_eachIZL12string_printS0_EUlT_E_EEvS2_.isra.0+0x6a0>
    129c:	fddff06f          	j	1278 <_ZL5inputR14command_buffer+0x244>
#           if (escape_sequence_parameter == 3) {
    12a0:	fb9d1ce3          	bne	s10,s9,1258 <_ZL5inputR14command_buffer+0x224>
#     if (cursor_ == end_) {
    12a4:	05044783          	lbu	a5,80(s0)
    12a8:	05144703          	lbu	a4,81(s0)
    12ac:	00e78e63          	beq	a5,a4,12c8 <_ZL5inputR14command_buffer+0x294>
#     for (size_t i = cursor_ + 1; i < end_; ++i) {
    12b0:	00f407b3          	add	a5,s0,a5
    12b4:	00178793          	addi	a5,a5,1
    12b8:	408786b3          	sub	a3,a5,s0
    12bc:	02e6ea63          	bltu	a3,a4,12f0 <_ZL5inputR14command_buffer+0x2bc>
#     --end_;
    12c0:	fff70713          	addi	a4,a4,-1
    12c4:	04e408a3          	sb	a4,81(s0)
#             cmd_buf.apply_on_chars_from_cursor_to_end(
    12c8:	00040513          	mv	a0,s0
    12cc:	594000ef          	jal	1860 <_ZNK14command_buffer33apply_on_chars_from_cursor_to_endIZL5inputRS_EUlcE_EEvOT_.isra.0>
#             uart_send_char(' ');
    12d0:	02000513          	li	a0,32
    12d4:	1fc000ef          	jal	14d0 <_ZL14uart_send_charc>
#   auto characters_after_cursor() const -> size_t { return end_ - cursor_; }
    12d8:	05144503          	lbu	a0,81(s0)
    12dc:	05044783          	lbu	a5,80(s0)
    12e0:	40f50533          	sub	a0,a0,a5
#             uart_send_move_back(cmd_buf.characters_after_cursor() + 1);
    12e4:	00150513          	addi	a0,a0,1
    12e8:	17c000ef          	jal	1464 <_ZL19uart_send_move_backj>
    12ec:	f6dff06f          	j	1258 <_ZL5inputR14command_buffer+0x224>
#       line_[i - 1] = line_[i];
    12f0:	0007c683          	lbu	a3,0(a5)
    12f4:	fed78fa3          	sb	a3,-1(a5)
#     for (size_t i = cursor_ + 1; i < end_; ++i) {
    12f8:	fbdff06f          	j	12b4 <_ZL5inputR14command_buffer+0x280>

000012fc <_ZL11cstr_equalsPKcS0_>:
# 
# static auto cstr_equals(char const *s1, char const *s2) -> bool {
#   while (true) {
#     if (*s1 != *s2) {
    12fc:	00054703          	lbu	a4,0(a0)
    1300:	0005c783          	lbu	a5,0(a1)
    1304:	00e79a63          	bne	a5,a4,1318 <_ZL11cstr_equalsPKcS0_+0x1c>
#       return false;
#     }
#     if (*s1 == '\0' && *s2 == '\0') {
    1308:	00078c63          	beqz	a5,1320 <_ZL11cstr_equalsPKcS0_+0x24>
#       return true;
#     }
#     ++s1;
    130c:	00150513          	addi	a0,a0,1
#     ++s2;
    1310:	00158593          	addi	a1,a1,1
#     if (*s1 != *s2) {
    1314:	fe9ff06f          	j	12fc <_ZL11cstr_equalsPKcS0_>
#       return false;
    1318:	00000513          	li	a0,0
    131c:	00008067          	ret
#       return true;
    1320:	00100513          	li	a0,1
#   }
# }
    1324:	00008067          	ret

00001328 <_ZL9cstr_copyPKcjPc>:
# 
# static auto cstr_copy(char const *src, size_t src_len, char *dst) -> void {
#   while (src_len--) {
    1328:	00000793          	li	a5,0
    132c:	00f59463          	bne	a1,a5,1334 <_ZL9cstr_copyPKcjPc+0xc>
#     *dst++ = *src++;
#   }
# }
    1330:	00008067          	ret
#     *dst++ = *src++;
    1334:	00f50733          	add	a4,a0,a5
    1338:	00074683          	lbu	a3,0(a4)
    133c:	00f60733          	add	a4,a2,a5
    1340:	00178793          	addi	a5,a5,1
    1344:	00d70023          	sb	a3,0(a4)
    1348:	fe5ff06f          	j	132c <_ZL9cstr_copyPKcjPc+0x4>

0000134c <_ZL9cstr_copyPKcPc>:
# 
# static auto cstr_copy(char const *cstr, char *buf) -> char * {
    134c:	00050793          	mv	a5,a0
    1350:	00058513          	mv	a0,a1
#   while (*cstr) {
    1354:	0007c703          	lbu	a4,0(a5)
    1358:	00071463          	bnez	a4,1360 <_ZL9cstr_copyPKcPc+0x14>
#     *buf = *cstr;
#     ++buf;
#     ++cstr;
#   }
#   return buf;
# }
    135c:	00008067          	ret
#     *buf = *cstr;
    1360:	00e50023          	sb	a4,0(a0)
#     ++cstr;
    1364:	00178793          	addi	a5,a5,1
#     ++buf;
    1368:	00150513          	addi	a0,a0,1
#     ++cstr;
    136c:	fe9ff06f          	j	1354 <_ZL9cstr_copyPKcPc+0x8>

00001370 <_ZL16string_to_uint324spanIcE>:
# 
# static auto string_to_uint32(string str) -> uint32_t {
    1370:	ff010113          	addi	sp,sp,-16
    1374:	00a12423          	sw	a0,8(sp)
#     Type *it = begin_;
    1378:	00050713          	mv	a4,a0
    137c:	00b12623          	sw	a1,12(sp)
#   mut num = 0u;
    1380:	00000513          	li	a0,0
#   str.for_each_until_false([&num](let ch) {
#     if (ch <= '0' || ch >= '9') {
    1384:	00700613          	li	a2,7
#     for (; it < end_; ++it) {
    1388:	00b76663          	bltu	a4,a1,1394 <_ZL16string_to_uint324spanIcE+0x24>
#     }
#     num = num * 10 + uint32_t(ch - '0');
#     return true;
#   });
#   return num;
# }
    138c:	01010113          	addi	sp,sp,16
    1390:	00008067          	ret
#       if (!f(*it)) {
    1394:	00074683          	lbu	a3,0(a4)
#     if (ch <= '0' || ch >= '9') {
    1398:	fcf68793          	addi	a5,a3,-49
    139c:	0ff7f793          	zext.b	a5,a5
    13a0:	fef666e3          	bltu	a2,a5,138c <_ZL16string_to_uint324spanIcE+0x1c>
#     num = num * 10 + uint32_t(ch - '0');
    13a4:	00251793          	slli	a5,a0,0x2
    13a8:	00a787b3          	add	a5,a5,a0
    13ac:	00179793          	slli	a5,a5,0x1
    13b0:	fd078793          	addi	a5,a5,-48
    13b4:	00d78533          	add	a0,a5,a3
#     for (; it < end_; ++it) {
    13b8:	00170713          	addi	a4,a4,1
    13bc:	fcdff06f          	j	1388 <_ZL16string_to_uint324spanIcE+0x18>

000013c0 <_ZL20uart_send_hex_uint32jb>:
# 
# static auto
# uart_send_hex_uint32(uint32_t const i,
#                      bool const separate_half_words = false) -> void {
    13c0:	ff010113          	addi	sp,sp,-16
    13c4:	00812423          	sw	s0,8(sp)
    13c8:	00050413          	mv	s0,a0
#   uart_send_hex_byte(char(i >> 24));
    13cc:	01855513          	srli	a0,a0,0x18
#                      bool const separate_half_words = false) -> void {
    13d0:	00912223          	sw	s1,4(sp)
    13d4:	00112623          	sw	ra,12(sp)
    13d8:	00058493          	mv	s1,a1
#   uart_send_hex_byte(char(i >> 24));
    13dc:	040000ef          	jal	141c <_ZL18uart_send_hex_bytec>
#   uart_send_hex_byte(char(i >> 16));
    13e0:	01045513          	srli	a0,s0,0x10
    13e4:	0ff57513          	zext.b	a0,a0
    13e8:	034000ef          	jal	141c <_ZL18uart_send_hex_bytec>
#   if (separate_half_words) {
    13ec:	00048663          	beqz	s1,13f8 <_ZL20uart_send_hex_uint32jb+0x38>
#     uart_send_char(':');
    13f0:	03a00513          	li	a0,58
    13f4:	0dc000ef          	jal	14d0 <_ZL14uart_send_charc>
#   }
#   uart_send_hex_byte(char(i >> 8));
    13f8:	00845513          	srli	a0,s0,0x8
    13fc:	0ff57513          	zext.b	a0,a0
    1400:	01c000ef          	jal	141c <_ZL18uart_send_hex_bytec>
#   uart_send_hex_byte(char(i));
    1404:	0ff47513          	zext.b	a0,s0
# }
    1408:	00812403          	lw	s0,8(sp)
    140c:	00c12083          	lw	ra,12(sp)
    1410:	00412483          	lw	s1,4(sp)
    1414:	01010113          	addi	sp,sp,16
#   uart_send_hex_byte(char(i));
    1418:	0040006f          	j	141c <_ZL18uart_send_hex_bytec>

0000141c <_ZL18uart_send_hex_bytec>:
# 
# static auto uart_send_hex_byte(char const ch) -> void {
    141c:	ff010113          	addi	sp,sp,-16
    1420:	00812423          	sw	s0,8(sp)
    1424:	00050413          	mv	s0,a0
#   uart_send_hex_nibble(ch >> 4);
    1428:	00455513          	srli	a0,a0,0x4
# static auto uart_send_hex_byte(char const ch) -> void {
    142c:	00112623          	sw	ra,12(sp)
#   uart_send_hex_nibble(ch >> 4);
    1430:	018000ef          	jal	1448 <_ZL20uart_send_hex_nibblec>
#   uart_send_hex_nibble(ch & 0x0f);
    1434:	00f47513          	andi	a0,s0,15
# }
    1438:	00812403          	lw	s0,8(sp)
    143c:	00c12083          	lw	ra,12(sp)
    1440:	01010113          	addi	sp,sp,16
#   uart_send_hex_nibble(ch & 0x0f);
    1444:	0040006f          	j	1448 <_ZL20uart_send_hex_nibblec>

00001448 <_ZL20uart_send_hex_nibblec>:
# 
# static auto uart_send_hex_nibble(char const nibble) -> void {
#   if (nibble < 10) {
    1448:	00900793          	li	a5,9
    144c:	00a7e863          	bltu	a5,a0,145c <_ZL20uart_send_hex_nibblec+0x14>
#     uart_send_char('0' + nibble);
    1450:	03050513          	addi	a0,a0,48
#   } else {
#     uart_send_char('A' + (nibble - 10));
    1454:	0ff57513          	zext.b	a0,a0
    1458:	0780006f          	j	14d0 <_ZL14uart_send_charc>
    145c:	03750513          	addi	a0,a0,55
    1460:	ff5ff06f          	j	1454 <_ZL20uart_send_hex_nibblec+0xc>

00001464 <_ZL19uart_send_move_backj>:
#   }
# }
# 
# static auto uart_send_move_back(size_t const n) -> void {
    1464:	ff010113          	addi	sp,sp,-16
    1468:	00812423          	sw	s0,8(sp)
    146c:	00912223          	sw	s1,4(sp)
    1470:	00112623          	sw	ra,12(sp)
    1474:	00050413          	mv	s0,a0
#   for (mut i = 0u; i < n; ++i) {
    1478:	00000493          	li	s1,0
    147c:	00849c63          	bne	s1,s0,1494 <_ZL19uart_send_move_backj+0x30>
#     uart_send_char('\b');
#   }
# }
    1480:	00c12083          	lw	ra,12(sp)
    1484:	00812403          	lw	s0,8(sp)
    1488:	00412483          	lw	s1,4(sp)
    148c:	01010113          	addi	sp,sp,16
    1490:	00008067          	ret
#     uart_send_char('\b');
    1494:	00800513          	li	a0,8
    1498:	038000ef          	jal	14d0 <_ZL14uart_send_charc>
#   for (mut i = 0u; i < n; ++i) {
    149c:	00148493          	addi	s1,s1,1
    14a0:	fddff06f          	j	147c <_ZL19uart_send_move_backj+0x18>

000014a4 <_ZL7led_seti>:
    14a4:	fea02e23          	sw	a0,-4(zero) # fffffffc <__bss_end+0xffffdc0c>
    14a8:	00008067          	ret

000014ac <_ZL14uart_send_cstrPKc>:
#     while (*UART_OUT != -1)
    14ac:	fff00713          	li	a4,-1
#   while (*str) {
    14b0:	00054783          	lbu	a5,0(a0)
    14b4:	00079463          	bnez	a5,14bc <_ZL14uart_send_cstrPKc+0x10>
# }
    14b8:	00008067          	ret
#     while (*UART_OUT != -1)
    14bc:	ff802683          	lw	a3,-8(zero) # fffffff8 <__bss_end+0xffffdc08>
    14c0:	fee69ee3          	bne	a3,a4,14bc <_ZL14uart_send_cstrPKc+0x10>
#     *UART_OUT = *str++;
    14c4:	00150513          	addi	a0,a0,1
    14c8:	fef02c23          	sw	a5,-8(zero) # fffffff8 <__bss_end+0xffffdc08>
    14cc:	fe5ff06f          	j	14b0 <_ZL14uart_send_cstrPKc+0x4>

000014d0 <_ZL14uart_send_charc>:
#   while (*UART_OUT != -1)
    14d0:	fff00793          	li	a5,-1
    14d4:	ff802703          	lw	a4,-8(zero) # fffffff8 <__bss_end+0xffffdc08>
    14d8:	fef71ee3          	bne	a4,a5,14d4 <_ZL14uart_send_charc+0x4>
#   *UART_OUT = ch;
    14dc:	fea02c23          	sw	a0,-8(zero) # fffffff8 <__bss_end+0xffffdc08>
# }
    14e0:	00008067          	ret

000014e4 <_ZL14uart_read_charv>:
#   while ((ch = *UART_IN) == -1)
    14e4:	fff00793          	li	a5,-1
    14e8:	ff402503          	lw	a0,-12(zero) # fffffff4 <__bss_end+0xffffdc04>
    14ec:	fef50ee3          	beq	a0,a5,14e8 <_ZL14uart_read_charv+0x4>
# }
    14f0:	0ff57513          	zext.b	a0,a0
    14f4:	00008067          	ret

000014f8 <_ZL15action_mem_testv>:
#   uart_send_cstr("testing memory (write)\r\n");
    14f8:	00002537          	lui	a0,0x2
# static auto action_mem_test() -> void {
    14fc:	fe010113          	addi	sp,sp,-32
#   uart_send_cstr("testing memory (write)\r\n");
    1500:	f4c50513          	addi	a0,a0,-180 # 1f4c <_ZNK4spanIcE8for_eachIZL12string_printS0_EUlT_E_EEvS2_.isra.0+0x6a4>
# static auto action_mem_test() -> void {
    1504:	00812c23          	sw	s0,24(sp)
    1508:	00112e23          	sw	ra,28(sp)
#   char *ptr = &__heap_start;
    150c:	00002437          	lui	s0,0x2
# static auto action_mem_test() -> void {
    1510:	00912a23          	sw	s1,20(sp)
    1514:	01212823          	sw	s2,16(sp)
    1518:	01312623          	sw	s3,12(sp)
    151c:	01412423          	sw	s4,8(sp)
    1520:	01512223          	sw	s5,4(sp)
    1524:	01612023          	sw	s6,0(sp)
#   uart_send_cstr("testing memory (write)\r\n");
    1528:	f85ff0ef          	jal	14ac <_ZL14uart_send_cstrPKc>
#   char *ptr = &__heap_start;
    152c:	3f040713          	addi	a4,s0,1008 # 23f0 <__bss_end>
#   char ch = 0;
    1530:	00000793          	li	a5,0
    1534:	3f040413          	addi	s0,s0,1008
#   while (ptr < end) {
    1538:	001f06b7          	lui	a3,0x1f0
    153c:	06d76263          	bltu	a4,a3,15a0 <_ZL15action_mem_testv+0xa8>
#   uart_send_cstr("testing memory (read)\r\n");
    1540:	00002537          	lui	a0,0x2
    1544:	f6850513          	addi	a0,a0,-152 # 1f68 <_ZNK4spanIcE8for_eachIZL12string_printS0_EUlT_E_EEvS2_.isra.0+0x6c0>
    1548:	f65ff0ef          	jal	14ac <_ZL14uart_send_cstrPKc>
#   bool failed = false;
    154c:	00000793          	li	a5,0
#   ch = 0;
    1550:	00000493          	li	s1,0
#   while (ptr < end) {
    1554:	001f0937          	lui	s2,0x1f0
#       uart_send_cstr("at ");
    1558:	000029b7          	lui	s3,0x2
#       uart_send_cstr(" expected ");
    155c:	00002a37          	lui	s4,0x2
#       uart_send_cstr(" got ");
    1560:	00002ab7          	lui	s5,0x2
#       uart_send_cstr("\r\n");
    1564:	00002b37          	lui	s6,0x2
#   while (ptr < end) {
    1568:	05246663          	bltu	s0,s2,15b4 <_ZL15action_mem_testv+0xbc>
#   if (failed) {
    156c:	0a078063          	beqz	a5,160c <_ZL15action_mem_testv+0x114>
#     uart_send_cstr("testing memory FAILED\r\n");
    1570:	00002537          	lui	a0,0x2
    1574:	f9850513          	addi	a0,a0,-104 # 1f98 <_ZNK4spanIcE8for_eachIZL12string_printS0_EUlT_E_EEvS2_.isra.0+0x6f0>
# }
    1578:	01812403          	lw	s0,24(sp)
    157c:	01c12083          	lw	ra,28(sp)
    1580:	01412483          	lw	s1,20(sp)
    1584:	01012903          	lw	s2,16(sp)
    1588:	00c12983          	lw	s3,12(sp)
    158c:	00812a03          	lw	s4,8(sp)
    1590:	00412a83          	lw	s5,4(sp)
    1594:	00012b03          	lw	s6,0(sp)
    1598:	02010113          	addi	sp,sp,32
#     uart_send_cstr("testing memory succeeded\r\n");
    159c:	f11ff06f          	j	14ac <_ZL14uart_send_cstrPKc>
#     *ptr = ch;
    15a0:	00f70023          	sb	a5,0(a4)
#     ++ch;
    15a4:	00178793          	addi	a5,a5,1
#     ++ptr;
    15a8:	00170713          	addi	a4,a4,1
#     ++ch;
    15ac:	0ff7f793          	zext.b	a5,a5
    15b0:	f8dff06f          	j	153c <_ZL15action_mem_testv+0x44>
#     if (*ptr != ch) {
    15b4:	00044703          	lbu	a4,0(s0)
    15b8:	04970263          	beq	a4,s1,15fc <_ZL15action_mem_testv+0x104>
#       uart_send_cstr("at ");
    15bc:	f8098513          	addi	a0,s3,-128 # 1f80 <_ZNK4spanIcE8for_eachIZL12string_printS0_EUlT_E_EEvS2_.isra.0+0x6d8>
    15c0:	eedff0ef          	jal	14ac <_ZL14uart_send_cstrPKc>
#       uart_send_hex_uint32(uint32_t(ptr), true);
    15c4:	00100593          	li	a1,1
    15c8:	00040513          	mv	a0,s0
    15cc:	df5ff0ef          	jal	13c0 <_ZL20uart_send_hex_uint32jb>
#       uart_send_cstr(" expected ");
    15d0:	f84a0513          	addi	a0,s4,-124 # 1f84 <_ZNK4spanIcE8for_eachIZL12string_printS0_EUlT_E_EEvS2_.isra.0+0x6dc>
    15d4:	ed9ff0ef          	jal	14ac <_ZL14uart_send_cstrPKc>
#       uart_send_hex_byte(ch);
    15d8:	00048513          	mv	a0,s1
    15dc:	e41ff0ef          	jal	141c <_ZL18uart_send_hex_bytec>
#       uart_send_cstr(" got ");
    15e0:	f90a8513          	addi	a0,s5,-112 # 1f90 <_ZNK4spanIcE8for_eachIZL12string_printS0_EUlT_E_EEvS2_.isra.0+0x6e8>
    15e4:	ec9ff0ef          	jal	14ac <_ZL14uart_send_cstrPKc>
#       uart_send_hex_byte(*ptr);
    15e8:	00044503          	lbu	a0,0(s0)
    15ec:	e31ff0ef          	jal	141c <_ZL18uart_send_hex_bytec>
#       uart_send_cstr("\r\n");
    15f0:	cd0b0513          	addi	a0,s6,-816 # 1cd0 <_ZNK4spanIcE8for_eachIZL12string_printS0_EUlT_E_EEvS2_.isra.0+0x428>
    15f4:	eb9ff0ef          	jal	14ac <_ZL14uart_send_cstrPKc>
#       failed = true;
    15f8:	00100793          	li	a5,1
#     ++ch;
    15fc:	00148493          	addi	s1,s1,1
#     ++ptr;
    1600:	00140413          	addi	s0,s0,1
#     ++ch;
    1604:	0ff4f493          	zext.b	s1,s1
    1608:	f61ff06f          	j	1568 <_ZL15action_mem_testv+0x70>
#     uart_send_cstr("testing memory succeeded\r\n");
    160c:	00002537          	lui	a0,0x2
    1610:	fb050513          	addi	a0,a0,-80 # 1fb0 <_ZNK4spanIcE8for_eachIZL12string_printS0_EUlT_E_EEvS2_.isra.0+0x708>
    1614:	f65ff06f          	j	1578 <_ZL15action_mem_testv+0x80>

00001618 <_ZL23action_sdcard_test_read4spanIcE>:
# static auto action_sdcard_test_read(string const args) -> void {
    1618:	dd010113          	addi	sp,sp,-560
    161c:	00a12423          	sw	a0,8(sp)
    1620:	00058613          	mv	a2,a1
    1624:	00b12623          	sw	a1,12(sp)
#   let w1 = string_next_word(args);
    1628:	00050593          	mv	a1,a0
    162c:	01010513          	addi	a0,sp,16
# static auto action_sdcard_test_read(string const args) -> void {
    1630:	22112623          	sw	ra,556(sp)
    1634:	22812423          	sw	s0,552(sp)
    1638:	22912223          	sw	s1,548(sp)
    163c:	23212023          	sw	s2,544(sp)
#   let w1 = string_next_word(args);
    1640:	af5fe0ef          	jal	134 <_ZL16string_next_word4spanIcE>
#   if (w1.word.is_empty()) {
    1644:	01012503          	lw	a0,16(sp)
    1648:	01412583          	lw	a1,20(sp)
    164c:	02b51263          	bne	a0,a1,1670 <_ZL23action_sdcard_test_read4spanIcE+0x58>
#     uart_send_cstr("<sector>\r\n");
    1650:	00002537          	lui	a0,0x2
    1654:	fcc50513          	addi	a0,a0,-52 # 1fcc <_ZNK4spanIcE8for_eachIZL12string_printS0_EUlT_E_EEvS2_.isra.0+0x724>
# }
    1658:	22812403          	lw	s0,552(sp)
    165c:	22c12083          	lw	ra,556(sp)
    1660:	22412483          	lw	s1,548(sp)
    1664:	22012903          	lw	s2,544(sp)
    1668:	23010113          	addi	sp,sp,560
#   uart_send_cstr("\r\n");
    166c:	e41ff06f          	j	14ac <_ZL14uart_send_cstrPKc>
#   let sector = string_to_uint32(w1.word);
    1670:	d01ff0ef          	jal	1370 <_ZL16string_to_uint324spanIcE>
#   sdcard_read_blocking(sector, buf);
    1674:	02010493          	addi	s1,sp,32
    1678:	00048593          	mv	a1,s1
    167c:	124000ef          	jal	17a0 <_ZL20sdcard_read_blockingjPc>
#   for (mut i = 0u; i < sizeof(buf); ++i) {
    1680:	00000413          	li	s0,0
    1684:	20000913          	li	s2,512
#     uart_send_char(buf[i]);
    1688:	008487b3          	add	a5,s1,s0
    168c:	0007c503          	lbu	a0,0(a5)
#   for (mut i = 0u; i < sizeof(buf); ++i) {
    1690:	00140413          	addi	s0,s0,1
#     uart_send_char(buf[i]);
    1694:	e3dff0ef          	jal	14d0 <_ZL14uart_send_charc>
#   for (mut i = 0u; i < sizeof(buf); ++i) {
    1698:	ff2418e3          	bne	s0,s2,1688 <_ZL23action_sdcard_test_read4spanIcE+0x70>
#   uart_send_cstr("\r\n");
    169c:	00002537          	lui	a0,0x2
    16a0:	cd050513          	addi	a0,a0,-816 # 1cd0 <_ZNK4spanIcE8for_eachIZL12string_printS0_EUlT_E_EEvS2_.isra.0+0x428>
    16a4:	fb5ff06f          	j	1658 <_ZL23action_sdcard_test_read4spanIcE+0x40>

000016a8 <_ZL24action_sdcard_test_write4spanIcE>:
# static auto action_sdcard_test_write(string const args) -> void {
    16a8:	dd010113          	addi	sp,sp,-560
    16ac:	00a12423          	sw	a0,8(sp)
    16b0:	00058613          	mv	a2,a1
    16b4:	00b12623          	sw	a1,12(sp)
#   let w1 = string_next_word(args);
    16b8:	00050593          	mv	a1,a0
    16bc:	01010513          	addi	a0,sp,16
# static auto action_sdcard_test_write(string const args) -> void {
    16c0:	22112623          	sw	ra,556(sp)
#   let w1 = string_next_word(args);
    16c4:	a71fe0ef          	jal	134 <_ZL16string_next_word4spanIcE>
#   if (w1.word.is_empty()) {
    16c8:	01012703          	lw	a4,16(sp)
    16cc:	01412783          	lw	a5,20(sp)
    16d0:	00f71c63          	bne	a4,a5,16e8 <_ZL24action_sdcard_test_write4spanIcE+0x40>
# }
    16d4:	22c12083          	lw	ra,556(sp)
#     uart_send_cstr("<sector> <text>\r\n");
    16d8:	00002537          	lui	a0,0x2
    16dc:	fd850513          	addi	a0,a0,-40 # 1fd8 <_ZNK4spanIcE8for_eachIZL12string_printS0_EUlT_E_EEvS2_.isra.0+0x730>
# }
    16e0:	23010113          	addi	sp,sp,560
#     uart_send_cstr("<sector> <text>\r\n");
    16e4:	dc9ff06f          	j	14ac <_ZL14uart_send_cstrPKc>
#   char buf[512]{};
    16e8:	20000613          	li	a2,512
    16ec:	00000593          	li	a1,0
    16f0:	02010513          	addi	a0,sp,32
    16f4:	104000ef          	jal	17f8 <memset>
#     for (Type *it = begin_; it < end_; ++it) {
    16f8:	01812783          	lw	a5,24(sp)
    16fc:	01c12683          	lw	a3,28(sp)
#   mut *buf_ptr = buf;
    1700:	02010713          	addi	a4,sp,32
    1704:	02d7e263          	bltu	a5,a3,1728 <_ZL24action_sdcard_test_write4spanIcE+0x80>
#   size_t const sector = string_to_uint32(w1.word);
    1708:	01412583          	lw	a1,20(sp)
    170c:	01012503          	lw	a0,16(sp)
    1710:	c61ff0ef          	jal	1370 <_ZL16string_to_uint324spanIcE>
#   sdcard_write_blocking(sector, buf);
    1714:	02010593          	addi	a1,sp,32
    1718:	0b4000ef          	jal	17cc <_ZL21sdcard_write_blockingjPKc>
# }
    171c:	22c12083          	lw	ra,556(sp)
    1720:	23010113          	addi	sp,sp,560
    1724:	00008067          	ret
#     *buf_ptr = ch;
    1728:	0007c603          	lbu	a2,0(a5)
#     ++buf_ptr;
    172c:	00170713          	addi	a4,a4,1
    1730:	00178793          	addi	a5,a5,1
#     *buf_ptr = ch;
    1734:	fec70fa3          	sb	a2,-1(a4)
    1738:	fcdff06f          	j	1704 <_ZL24action_sdcard_test_write4spanIcE+0x5c>

0000173c <_ZL20action_sdcard_statusv>:
# static auto action_sdcard_status() -> void {
    173c:	ff010113          	addi	sp,sp,-16
    1740:	00812423          	sw	s0,8(sp)
#   uint32_t const status = *SDCARD_STATUS;
#   uart_send_cstr("SDCARD_STATUS: 0x");
    1744:	00002537          	lui	a0,0x2
#   uint32_t const status = *SDCARD_STATUS;
    1748:	fe402403          	lw	s0,-28(zero) # ffffffe4 <__bss_end+0xffffdbf4>
#   uart_send_cstr("SDCARD_STATUS: 0x");
    174c:	fec50513          	addi	a0,a0,-20 # 1fec <_ZNK4spanIcE8for_eachIZL12string_printS0_EUlT_E_EEvS2_.isra.0+0x744>
# static auto action_sdcard_status() -> void {
    1750:	00112623          	sw	ra,12(sp)
#   uart_send_cstr("SDCARD_STATUS: 0x");
    1754:	d59ff0ef          	jal	14ac <_ZL14uart_send_cstrPKc>
#   uart_send_hex_byte(char(status >> 24));
    1758:	01845513          	srli	a0,s0,0x18
    175c:	cc1ff0ef          	jal	141c <_ZL18uart_send_hex_bytec>
#   uart_send_hex_byte(char(status >> 16));
    1760:	01045513          	srli	a0,s0,0x10
    1764:	0ff57513          	zext.b	a0,a0
    1768:	cb5ff0ef          	jal	141c <_ZL18uart_send_hex_bytec>
#   uart_send_char(':');
    176c:	03a00513          	li	a0,58
    1770:	d61ff0ef          	jal	14d0 <_ZL14uart_send_charc>
#   uart_send_hex_byte(char(status >> 8));
    1774:	00845513          	srli	a0,s0,0x8
    1778:	0ff57513          	zext.b	a0,a0
    177c:	ca1ff0ef          	jal	141c <_ZL18uart_send_hex_bytec>
#   uart_send_hex_byte(char(status));
    1780:	0ff47513          	zext.b	a0,s0
    1784:	c99ff0ef          	jal	141c <_ZL18uart_send_hex_bytec>
#   uart_send_cstr("\r\n");
# }
    1788:	00812403          	lw	s0,8(sp)
    178c:	00c12083          	lw	ra,12(sp)
#   uart_send_cstr("\r\n");
    1790:	00002537          	lui	a0,0x2
    1794:	cd050513          	addi	a0,a0,-816 # 1cd0 <_ZNK4spanIcE8for_eachIZL12string_printS0_EUlT_E_EEvS2_.isra.0+0x428>
# }
    1798:	01010113          	addi	sp,sp,16
#   uart_send_cstr("\r\n");
    179c:	d11ff06f          	j	14ac <_ZL14uart_send_cstrPKc>

000017a0 <_ZL20sdcard_read_blockingjPc>:
# 
# static auto sdcard_read_blocking(size_t const sector,
#                                  int8_t *buffer512B) -> void {
#   while (*SDCARD_BUSY)
    17a0:	ff002783          	lw	a5,-16(zero) # fffffff0 <__bss_end+0xffffdc00>
    17a4:	fe079ee3          	bnez	a5,17a0 <_ZL20sdcard_read_blockingjPc>
#     ;
#   *SDCARD_READ_SECTOR = sector;
    17a8:	fea02623          	sw	a0,-20(zero) # ffffffec <__bss_end+0xffffdbfc>
#   while (*SDCARD_BUSY)
    17ac:	ff002783          	lw	a5,-16(zero) # fffffff0 <__bss_end+0xffffdc00>
    17b0:	fe079ee3          	bnez	a5,17ac <_ZL20sdcard_read_blockingjPc+0xc>
    17b4:	20058793          	addi	a5,a1,512
#     ;
#   for (size_t i = 0; i < 512; ++i) {
#     *buffer512B = char(*SDCARD_NEXT_BYTE);
    17b8:	fe802703          	lw	a4,-24(zero) # ffffffe8 <__bss_end+0xffffdbf8>
#     ++buffer512B;
    17bc:	00158593          	addi	a1,a1,1
#     *buffer512B = char(*SDCARD_NEXT_BYTE);
    17c0:	fee58fa3          	sb	a4,-1(a1)
#   for (size_t i = 0; i < 512; ++i) {
    17c4:	feb79ae3          	bne	a5,a1,17b8 <_ZL20sdcard_read_blockingjPc+0x18>
#   }
# }
    17c8:	00008067          	ret

000017cc <_ZL21sdcard_write_blockingjPKc>:
# 
# static auto sdcard_write_blocking(size_t const sector,
#                                   int8_t const *buffer512B) -> void {
#   while (*SDCARD_BUSY)
    17cc:	ff002783          	lw	a5,-16(zero) # fffffff0 <__bss_end+0xffffdc00>
    17d0:	fe079ee3          	bnez	a5,17cc <_ZL21sdcard_write_blockingjPKc>
    17d4:	20058793          	addi	a5,a1,512
#     ;
#   for (size_t i = 0; i < 512; ++i) {
#     *SDCARD_NEXT_BYTE = *buffer512B;
    17d8:	0005c703          	lbu	a4,0(a1)
#     ++buffer512B;
    17dc:	00158593          	addi	a1,a1,1
#     *SDCARD_NEXT_BYTE = *buffer512B;
    17e0:	fee02423          	sw	a4,-24(zero) # ffffffe8 <__bss_end+0xffffdbf8>
#   for (size_t i = 0; i < 512; ++i) {
    17e4:	feb79ae3          	bne	a5,a1,17d8 <_ZL21sdcard_write_blockingjPKc+0xc>
#   }
#   *SDCARD_WRITE_SECTOR = sector;
    17e8:	fea02023          	sw	a0,-32(zero) # ffffffe0 <__bss_end+0xffffdbf0>
#   while (*SDCARD_BUSY)
    17ec:	ff002783          	lw	a5,-16(zero) # fffffff0 <__bss_end+0xffffdc00>
    17f0:	fe079ee3          	bnez	a5,17ec <_ZL21sdcard_write_blockingjPKc+0x20>
#     ;
# }
    17f4:	00008067          	ret

000017f8 <memset>:
# 
# // built-in function called by compiler
# extern "C" auto memset(void *str, int ch, int n) -> void * {
#   char *ptr = reinterpret_cast<char *>(str);
#   while (n--) {
    17f8:	00c50633          	add	a2,a0,a2
#   char *ptr = reinterpret_cast<char *>(str);
    17fc:	00050793          	mv	a5,a0
#   while (n--) {
    1800:	00c79463          	bne	a5,a2,1808 <memset+0x10>
#     *ptr = char(ch);
#     ++ptr;
#   }
#   return str;
# }
    1804:	00008067          	ret
#     *ptr = char(ch);
    1808:	00b78023          	sb	a1,0(a5)
#     ++ptr;
    180c:	00178793          	addi	a5,a5,1
    1810:	ff1ff06f          	j	1800 <memset+0x8>

00001814 <memcpy>:
# 
# // built-in function called by compiler
# extern "C" auto memcpy(void *dst, void const *src, size_t n) -> void * {
#   char *p1 = reinterpret_cast<char *>(dst);
#   char const *p2 = reinterpret_cast<char const *>(src);
#   while (n--) {
    1814:	00000793          	li	a5,0
    1818:	00f61463          	bne	a2,a5,1820 <memcpy+0xc>
#     *p1 = *p2;
#     ++p1;
#     ++p2;
#   }
#   return dst;
# }
    181c:	00008067          	ret
#     *p1 = *p2;
    1820:	00f58733          	add	a4,a1,a5
    1824:	00074683          	lbu	a3,0(a4)
    1828:	00f50733          	add	a4,a0,a5
    182c:	00178793          	addi	a5,a5,1
    1830:	00d70023          	sb	a3,0(a4)
#     ++p2;
    1834:	fe5ff06f          	j	1818 <memcpy+0x4>

00001838 <_ZL12initiate_bssv>:
# 
# // zero bss section
# static auto initiate_bss() -> void {
#   memset(&__bss_start, 0, &__bss_end - &__bss_start);
    1838:	00002537          	lui	a0,0x2
    183c:	000027b7          	lui	a5,0x2
    1840:	3e850613          	addi	a2,a0,1000 # 23e8 <_ZL21input_escape_sequence>
    1844:	3f078793          	addi	a5,a5,1008 # 23f0 <__bss_end>
    1848:	40c78633          	sub	a2,a5,a2
    184c:	00000593          	li	a1,0
    1850:	3e850513          	addi	a0,a0,1000
    1854:	fa5ff06f          	j	17f8 <memset>

00001858 <_ZL16initiate_staticsv>:
# }
# 
# static auto initiate_statics() -> void {}
    1858:	00008067          	ret

0000185c <_ZL4exiti>:
# 
    185c:	00008067          	ret

00001860 <_ZNK14command_buffer33apply_on_chars_from_cursor_to_endIZL5inputRS_EUlcE_EEvOT_.isra.0>:
#   auto apply_on_chars_from_cursor_to_end(
    1860:	ff010113          	addi	sp,sp,-16
    1864:	00812423          	sw	s0,8(sp)
    1868:	00112623          	sw	ra,12(sp)
    186c:	00912223          	sw	s1,4(sp)
#     for (size_t i = cursor_; i < end_; ++i) {
    1870:	05054483          	lbu	s1,80(a0)
#   auto apply_on_chars_from_cursor_to_end(
    1874:	00050413          	mv	s0,a0
#     for (size_t i = cursor_; i < end_; ++i) {
    1878:	05144783          	lbu	a5,81(s0)
    187c:	00f4ec63          	bltu	s1,a5,1894 <_ZNK14command_buffer33apply_on_chars_from_cursor_to_endIZL5inputRS_EUlcE_EEvOT_.isra.0+0x34>
#   }
    1880:	00c12083          	lw	ra,12(sp)
    1884:	00812403          	lw	s0,8(sp)
    1888:	00412483          	lw	s1,4(sp)
    188c:	01010113          	addi	sp,sp,16
    1890:	00008067          	ret
#       f(line_[i]);
    1894:	009407b3          	add	a5,s0,s1
#               [](char const c) { uart_send_char(c); });
    1898:	0007c503          	lbu	a0,0(a5)
#     for (size_t i = cursor_; i < end_; ++i) {
    189c:	00148493          	addi	s1,s1,1
    18a0:	c31ff0ef          	jal	14d0 <_ZL14uart_send_charc>
    18a4:	fd5ff06f          	j	1878 <_ZNK14command_buffer33apply_on_chars_from_cursor_to_endIZL5inputRS_EUlcE_EEvOT_.isra.0+0x18>

000018a8 <_ZNK4spanIcE8for_eachIZL12string_printS0_EUlT_E_EEvS2_.isra.0>:
#   auto for_each(callable_returns_void<Type> auto f) const -> void {
    18a8:	ff010113          	addi	sp,sp,-16
    18ac:	00812423          	sw	s0,8(sp)
#     for (Type *it = begin_; it < end_; ++it) {
    18b0:	00052403          	lw	s0,0(a0)
#   auto for_each(callable_returns_void<Type> auto f) const -> void {
    18b4:	00912223          	sw	s1,4(sp)
    18b8:	00112623          	sw	ra,12(sp)
    18bc:	00050493          	mv	s1,a0
#     for (Type *it = begin_; it < end_; ++it) {
    18c0:	0044a783          	lw	a5,4(s1)
    18c4:	00f46c63          	bltu	s0,a5,18dc <_ZNK4spanIcE8for_eachIZL12string_printS0_EUlT_E_EEvS2_.isra.0+0x34>
#   }
    18c8:	00c12083          	lw	ra,12(sp)
    18cc:	00812403          	lw	s0,8(sp)
    18d0:	00412483          	lw	s1,4(sp)
    18d4:	01010113          	addi	sp,sp,16
    18d8:	00008067          	ret
#   str.for_each([](let ch) { uart_send_char(ch); });
    18dc:	00044503          	lbu	a0,0(s0)
#     for (Type *it = begin_; it < end_; ++it) {
    18e0:	00140413          	addi	s0,s0,1
    18e4:	bedff0ef          	jal	14d0 <_ZL14uart_send_charc>
    18e8:	fd9ff06f          	j	18c0 <_ZNK4spanIcE8for_eachIZL12string_printS0_EUlT_E_EEvS2_.isra.0+0x18>
