
os:     file format elf32-littleriscv


Disassembly of section .text:

00000000 <_start>:
# # generated - do not edit (see `configuration.py`)
# .global _start
# _start:
#     li sp, 0x200000
       0:	00200137          	lui	sp,0x200
#     jal ra, run
       4:	004000ef          	jal	8 <run>

00000008 <run>:
       8:	f9010113          	add	sp,sp,-112 # 1fff90 <__global_pointer$+0x1fbb98>
       c:	06112623          	sw	ra,108(sp)
      10:	06812423          	sw	s0,104(sp)
      14:	07010413          	add	s0,sp,112
      18:	00000513          	li	a0,0
      1c:	00002097          	auipc	ra,0x2
      20:	804080e7          	jalr	-2044(ra) # 1820 <_ZL7led_seth>
      24:	00100793          	li	a5,1
      28:	fef407a3          	sb	a5,-17(s0)
      2c:	f9440793          	add	a5,s0,-108
      30:	05200713          	li	a4,82
      34:	00070613          	mv	a2,a4
      38:	00000593          	li	a1,0
      3c:	00078513          	mv	a0,a5
      40:	00002097          	auipc	ra,0x2
      44:	a4c080e7          	jalr	-1460(ra) # 1a8c <memset>
      48:	000047b7          	lui	a5,0x4
      4c:	f947a783          	lw	a5,-108(a5) # 3f94 <_ZL9ascii_art>
      50:	00078513          	mv	a0,a5
      54:	00001097          	auipc	ra,0x1
      58:	7fc080e7          	jalr	2044(ra) # 1850 <_ZL13uart_send_strPKc>
      5c:	000047b7          	lui	a5,0x4
      60:	f907a783          	lw	a5,-112(a5) # 3f90 <_ZL5hello>
      64:	00078513          	mv	a0,a5
      68:	00001097          	auipc	ra,0x1
      6c:	7e8080e7          	jalr	2024(ra) # 1850 <_ZL13uart_send_strPKc>
      70:	fef44703          	lbu	a4,-17(s0)
      74:	00070793          	mv	a5,a4
      78:	00279793          	sll	a5,a5,0x2
      7c:	00e787b3          	add	a5,a5,a4
      80:	00379793          	sll	a5,a5,0x3
      84:	00004737          	lui	a4,0x4
      88:	c0870713          	add	a4,a4,-1016 # 3c08 <_ZL8entities>
      8c:	00e787b3          	add	a5,a5,a4
      90:	fef42423          	sw	a5,-24(s0)
      94:	fe842783          	lw	a5,-24(s0)
      98:	0047c783          	lbu	a5,4(a5)
      9c:	fef44703          	lbu	a4,-17(s0)
      a0:	00070593          	mv	a1,a4
      a4:	00078513          	mv	a0,a5
      a8:	00000097          	auipc	ra,0x0
      ac:	420080e7          	jalr	1056(ra) # 4c8 <_ZL14print_locationhh>
      b0:	fe842783          	lw	a5,-24(s0)
      b4:	0007a783          	lw	a5,0(a5)
      b8:	00078513          	mv	a0,a5
      bc:	00001097          	auipc	ra,0x1
      c0:	794080e7          	jalr	1940(ra) # 1850 <_ZL13uart_send_strPKc>
      c4:	000027b7          	lui	a5,0x2
      c8:	39878513          	add	a0,a5,920 # 2398 <_ZN12input_buffer17move_cursor_rightEv+0x43c>
      cc:	00001097          	auipc	ra,0x1
      d0:	784080e7          	jalr	1924(ra) # 1850 <_ZL13uart_send_strPKc>
      d4:	f9440793          	add	a5,s0,-108
      d8:	00078513          	mv	a0,a5
      dc:	00001097          	auipc	ra,0x1
      e0:	1ac080e7          	jalr	428(ra) # 1288 <_ZL5inputR12input_buffer>
      e4:	000027b7          	lui	a5,0x2
      e8:	39c78513          	add	a0,a5,924 # 239c <_ZN12input_buffer17move_cursor_rightEv+0x440>
      ec:	00001097          	auipc	ra,0x1
      f0:	764080e7          	jalr	1892(ra) # 1850 <_ZL13uart_send_strPKc>
      f4:	f9440713          	add	a4,s0,-108
      f8:	fef44783          	lbu	a5,-17(s0)
      fc:	00070593          	mv	a1,a4
     100:	00078513          	mv	a0,a5
     104:	00000097          	auipc	ra,0x0
     108:	02c080e7          	jalr	44(ra) # 130 <_ZL12handle_inputhR12input_buffer>
     10c:	fef44703          	lbu	a4,-17(s0)
     110:	00100793          	li	a5,1
     114:	00f71863          	bne	a4,a5,124 <run+0x11c>
     118:	00200793          	li	a5,2
     11c:	fef407a3          	sb	a5,-17(s0)
     120:	f51ff06f          	j	70 <run+0x68>
     124:	00100793          	li	a5,1
     128:	fef407a3          	sb	a5,-17(s0)
     12c:	f45ff06f          	j	70 <run+0x68>

00000130 <_ZL12handle_inputhR12input_buffer>:
     130:	fb010113          	add	sp,sp,-80
     134:	04112623          	sw	ra,76(sp)
     138:	04812423          	sw	s0,72(sp)
     13c:	05010413          	add	s0,sp,80
     140:	00050793          	mv	a5,a0
     144:	fab42c23          	sw	a1,-72(s0)
     148:	faf40fa3          	sb	a5,-65(s0)
     14c:	fb842503          	lw	a0,-72(s0)
     150:	00002097          	auipc	ra,0x2
     154:	d14080e7          	jalr	-748(ra) # 1e64 <_ZN12input_buffer4lineEv>
     158:	fea42623          	sw	a0,-20(s0)
     15c:	fe042423          	sw	zero,-24(s0)
     160:	fec42703          	lw	a4,-20(s0)
     164:	fe842783          	lw	a5,-24(s0)
     168:	00178693          	add	a3,a5,1
     16c:	fed42423          	sw	a3,-24(s0)
     170:	00279793          	sll	a5,a5,0x2
     174:	ff078793          	add	a5,a5,-16
     178:	008787b3          	add	a5,a5,s0
     17c:	fce7ac23          	sw	a4,-40(a5)
     180:	0100006f          	j	190 <_ZL12handle_inputhR12input_buffer+0x60>
     184:	fec42783          	lw	a5,-20(s0)
     188:	00178793          	add	a5,a5,1
     18c:	fef42623          	sw	a5,-20(s0)
     190:	fec42783          	lw	a5,-20(s0)
     194:	0007c783          	lbu	a5,0(a5)
     198:	00078a63          	beqz	a5,1ac <_ZL12handle_inputhR12input_buffer+0x7c>
     19c:	fec42783          	lw	a5,-20(s0)
     1a0:	0007c703          	lbu	a4,0(a5)
     1a4:	02000793          	li	a5,32
     1a8:	fcf71ee3          	bne	a4,a5,184 <_ZL12handle_inputhR12input_buffer+0x54>
     1ac:	fec42783          	lw	a5,-20(s0)
     1b0:	0007c783          	lbu	a5,0(a5)
     1b4:	02078c63          	beqz	a5,1ec <_ZL12handle_inputhR12input_buffer+0xbc>
     1b8:	fec42783          	lw	a5,-20(s0)
     1bc:	00078023          	sb	zero,0(a5)
     1c0:	fec42783          	lw	a5,-20(s0)
     1c4:	00178793          	add	a5,a5,1
     1c8:	fef42623          	sw	a5,-20(s0)
     1cc:	fe842703          	lw	a4,-24(s0)
     1d0:	00800793          	li	a5,8
     1d4:	f8f716e3          	bne	a4,a5,160 <_ZL12handle_inputhR12input_buffer+0x30>
     1d8:	000027b7          	lui	a5,0x2
     1dc:	3a078513          	add	a0,a5,928 # 23a0 <_ZN12input_buffer17move_cursor_rightEv+0x444>
     1e0:	00001097          	auipc	ra,0x1
     1e4:	670080e7          	jalr	1648(ra) # 1850 <_ZL13uart_send_strPKc>
     1e8:	0080006f          	j	1f0 <_ZL12handle_inputhR12input_buffer+0xc0>
     1ec:	00000013          	nop
     1f0:	fc842703          	lw	a4,-56(s0)
     1f4:	000027b7          	lui	a5,0x2
     1f8:	3c478593          	add	a1,a5,964 # 23c4 <_ZN12input_buffer17move_cursor_rightEv+0x468>
     1fc:	00070513          	mv	a0,a4
     200:	00001097          	auipc	ra,0x1
     204:	4dc080e7          	jalr	1244(ra) # 16dc <_ZL13strings_equalPKcS0_>
     208:	00050793          	mv	a5,a0
     20c:	00078863          	beqz	a5,21c <_ZL12handle_inputhR12input_buffer+0xec>
     210:	00001097          	auipc	ra,0x1
     214:	044080e7          	jalr	68(ra) # 1254 <_ZL10print_helpv>
     218:	2a00006f          	j	4b8 <_ZL12handle_inputhR12input_buffer+0x388>
     21c:	fc842703          	lw	a4,-56(s0)
     220:	000027b7          	lui	a5,0x2
     224:	3cc78593          	add	a1,a5,972 # 23cc <_ZN12input_buffer17move_cursor_rightEv+0x470>
     228:	00070513          	mv	a0,a4
     22c:	00001097          	auipc	ra,0x1
     230:	4b0080e7          	jalr	1200(ra) # 16dc <_ZL13strings_equalPKcS0_>
     234:	00050793          	mv	a5,a0
     238:	02078463          	beqz	a5,260 <_ZL12handle_inputhR12input_buffer+0x130>
     23c:	fbf44783          	lbu	a5,-65(s0)
     240:	00078513          	mv	a0,a5
     244:	00000097          	auipc	ra,0x0
     248:	584080e7          	jalr	1412(ra) # 7c8 <_ZL16action_inventoryh>
     24c:	000027b7          	lui	a5,0x2
     250:	39c78513          	add	a0,a5,924 # 239c <_ZN12input_buffer17move_cursor_rightEv+0x440>
     254:	00001097          	auipc	ra,0x1
     258:	5fc080e7          	jalr	1532(ra) # 1850 <_ZL13uart_send_strPKc>
     25c:	25c0006f          	j	4b8 <_ZL12handle_inputhR12input_buffer+0x388>
     260:	fc842703          	lw	a4,-56(s0)
     264:	000027b7          	lui	a5,0x2
     268:	3d078593          	add	a1,a5,976 # 23d0 <_ZN12input_buffer17move_cursor_rightEv+0x474>
     26c:	00070513          	mv	a0,a4
     270:	00001097          	auipc	ra,0x1
     274:	46c080e7          	jalr	1132(ra) # 16dc <_ZL13strings_equalPKcS0_>
     278:	00050793          	mv	a5,a0
     27c:	04078063          	beqz	a5,2bc <_ZL12handle_inputhR12input_buffer+0x18c>
     280:	fe842703          	lw	a4,-24(s0)
     284:	00100793          	li	a5,1
     288:	00e7ec63          	bltu	a5,a4,2a0 <_ZL12handle_inputhR12input_buffer+0x170>
     28c:	000027b7          	lui	a5,0x2
     290:	3d478513          	add	a0,a5,980 # 23d4 <_ZN12input_buffer17move_cursor_rightEv+0x478>
     294:	00001097          	auipc	ra,0x1
     298:	5bc080e7          	jalr	1468(ra) # 1850 <_ZL13uart_send_strPKc>
     29c:	21c0006f          	j	4b8 <_ZL12handle_inputhR12input_buffer+0x388>
     2a0:	fcc42703          	lw	a4,-52(s0)
     2a4:	fbf44783          	lbu	a5,-65(s0)
     2a8:	00070593          	mv	a1,a4
     2ac:	00078513          	mv	a0,a5
     2b0:	00001097          	auipc	ra,0x1
     2b4:	950080e7          	jalr	-1712(ra) # c00 <_ZL11action_takehPKc>
     2b8:	2000006f          	j	4b8 <_ZL12handle_inputhR12input_buffer+0x388>
     2bc:	fc842703          	lw	a4,-56(s0)
     2c0:	000027b7          	lui	a5,0x2
     2c4:	3e478593          	add	a1,a5,996 # 23e4 <_ZN12input_buffer17move_cursor_rightEv+0x488>
     2c8:	00070513          	mv	a0,a4
     2cc:	00001097          	auipc	ra,0x1
     2d0:	410080e7          	jalr	1040(ra) # 16dc <_ZL13strings_equalPKcS0_>
     2d4:	00050793          	mv	a5,a0
     2d8:	04078063          	beqz	a5,318 <_ZL12handle_inputhR12input_buffer+0x1e8>
     2dc:	fe842703          	lw	a4,-24(s0)
     2e0:	00100793          	li	a5,1
     2e4:	00e7ec63          	bltu	a5,a4,2fc <_ZL12handle_inputhR12input_buffer+0x1cc>
     2e8:	000027b7          	lui	a5,0x2
     2ec:	3e878513          	add	a0,a5,1000 # 23e8 <_ZN12input_buffer17move_cursor_rightEv+0x48c>
     2f0:	00001097          	auipc	ra,0x1
     2f4:	560080e7          	jalr	1376(ra) # 1850 <_ZL13uart_send_strPKc>
     2f8:	1c00006f          	j	4b8 <_ZL12handle_inputhR12input_buffer+0x388>
     2fc:	fcc42703          	lw	a4,-52(s0)
     300:	fbf44783          	lbu	a5,-65(s0)
     304:	00070593          	mv	a1,a4
     308:	00078513          	mv	a0,a5
     30c:	00001097          	auipc	ra,0x1
     310:	a5c080e7          	jalr	-1444(ra) # d68 <_ZL11action_drophPKc>
     314:	1a40006f          	j	4b8 <_ZL12handle_inputhR12input_buffer+0x388>
     318:	fc842703          	lw	a4,-56(s0)
     31c:	000027b7          	lui	a5,0x2
     320:	3f878593          	add	a1,a5,1016 # 23f8 <_ZN12input_buffer17move_cursor_rightEv+0x49c>
     324:	00070513          	mv	a0,a4
     328:	00001097          	auipc	ra,0x1
     32c:	3b4080e7          	jalr	948(ra) # 16dc <_ZL13strings_equalPKcS0_>
     330:	00050793          	mv	a5,a0
     334:	00078e63          	beqz	a5,350 <_ZL12handle_inputhR12input_buffer+0x220>
     338:	fbf44783          	lbu	a5,-65(s0)
     33c:	00000593          	li	a1,0
     340:	00078513          	mv	a0,a5
     344:	00001097          	auipc	ra,0x1
     348:	b9c080e7          	jalr	-1124(ra) # ee0 <_ZL9action_gohh>
     34c:	16c0006f          	j	4b8 <_ZL12handle_inputhR12input_buffer+0x388>
     350:	fc842703          	lw	a4,-56(s0)
     354:	000027b7          	lui	a5,0x2
     358:	3fc78593          	add	a1,a5,1020 # 23fc <_ZN12input_buffer17move_cursor_rightEv+0x4a0>
     35c:	00070513          	mv	a0,a4
     360:	00001097          	auipc	ra,0x1
     364:	37c080e7          	jalr	892(ra) # 16dc <_ZL13strings_equalPKcS0_>
     368:	00050793          	mv	a5,a0
     36c:	00078e63          	beqz	a5,388 <_ZL12handle_inputhR12input_buffer+0x258>
     370:	fbf44783          	lbu	a5,-65(s0)
     374:	00100593          	li	a1,1
     378:	00078513          	mv	a0,a5
     37c:	00001097          	auipc	ra,0x1
     380:	b64080e7          	jalr	-1180(ra) # ee0 <_ZL9action_gohh>
     384:	1340006f          	j	4b8 <_ZL12handle_inputhR12input_buffer+0x388>
     388:	fc842703          	lw	a4,-56(s0)
     38c:	000027b7          	lui	a5,0x2
     390:	40078593          	add	a1,a5,1024 # 2400 <_ZN12input_buffer17move_cursor_rightEv+0x4a4>
     394:	00070513          	mv	a0,a4
     398:	00001097          	auipc	ra,0x1
     39c:	344080e7          	jalr	836(ra) # 16dc <_ZL13strings_equalPKcS0_>
     3a0:	00050793          	mv	a5,a0
     3a4:	00078e63          	beqz	a5,3c0 <_ZL12handle_inputhR12input_buffer+0x290>
     3a8:	fbf44783          	lbu	a5,-65(s0)
     3ac:	00200593          	li	a1,2
     3b0:	00078513          	mv	a0,a5
     3b4:	00001097          	auipc	ra,0x1
     3b8:	b2c080e7          	jalr	-1236(ra) # ee0 <_ZL9action_gohh>
     3bc:	0fc0006f          	j	4b8 <_ZL12handle_inputhR12input_buffer+0x388>
     3c0:	fc842703          	lw	a4,-56(s0)
     3c4:	000027b7          	lui	a5,0x2
     3c8:	40478593          	add	a1,a5,1028 # 2404 <_ZN12input_buffer17move_cursor_rightEv+0x4a8>
     3cc:	00070513          	mv	a0,a4
     3d0:	00001097          	auipc	ra,0x1
     3d4:	30c080e7          	jalr	780(ra) # 16dc <_ZL13strings_equalPKcS0_>
     3d8:	00050793          	mv	a5,a0
     3dc:	00078e63          	beqz	a5,3f8 <_ZL12handle_inputhR12input_buffer+0x2c8>
     3e0:	fbf44783          	lbu	a5,-65(s0)
     3e4:	00300593          	li	a1,3
     3e8:	00078513          	mv	a0,a5
     3ec:	00001097          	auipc	ra,0x1
     3f0:	af4080e7          	jalr	-1292(ra) # ee0 <_ZL9action_gohh>
     3f4:	0c40006f          	j	4b8 <_ZL12handle_inputhR12input_buffer+0x388>
     3f8:	fc842703          	lw	a4,-56(s0)
     3fc:	000027b7          	lui	a5,0x2
     400:	40878593          	add	a1,a5,1032 # 2408 <_ZN12input_buffer17move_cursor_rightEv+0x4ac>
     404:	00070513          	mv	a0,a4
     408:	00001097          	auipc	ra,0x1
     40c:	2d4080e7          	jalr	724(ra) # 16dc <_ZL13strings_equalPKcS0_>
     410:	00050793          	mv	a5,a0
     414:	06078463          	beqz	a5,47c <_ZL12handle_inputhR12input_buffer+0x34c>
     418:	fe842703          	lw	a4,-24(s0)
     41c:	00100793          	li	a5,1
     420:	00e7ec63          	bltu	a5,a4,438 <_ZL12handle_inputhR12input_buffer+0x308>
     424:	000027b7          	lui	a5,0x2
     428:	40c78513          	add	a0,a5,1036 # 240c <_ZN12input_buffer17move_cursor_rightEv+0x4b0>
     42c:	00001097          	auipc	ra,0x1
     430:	424080e7          	jalr	1060(ra) # 1850 <_ZL13uart_send_strPKc>
     434:	0840006f          	j	4b8 <_ZL12handle_inputhR12input_buffer+0x388>
     438:	fe842703          	lw	a4,-24(s0)
     43c:	00200793          	li	a5,2
     440:	00e7ec63          	bltu	a5,a4,458 <_ZL12handle_inputhR12input_buffer+0x328>
     444:	000027b7          	lui	a5,0x2
     448:	41c78513          	add	a0,a5,1052 # 241c <_ZN12input_buffer17move_cursor_rightEv+0x4c0>
     44c:	00001097          	auipc	ra,0x1
     450:	404080e7          	jalr	1028(ra) # 1850 <_ZL13uart_send_strPKc>
     454:	0640006f          	j	4b8 <_ZL12handle_inputhR12input_buffer+0x388>
     458:	fcc42703          	lw	a4,-52(s0)
     45c:	fd042683          	lw	a3,-48(s0)
     460:	fbf44783          	lbu	a5,-65(s0)
     464:	00068613          	mv	a2,a3
     468:	00070593          	mv	a1,a4
     46c:	00078513          	mv	a0,a5
     470:	00001097          	auipc	ra,0x1
     474:	ba8080e7          	jalr	-1112(ra) # 1018 <_ZL11action_givehPKcS0_>
     478:	0400006f          	j	4b8 <_ZL12handle_inputhR12input_buffer+0x388>
     47c:	fc842703          	lw	a4,-56(s0)
     480:	000027b7          	lui	a5,0x2
     484:	43078593          	add	a1,a5,1072 # 2430 <_ZN12input_buffer17move_cursor_rightEv+0x4d4>
     488:	00070513          	mv	a0,a4
     48c:	00001097          	auipc	ra,0x1
     490:	250080e7          	jalr	592(ra) # 16dc <_ZL13strings_equalPKcS0_>
     494:	00050793          	mv	a5,a0
     498:	00078863          	beqz	a5,4a8 <_ZL12handle_inputhR12input_buffer+0x378>
     49c:	00001097          	auipc	ra,0x1
     4a0:	4a8080e7          	jalr	1192(ra) # 1944 <_ZL15action_mem_testv>
     4a4:	0140006f          	j	4b8 <_ZL12handle_inputhR12input_buffer+0x388>
     4a8:	000027b7          	lui	a5,0x2
     4ac:	43478513          	add	a0,a5,1076 # 2434 <_ZN12input_buffer17move_cursor_rightEv+0x4d8>
     4b0:	00001097          	auipc	ra,0x1
     4b4:	3a0080e7          	jalr	928(ra) # 1850 <_ZL13uart_send_strPKc>
     4b8:	04c12083          	lw	ra,76(sp)
     4bc:	04812403          	lw	s0,72(sp)
     4c0:	05010113          	add	sp,sp,80
     4c4:	00008067          	ret

000004c8 <_ZL14print_locationhh>:
     4c8:	fb010113          	add	sp,sp,-80
     4cc:	04112623          	sw	ra,76(sp)
     4d0:	04812423          	sw	s0,72(sp)
     4d4:	05010413          	add	s0,sp,80
     4d8:	00050793          	mv	a5,a0
     4dc:	00058713          	mv	a4,a1
     4e0:	faf40fa3          	sb	a5,-65(s0)
     4e4:	00070793          	mv	a5,a4
     4e8:	faf40f23          	sb	a5,-66(s0)
     4ec:	fbf44703          	lbu	a4,-65(s0)
     4f0:	00070793          	mv	a5,a4
     4f4:	00379793          	sll	a5,a5,0x3
     4f8:	00e787b3          	add	a5,a5,a4
     4fc:	00279793          	sll	a5,a5,0x2
     500:	00e787b3          	add	a5,a5,a4
     504:	00279793          	sll	a5,a5,0x2
     508:	00004737          	lui	a4,0x4
     50c:	c8070713          	add	a4,a4,-896 # 3c80 <_ZL9locations>
     510:	00e787b3          	add	a5,a5,a4
     514:	fcf42e23          	sw	a5,-36(s0)
     518:	000027b7          	lui	a5,0x2
     51c:	44878513          	add	a0,a5,1096 # 2448 <_ZN12input_buffer17move_cursor_rightEv+0x4ec>
     520:	00001097          	auipc	ra,0x1
     524:	330080e7          	jalr	816(ra) # 1850 <_ZL13uart_send_strPKc>
     528:	fdc42783          	lw	a5,-36(s0)
     52c:	0007a783          	lw	a5,0(a5)
     530:	00078513          	mv	a0,a5
     534:	00001097          	auipc	ra,0x1
     538:	31c080e7          	jalr	796(ra) # 1850 <_ZL13uart_send_strPKc>
     53c:	000027b7          	lui	a5,0x2
     540:	45078513          	add	a0,a5,1104 # 2450 <_ZN12input_buffer17move_cursor_rightEv+0x4f4>
     544:	00001097          	auipc	ra,0x1
     548:	30c080e7          	jalr	780(ra) # 1850 <_ZL13uart_send_strPKc>
     54c:	fe0407a3          	sb	zero,-17(s0)
     550:	fdc42783          	lw	a5,-36(s0)
     554:	00478793          	add	a5,a5,4
     558:	fcf42c23          	sw	a5,-40(s0)
     55c:	fe042423          	sw	zero,-24(s0)
     560:	0740006f          	j	5d4 <_ZL14print_locationhh+0x10c>
     564:	fd842703          	lw	a4,-40(s0)
     568:	fe842783          	lw	a5,-24(s0)
     56c:	00f707b3          	add	a5,a4,a5
     570:	0007c783          	lbu	a5,0(a5)
     574:	fcf40ba3          	sb	a5,-41(s0)
     578:	fd744783          	lbu	a5,-41(s0)
     57c:	06078463          	beqz	a5,5e4 <_ZL14print_locationhh+0x11c>
     580:	fef44783          	lbu	a5,-17(s0)
     584:	00078c63          	beqz	a5,59c <_ZL14print_locationhh+0xd4>
     588:	000027b7          	lui	a5,0x2
     58c:	45878513          	add	a0,a5,1112 # 2458 <_ZN12input_buffer17move_cursor_rightEv+0x4fc>
     590:	00001097          	auipc	ra,0x1
     594:	2c0080e7          	jalr	704(ra) # 1850 <_ZL13uart_send_strPKc>
     598:	00c0006f          	j	5a4 <_ZL14print_locationhh+0xdc>
     59c:	00100793          	li	a5,1
     5a0:	fef407a3          	sb	a5,-17(s0)
     5a4:	fd744783          	lbu	a5,-41(s0)
     5a8:	00004737          	lui	a4,0x4
     5ac:	bf870713          	add	a4,a4,-1032 # 3bf8 <_ZL7objects>
     5b0:	00279793          	sll	a5,a5,0x2
     5b4:	00f707b3          	add	a5,a4,a5
     5b8:	0007a783          	lw	a5,0(a5)
     5bc:	00078513          	mv	a0,a5
     5c0:	00001097          	auipc	ra,0x1
     5c4:	290080e7          	jalr	656(ra) # 1850 <_ZL13uart_send_strPKc>
     5c8:	fe842783          	lw	a5,-24(s0)
     5cc:	00178793          	add	a5,a5,1
     5d0:	fef42423          	sw	a5,-24(s0)
     5d4:	fe842703          	lw	a4,-24(s0)
     5d8:	07f00793          	li	a5,127
     5dc:	f8e7f4e3          	bgeu	a5,a4,564 <_ZL14print_locationhh+0x9c>
     5e0:	0080006f          	j	5e8 <_ZL14print_locationhh+0x120>
     5e4:	00000013          	nop
     5e8:	fef44783          	lbu	a5,-17(s0)
     5ec:	0017c793          	xor	a5,a5,1
     5f0:	0ff7f793          	zext.b	a5,a5
     5f4:	00078a63          	beqz	a5,608 <_ZL14print_locationhh+0x140>
     5f8:	000027b7          	lui	a5,0x2
     5fc:	45c78513          	add	a0,a5,1116 # 245c <_ZN12input_buffer17move_cursor_rightEv+0x500>
     600:	00001097          	auipc	ra,0x1
     604:	250080e7          	jalr	592(ra) # 1850 <_ZL13uart_send_strPKc>
     608:	000027b7          	lui	a5,0x2
     60c:	39c78513          	add	a0,a5,924 # 239c <_ZN12input_buffer17move_cursor_rightEv+0x440>
     610:	00001097          	auipc	ra,0x1
     614:	240080e7          	jalr	576(ra) # 1850 <_ZL13uart_send_strPKc>
     618:	fe0407a3          	sb	zero,-17(s0)
     61c:	fdc42783          	lw	a5,-36(s0)
     620:	08478793          	add	a5,a5,132
     624:	fcf42823          	sw	a5,-48(s0)
     628:	fe042223          	sw	zero,-28(s0)
     62c:	0940006f          	j	6c0 <_ZL14print_locationhh+0x1f8>
     630:	fd042703          	lw	a4,-48(s0)
     634:	fe442783          	lw	a5,-28(s0)
     638:	00f707b3          	add	a5,a4,a5
     63c:	0007c783          	lbu	a5,0(a5)
     640:	fcf407a3          	sb	a5,-49(s0)
     644:	fcf44783          	lbu	a5,-49(s0)
     648:	08078463          	beqz	a5,6d0 <_ZL14print_locationhh+0x208>
     64c:	fcf44703          	lbu	a4,-49(s0)
     650:	fbe44783          	lbu	a5,-66(s0)
     654:	04f70e63          	beq	a4,a5,6b0 <_ZL14print_locationhh+0x1e8>
     658:	fef44783          	lbu	a5,-17(s0)
     65c:	00078c63          	beqz	a5,674 <_ZL14print_locationhh+0x1ac>
     660:	000027b7          	lui	a5,0x2
     664:	45878513          	add	a0,a5,1112 # 2458 <_ZN12input_buffer17move_cursor_rightEv+0x4fc>
     668:	00001097          	auipc	ra,0x1
     66c:	1e8080e7          	jalr	488(ra) # 1850 <_ZL13uart_send_strPKc>
     670:	00c0006f          	j	67c <_ZL14print_locationhh+0x1b4>
     674:	00100793          	li	a5,1
     678:	fef407a3          	sb	a5,-17(s0)
     67c:	fcf44703          	lbu	a4,-49(s0)
     680:	000047b7          	lui	a5,0x4
     684:	c0878693          	add	a3,a5,-1016 # 3c08 <_ZL8entities>
     688:	00070793          	mv	a5,a4
     68c:	00279793          	sll	a5,a5,0x2
     690:	00e787b3          	add	a5,a5,a4
     694:	00379793          	sll	a5,a5,0x3
     698:	00f687b3          	add	a5,a3,a5
     69c:	0007a783          	lw	a5,0(a5)
     6a0:	00078513          	mv	a0,a5
     6a4:	00001097          	auipc	ra,0x1
     6a8:	1ac080e7          	jalr	428(ra) # 1850 <_ZL13uart_send_strPKc>
     6ac:	0080006f          	j	6b4 <_ZL14print_locationhh+0x1ec>
     6b0:	00000013          	nop
     6b4:	fe442783          	lw	a5,-28(s0)
     6b8:	00178793          	add	a5,a5,1
     6bc:	fef42223          	sw	a5,-28(s0)
     6c0:	fe442703          	lw	a4,-28(s0)
     6c4:	00700793          	li	a5,7
     6c8:	f6e7f4e3          	bgeu	a5,a4,630 <_ZL14print_locationhh+0x168>
     6cc:	0080006f          	j	6d4 <_ZL14print_locationhh+0x20c>
     6d0:	00000013          	nop
     6d4:	fef44783          	lbu	a5,-17(s0)
     6d8:	00078a63          	beqz	a5,6ec <_ZL14print_locationhh+0x224>
     6dc:	000027b7          	lui	a5,0x2
     6e0:	46478513          	add	a0,a5,1124 # 2464 <_ZN12input_buffer17move_cursor_rightEv+0x508>
     6e4:	00001097          	auipc	ra,0x1
     6e8:	16c080e7          	jalr	364(ra) # 1850 <_ZL13uart_send_strPKc>
     6ec:	fe0407a3          	sb	zero,-17(s0)
     6f0:	000027b7          	lui	a5,0x2
     6f4:	47078513          	add	a0,a5,1136 # 2470 <_ZN12input_buffer17move_cursor_rightEv+0x514>
     6f8:	00001097          	auipc	ra,0x1
     6fc:	158080e7          	jalr	344(ra) # 1850 <_ZL13uart_send_strPKc>
     700:	fe042023          	sw	zero,-32(s0)
     704:	0740006f          	j	778 <_ZL14print_locationhh+0x2b0>
     708:	fdc42703          	lw	a4,-36(s0)
     70c:	fe042783          	lw	a5,-32(s0)
     710:	00f707b3          	add	a5,a4,a5
     714:	08c7c783          	lbu	a5,140(a5)
     718:	04078863          	beqz	a5,768 <_ZL14print_locationhh+0x2a0>
     71c:	fef44783          	lbu	a5,-17(s0)
     720:	00078c63          	beqz	a5,738 <_ZL14print_locationhh+0x270>
     724:	000027b7          	lui	a5,0x2
     728:	45878513          	add	a0,a5,1112 # 2458 <_ZN12input_buffer17move_cursor_rightEv+0x4fc>
     72c:	00001097          	auipc	ra,0x1
     730:	124080e7          	jalr	292(ra) # 1850 <_ZL13uart_send_strPKc>
     734:	00c0006f          	j	740 <_ZL14print_locationhh+0x278>
     738:	00100793          	li	a5,1
     73c:	fef407a3          	sb	a5,-17(s0)
     740:	000047b7          	lui	a5,0x4
     744:	f6478713          	add	a4,a5,-156 # 3f64 <_ZL10exit_names>
     748:	fe042783          	lw	a5,-32(s0)
     74c:	00279793          	sll	a5,a5,0x2
     750:	00f707b3          	add	a5,a4,a5
     754:	0007a783          	lw	a5,0(a5)
     758:	00078513          	mv	a0,a5
     75c:	00001097          	auipc	ra,0x1
     760:	0f4080e7          	jalr	244(ra) # 1850 <_ZL13uart_send_strPKc>
     764:	0080006f          	j	76c <_ZL14print_locationhh+0x2a4>
     768:	00000013          	nop
     76c:	fe042783          	lw	a5,-32(s0)
     770:	00178793          	add	a5,a5,1
     774:	fef42023          	sw	a5,-32(s0)
     778:	fe042703          	lw	a4,-32(s0)
     77c:	00500793          	li	a5,5
     780:	f8e7f4e3          	bgeu	a5,a4,708 <_ZL14print_locationhh+0x240>
     784:	fef44783          	lbu	a5,-17(s0)
     788:	0017c793          	xor	a5,a5,1
     78c:	0ff7f793          	zext.b	a5,a5
     790:	00078a63          	beqz	a5,7a4 <_ZL14print_locationhh+0x2dc>
     794:	000027b7          	lui	a5,0x2
     798:	47878513          	add	a0,a5,1144 # 2478 <_ZN12input_buffer17move_cursor_rightEv+0x51c>
     79c:	00001097          	auipc	ra,0x1
     7a0:	0b4080e7          	jalr	180(ra) # 1850 <_ZL13uart_send_strPKc>
     7a4:	000027b7          	lui	a5,0x2
     7a8:	39c78513          	add	a0,a5,924 # 239c <_ZN12input_buffer17move_cursor_rightEv+0x440>
     7ac:	00001097          	auipc	ra,0x1
     7b0:	0a4080e7          	jalr	164(ra) # 1850 <_ZL13uart_send_strPKc>
     7b4:	00000013          	nop
     7b8:	04c12083          	lw	ra,76(sp)
     7bc:	04812403          	lw	s0,72(sp)
     7c0:	05010113          	add	sp,sp,80
     7c4:	00008067          	ret

000007c8 <_ZL16action_inventoryh>:
     7c8:	fd010113          	add	sp,sp,-48
     7cc:	02112623          	sw	ra,44(sp)
     7d0:	02812423          	sw	s0,40(sp)
     7d4:	03010413          	add	s0,sp,48
     7d8:	00050793          	mv	a5,a0
     7dc:	fcf40fa3          	sb	a5,-33(s0)
     7e0:	000027b7          	lui	a5,0x2
     7e4:	48078513          	add	a0,a5,1152 # 2480 <_ZN12input_buffer17move_cursor_rightEv+0x524>
     7e8:	00001097          	auipc	ra,0x1
     7ec:	068080e7          	jalr	104(ra) # 1850 <_ZL13uart_send_strPKc>
     7f0:	fe0407a3          	sb	zero,-17(s0)
     7f4:	fdf44703          	lbu	a4,-33(s0)
     7f8:	00070793          	mv	a5,a4
     7fc:	00279793          	sll	a5,a5,0x2
     800:	00e787b3          	add	a5,a5,a4
     804:	00379793          	sll	a5,a5,0x3
     808:	00004737          	lui	a4,0x4
     80c:	c0870713          	add	a4,a4,-1016 # 3c08 <_ZL8entities>
     810:	00e787b3          	add	a5,a5,a4
     814:	00578793          	add	a5,a5,5
     818:	fef42223          	sw	a5,-28(s0)
     81c:	fe042423          	sw	zero,-24(s0)
     820:	0740006f          	j	894 <_ZL16action_inventoryh+0xcc>
     824:	fe442703          	lw	a4,-28(s0)
     828:	fe842783          	lw	a5,-24(s0)
     82c:	00f707b3          	add	a5,a4,a5
     830:	0007c783          	lbu	a5,0(a5)
     834:	fef401a3          	sb	a5,-29(s0)
     838:	fe344783          	lbu	a5,-29(s0)
     83c:	06078463          	beqz	a5,8a4 <_ZL16action_inventoryh+0xdc>
     840:	fef44783          	lbu	a5,-17(s0)
     844:	00078c63          	beqz	a5,85c <_ZL16action_inventoryh+0x94>
     848:	000027b7          	lui	a5,0x2
     84c:	45878513          	add	a0,a5,1112 # 2458 <_ZN12input_buffer17move_cursor_rightEv+0x4fc>
     850:	00001097          	auipc	ra,0x1
     854:	000080e7          	jalr	ra # 1850 <_ZL13uart_send_strPKc>
     858:	00c0006f          	j	864 <_ZL16action_inventoryh+0x9c>
     85c:	00100793          	li	a5,1
     860:	fef407a3          	sb	a5,-17(s0)
     864:	fe344783          	lbu	a5,-29(s0)
     868:	00004737          	lui	a4,0x4
     86c:	bf870713          	add	a4,a4,-1032 # 3bf8 <_ZL7objects>
     870:	00279793          	sll	a5,a5,0x2
     874:	00f707b3          	add	a5,a4,a5
     878:	0007a783          	lw	a5,0(a5)
     87c:	00078513          	mv	a0,a5
     880:	00001097          	auipc	ra,0x1
     884:	fd0080e7          	jalr	-48(ra) # 1850 <_ZL13uart_send_strPKc>
     888:	fe842783          	lw	a5,-24(s0)
     88c:	00178793          	add	a5,a5,1
     890:	fef42423          	sw	a5,-24(s0)
     894:	fe842703          	lw	a4,-24(s0)
     898:	01f00793          	li	a5,31
     89c:	f8e7f4e3          	bgeu	a5,a4,824 <_ZL16action_inventoryh+0x5c>
     8a0:	0080006f          	j	8a8 <_ZL16action_inventoryh+0xe0>
     8a4:	00000013          	nop
     8a8:	fef44783          	lbu	a5,-17(s0)
     8ac:	0017c793          	xor	a5,a5,1
     8b0:	0ff7f793          	zext.b	a5,a5
     8b4:	00078a63          	beqz	a5,8c8 <_ZL16action_inventoryh+0x100>
     8b8:	000027b7          	lui	a5,0x2
     8bc:	45c78513          	add	a0,a5,1116 # 245c <_ZN12input_buffer17move_cursor_rightEv+0x500>
     8c0:	00001097          	auipc	ra,0x1
     8c4:	f90080e7          	jalr	-112(ra) # 1850 <_ZL13uart_send_strPKc>
     8c8:	000027b7          	lui	a5,0x2
     8cc:	39c78513          	add	a0,a5,924 # 239c <_ZN12input_buffer17move_cursor_rightEv+0x440>
     8d0:	00001097          	auipc	ra,0x1
     8d4:	f80080e7          	jalr	-128(ra) # 1850 <_ZL13uart_send_strPKc>
     8d8:	00000013          	nop
     8dc:	02c12083          	lw	ra,44(sp)
     8e0:	02812403          	lw	s0,40(sp)
     8e4:	03010113          	add	sp,sp,48
     8e8:	00008067          	ret

000008ec <_ZL32remove_object_from_list_by_indexPhj>:
     8ec:	fd010113          	add	sp,sp,-48
     8f0:	02812623          	sw	s0,44(sp)
     8f4:	03010413          	add	s0,sp,48
     8f8:	fca42e23          	sw	a0,-36(s0)
     8fc:	fcb42c23          	sw	a1,-40(s0)
     900:	fdc42703          	lw	a4,-36(s0)
     904:	fd842783          	lw	a5,-40(s0)
     908:	00f707b3          	add	a5,a4,a5
     90c:	fef42623          	sw	a5,-20(s0)
     910:	fec42783          	lw	a5,-20(s0)
     914:	0017c703          	lbu	a4,1(a5)
     918:	fec42783          	lw	a5,-20(s0)
     91c:	00e78023          	sb	a4,0(a5)
     920:	fec42783          	lw	a5,-20(s0)
     924:	0007c783          	lbu	a5,0(a5)
     928:	00078a63          	beqz	a5,93c <_ZL32remove_object_from_list_by_indexPhj+0x50>
     92c:	fec42783          	lw	a5,-20(s0)
     930:	00178793          	add	a5,a5,1
     934:	fef42623          	sw	a5,-20(s0)
     938:	fd9ff06f          	j	910 <_ZL32remove_object_from_list_by_indexPhj+0x24>
     93c:	00000013          	nop
     940:	02c12403          	lw	s0,44(sp)
     944:	03010113          	add	sp,sp,48
     948:	00008067          	ret

0000094c <_ZL18add_object_to_listPhjh>:
     94c:	fd010113          	add	sp,sp,-48
     950:	02112623          	sw	ra,44(sp)
     954:	02812423          	sw	s0,40(sp)
     958:	03010413          	add	s0,sp,48
     95c:	fca42e23          	sw	a0,-36(s0)
     960:	fcb42c23          	sw	a1,-40(s0)
     964:	00060793          	mv	a5,a2
     968:	fcf40ba3          	sb	a5,-41(s0)
     96c:	fe042623          	sw	zero,-20(s0)
     970:	0580006f          	j	9c8 <_ZL18add_object_to_listPhjh+0x7c>
     974:	fdc42703          	lw	a4,-36(s0)
     978:	fec42783          	lw	a5,-20(s0)
     97c:	00f707b3          	add	a5,a4,a5
     980:	0007c783          	lbu	a5,0(a5)
     984:	02079a63          	bnez	a5,9b8 <_ZL18add_object_to_listPhjh+0x6c>
     988:	fdc42703          	lw	a4,-36(s0)
     98c:	fec42783          	lw	a5,-20(s0)
     990:	00f707b3          	add	a5,a4,a5
     994:	fd744703          	lbu	a4,-41(s0)
     998:	00e78023          	sb	a4,0(a5)
     99c:	fec42783          	lw	a5,-20(s0)
     9a0:	00178793          	add	a5,a5,1
     9a4:	fdc42703          	lw	a4,-36(s0)
     9a8:	00f707b3          	add	a5,a4,a5
     9ac:	00078023          	sb	zero,0(a5)
     9b0:	00100793          	li	a5,1
     9b4:	0380006f          	j	9ec <_ZL18add_object_to_listPhjh+0xa0>
     9b8:	00000013          	nop
     9bc:	fec42783          	lw	a5,-20(s0)
     9c0:	00178793          	add	a5,a5,1
     9c4:	fef42623          	sw	a5,-20(s0)
     9c8:	fd842783          	lw	a5,-40(s0)
     9cc:	fff78793          	add	a5,a5,-1
     9d0:	fec42703          	lw	a4,-20(s0)
     9d4:	faf760e3          	bltu	a4,a5,974 <_ZL18add_object_to_listPhjh+0x28>
     9d8:	000027b7          	lui	a5,0x2
     9dc:	48c78513          	add	a0,a5,1164 # 248c <_ZN12input_buffer17move_cursor_rightEv+0x530>
     9e0:	00001097          	auipc	ra,0x1
     9e4:	e70080e7          	jalr	-400(ra) # 1850 <_ZL13uart_send_strPKc>
     9e8:	00000793          	li	a5,0
     9ec:	00078513          	mv	a0,a5
     9f0:	02c12083          	lw	ra,44(sp)
     9f4:	02812403          	lw	s0,40(sp)
     9f8:	03010113          	add	sp,sp,48
     9fc:	00008067          	ret

00000a00 <_ZL18add_entity_to_listPhjh>:
     a00:	fd010113          	add	sp,sp,-48
     a04:	02112623          	sw	ra,44(sp)
     a08:	02812423          	sw	s0,40(sp)
     a0c:	03010413          	add	s0,sp,48
     a10:	fca42e23          	sw	a0,-36(s0)
     a14:	fcb42c23          	sw	a1,-40(s0)
     a18:	00060793          	mv	a5,a2
     a1c:	fcf40ba3          	sb	a5,-41(s0)
     a20:	fe042623          	sw	zero,-20(s0)
     a24:	0580006f          	j	a7c <_ZL18add_entity_to_listPhjh+0x7c>
     a28:	fdc42703          	lw	a4,-36(s0)
     a2c:	fec42783          	lw	a5,-20(s0)
     a30:	00f707b3          	add	a5,a4,a5
     a34:	0007c783          	lbu	a5,0(a5)
     a38:	02079a63          	bnez	a5,a6c <_ZL18add_entity_to_listPhjh+0x6c>
     a3c:	fdc42703          	lw	a4,-36(s0)
     a40:	fec42783          	lw	a5,-20(s0)
     a44:	00f707b3          	add	a5,a4,a5
     a48:	fd744703          	lbu	a4,-41(s0)
     a4c:	00e78023          	sb	a4,0(a5)
     a50:	fec42783          	lw	a5,-20(s0)
     a54:	00178793          	add	a5,a5,1
     a58:	fdc42703          	lw	a4,-36(s0)
     a5c:	00f707b3          	add	a5,a4,a5
     a60:	00078023          	sb	zero,0(a5)
     a64:	00100793          	li	a5,1
     a68:	0380006f          	j	aa0 <_ZL18add_entity_to_listPhjh+0xa0>
     a6c:	00000013          	nop
     a70:	fec42783          	lw	a5,-20(s0)
     a74:	00178793          	add	a5,a5,1
     a78:	fef42623          	sw	a5,-20(s0)
     a7c:	fd842783          	lw	a5,-40(s0)
     a80:	fff78793          	add	a5,a5,-1
     a84:	fec42703          	lw	a4,-20(s0)
     a88:	faf760e3          	bltu	a4,a5,a28 <_ZL18add_entity_to_listPhjh+0x28>
     a8c:	000027b7          	lui	a5,0x2
     a90:	49c78513          	add	a0,a5,1180 # 249c <_ZN12input_buffer17move_cursor_rightEv+0x540>
     a94:	00001097          	auipc	ra,0x1
     a98:	dbc080e7          	jalr	-580(ra) # 1850 <_ZL13uart_send_strPKc>
     a9c:	00000793          	li	a5,0
     aa0:	00078513          	mv	a0,a5
     aa4:	02c12083          	lw	ra,44(sp)
     aa8:	02812403          	lw	s0,40(sp)
     aac:	03010113          	add	sp,sp,48
     ab0:	00008067          	ret

00000ab4 <_ZL23remove_entity_from_listPhjh>:
     ab4:	fd010113          	add	sp,sp,-48
     ab8:	02112623          	sw	ra,44(sp)
     abc:	02812423          	sw	s0,40(sp)
     ac0:	03010413          	add	s0,sp,48
     ac4:	fca42e23          	sw	a0,-36(s0)
     ac8:	fcb42c23          	sw	a1,-40(s0)
     acc:	00060793          	mv	a5,a2
     ad0:	fcf40ba3          	sb	a5,-41(s0)
     ad4:	fe042623          	sw	zero,-20(s0)
     ad8:	0900006f          	j	b68 <_ZL23remove_entity_from_listPhjh+0xb4>
     adc:	fdc42703          	lw	a4,-36(s0)
     ae0:	fec42783          	lw	a5,-20(s0)
     ae4:	00f707b3          	add	a5,a4,a5
     ae8:	0007c783          	lbu	a5,0(a5)
     aec:	fd744703          	lbu	a4,-41(s0)
     af0:	06f71463          	bne	a4,a5,b58 <_ZL23remove_entity_from_listPhjh+0xa4>
     af4:	fec42783          	lw	a5,-20(s0)
     af8:	fef42423          	sw	a5,-24(s0)
     afc:	0480006f          	j	b44 <_ZL23remove_entity_from_listPhjh+0x90>
     b00:	fe842783          	lw	a5,-24(s0)
     b04:	00178793          	add	a5,a5,1
     b08:	fdc42703          	lw	a4,-36(s0)
     b0c:	00f70733          	add	a4,a4,a5
     b10:	fdc42683          	lw	a3,-36(s0)
     b14:	fe842783          	lw	a5,-24(s0)
     b18:	00f687b3          	add	a5,a3,a5
     b1c:	00074703          	lbu	a4,0(a4)
     b20:	00e78023          	sb	a4,0(a5)
     b24:	fdc42703          	lw	a4,-36(s0)
     b28:	fe842783          	lw	a5,-24(s0)
     b2c:	00f707b3          	add	a5,a4,a5
     b30:	0007c783          	lbu	a5,0(a5)
     b34:	04078c63          	beqz	a5,b8c <_ZL23remove_entity_from_listPhjh+0xd8>
     b38:	fe842783          	lw	a5,-24(s0)
     b3c:	00178793          	add	a5,a5,1
     b40:	fef42423          	sw	a5,-24(s0)
     b44:	fd842783          	lw	a5,-40(s0)
     b48:	fff78793          	add	a5,a5,-1
     b4c:	fe842703          	lw	a4,-24(s0)
     b50:	faf768e3          	bltu	a4,a5,b00 <_ZL23remove_entity_from_listPhjh+0x4c>
     b54:	0080006f          	j	b5c <_ZL23remove_entity_from_listPhjh+0xa8>
     b58:	00000013          	nop
     b5c:	fec42783          	lw	a5,-20(s0)
     b60:	00178793          	add	a5,a5,1
     b64:	fef42623          	sw	a5,-20(s0)
     b68:	fd842783          	lw	a5,-40(s0)
     b6c:	fff78793          	add	a5,a5,-1
     b70:	fec42703          	lw	a4,-20(s0)
     b74:	f6f764e3          	bltu	a4,a5,adc <_ZL23remove_entity_from_listPhjh+0x28>
     b78:	000027b7          	lui	a5,0x2
     b7c:	4ac78513          	add	a0,a5,1196 # 24ac <_ZN12input_buffer17move_cursor_rightEv+0x550>
     b80:	00001097          	auipc	ra,0x1
     b84:	cd0080e7          	jalr	-816(ra) # 1850 <_ZL13uart_send_strPKc>
     b88:	0080006f          	j	b90 <_ZL23remove_entity_from_listPhjh+0xdc>
     b8c:	00000013          	nop
     b90:	02c12083          	lw	ra,44(sp)
     b94:	02812403          	lw	s0,40(sp)
     b98:	03010113          	add	sp,sp,48
     b9c:	00008067          	ret

00000ba0 <_ZL32remove_entity_from_list_by_indexPhj>:
     ba0:	fd010113          	add	sp,sp,-48
     ba4:	02812623          	sw	s0,44(sp)
     ba8:	03010413          	add	s0,sp,48
     bac:	fca42e23          	sw	a0,-36(s0)
     bb0:	fcb42c23          	sw	a1,-40(s0)
     bb4:	fdc42703          	lw	a4,-36(s0)
     bb8:	fd842783          	lw	a5,-40(s0)
     bbc:	00f707b3          	add	a5,a4,a5
     bc0:	fef42623          	sw	a5,-20(s0)
     bc4:	fec42783          	lw	a5,-20(s0)
     bc8:	0017c703          	lbu	a4,1(a5)
     bcc:	fec42783          	lw	a5,-20(s0)
     bd0:	00e78023          	sb	a4,0(a5)
     bd4:	fec42783          	lw	a5,-20(s0)
     bd8:	0007c783          	lbu	a5,0(a5)
     bdc:	00078a63          	beqz	a5,bf0 <_ZL32remove_entity_from_list_by_indexPhj+0x50>
     be0:	fec42783          	lw	a5,-20(s0)
     be4:	00178793          	add	a5,a5,1
     be8:	fef42623          	sw	a5,-20(s0)
     bec:	fd9ff06f          	j	bc4 <_ZL32remove_entity_from_list_by_indexPhj+0x24>
     bf0:	00000013          	nop
     bf4:	02c12403          	lw	s0,44(sp)
     bf8:	03010113          	add	sp,sp,48
     bfc:	00008067          	ret

00000c00 <_ZL11action_takehPKc>:
     c00:	fd010113          	add	sp,sp,-48
     c04:	02112623          	sw	ra,44(sp)
     c08:	02812423          	sw	s0,40(sp)
     c0c:	03010413          	add	s0,sp,48
     c10:	00050793          	mv	a5,a0
     c14:	fcb42c23          	sw	a1,-40(s0)
     c18:	fcf40fa3          	sb	a5,-33(s0)
     c1c:	fdf44703          	lbu	a4,-33(s0)
     c20:	00070793          	mv	a5,a4
     c24:	00279793          	sll	a5,a5,0x2
     c28:	00e787b3          	add	a5,a5,a4
     c2c:	00379793          	sll	a5,a5,0x3
     c30:	00004737          	lui	a4,0x4
     c34:	c0870713          	add	a4,a4,-1016 # 3c08 <_ZL8entities>
     c38:	00e787b3          	add	a5,a5,a4
     c3c:	fef42423          	sw	a5,-24(s0)
     c40:	fe842783          	lw	a5,-24(s0)
     c44:	0047c783          	lbu	a5,4(a5)
     c48:	00078713          	mv	a4,a5
     c4c:	00070793          	mv	a5,a4
     c50:	00379793          	sll	a5,a5,0x3
     c54:	00e787b3          	add	a5,a5,a4
     c58:	00279793          	sll	a5,a5,0x2
     c5c:	00e787b3          	add	a5,a5,a4
     c60:	00279793          	sll	a5,a5,0x2
     c64:	00004737          	lui	a4,0x4
     c68:	c8070713          	add	a4,a4,-896 # 3c80 <_ZL9locations>
     c6c:	00e787b3          	add	a5,a5,a4
     c70:	00478793          	add	a5,a5,4
     c74:	fef42223          	sw	a5,-28(s0)
     c78:	fe042623          	sw	zero,-20(s0)
     c7c:	0a40006f          	j	d20 <_ZL11action_takehPKc+0x120>
     c80:	fe442703          	lw	a4,-28(s0)
     c84:	fec42783          	lw	a5,-20(s0)
     c88:	00f707b3          	add	a5,a4,a5
     c8c:	0007c783          	lbu	a5,0(a5)
     c90:	fef401a3          	sb	a5,-29(s0)
     c94:	fe344783          	lbu	a5,-29(s0)
     c98:	08078c63          	beqz	a5,d30 <_ZL11action_takehPKc+0x130>
     c9c:	fe344783          	lbu	a5,-29(s0)
     ca0:	00004737          	lui	a4,0x4
     ca4:	bf870713          	add	a4,a4,-1032 # 3bf8 <_ZL7objects>
     ca8:	00279793          	sll	a5,a5,0x2
     cac:	00f707b3          	add	a5,a4,a5
     cb0:	0007a783          	lw	a5,0(a5)
     cb4:	fd842583          	lw	a1,-40(s0)
     cb8:	00078513          	mv	a0,a5
     cbc:	00001097          	auipc	ra,0x1
     cc0:	a20080e7          	jalr	-1504(ra) # 16dc <_ZL13strings_equalPKcS0_>
     cc4:	00050793          	mv	a5,a0
     cc8:	0017c793          	xor	a5,a5,1
     ccc:	0ff7f793          	zext.b	a5,a5
     cd0:	04079063          	bnez	a5,d10 <_ZL11action_takehPKc+0x110>
     cd4:	fe842783          	lw	a5,-24(s0)
     cd8:	00578793          	add	a5,a5,5
     cdc:	fe344703          	lbu	a4,-29(s0)
     ce0:	00070613          	mv	a2,a4
     ce4:	02000593          	li	a1,32
     ce8:	00078513          	mv	a0,a5
     cec:	00000097          	auipc	ra,0x0
     cf0:	c60080e7          	jalr	-928(ra) # 94c <_ZL18add_object_to_listPhjh>
     cf4:	00050793          	mv	a5,a0
     cf8:	04078e63          	beqz	a5,d54 <_ZL11action_takehPKc+0x154>
     cfc:	fec42583          	lw	a1,-20(s0)
     d00:	fe442503          	lw	a0,-28(s0)
     d04:	00000097          	auipc	ra,0x0
     d08:	be8080e7          	jalr	-1048(ra) # 8ec <_ZL32remove_object_from_list_by_indexPhj>
     d0c:	0480006f          	j	d54 <_ZL11action_takehPKc+0x154>
     d10:	00000013          	nop
     d14:	fec42783          	lw	a5,-20(s0)
     d18:	00178793          	add	a5,a5,1
     d1c:	fef42623          	sw	a5,-20(s0)
     d20:	fec42703          	lw	a4,-20(s0)
     d24:	07f00793          	li	a5,127
     d28:	f4e7fce3          	bgeu	a5,a4,c80 <_ZL11action_takehPKc+0x80>
     d2c:	0080006f          	j	d34 <_ZL11action_takehPKc+0x134>
     d30:	00000013          	nop
     d34:	fd842503          	lw	a0,-40(s0)
     d38:	00001097          	auipc	ra,0x1
     d3c:	b18080e7          	jalr	-1256(ra) # 1850 <_ZL13uart_send_strPKc>
     d40:	000027b7          	lui	a5,0x2
     d44:	4c078513          	add	a0,a5,1216 # 24c0 <_ZN12input_buffer17move_cursor_rightEv+0x564>
     d48:	00001097          	auipc	ra,0x1
     d4c:	b08080e7          	jalr	-1272(ra) # 1850 <_ZL13uart_send_strPKc>
     d50:	0080006f          	j	d58 <_ZL11action_takehPKc+0x158>
     d54:	00000013          	nop
     d58:	02c12083          	lw	ra,44(sp)
     d5c:	02812403          	lw	s0,40(sp)
     d60:	03010113          	add	sp,sp,48
     d64:	00008067          	ret

00000d68 <_ZL11action_drophPKc>:
     d68:	fd010113          	add	sp,sp,-48
     d6c:	02112623          	sw	ra,44(sp)
     d70:	02812423          	sw	s0,40(sp)
     d74:	03010413          	add	s0,sp,48
     d78:	00050793          	mv	a5,a0
     d7c:	fcb42c23          	sw	a1,-40(s0)
     d80:	fcf40fa3          	sb	a5,-33(s0)
     d84:	fdf44703          	lbu	a4,-33(s0)
     d88:	00070793          	mv	a5,a4
     d8c:	00279793          	sll	a5,a5,0x2
     d90:	00e787b3          	add	a5,a5,a4
     d94:	00379793          	sll	a5,a5,0x3
     d98:	00004737          	lui	a4,0x4
     d9c:	c0870713          	add	a4,a4,-1016 # 3c08 <_ZL8entities>
     da0:	00e787b3          	add	a5,a5,a4
     da4:	fef42423          	sw	a5,-24(s0)
     da8:	fe842783          	lw	a5,-24(s0)
     dac:	00578793          	add	a5,a5,5
     db0:	fef42223          	sw	a5,-28(s0)
     db4:	fe042623          	sw	zero,-20(s0)
     db8:	0d00006f          	j	e88 <_ZL11action_drophPKc+0x120>
     dbc:	fe442703          	lw	a4,-28(s0)
     dc0:	fec42783          	lw	a5,-20(s0)
     dc4:	00f707b3          	add	a5,a4,a5
     dc8:	0007c783          	lbu	a5,0(a5)
     dcc:	fef401a3          	sb	a5,-29(s0)
     dd0:	fe344783          	lbu	a5,-29(s0)
     dd4:	0c078263          	beqz	a5,e98 <_ZL11action_drophPKc+0x130>
     dd8:	fe344783          	lbu	a5,-29(s0)
     ddc:	00004737          	lui	a4,0x4
     de0:	bf870713          	add	a4,a4,-1032 # 3bf8 <_ZL7objects>
     de4:	00279793          	sll	a5,a5,0x2
     de8:	00f707b3          	add	a5,a4,a5
     dec:	0007a783          	lw	a5,0(a5)
     df0:	fd842583          	lw	a1,-40(s0)
     df4:	00078513          	mv	a0,a5
     df8:	00001097          	auipc	ra,0x1
     dfc:	8e4080e7          	jalr	-1820(ra) # 16dc <_ZL13strings_equalPKcS0_>
     e00:	00050793          	mv	a5,a0
     e04:	0017c793          	xor	a5,a5,1
     e08:	0ff7f793          	zext.b	a5,a5
     e0c:	06079663          	bnez	a5,e78 <_ZL11action_drophPKc+0x110>
     e10:	fe842783          	lw	a5,-24(s0)
     e14:	0047c783          	lbu	a5,4(a5)
     e18:	00078713          	mv	a4,a5
     e1c:	00070793          	mv	a5,a4
     e20:	00379793          	sll	a5,a5,0x3
     e24:	00e787b3          	add	a5,a5,a4
     e28:	00279793          	sll	a5,a5,0x2
     e2c:	00e787b3          	add	a5,a5,a4
     e30:	00279793          	sll	a5,a5,0x2
     e34:	00004737          	lui	a4,0x4
     e38:	c8070713          	add	a4,a4,-896 # 3c80 <_ZL9locations>
     e3c:	00e787b3          	add	a5,a5,a4
     e40:	00478793          	add	a5,a5,4
     e44:	fe344703          	lbu	a4,-29(s0)
     e48:	00070613          	mv	a2,a4
     e4c:	08000593          	li	a1,128
     e50:	00078513          	mv	a0,a5
     e54:	00000097          	auipc	ra,0x0
     e58:	af8080e7          	jalr	-1288(ra) # 94c <_ZL18add_object_to_listPhjh>
     e5c:	00050793          	mv	a5,a0
     e60:	06078663          	beqz	a5,ecc <_ZL11action_drophPKc+0x164>
     e64:	fec42583          	lw	a1,-20(s0)
     e68:	fe442503          	lw	a0,-28(s0)
     e6c:	00000097          	auipc	ra,0x0
     e70:	a80080e7          	jalr	-1408(ra) # 8ec <_ZL32remove_object_from_list_by_indexPhj>
     e74:	0580006f          	j	ecc <_ZL11action_drophPKc+0x164>
     e78:	00000013          	nop
     e7c:	fec42783          	lw	a5,-20(s0)
     e80:	00178793          	add	a5,a5,1
     e84:	fef42623          	sw	a5,-20(s0)
     e88:	fec42703          	lw	a4,-20(s0)
     e8c:	01f00793          	li	a5,31
     e90:	f2e7f6e3          	bgeu	a5,a4,dbc <_ZL11action_drophPKc+0x54>
     e94:	0080006f          	j	e9c <_ZL11action_drophPKc+0x134>
     e98:	00000013          	nop
     e9c:	000027b7          	lui	a5,0x2
     ea0:	4d078513          	add	a0,a5,1232 # 24d0 <_ZN12input_buffer17move_cursor_rightEv+0x574>
     ea4:	00001097          	auipc	ra,0x1
     ea8:	9ac080e7          	jalr	-1620(ra) # 1850 <_ZL13uart_send_strPKc>
     eac:	fd842503          	lw	a0,-40(s0)
     eb0:	00001097          	auipc	ra,0x1
     eb4:	9a0080e7          	jalr	-1632(ra) # 1850 <_ZL13uart_send_strPKc>
     eb8:	000027b7          	lui	a5,0x2
     ebc:	4e078513          	add	a0,a5,1248 # 24e0 <_ZN12input_buffer17move_cursor_rightEv+0x584>
     ec0:	00001097          	auipc	ra,0x1
     ec4:	990080e7          	jalr	-1648(ra) # 1850 <_ZL13uart_send_strPKc>
     ec8:	0080006f          	j	ed0 <_ZL11action_drophPKc+0x168>
     ecc:	00000013          	nop
     ed0:	02c12083          	lw	ra,44(sp)
     ed4:	02812403          	lw	s0,40(sp)
     ed8:	03010113          	add	sp,sp,48
     edc:	00008067          	ret

00000ee0 <_ZL9action_gohh>:
     ee0:	fd010113          	add	sp,sp,-48
     ee4:	02112623          	sw	ra,44(sp)
     ee8:	02812423          	sw	s0,40(sp)
     eec:	03010413          	add	s0,sp,48
     ef0:	00050793          	mv	a5,a0
     ef4:	00058713          	mv	a4,a1
     ef8:	fcf40fa3          	sb	a5,-33(s0)
     efc:	00070793          	mv	a5,a4
     f00:	fcf40f23          	sb	a5,-34(s0)
     f04:	fdf44703          	lbu	a4,-33(s0)
     f08:	00070793          	mv	a5,a4
     f0c:	00279793          	sll	a5,a5,0x2
     f10:	00e787b3          	add	a5,a5,a4
     f14:	00379793          	sll	a5,a5,0x3
     f18:	00004737          	lui	a4,0x4
     f1c:	c0870713          	add	a4,a4,-1016 # 3c08 <_ZL8entities>
     f20:	00e787b3          	add	a5,a5,a4
     f24:	fef42623          	sw	a5,-20(s0)
     f28:	fec42783          	lw	a5,-20(s0)
     f2c:	0047c783          	lbu	a5,4(a5)
     f30:	00078713          	mv	a4,a5
     f34:	00070793          	mv	a5,a4
     f38:	00379793          	sll	a5,a5,0x3
     f3c:	00e787b3          	add	a5,a5,a4
     f40:	00279793          	sll	a5,a5,0x2
     f44:	00e787b3          	add	a5,a5,a4
     f48:	00279793          	sll	a5,a5,0x2
     f4c:	00004737          	lui	a4,0x4
     f50:	c8070713          	add	a4,a4,-896 # 3c80 <_ZL9locations>
     f54:	00e787b3          	add	a5,a5,a4
     f58:	fef42423          	sw	a5,-24(s0)
     f5c:	fde44783          	lbu	a5,-34(s0)
     f60:	fe842703          	lw	a4,-24(s0)
     f64:	00f707b3          	add	a5,a4,a5
     f68:	08c7c783          	lbu	a5,140(a5)
     f6c:	fef403a3          	sb	a5,-25(s0)
     f70:	fe744783          	lbu	a5,-25(s0)
     f74:	00079c63          	bnez	a5,f8c <_ZL9action_gohh+0xac>
     f78:	000027b7          	lui	a5,0x2
     f7c:	4e878513          	add	a0,a5,1256 # 24e8 <_ZN12input_buffer17move_cursor_rightEv+0x58c>
     f80:	00001097          	auipc	ra,0x1
     f84:	8d0080e7          	jalr	-1840(ra) # 1850 <_ZL13uart_send_strPKc>
     f88:	0800006f          	j	1008 <_ZL9action_gohh+0x128>
     f8c:	fe744703          	lbu	a4,-25(s0)
     f90:	00070793          	mv	a5,a4
     f94:	00379793          	sll	a5,a5,0x3
     f98:	00e787b3          	add	a5,a5,a4
     f9c:	00279793          	sll	a5,a5,0x2
     fa0:	00e787b3          	add	a5,a5,a4
     fa4:	00279793          	sll	a5,a5,0x2
     fa8:	08078713          	add	a4,a5,128
     fac:	000047b7          	lui	a5,0x4
     fb0:	c8078793          	add	a5,a5,-896 # 3c80 <_ZL9locations>
     fb4:	00f707b3          	add	a5,a4,a5
     fb8:	00478793          	add	a5,a5,4
     fbc:	fdf44703          	lbu	a4,-33(s0)
     fc0:	00070613          	mv	a2,a4
     fc4:	00800593          	li	a1,8
     fc8:	00078513          	mv	a0,a5
     fcc:	00000097          	auipc	ra,0x0
     fd0:	a34080e7          	jalr	-1484(ra) # a00 <_ZL18add_entity_to_listPhjh>
     fd4:	00050793          	mv	a5,a0
     fd8:	02078863          	beqz	a5,1008 <_ZL9action_gohh+0x128>
     fdc:	fe842783          	lw	a5,-24(s0)
     fe0:	08478793          	add	a5,a5,132
     fe4:	fdf44703          	lbu	a4,-33(s0)
     fe8:	00070613          	mv	a2,a4
     fec:	00800593          	li	a1,8
     ff0:	00078513          	mv	a0,a5
     ff4:	00000097          	auipc	ra,0x0
     ff8:	ac0080e7          	jalr	-1344(ra) # ab4 <_ZL23remove_entity_from_listPhjh>
     ffc:	fec42783          	lw	a5,-20(s0)
    1000:	fe744703          	lbu	a4,-25(s0)
    1004:	00e78223          	sb	a4,4(a5)
    1008:	02c12083          	lw	ra,44(sp)
    100c:	02812403          	lw	s0,40(sp)
    1010:	03010113          	add	sp,sp,48
    1014:	00008067          	ret

00001018 <_ZL11action_givehPKcS0_>:
    1018:	fc010113          	add	sp,sp,-64
    101c:	02112e23          	sw	ra,60(sp)
    1020:	02812c23          	sw	s0,56(sp)
    1024:	04010413          	add	s0,sp,64
    1028:	00050793          	mv	a5,a0
    102c:	fcb42423          	sw	a1,-56(s0)
    1030:	fcc42223          	sw	a2,-60(s0)
    1034:	fcf407a3          	sb	a5,-49(s0)
    1038:	fcf44703          	lbu	a4,-49(s0)
    103c:	00070793          	mv	a5,a4
    1040:	00279793          	sll	a5,a5,0x2
    1044:	00e787b3          	add	a5,a5,a4
    1048:	00379793          	sll	a5,a5,0x3
    104c:	00004737          	lui	a4,0x4
    1050:	c0870713          	add	a4,a4,-1016 # 3c08 <_ZL8entities>
    1054:	00e787b3          	add	a5,a5,a4
    1058:	fef42223          	sw	a5,-28(s0)
    105c:	fe442783          	lw	a5,-28(s0)
    1060:	0047c783          	lbu	a5,4(a5)
    1064:	00078713          	mv	a4,a5
    1068:	00070793          	mv	a5,a4
    106c:	00379793          	sll	a5,a5,0x3
    1070:	00e787b3          	add	a5,a5,a4
    1074:	00279793          	sll	a5,a5,0x2
    1078:	00e787b3          	add	a5,a5,a4
    107c:	00279793          	sll	a5,a5,0x2
    1080:	00004737          	lui	a4,0x4
    1084:	c8070713          	add	a4,a4,-896 # 3c80 <_ZL9locations>
    1088:	00e787b3          	add	a5,a5,a4
    108c:	fef42023          	sw	a5,-32(s0)
    1090:	fe042783          	lw	a5,-32(s0)
    1094:	08478793          	add	a5,a5,132
    1098:	fcf42e23          	sw	a5,-36(s0)
    109c:	fe042623          	sw	zero,-20(s0)
    10a0:	16c0006f          	j	120c <_ZL11action_givehPKcS0_+0x1f4>
    10a4:	fdc42703          	lw	a4,-36(s0)
    10a8:	fec42783          	lw	a5,-20(s0)
    10ac:	00f707b3          	add	a5,a4,a5
    10b0:	0007c783          	lbu	a5,0(a5)
    10b4:	16078463          	beqz	a5,121c <_ZL11action_givehPKcS0_+0x204>
    10b8:	fdc42703          	lw	a4,-36(s0)
    10bc:	fec42783          	lw	a5,-20(s0)
    10c0:	00f707b3          	add	a5,a4,a5
    10c4:	0007c783          	lbu	a5,0(a5)
    10c8:	00078713          	mv	a4,a5
    10cc:	00070793          	mv	a5,a4
    10d0:	00279793          	sll	a5,a5,0x2
    10d4:	00e787b3          	add	a5,a5,a4
    10d8:	00379793          	sll	a5,a5,0x3
    10dc:	00004737          	lui	a4,0x4
    10e0:	c0870713          	add	a4,a4,-1016 # 3c08 <_ZL8entities>
    10e4:	00e787b3          	add	a5,a5,a4
    10e8:	fcf42c23          	sw	a5,-40(s0)
    10ec:	fd842783          	lw	a5,-40(s0)
    10f0:	0007a783          	lw	a5,0(a5)
    10f4:	fc442583          	lw	a1,-60(s0)
    10f8:	00078513          	mv	a0,a5
    10fc:	00000097          	auipc	ra,0x0
    1100:	5e0080e7          	jalr	1504(ra) # 16dc <_ZL13strings_equalPKcS0_>
    1104:	00050793          	mv	a5,a0
    1108:	0017c793          	xor	a5,a5,1
    110c:	0ff7f793          	zext.b	a5,a5
    1110:	0e079663          	bnez	a5,11fc <_ZL11action_givehPKcS0_+0x1e4>
    1114:	fe442783          	lw	a5,-28(s0)
    1118:	00578793          	add	a5,a5,5
    111c:	fcf42a23          	sw	a5,-44(s0)
    1120:	fe042423          	sw	zero,-24(s0)
    1124:	0a40006f          	j	11c8 <_ZL11action_givehPKcS0_+0x1b0>
    1128:	fd442703          	lw	a4,-44(s0)
    112c:	fe842783          	lw	a5,-24(s0)
    1130:	00f707b3          	add	a5,a4,a5
    1134:	0007c783          	lbu	a5,0(a5)
    1138:	fcf409a3          	sb	a5,-45(s0)
    113c:	fd344783          	lbu	a5,-45(s0)
    1140:	08078c63          	beqz	a5,11d8 <_ZL11action_givehPKcS0_+0x1c0>
    1144:	fd344783          	lbu	a5,-45(s0)
    1148:	00004737          	lui	a4,0x4
    114c:	bf870713          	add	a4,a4,-1032 # 3bf8 <_ZL7objects>
    1150:	00279793          	sll	a5,a5,0x2
    1154:	00f707b3          	add	a5,a4,a5
    1158:	0007a783          	lw	a5,0(a5)
    115c:	fc842583          	lw	a1,-56(s0)
    1160:	00078513          	mv	a0,a5
    1164:	00000097          	auipc	ra,0x0
    1168:	578080e7          	jalr	1400(ra) # 16dc <_ZL13strings_equalPKcS0_>
    116c:	00050793          	mv	a5,a0
    1170:	0017c793          	xor	a5,a5,1
    1174:	0ff7f793          	zext.b	a5,a5
    1178:	04079063          	bnez	a5,11b8 <_ZL11action_givehPKcS0_+0x1a0>
    117c:	fd842783          	lw	a5,-40(s0)
    1180:	00578793          	add	a5,a5,5
    1184:	fd344703          	lbu	a4,-45(s0)
    1188:	00070613          	mv	a2,a4
    118c:	02000593          	li	a1,32
    1190:	00078513          	mv	a0,a5
    1194:	fffff097          	auipc	ra,0xfffff
    1198:	7b8080e7          	jalr	1976(ra) # 94c <_ZL18add_object_to_listPhjh>
    119c:	00050793          	mv	a5,a0
    11a0:	0a078063          	beqz	a5,1240 <_ZL11action_givehPKcS0_+0x228>
    11a4:	fe842583          	lw	a1,-24(s0)
    11a8:	fd442503          	lw	a0,-44(s0)
    11ac:	fffff097          	auipc	ra,0xfffff
    11b0:	740080e7          	jalr	1856(ra) # 8ec <_ZL32remove_object_from_list_by_indexPhj>
    11b4:	08c0006f          	j	1240 <_ZL11action_givehPKcS0_+0x228>
    11b8:	00000013          	nop
    11bc:	fe842783          	lw	a5,-24(s0)
    11c0:	00178793          	add	a5,a5,1
    11c4:	fef42423          	sw	a5,-24(s0)
    11c8:	fe842703          	lw	a4,-24(s0)
    11cc:	01f00793          	li	a5,31
    11d0:	f4e7fce3          	bgeu	a5,a4,1128 <_ZL11action_givehPKcS0_+0x110>
    11d4:	0080006f          	j	11dc <_ZL11action_givehPKcS0_+0x1c4>
    11d8:	00000013          	nop
    11dc:	fc842503          	lw	a0,-56(s0)
    11e0:	00000097          	auipc	ra,0x0
    11e4:	670080e7          	jalr	1648(ra) # 1850 <_ZL13uart_send_strPKc>
    11e8:	000027b7          	lui	a5,0x2
    11ec:	4fc78513          	add	a0,a5,1276 # 24fc <_ZN12input_buffer17move_cursor_rightEv+0x5a0>
    11f0:	00000097          	auipc	ra,0x0
    11f4:	660080e7          	jalr	1632(ra) # 1850 <_ZL13uart_send_strPKc>
    11f8:	04c0006f          	j	1244 <_ZL11action_givehPKcS0_+0x22c>
    11fc:	00000013          	nop
    1200:	fec42783          	lw	a5,-20(s0)
    1204:	00178793          	add	a5,a5,1
    1208:	fef42623          	sw	a5,-20(s0)
    120c:	fec42703          	lw	a4,-20(s0)
    1210:	00700793          	li	a5,7
    1214:	e8e7f8e3          	bgeu	a5,a4,10a4 <_ZL11action_givehPKcS0_+0x8c>
    1218:	0080006f          	j	1220 <_ZL11action_givehPKcS0_+0x208>
    121c:	00000013          	nop
    1220:	fc442503          	lw	a0,-60(s0)
    1224:	00000097          	auipc	ra,0x0
    1228:	62c080e7          	jalr	1580(ra) # 1850 <_ZL13uart_send_strPKc>
    122c:	000027b7          	lui	a5,0x2
    1230:	51478513          	add	a0,a5,1300 # 2514 <_ZN12input_buffer17move_cursor_rightEv+0x5b8>
    1234:	00000097          	auipc	ra,0x0
    1238:	61c080e7          	jalr	1564(ra) # 1850 <_ZL13uart_send_strPKc>
    123c:	0080006f          	j	1244 <_ZL11action_givehPKcS0_+0x22c>
    1240:	00000013          	nop
    1244:	03c12083          	lw	ra,60(sp)
    1248:	03812403          	lw	s0,56(sp)
    124c:	04010113          	add	sp,sp,64
    1250:	00008067          	ret

00001254 <_ZL10print_helpv>:
    1254:	ff010113          	add	sp,sp,-16
    1258:	00112623          	sw	ra,12(sp)
    125c:	00812423          	sw	s0,8(sp)
    1260:	01010413          	add	s0,sp,16
    1264:	000027b7          	lui	a5,0x2
    1268:	52878513          	add	a0,a5,1320 # 2528 <_ZN12input_buffer17move_cursor_rightEv+0x5cc>
    126c:	00000097          	auipc	ra,0x0
    1270:	5e4080e7          	jalr	1508(ra) # 1850 <_ZL13uart_send_strPKc>
    1274:	00000013          	nop
    1278:	00c12083          	lw	ra,12(sp)
    127c:	00812403          	lw	s0,8(sp)
    1280:	01010113          	add	sp,sp,16
    1284:	00008067          	ret

00001288 <_ZL5inputR12input_buffer>:
    1288:	fc010113          	add	sp,sp,-64
    128c:	02112e23          	sw	ra,60(sp)
    1290:	02812c23          	sw	s0,56(sp)
    1294:	02912a23          	sw	s1,52(sp)
    1298:	04010413          	add	s0,sp,64
    129c:	fca42623          	sw	a0,-52(s0)
    12a0:	fcc42503          	lw	a0,-52(s0)
    12a4:	00001097          	auipc	ra,0x1
    12a8:	b50080e7          	jalr	-1200(ra) # 1df4 <_ZN12input_buffer5resetEv>
    12ac:	00000097          	auipc	ra,0x0
    12b0:	658080e7          	jalr	1624(ra) # 1904 <_ZL14uart_read_charv>
    12b4:	00050793          	mv	a5,a0
    12b8:	fef401a3          	sb	a5,-29(s0)
    12bc:	fe344703          	lbu	a4,-29(s0)
    12c0:	01b00793          	li	a5,27
    12c4:	00f71a63          	bne	a4,a5,12d8 <_ZL5inputR12input_buffer+0x50>
    12c8:	000047b7          	lui	a5,0x4
    12cc:	00100713          	li	a4,1
    12d0:	f8e78c23          	sb	a4,-104(a5) # 3f98 <_ZZL5inputR12input_bufferE10input_0x1B>
    12d4:	3f00006f          	j	16c4 <_ZL5inputR12input_buffer+0x43c>
    12d8:	000047b7          	lui	a5,0x4
    12dc:	f987c783          	lbu	a5,-104(a5) # 3f98 <_ZZL5inputR12input_bufferE10input_0x1B>
    12e0:	20078263          	beqz	a5,14e4 <_ZL5inputR12input_buffer+0x25c>
    12e4:	fe344703          	lbu	a4,-29(s0)
    12e8:	05b00793          	li	a5,91
    12ec:	00f71a63          	bne	a4,a5,1300 <_ZL5inputR12input_buffer+0x78>
    12f0:	000047b7          	lui	a5,0x4
    12f4:	00100713          	li	a4,1
    12f8:	f8e78ca3          	sb	a4,-103(a5) # 3f99 <_ZZL5inputR12input_bufferE10input_0x5B>
    12fc:	3c80006f          	j	16c4 <_ZL5inputR12input_buffer+0x43c>
    1300:	fe344703          	lbu	a4,-29(s0)
    1304:	04400793          	li	a5,68
    1308:	04f71e63          	bne	a4,a5,1364 <_ZL5inputR12input_buffer+0xdc>
    130c:	fcc42503          	lw	a0,-52(s0)
    1310:	00001097          	auipc	ra,0x1
    1314:	bfc080e7          	jalr	-1028(ra) # 1f0c <_ZN12input_buffer16move_cursor_leftEv>
    1318:	00050793          	mv	a5,a0
    131c:	02078a63          	beqz	a5,1350 <_ZL5inputR12input_buffer+0xc8>
    1320:	01b00513          	li	a0,27
    1324:	00000097          	auipc	ra,0x0
    1328:	594080e7          	jalr	1428(ra) # 18b8 <_ZL14uart_send_charc>
    132c:	000047b7          	lui	a5,0x4
    1330:	f997c783          	lbu	a5,-103(a5) # 3f99 <_ZZL5inputR12input_bufferE10input_0x5B>
    1334:	00078863          	beqz	a5,1344 <_ZL5inputR12input_buffer+0xbc>
    1338:	05b00513          	li	a0,91
    133c:	00000097          	auipc	ra,0x0
    1340:	57c080e7          	jalr	1404(ra) # 18b8 <_ZL14uart_send_charc>
    1344:	04400513          	li	a0,68
    1348:	00000097          	auipc	ra,0x0
    134c:	570080e7          	jalr	1392(ra) # 18b8 <_ZL14uart_send_charc>
    1350:	000047b7          	lui	a5,0x4
    1354:	f8078c23          	sb	zero,-104(a5) # 3f98 <_ZZL5inputR12input_bufferE10input_0x1B>
    1358:	000047b7          	lui	a5,0x4
    135c:	f8078ca3          	sb	zero,-103(a5) # 3f99 <_ZZL5inputR12input_bufferE10input_0x5B>
    1360:	3640006f          	j	16c4 <_ZL5inputR12input_buffer+0x43c>
    1364:	fe344703          	lbu	a4,-29(s0)
    1368:	04300793          	li	a5,67
    136c:	04f71e63          	bne	a4,a5,13c8 <_ZL5inputR12input_buffer+0x140>
    1370:	fcc42503          	lw	a0,-52(s0)
    1374:	00001097          	auipc	ra,0x1
    1378:	be8080e7          	jalr	-1048(ra) # 1f5c <_ZN12input_buffer17move_cursor_rightEv>
    137c:	00050793          	mv	a5,a0
    1380:	02078a63          	beqz	a5,13b4 <_ZL5inputR12input_buffer+0x12c>
    1384:	01b00513          	li	a0,27
    1388:	00000097          	auipc	ra,0x0
    138c:	530080e7          	jalr	1328(ra) # 18b8 <_ZL14uart_send_charc>
    1390:	000047b7          	lui	a5,0x4
    1394:	f997c783          	lbu	a5,-103(a5) # 3f99 <_ZZL5inputR12input_bufferE10input_0x5B>
    1398:	00078863          	beqz	a5,13a8 <_ZL5inputR12input_buffer+0x120>
    139c:	05b00513          	li	a0,91
    13a0:	00000097          	auipc	ra,0x0
    13a4:	518080e7          	jalr	1304(ra) # 18b8 <_ZL14uart_send_charc>
    13a8:	04300513          	li	a0,67
    13ac:	00000097          	auipc	ra,0x0
    13b0:	50c080e7          	jalr	1292(ra) # 18b8 <_ZL14uart_send_charc>
    13b4:	000047b7          	lui	a5,0x4
    13b8:	f8078c23          	sb	zero,-104(a5) # 3f98 <_ZZL5inputR12input_bufferE10input_0x1B>
    13bc:	000047b7          	lui	a5,0x4
    13c0:	f8078ca3          	sb	zero,-103(a5) # 3f99 <_ZZL5inputR12input_bufferE10input_0x5B>
    13c4:	3000006f          	j	16c4 <_ZL5inputR12input_buffer+0x43c>
    13c8:	fe344703          	lbu	a4,-29(s0)
    13cc:	03300793          	li	a5,51
    13d0:	00f71a63          	bne	a4,a5,13e4 <_ZL5inputR12input_buffer+0x15c>
    13d4:	000047b7          	lui	a5,0x4
    13d8:	00100713          	li	a4,1
    13dc:	f8e78d23          	sb	a4,-102(a5) # 3f9a <_ZZL5inputR12input_bufferE10input_0x33>
    13e0:	2e40006f          	j	16c4 <_ZL5inputR12input_buffer+0x43c>
    13e4:	000047b7          	lui	a5,0x4
    13e8:	f9a7c783          	lbu	a5,-102(a5) # 3f9a <_ZZL5inputR12input_bufferE10input_0x33>
    13ec:	0e078663          	beqz	a5,14d8 <_ZL5inputR12input_buffer+0x250>
    13f0:	fe344703          	lbu	a4,-29(s0)
    13f4:	07e00793          	li	a5,126
    13f8:	0cf71663          	bne	a4,a5,14c4 <_ZL5inputR12input_buffer+0x23c>
    13fc:	fcc42503          	lw	a0,-52(s0)
    1400:	00001097          	auipc	ra,0x1
    1404:	94c080e7          	jalr	-1716(ra) # 1d4c <_ZN12input_buffer3delEv>
    1408:	fcc42503          	lw	a0,-52(s0)
    140c:	00001097          	auipc	ra,0x1
    1410:	ad8080e7          	jalr	-1320(ra) # 1ee4 <_ZN12input_buffer5indexEv>
    1414:	fea42623          	sw	a0,-20(s0)
    1418:	0380006f          	j	1450 <_ZL5inputR12input_buffer+0x1c8>
    141c:	fcc42503          	lw	a0,-52(s0)
    1420:	00001097          	auipc	ra,0x1
    1424:	a44080e7          	jalr	-1468(ra) # 1e64 <_ZN12input_buffer4lineEv>
    1428:	00050713          	mv	a4,a0
    142c:	fec42783          	lw	a5,-20(s0)
    1430:	00f707b3          	add	a5,a4,a5
    1434:	0007c783          	lbu	a5,0(a5)
    1438:	00078513          	mv	a0,a5
    143c:	00000097          	auipc	ra,0x0
    1440:	47c080e7          	jalr	1148(ra) # 18b8 <_ZL14uart_send_charc>
    1444:	fec42783          	lw	a5,-20(s0)
    1448:	00178793          	add	a5,a5,1
    144c:	fef42623          	sw	a5,-20(s0)
    1450:	fcc42503          	lw	a0,-52(s0)
    1454:	00001097          	auipc	ra,0x1
    1458:	a68080e7          	jalr	-1432(ra) # 1ebc <_ZN12input_buffer9end_indexEv>
    145c:	00050713          	mv	a4,a0
    1460:	fec42783          	lw	a5,-20(s0)
    1464:	00e7b7b3          	sltu	a5,a5,a4
    1468:	0ff7f793          	zext.b	a5,a5
    146c:	fa0798e3          	bnez	a5,141c <_ZL5inputR12input_buffer+0x194>
    1470:	02000513          	li	a0,32
    1474:	00000097          	auipc	ra,0x0
    1478:	444080e7          	jalr	1092(ra) # 18b8 <_ZL14uart_send_charc>
    147c:	fcc42503          	lw	a0,-52(s0)
    1480:	00001097          	auipc	ra,0x1
    1484:	a3c080e7          	jalr	-1476(ra) # 1ebc <_ZN12input_buffer9end_indexEv>
    1488:	00050493          	mv	s1,a0
    148c:	fcc42503          	lw	a0,-52(s0)
    1490:	00001097          	auipc	ra,0x1
    1494:	a54080e7          	jalr	-1452(ra) # 1ee4 <_ZN12input_buffer5indexEv>
    1498:	00050793          	mv	a5,a0
    149c:	40f487b3          	sub	a5,s1,a5
    14a0:	00178793          	add	a5,a5,1
    14a4:	00078513          	mv	a0,a5
    14a8:	00000097          	auipc	ra,0x0
    14ac:	58c080e7          	jalr	1420(ra) # 1a34 <_ZL19uart_send_move_backj>
    14b0:	000047b7          	lui	a5,0x4
    14b4:	f8078c23          	sb	zero,-104(a5) # 3f98 <_ZZL5inputR12input_bufferE10input_0x1B>
    14b8:	000047b7          	lui	a5,0x4
    14bc:	f8078d23          	sb	zero,-102(a5) # 3f9a <_ZZL5inputR12input_bufferE10input_0x33>
    14c0:	2040006f          	j	16c4 <_ZL5inputR12input_buffer+0x43c>
    14c4:	000047b7          	lui	a5,0x4
    14c8:	f8078c23          	sb	zero,-104(a5) # 3f98 <_ZZL5inputR12input_bufferE10input_0x1B>
    14cc:	000047b7          	lui	a5,0x4
    14d0:	f8078d23          	sb	zero,-102(a5) # 3f9a <_ZZL5inputR12input_bufferE10input_0x33>
    14d4:	1f00006f          	j	16c4 <_ZL5inputR12input_buffer+0x43c>
    14d8:	000047b7          	lui	a5,0x4
    14dc:	f8078c23          	sb	zero,-104(a5) # 3f98 <_ZZL5inputR12input_bufferE10input_0x1B>
    14e0:	1e40006f          	j	16c4 <_ZL5inputR12input_buffer+0x43c>
    14e4:	fe344703          	lbu	a4,-29(s0)
    14e8:	07f00793          	li	a5,127
    14ec:	0cf71c63          	bne	a4,a5,15c4 <_ZL5inputR12input_buffer+0x33c>
    14f0:	fcc42503          	lw	a0,-52(s0)
    14f4:	00000097          	auipc	ra,0x0
    14f8:	74c080e7          	jalr	1868(ra) # 1c40 <_ZN12input_buffer9backspaceEv>
    14fc:	00050793          	mv	a5,a0
    1500:	da0786e3          	beqz	a5,12ac <_ZL5inputR12input_buffer+0x24>
    1504:	fe344783          	lbu	a5,-29(s0)
    1508:	00078513          	mv	a0,a5
    150c:	00000097          	auipc	ra,0x0
    1510:	3ac080e7          	jalr	940(ra) # 18b8 <_ZL14uart_send_charc>
    1514:	fcc42503          	lw	a0,-52(s0)
    1518:	00001097          	auipc	ra,0x1
    151c:	94c080e7          	jalr	-1716(ra) # 1e64 <_ZN12input_buffer4lineEv>
    1520:	fca42c23          	sw	a0,-40(s0)
    1524:	fcc42503          	lw	a0,-52(s0)
    1528:	00001097          	auipc	ra,0x1
    152c:	9bc080e7          	jalr	-1604(ra) # 1ee4 <_ZN12input_buffer5indexEv>
    1530:	fea42423          	sw	a0,-24(s0)
    1534:	02c0006f          	j	1560 <_ZL5inputR12input_buffer+0x2d8>
    1538:	fd842703          	lw	a4,-40(s0)
    153c:	fe842783          	lw	a5,-24(s0)
    1540:	00f707b3          	add	a5,a4,a5
    1544:	0007c783          	lbu	a5,0(a5)
    1548:	00078513          	mv	a0,a5
    154c:	00000097          	auipc	ra,0x0
    1550:	36c080e7          	jalr	876(ra) # 18b8 <_ZL14uart_send_charc>
    1554:	fe842783          	lw	a5,-24(s0)
    1558:	00178793          	add	a5,a5,1
    155c:	fef42423          	sw	a5,-24(s0)
    1560:	fcc42503          	lw	a0,-52(s0)
    1564:	00001097          	auipc	ra,0x1
    1568:	958080e7          	jalr	-1704(ra) # 1ebc <_ZN12input_buffer9end_indexEv>
    156c:	00050713          	mv	a4,a0
    1570:	fe842783          	lw	a5,-24(s0)
    1574:	00e7b7b3          	sltu	a5,a5,a4
    1578:	0ff7f793          	zext.b	a5,a5
    157c:	fa079ee3          	bnez	a5,1538 <_ZL5inputR12input_buffer+0x2b0>
    1580:	02000513          	li	a0,32
    1584:	00000097          	auipc	ra,0x0
    1588:	334080e7          	jalr	820(ra) # 18b8 <_ZL14uart_send_charc>
    158c:	fcc42503          	lw	a0,-52(s0)
    1590:	00001097          	auipc	ra,0x1
    1594:	92c080e7          	jalr	-1748(ra) # 1ebc <_ZN12input_buffer9end_indexEv>
    1598:	00050493          	mv	s1,a0
    159c:	fcc42503          	lw	a0,-52(s0)
    15a0:	00001097          	auipc	ra,0x1
    15a4:	944080e7          	jalr	-1724(ra) # 1ee4 <_ZN12input_buffer5indexEv>
    15a8:	00050793          	mv	a5,a0
    15ac:	40f487b3          	sub	a5,s1,a5
    15b0:	00178793          	add	a5,a5,1
    15b4:	00078513          	mv	a0,a5
    15b8:	00000097          	auipc	ra,0x0
    15bc:	47c080e7          	jalr	1148(ra) # 1a34 <_ZL19uart_send_move_backj>
    15c0:	cedff06f          	j	12ac <_ZL5inputR12input_buffer+0x24>
    15c4:	fe344703          	lbu	a4,-29(s0)
    15c8:	00d00793          	li	a5,13
    15cc:	00f70c63          	beq	a4,a5,15e4 <_ZL5inputR12input_buffer+0x35c>
    15d0:	fcc42503          	lw	a0,-52(s0)
    15d4:	00001097          	auipc	ra,0x1
    15d8:	8b4080e7          	jalr	-1868(ra) # 1e88 <_ZN12input_buffer7is_fullEv>
    15dc:	00050793          	mv	a5,a0
    15e0:	00078663          	beqz	a5,15ec <_ZL5inputR12input_buffer+0x364>
    15e4:	00100793          	li	a5,1
    15e8:	0080006f          	j	15f0 <_ZL5inputR12input_buffer+0x368>
    15ec:	00000793          	li	a5,0
    15f0:	00078a63          	beqz	a5,1604 <_ZL5inputR12input_buffer+0x37c>
    15f4:	fcc42503          	lw	a0,-52(s0)
    15f8:	00001097          	auipc	ra,0x1
    15fc:	834080e7          	jalr	-1996(ra) # 1e2c <_ZN12input_buffer7set_eosEv>
    1600:	0c80006f          	j	16c8 <_ZL5inputR12input_buffer+0x440>
    1604:	fe344783          	lbu	a5,-29(s0)
    1608:	00078513          	mv	a0,a5
    160c:	00000097          	auipc	ra,0x0
    1610:	2ac080e7          	jalr	684(ra) # 18b8 <_ZL14uart_send_charc>
    1614:	fe344783          	lbu	a5,-29(s0)
    1618:	00078593          	mv	a1,a5
    161c:	fcc42503          	lw	a0,-52(s0)
    1620:	00000097          	auipc	ra,0x0
    1624:	4d4080e7          	jalr	1236(ra) # 1af4 <_ZN12input_buffer6insertEc>
    1628:	fcc42503          	lw	a0,-52(s0)
    162c:	00001097          	auipc	ra,0x1
    1630:	838080e7          	jalr	-1992(ra) # 1e64 <_ZN12input_buffer4lineEv>
    1634:	fca42e23          	sw	a0,-36(s0)
    1638:	fcc42503          	lw	a0,-52(s0)
    163c:	00001097          	auipc	ra,0x1
    1640:	8a8080e7          	jalr	-1880(ra) # 1ee4 <_ZN12input_buffer5indexEv>
    1644:	fea42223          	sw	a0,-28(s0)
    1648:	02c0006f          	j	1674 <_ZL5inputR12input_buffer+0x3ec>
    164c:	fdc42703          	lw	a4,-36(s0)
    1650:	fe442783          	lw	a5,-28(s0)
    1654:	00f707b3          	add	a5,a4,a5
    1658:	0007c783          	lbu	a5,0(a5)
    165c:	00078513          	mv	a0,a5
    1660:	00000097          	auipc	ra,0x0
    1664:	258080e7          	jalr	600(ra) # 18b8 <_ZL14uart_send_charc>
    1668:	fe442783          	lw	a5,-28(s0)
    166c:	00178793          	add	a5,a5,1
    1670:	fef42223          	sw	a5,-28(s0)
    1674:	fcc42503          	lw	a0,-52(s0)
    1678:	00001097          	auipc	ra,0x1
    167c:	844080e7          	jalr	-1980(ra) # 1ebc <_ZN12input_buffer9end_indexEv>
    1680:	00050713          	mv	a4,a0
    1684:	fe442783          	lw	a5,-28(s0)
    1688:	00e7b7b3          	sltu	a5,a5,a4
    168c:	0ff7f793          	zext.b	a5,a5
    1690:	fa079ee3          	bnez	a5,164c <_ZL5inputR12input_buffer+0x3c4>
    1694:	fcc42503          	lw	a0,-52(s0)
    1698:	00001097          	auipc	ra,0x1
    169c:	824080e7          	jalr	-2012(ra) # 1ebc <_ZN12input_buffer9end_indexEv>
    16a0:	00050493          	mv	s1,a0
    16a4:	fcc42503          	lw	a0,-52(s0)
    16a8:	00001097          	auipc	ra,0x1
    16ac:	83c080e7          	jalr	-1988(ra) # 1ee4 <_ZN12input_buffer5indexEv>
    16b0:	00050793          	mv	a5,a0
    16b4:	40f487b3          	sub	a5,s1,a5
    16b8:	00078513          	mv	a0,a5
    16bc:	00000097          	auipc	ra,0x0
    16c0:	378080e7          	jalr	888(ra) # 1a34 <_ZL19uart_send_move_backj>
    16c4:	be9ff06f          	j	12ac <_ZL5inputR12input_buffer+0x24>
    16c8:	03c12083          	lw	ra,60(sp)
    16cc:	03812403          	lw	s0,56(sp)
    16d0:	03412483          	lw	s1,52(sp)
    16d4:	04010113          	add	sp,sp,64
    16d8:	00008067          	ret

000016dc <_ZL13strings_equalPKcS0_>:
    16dc:	fe010113          	add	sp,sp,-32
    16e0:	00812e23          	sw	s0,28(sp)
    16e4:	02010413          	add	s0,sp,32
    16e8:	fea42623          	sw	a0,-20(s0)
    16ec:	feb42423          	sw	a1,-24(s0)
    16f0:	fec42783          	lw	a5,-20(s0)
    16f4:	0007c703          	lbu	a4,0(a5)
    16f8:	fe842783          	lw	a5,-24(s0)
    16fc:	0007c783          	lbu	a5,0(a5)
    1700:	00f70663          	beq	a4,a5,170c <_ZL13strings_equalPKcS0_+0x30>
    1704:	00000793          	li	a5,0
    1708:	0400006f          	j	1748 <_ZL13strings_equalPKcS0_+0x6c>
    170c:	fec42783          	lw	a5,-20(s0)
    1710:	0007c783          	lbu	a5,0(a5)
    1714:	00079c63          	bnez	a5,172c <_ZL13strings_equalPKcS0_+0x50>
    1718:	fe842783          	lw	a5,-24(s0)
    171c:	0007c783          	lbu	a5,0(a5)
    1720:	00079663          	bnez	a5,172c <_ZL13strings_equalPKcS0_+0x50>
    1724:	00100793          	li	a5,1
    1728:	0200006f          	j	1748 <_ZL13strings_equalPKcS0_+0x6c>
    172c:	fec42783          	lw	a5,-20(s0)
    1730:	00178793          	add	a5,a5,1
    1734:	fef42623          	sw	a5,-20(s0)
    1738:	fe842783          	lw	a5,-24(s0)
    173c:	00178793          	add	a5,a5,1
    1740:	fef42423          	sw	a5,-24(s0)
    1744:	fadff06f          	j	16f0 <_ZL13strings_equalPKcS0_+0x14>
    1748:	00078513          	mv	a0,a5
    174c:	01c12403          	lw	s0,28(sp)
    1750:	02010113          	add	sp,sp,32
    1754:	00008067          	ret

00001758 <_ZL18uart_send_hex_bytec>:
    1758:	fe010113          	add	sp,sp,-32
    175c:	00112e23          	sw	ra,28(sp)
    1760:	00812c23          	sw	s0,24(sp)
    1764:	02010413          	add	s0,sp,32
    1768:	00050793          	mv	a5,a0
    176c:	fef407a3          	sb	a5,-17(s0)
    1770:	fef44783          	lbu	a5,-17(s0)
    1774:	0047d793          	srl	a5,a5,0x4
    1778:	0ff7f793          	zext.b	a5,a5
    177c:	00078513          	mv	a0,a5
    1780:	00000097          	auipc	ra,0x0
    1784:	034080e7          	jalr	52(ra) # 17b4 <_ZL20uart_send_hex_nibblec>
    1788:	fef44783          	lbu	a5,-17(s0)
    178c:	00f7f793          	and	a5,a5,15
    1790:	0ff7f793          	zext.b	a5,a5
    1794:	00078513          	mv	a0,a5
    1798:	00000097          	auipc	ra,0x0
    179c:	01c080e7          	jalr	28(ra) # 17b4 <_ZL20uart_send_hex_nibblec>
    17a0:	00000013          	nop
    17a4:	01c12083          	lw	ra,28(sp)
    17a8:	01812403          	lw	s0,24(sp)
    17ac:	02010113          	add	sp,sp,32
    17b0:	00008067          	ret

000017b4 <_ZL20uart_send_hex_nibblec>:
    17b4:	fe010113          	add	sp,sp,-32
    17b8:	00112e23          	sw	ra,28(sp)
    17bc:	00812c23          	sw	s0,24(sp)
    17c0:	02010413          	add	s0,sp,32
    17c4:	00050793          	mv	a5,a0
    17c8:	fef407a3          	sb	a5,-17(s0)
    17cc:	fef44703          	lbu	a4,-17(s0)
    17d0:	00900793          	li	a5,9
    17d4:	02e7e063          	bltu	a5,a4,17f4 <_ZL20uart_send_hex_nibblec+0x40>
    17d8:	fef44783          	lbu	a5,-17(s0)
    17dc:	03078793          	add	a5,a5,48
    17e0:	0ff7f793          	zext.b	a5,a5
    17e4:	00078513          	mv	a0,a5
    17e8:	00000097          	auipc	ra,0x0
    17ec:	0d0080e7          	jalr	208(ra) # 18b8 <_ZL14uart_send_charc>
    17f0:	01c0006f          	j	180c <_ZL20uart_send_hex_nibblec+0x58>
    17f4:	fef44783          	lbu	a5,-17(s0)
    17f8:	03778793          	add	a5,a5,55
    17fc:	0ff7f793          	zext.b	a5,a5
    1800:	00078513          	mv	a0,a5
    1804:	00000097          	auipc	ra,0x0
    1808:	0b4080e7          	jalr	180(ra) # 18b8 <_ZL14uart_send_charc>
    180c:	00000013          	nop
    1810:	01c12083          	lw	ra,28(sp)
    1814:	01812403          	lw	s0,24(sp)
    1818:	02010113          	add	sp,sp,32
    181c:	00008067          	ret

00001820 <_ZL7led_seth>:
# auto led_set(uint8_t bits) -> void { *LED = bits; }
    1820:	fe010113          	add	sp,sp,-32
    1824:	00812e23          	sw	s0,28(sp)
    1828:	02010413          	add	s0,sp,32
    182c:	00050793          	mv	a5,a0
    1830:	fef407a3          	sb	a5,-17(s0)
    1834:	fff00793          	li	a5,-1
    1838:	fef44703          	lbu	a4,-17(s0)
    183c:	00e78023          	sb	a4,0(a5)
    1840:	00000013          	nop
    1844:	01c12403          	lw	s0,28(sp)
    1848:	02010113          	add	sp,sp,32
    184c:	00008067          	ret

00001850 <_ZL13uart_send_strPKc>:
# auto uart_send_str(char const *str) -> void {
    1850:	fe010113          	add	sp,sp,-32
    1854:	00812e23          	sw	s0,28(sp)
    1858:	02010413          	add	s0,sp,32
    185c:	fea42623          	sw	a0,-20(s0)
#   while (*str) {
    1860:	0380006f          	j	1898 <_ZL13uart_send_strPKc+0x48>
#     while (*UART_OUT)
    1864:	00000013          	nop
    1868:	ffe00793          	li	a5,-2
    186c:	0007c783          	lbu	a5,0(a5)
    1870:	0ff7f793          	zext.b	a5,a5
    1874:	00f037b3          	snez	a5,a5
    1878:	0ff7f793          	zext.b	a5,a5
    187c:	fe0796e3          	bnez	a5,1868 <_ZL13uart_send_strPKc+0x18>
#     *UART_OUT = *str++;
    1880:	fec42783          	lw	a5,-20(s0)
    1884:	00178713          	add	a4,a5,1
    1888:	fee42623          	sw	a4,-20(s0)
    188c:	ffe00713          	li	a4,-2
    1890:	0007c783          	lbu	a5,0(a5)
    1894:	00f70023          	sb	a5,0(a4)
#   while (*str) {
    1898:	fec42783          	lw	a5,-20(s0)
    189c:	0007c783          	lbu	a5,0(a5)
    18a0:	fc0792e3          	bnez	a5,1864 <_ZL13uart_send_strPKc+0x14>
# }
    18a4:	00000013          	nop
    18a8:	00000013          	nop
    18ac:	01c12403          	lw	s0,28(sp)
    18b0:	02010113          	add	sp,sp,32
    18b4:	00008067          	ret

000018b8 <_ZL14uart_send_charc>:
# auto uart_send_char(char const ch) -> void {
    18b8:	fe010113          	add	sp,sp,-32
    18bc:	00812e23          	sw	s0,28(sp)
    18c0:	02010413          	add	s0,sp,32
    18c4:	00050793          	mv	a5,a0
    18c8:	fef407a3          	sb	a5,-17(s0)
#   while (*UART_OUT)
    18cc:	00000013          	nop
    18d0:	ffe00793          	li	a5,-2
    18d4:	0007c783          	lbu	a5,0(a5)
    18d8:	0ff7f793          	zext.b	a5,a5
    18dc:	00f037b3          	snez	a5,a5
    18e0:	0ff7f793          	zext.b	a5,a5
    18e4:	fe0796e3          	bnez	a5,18d0 <_ZL14uart_send_charc+0x18>
#   *UART_OUT = ch;
    18e8:	ffe00793          	li	a5,-2
    18ec:	fef44703          	lbu	a4,-17(s0)
    18f0:	00e78023          	sb	a4,0(a5)
# }
    18f4:	00000013          	nop
    18f8:	01c12403          	lw	s0,28(sp)
    18fc:	02010113          	add	sp,sp,32
    1900:	00008067          	ret

00001904 <_ZL14uart_read_charv>:
# auto uart_read_char() -> char {
    1904:	fe010113          	add	sp,sp,-32
    1908:	00812e23          	sw	s0,28(sp)
    190c:	02010413          	add	s0,sp,32
#   while ((ch = *UART_IN) == 0)
    1910:	00000013          	nop
    1914:	ffd00793          	li	a5,-3
    1918:	0007c783          	lbu	a5,0(a5)
    191c:	fef407a3          	sb	a5,-17(s0)
    1920:	fef44783          	lbu	a5,-17(s0)
    1924:	0017b793          	seqz	a5,a5
    1928:	0ff7f793          	zext.b	a5,a5
    192c:	fe0794e3          	bnez	a5,1914 <_ZL14uart_read_charv+0x10>
#   return ch;
    1930:	fef44783          	lbu	a5,-17(s0)
# }
    1934:	00078513          	mv	a0,a5
    1938:	01c12403          	lw	s0,28(sp)
    193c:	02010113          	add	sp,sp,32
    1940:	00008067          	ret

00001944 <_ZL15action_mem_testv>:
# auto action_mem_test() -> void {
    1944:	fe010113          	add	sp,sp,-32
    1948:	00112e23          	sw	ra,28(sp)
    194c:	00812c23          	sw	s0,24(sp)
    1950:	02010413          	add	s0,sp,32
#   uart_send_str("testing memory (write)\r\n");
    1954:	000027b7          	lui	a5,0x2
    1958:	60478513          	add	a0,a5,1540 # 2604 <_ZN12input_buffer17move_cursor_rightEv+0x6a8>
    195c:	00000097          	auipc	ra,0x0
    1960:	ef4080e7          	jalr	-268(ra) # 1850 <_ZL13uart_send_strPKc>
#   char *ptr = (char *)0x10000;
    1964:	000107b7          	lui	a5,0x10
    1968:	fef42623          	sw	a5,-20(s0)
#   char const *end = (char *)MEMORY_TOP - 1024; // -1024 to avoid the stack
    196c:	002007b7          	lui	a5,0x200
    1970:	c0078793          	add	a5,a5,-1024 # 1ffc00 <__global_pointer$+0x1fb808>
    1974:	fef42223          	sw	a5,-28(s0)
#   char ch = 0;
    1978:	fe0405a3          	sb	zero,-21(s0)
#   while (ptr < end) {
    197c:	0200006f          	j	199c <_ZL15action_mem_testv+0x58>
#     *ptr++ = ch++;
    1980:	feb44703          	lbu	a4,-21(s0)
    1984:	00170793          	add	a5,a4,1
    1988:	fef405a3          	sb	a5,-21(s0)
    198c:	fec42783          	lw	a5,-20(s0)
    1990:	00178693          	add	a3,a5,1
    1994:	fed42623          	sw	a3,-20(s0)
    1998:	00e78023          	sb	a4,0(a5)
#   while (ptr < end) {
    199c:	fec42703          	lw	a4,-20(s0)
    19a0:	fe442783          	lw	a5,-28(s0)
    19a4:	fcf76ee3          	bltu	a4,a5,1980 <_ZL15action_mem_testv+0x3c>
#   uart_send_str("testing memory (read)\r\n");
    19a8:	000027b7          	lui	a5,0x2
    19ac:	62078513          	add	a0,a5,1568 # 2620 <_ZN12input_buffer17move_cursor_rightEv+0x6c4>
    19b0:	00000097          	auipc	ra,0x0
    19b4:	ea0080e7          	jalr	-352(ra) # 1850 <_ZL13uart_send_strPKc>
#   ptr = (char *)0x10000;
    19b8:	000107b7          	lui	a5,0x10
    19bc:	fef42623          	sw	a5,-20(s0)
#   ch = 0;
    19c0:	fe0405a3          	sb	zero,-21(s0)
#   while (ptr < end) {
    19c4:	0440006f          	j	1a08 <_ZL15action_mem_testv+0xc4>
#     if (*ptr++ != ch++) {
    19c8:	fec42783          	lw	a5,-20(s0)
    19cc:	00178713          	add	a4,a5,1 # 10001 <__global_pointer$+0xbc09>
    19d0:	fee42623          	sw	a4,-20(s0)
    19d4:	0007c703          	lbu	a4,0(a5)
    19d8:	feb44783          	lbu	a5,-21(s0)
    19dc:	00178693          	add	a3,a5,1
    19e0:	fed405a3          	sb	a3,-21(s0)
    19e4:	40f707b3          	sub	a5,a4,a5
    19e8:	00f037b3          	snez	a5,a5
    19ec:	0ff7f793          	zext.b	a5,a5
    19f0:	00078c63          	beqz	a5,1a08 <_ZL15action_mem_testv+0xc4>
#       uart_send_str("!!! test memory failed\r\n");
    19f4:	000027b7          	lui	a5,0x2
    19f8:	63878513          	add	a0,a5,1592 # 2638 <_ZN12input_buffer17move_cursor_rightEv+0x6dc>
    19fc:	00000097          	auipc	ra,0x0
    1a00:	e54080e7          	jalr	-428(ra) # 1850 <_ZL13uart_send_strPKc>
#       return;
    1a04:	0200006f          	j	1a24 <_ZL15action_mem_testv+0xe0>
#   while (ptr < end) {
    1a08:	fec42703          	lw	a4,-20(s0)
    1a0c:	fe442783          	lw	a5,-28(s0)
    1a10:	faf76ce3          	bltu	a4,a5,19c8 <_ZL15action_mem_testv+0x84>
#   uart_send_str("testing memory succeeded\r\n");
    1a14:	000027b7          	lui	a5,0x2
    1a18:	65478513          	add	a0,a5,1620 # 2654 <_ZN12input_buffer17move_cursor_rightEv+0x6f8>
    1a1c:	00000097          	auipc	ra,0x0
    1a20:	e34080e7          	jalr	-460(ra) # 1850 <_ZL13uart_send_strPKc>
# }
    1a24:	01c12083          	lw	ra,28(sp)
    1a28:	01812403          	lw	s0,24(sp)
    1a2c:	02010113          	add	sp,sp,32
    1a30:	00008067          	ret

00001a34 <_ZL19uart_send_move_backj>:
# auto uart_send_move_back(uint32_t const n) -> void {
    1a34:	fd010113          	add	sp,sp,-48
    1a38:	02112623          	sw	ra,44(sp)
    1a3c:	02812423          	sw	s0,40(sp)
    1a40:	03010413          	add	s0,sp,48
    1a44:	fca42e23          	sw	a0,-36(s0)
#   for (uint32_t i = 0; i < n; ++i) {
    1a48:	fe042623          	sw	zero,-20(s0)
    1a4c:	01c0006f          	j	1a68 <_ZL19uart_send_move_backj+0x34>
#     uart_send_char('\b');
    1a50:	00800513          	li	a0,8
    1a54:	00000097          	auipc	ra,0x0
    1a58:	e64080e7          	jalr	-412(ra) # 18b8 <_ZL14uart_send_charc>
#   for (uint32_t i = 0; i < n; ++i) {
    1a5c:	fec42783          	lw	a5,-20(s0)
    1a60:	00178793          	add	a5,a5,1
    1a64:	fef42623          	sw	a5,-20(s0)
    1a68:	fec42703          	lw	a4,-20(s0)
    1a6c:	fdc42783          	lw	a5,-36(s0)
    1a70:	fef760e3          	bltu	a4,a5,1a50 <_ZL19uart_send_move_backj+0x1c>
# }
    1a74:	00000013          	nop
    1a78:	00000013          	nop
    1a7c:	02c12083          	lw	ra,44(sp)
    1a80:	02812403          	lw	s0,40(sp)
    1a84:	03010113          	add	sp,sp,48
    1a88:	00008067          	ret

00001a8c <memset>:
# extern "C" auto memset(void *str, int ch, int n) -> void * {
    1a8c:	fd010113          	add	sp,sp,-48
    1a90:	02812623          	sw	s0,44(sp)
    1a94:	03010413          	add	s0,sp,48
    1a98:	fca42e23          	sw	a0,-36(s0)
    1a9c:	fcb42c23          	sw	a1,-40(s0)
    1aa0:	fcc42a23          	sw	a2,-44(s0)
#   char *ptr = reinterpret_cast<char *>(str);
    1aa4:	fdc42783          	lw	a5,-36(s0)
    1aa8:	fef42623          	sw	a5,-20(s0)
#   while (n--) {
    1aac:	01c0006f          	j	1ac8 <memset+0x3c>
#     *ptr++ = (char)ch;
    1ab0:	fd842783          	lw	a5,-40(s0)
    1ab4:	0ff7f713          	zext.b	a4,a5
    1ab8:	fec42783          	lw	a5,-20(s0)
    1abc:	00178693          	add	a3,a5,1
    1ac0:	fed42623          	sw	a3,-20(s0)
    1ac4:	00e78023          	sb	a4,0(a5)
#   while (n--) {
    1ac8:	fd442783          	lw	a5,-44(s0)
    1acc:	fff78713          	add	a4,a5,-1
    1ad0:	fce42a23          	sw	a4,-44(s0)
    1ad4:	00f037b3          	snez	a5,a5
    1ad8:	0ff7f793          	zext.b	a5,a5
    1adc:	fc079ae3          	bnez	a5,1ab0 <memset+0x24>
#   return str;
    1ae0:	fdc42783          	lw	a5,-36(s0)
# }
    1ae4:	00078513          	mv	a0,a5
    1ae8:	02c12403          	lw	s0,44(sp)
    1aec:	03010113          	add	sp,sp,48
    1af0:	00008067          	ret

00001af4 <_ZN12input_buffer6insertEc>:
# extern "C" auto memset(void *str, int ch, int n) -> void * {
    1af4:	fd010113          	add	sp,sp,-48
    1af8:	02812623          	sw	s0,44(sp)
    1afc:	03010413          	add	s0,sp,48
    1b00:	fca42e23          	sw	a0,-36(s0)
    1b04:	00058793          	mv	a5,a1
    1b08:	fcf40da3          	sb	a5,-37(s0)
#   char *ptr = reinterpret_cast<char *>(str);
    1b0c:	fdc42783          	lw	a5,-36(s0)
    1b10:	0517c703          	lbu	a4,81(a5)
    1b14:	04f00793          	li	a5,79
    1b18:	00f71663          	bne	a4,a5,1b24 <_ZN12input_buffer6insertEc+0x30>
#   while (n--) {
    1b1c:	00000793          	li	a5,0
    1b20:	1100006f          	j	1c30 <_ZN12input_buffer6insertEc+0x13c>
#   return str;
    1b24:	fdc42783          	lw	a5,-36(s0)
    1b28:	0507c703          	lbu	a4,80(a5)
    1b2c:	fdc42783          	lw	a5,-36(s0)
    1b30:	0517c783          	lbu	a5,81(a5)
    1b34:	04f71c63          	bne	a4,a5,1b8c <_ZN12input_buffer6insertEc+0x98>
# }
    1b38:	fdc42783          	lw	a5,-36(s0)
    1b3c:	0507c783          	lbu	a5,80(a5)
    1b40:	00078713          	mv	a4,a5
    1b44:	fdc42783          	lw	a5,-36(s0)
    1b48:	00e787b3          	add	a5,a5,a4
    1b4c:	fdb44703          	lbu	a4,-37(s0)
    1b50:	00e78023          	sb	a4,0(a5)
    1b54:	fdc42783          	lw	a5,-36(s0)
    1b58:	0507c783          	lbu	a5,80(a5)
    1b5c:	00178793          	add	a5,a5,1
    1b60:	0ff7f713          	zext.b	a4,a5
    1b64:	fdc42783          	lw	a5,-36(s0)
    1b68:	04e78823          	sb	a4,80(a5)
    1b6c:	fdc42783          	lw	a5,-36(s0)
    1b70:	0517c783          	lbu	a5,81(a5)
    1b74:	00178793          	add	a5,a5,1
    1b78:	0ff7f713          	zext.b	a4,a5
    1b7c:	fdc42783          	lw	a5,-36(s0)
    1b80:	04e788a3          	sb	a4,81(a5)
    1b84:	00100793          	li	a5,1
    1b88:	0a80006f          	j	1c30 <_ZN12input_buffer6insertEc+0x13c>
    1b8c:	fdc42783          	lw	a5,-36(s0)
    1b90:	0517c783          	lbu	a5,81(a5)
    1b94:	00178793          	add	a5,a5,1
    1b98:	0ff7f713          	zext.b	a4,a5
    1b9c:	fdc42783          	lw	a5,-36(s0)
    1ba0:	04e788a3          	sb	a4,81(a5)
    1ba4:	fdc42783          	lw	a5,-36(s0)
    1ba8:	0517c783          	lbu	a5,81(a5)
    1bac:	fef42623          	sw	a5,-20(s0)
    1bb0:	0340006f          	j	1be4 <_ZN12input_buffer6insertEc+0xf0>
    1bb4:	fec42783          	lw	a5,-20(s0)
    1bb8:	fff78793          	add	a5,a5,-1
    1bbc:	fdc42703          	lw	a4,-36(s0)
    1bc0:	00f707b3          	add	a5,a4,a5
    1bc4:	0007c703          	lbu	a4,0(a5)
    1bc8:	fdc42683          	lw	a3,-36(s0)
    1bcc:	fec42783          	lw	a5,-20(s0)
    1bd0:	00f687b3          	add	a5,a3,a5
    1bd4:	00e78023          	sb	a4,0(a5)
    1bd8:	fec42783          	lw	a5,-20(s0)
    1bdc:	fff78793          	add	a5,a5,-1
    1be0:	fef42623          	sw	a5,-20(s0)
    1be4:	fdc42783          	lw	a5,-36(s0)
    1be8:	0507c783          	lbu	a5,80(a5)
    1bec:	00078713          	mv	a4,a5
    1bf0:	fec42783          	lw	a5,-20(s0)
    1bf4:	fcf760e3          	bltu	a4,a5,1bb4 <_ZN12input_buffer6insertEc+0xc0>
    1bf8:	fdc42783          	lw	a5,-36(s0)
    1bfc:	0507c783          	lbu	a5,80(a5)
    1c00:	00078713          	mv	a4,a5
    1c04:	fdc42783          	lw	a5,-36(s0)
    1c08:	00e787b3          	add	a5,a5,a4
    1c0c:	fdb44703          	lbu	a4,-37(s0)
    1c10:	00e78023          	sb	a4,0(a5)
    1c14:	fdc42783          	lw	a5,-36(s0)
    1c18:	0507c783          	lbu	a5,80(a5)
    1c1c:	00178793          	add	a5,a5,1
    1c20:	0ff7f713          	zext.b	a4,a5
    1c24:	fdc42783          	lw	a5,-36(s0)
    1c28:	04e78823          	sb	a4,80(a5)
    1c2c:	00100793          	li	a5,1
    1c30:	00078513          	mv	a0,a5
    1c34:	02c12403          	lw	s0,44(sp)
    1c38:	03010113          	add	sp,sp,48
    1c3c:	00008067          	ret

00001c40 <_ZN12input_buffer9backspaceEv>:
    1c40:	fd010113          	add	sp,sp,-48
    1c44:	02812623          	sw	s0,44(sp)
    1c48:	03010413          	add	s0,sp,48
    1c4c:	fca42e23          	sw	a0,-36(s0)
    1c50:	fdc42783          	lw	a5,-36(s0)
    1c54:	0507c783          	lbu	a5,80(a5)
    1c58:	00079663          	bnez	a5,1c64 <_ZN12input_buffer9backspaceEv+0x24>
    1c5c:	00000793          	li	a5,0
    1c60:	0dc0006f          	j	1d3c <_ZN12input_buffer9backspaceEv+0xfc>
    1c64:	fdc42783          	lw	a5,-36(s0)
    1c68:	0507c703          	lbu	a4,80(a5)
    1c6c:	fdc42783          	lw	a5,-36(s0)
    1c70:	0517c783          	lbu	a5,81(a5)
    1c74:	02f71e63          	bne	a4,a5,1cb0 <_ZN12input_buffer9backspaceEv+0x70>
    1c78:	fdc42783          	lw	a5,-36(s0)
    1c7c:	0517c783          	lbu	a5,81(a5)
    1c80:	fff78793          	add	a5,a5,-1
    1c84:	0ff7f713          	zext.b	a4,a5
    1c88:	fdc42783          	lw	a5,-36(s0)
    1c8c:	04e788a3          	sb	a4,81(a5)
    1c90:	fdc42783          	lw	a5,-36(s0)
    1c94:	0507c783          	lbu	a5,80(a5)
    1c98:	fff78793          	add	a5,a5,-1
    1c9c:	0ff7f713          	zext.b	a4,a5
    1ca0:	fdc42783          	lw	a5,-36(s0)
    1ca4:	04e78823          	sb	a4,80(a5)
    1ca8:	00100793          	li	a5,1
    1cac:	0900006f          	j	1d3c <_ZN12input_buffer9backspaceEv+0xfc>
    1cb0:	fdc42783          	lw	a5,-36(s0)
    1cb4:	0507c783          	lbu	a5,80(a5)
    1cb8:	fff78793          	add	a5,a5,-1
    1cbc:	fef42623          	sw	a5,-20(s0)
    1cc0:	0340006f          	j	1cf4 <_ZN12input_buffer9backspaceEv+0xb4>
    1cc4:	fec42783          	lw	a5,-20(s0)
    1cc8:	00178793          	add	a5,a5,1
    1ccc:	fdc42703          	lw	a4,-36(s0)
    1cd0:	00f707b3          	add	a5,a4,a5
    1cd4:	0007c703          	lbu	a4,0(a5)
    1cd8:	fdc42683          	lw	a3,-36(s0)
    1cdc:	fec42783          	lw	a5,-20(s0)
    1ce0:	00f687b3          	add	a5,a3,a5
    1ce4:	00e78023          	sb	a4,0(a5)
    1ce8:	fec42783          	lw	a5,-20(s0)
    1cec:	00178793          	add	a5,a5,1
    1cf0:	fef42623          	sw	a5,-20(s0)
    1cf4:	fdc42783          	lw	a5,-36(s0)
    1cf8:	0517c783          	lbu	a5,81(a5)
    1cfc:	00078713          	mv	a4,a5
    1d00:	fec42783          	lw	a5,-20(s0)
    1d04:	fce7e0e3          	bltu	a5,a4,1cc4 <_ZN12input_buffer9backspaceEv+0x84>
    1d08:	fdc42783          	lw	a5,-36(s0)
    1d0c:	0507c783          	lbu	a5,80(a5)
    1d10:	fff78793          	add	a5,a5,-1
    1d14:	0ff7f713          	zext.b	a4,a5
    1d18:	fdc42783          	lw	a5,-36(s0)
    1d1c:	04e78823          	sb	a4,80(a5)
    1d20:	fdc42783          	lw	a5,-36(s0)
    1d24:	0517c783          	lbu	a5,81(a5)
    1d28:	fff78793          	add	a5,a5,-1
    1d2c:	0ff7f713          	zext.b	a4,a5
    1d30:	fdc42783          	lw	a5,-36(s0)
    1d34:	04e788a3          	sb	a4,81(a5)
    1d38:	00100793          	li	a5,1
    1d3c:	00078513          	mv	a0,a5
    1d40:	02c12403          	lw	s0,44(sp)
    1d44:	03010113          	add	sp,sp,48
    1d48:	00008067          	ret

00001d4c <_ZN12input_buffer3delEv>:
    1d4c:	fd010113          	add	sp,sp,-48
    1d50:	02812623          	sw	s0,44(sp)
    1d54:	03010413          	add	s0,sp,48
    1d58:	fca42e23          	sw	a0,-36(s0)
    1d5c:	fdc42783          	lw	a5,-36(s0)
    1d60:	0507c703          	lbu	a4,80(a5)
    1d64:	fdc42783          	lw	a5,-36(s0)
    1d68:	0517c783          	lbu	a5,81(a5)
    1d6c:	06f70c63          	beq	a4,a5,1de4 <_ZN12input_buffer3delEv+0x98>
    1d70:	fdc42783          	lw	a5,-36(s0)
    1d74:	0507c783          	lbu	a5,80(a5)
    1d78:	00178793          	add	a5,a5,1
    1d7c:	fef42623          	sw	a5,-20(s0)
    1d80:	0340006f          	j	1db4 <_ZN12input_buffer3delEv+0x68>
    1d84:	fec42783          	lw	a5,-20(s0)
    1d88:	fff78793          	add	a5,a5,-1
    1d8c:	fdc42683          	lw	a3,-36(s0)
    1d90:	fec42703          	lw	a4,-20(s0)
    1d94:	00e68733          	add	a4,a3,a4
    1d98:	00074703          	lbu	a4,0(a4)
    1d9c:	fdc42683          	lw	a3,-36(s0)
    1da0:	00f687b3          	add	a5,a3,a5
    1da4:	00e78023          	sb	a4,0(a5)
    1da8:	fec42783          	lw	a5,-20(s0)
    1dac:	00178793          	add	a5,a5,1
    1db0:	fef42623          	sw	a5,-20(s0)
    1db4:	fdc42783          	lw	a5,-36(s0)
    1db8:	0517c783          	lbu	a5,81(a5)
    1dbc:	00078713          	mv	a4,a5
    1dc0:	fec42783          	lw	a5,-20(s0)
    1dc4:	fce7e0e3          	bltu	a5,a4,1d84 <_ZN12input_buffer3delEv+0x38>
    1dc8:	fdc42783          	lw	a5,-36(s0)
    1dcc:	0517c783          	lbu	a5,81(a5)
    1dd0:	fff78793          	add	a5,a5,-1
    1dd4:	0ff7f713          	zext.b	a4,a5
    1dd8:	fdc42783          	lw	a5,-36(s0)
    1ddc:	04e788a3          	sb	a4,81(a5)
    1de0:	0080006f          	j	1de8 <_ZN12input_buffer3delEv+0x9c>
    1de4:	00000013          	nop
    1de8:	02c12403          	lw	s0,44(sp)
    1dec:	03010113          	add	sp,sp,48
    1df0:	00008067          	ret

00001df4 <_ZN12input_buffer5resetEv>:
    1df4:	fe010113          	add	sp,sp,-32
    1df8:	00812e23          	sw	s0,28(sp)
    1dfc:	02010413          	add	s0,sp,32
    1e00:	fea42623          	sw	a0,-20(s0)
    1e04:	fec42783          	lw	a5,-20(s0)
    1e08:	040788a3          	sb	zero,81(a5)
    1e0c:	fec42783          	lw	a5,-20(s0)
    1e10:	0517c703          	lbu	a4,81(a5)
    1e14:	fec42783          	lw	a5,-20(s0)
    1e18:	04e78823          	sb	a4,80(a5)
    1e1c:	00000013          	nop
    1e20:	01c12403          	lw	s0,28(sp)
    1e24:	02010113          	add	sp,sp,32
    1e28:	00008067          	ret

00001e2c <_ZN12input_buffer7set_eosEv>:
    1e2c:	fe010113          	add	sp,sp,-32
    1e30:	00812e23          	sw	s0,28(sp)
    1e34:	02010413          	add	s0,sp,32
    1e38:	fea42623          	sw	a0,-20(s0)
    1e3c:	fec42783          	lw	a5,-20(s0)
    1e40:	0517c783          	lbu	a5,81(a5)
    1e44:	00078713          	mv	a4,a5
    1e48:	fec42783          	lw	a5,-20(s0)
    1e4c:	00e787b3          	add	a5,a5,a4
    1e50:	00078023          	sb	zero,0(a5)
    1e54:	00000013          	nop
    1e58:	01c12403          	lw	s0,28(sp)
    1e5c:	02010113          	add	sp,sp,32
    1e60:	00008067          	ret

00001e64 <_ZN12input_buffer4lineEv>:
    1e64:	fe010113          	add	sp,sp,-32
    1e68:	00812e23          	sw	s0,28(sp)
    1e6c:	02010413          	add	s0,sp,32
    1e70:	fea42623          	sw	a0,-20(s0)
    1e74:	fec42783          	lw	a5,-20(s0)
    1e78:	00078513          	mv	a0,a5
    1e7c:	01c12403          	lw	s0,28(sp)
    1e80:	02010113          	add	sp,sp,32
    1e84:	00008067          	ret

00001e88 <_ZN12input_buffer7is_fullEv>:
    1e88:	fe010113          	add	sp,sp,-32
    1e8c:	00812e23          	sw	s0,28(sp)
    1e90:	02010413          	add	s0,sp,32
    1e94:	fea42623          	sw	a0,-20(s0)
    1e98:	fec42783          	lw	a5,-20(s0)
    1e9c:	0517c783          	lbu	a5,81(a5)
    1ea0:	fb178793          	add	a5,a5,-79
    1ea4:	0017b793          	seqz	a5,a5
    1ea8:	0ff7f793          	zext.b	a5,a5
    1eac:	00078513          	mv	a0,a5
    1eb0:	01c12403          	lw	s0,28(sp)
    1eb4:	02010113          	add	sp,sp,32
    1eb8:	00008067          	ret

00001ebc <_ZN12input_buffer9end_indexEv>:
    1ebc:	fe010113          	add	sp,sp,-32
    1ec0:	00812e23          	sw	s0,28(sp)
    1ec4:	02010413          	add	s0,sp,32
    1ec8:	fea42623          	sw	a0,-20(s0)
    1ecc:	fec42783          	lw	a5,-20(s0)
    1ed0:	0517c783          	lbu	a5,81(a5)
    1ed4:	00078513          	mv	a0,a5
    1ed8:	01c12403          	lw	s0,28(sp)
    1edc:	02010113          	add	sp,sp,32
    1ee0:	00008067          	ret

00001ee4 <_ZN12input_buffer5indexEv>:
    1ee4:	fe010113          	add	sp,sp,-32
    1ee8:	00812e23          	sw	s0,28(sp)
    1eec:	02010413          	add	s0,sp,32
    1ef0:	fea42623          	sw	a0,-20(s0)
    1ef4:	fec42783          	lw	a5,-20(s0)
    1ef8:	0507c783          	lbu	a5,80(a5)
    1efc:	00078513          	mv	a0,a5
    1f00:	01c12403          	lw	s0,28(sp)
    1f04:	02010113          	add	sp,sp,32
    1f08:	00008067          	ret

00001f0c <_ZN12input_buffer16move_cursor_leftEv>:
    1f0c:	fe010113          	add	sp,sp,-32
    1f10:	00812e23          	sw	s0,28(sp)
    1f14:	02010413          	add	s0,sp,32
    1f18:	fea42623          	sw	a0,-20(s0)
    1f1c:	fec42783          	lw	a5,-20(s0)
    1f20:	0507c783          	lbu	a5,80(a5)
    1f24:	00079663          	bnez	a5,1f30 <_ZN12input_buffer16move_cursor_leftEv+0x24>
    1f28:	00000793          	li	a5,0
    1f2c:	0200006f          	j	1f4c <_ZN12input_buffer16move_cursor_leftEv+0x40>
    1f30:	fec42783          	lw	a5,-20(s0)
    1f34:	0507c783          	lbu	a5,80(a5)
    1f38:	fff78793          	add	a5,a5,-1
    1f3c:	0ff7f713          	zext.b	a4,a5
    1f40:	fec42783          	lw	a5,-20(s0)
    1f44:	04e78823          	sb	a4,80(a5)
    1f48:	00100793          	li	a5,1
    1f4c:	00078513          	mv	a0,a5
    1f50:	01c12403          	lw	s0,28(sp)
    1f54:	02010113          	add	sp,sp,32
    1f58:	00008067          	ret

00001f5c <_ZN12input_buffer17move_cursor_rightEv>:
    1f5c:	fe010113          	add	sp,sp,-32
    1f60:	00812e23          	sw	s0,28(sp)
    1f64:	02010413          	add	s0,sp,32
    1f68:	fea42623          	sw	a0,-20(s0)
    1f6c:	fec42783          	lw	a5,-20(s0)
    1f70:	0507c703          	lbu	a4,80(a5)
    1f74:	fec42783          	lw	a5,-20(s0)
    1f78:	0517c783          	lbu	a5,81(a5)
    1f7c:	00f71663          	bne	a4,a5,1f88 <_ZN12input_buffer17move_cursor_rightEv+0x2c>
    1f80:	00000793          	li	a5,0
    1f84:	0200006f          	j	1fa4 <_ZN12input_buffer17move_cursor_rightEv+0x48>
    1f88:	fec42783          	lw	a5,-20(s0)
    1f8c:	0507c783          	lbu	a5,80(a5)
    1f90:	00178793          	add	a5,a5,1
    1f94:	0ff7f713          	zext.b	a4,a5
    1f98:	fec42783          	lw	a5,-20(s0)
    1f9c:	04e78823          	sb	a4,80(a5)
    1fa0:	00100793          	li	a5,1
    1fa4:	00078513          	mv	a0,a5
    1fa8:	01c12403          	lw	s0,28(sp)
    1fac:	02010113          	add	sp,sp,32
    1fb0:	00008067          	ret
