
os:     file format elf32-littleriscv


Disassembly of section .text:

00000000 <_start>:
# # generated - do not edit (see `configuration.py`)
# .global _start
# _start:
#     li sp, 0x800000
       0:	00800137          	lui	sp,0x800
#     j run
       4:	0040006f          	j	8 <run>

00000008 <run>:
#         ++ptr;
#     }
#     return str;
# }
# 
# // built-in function called by compiler
       8:	f3010113          	addi	sp,sp,-208 # 7fff30 <__bss_end+0x7fdba8>
       c:	0c112623          	sw	ra,204(sp)
      10:	0c812423          	sw	s0,200(sp)
      14:	0d212023          	sw	s2,192(sp)
      18:	0b312e23          	sw	s3,188(sp)
      1c:	0b412c23          	sw	s4,184(sp)
      20:	0b512a23          	sw	s5,180(sp)
      24:	0c912223          	sw	s1,196(sp)
# extern "C" auto memcpy(void* dst, void const* src, size_t n) -> void* {
      28:	77c010ef          	jal	17a4 <initiate_bss()>
#     // initiate statics in freestanding build
# 
#     led_set(0b0000);
#     // turn on all leds
# 
#     uart_send_cstr(ascii_art);
      2c:	00002537          	lui	a0,0x2
      30:	88850513          	addi	a0,a0,-1912 # 1888 <void span<char>::for_each<string_print(span<char>)::{lambda(auto:1)#1}>(string_print(span<char>)::{lambda(auto:1)#1}&&) const [clone .isra.0]+0x74>
# static auto led_set(uint32_t const bits) -> void { *LED = bits; }
      34:	fe002e23          	sw	zero,-4(zero) # fffffffc <__bss_end+0xffffdc74>
      38:	548010ef          	jal	1580 <uart_send_cstr(char const*)>
#     uart_send_cstr(hello);
      3c:	00002537          	lui	a0,0x2
      40:	85850513          	addi	a0,a0,-1960 # 1858 <void span<char>::for_each<string_print(span<char>)::{lambda(auto:1)#1}>(string_print(span<char>)::{lambda(auto:1)#1}&&) const [clone .isra.0]+0x44>
      44:	53c010ef          	jal	1580 <uart_send_cstr(char const*)>
# 
#     mut active_entity = entity_id_t{1};
#     mut cmd_buf = command_buffer{};
      48:	0a800613          	li	a2,168
      4c:	00000593          	li	a1,0
      50:	00810513          	addi	a0,sp,8
      54:	710010ef          	jal	1764 <memset>
#     mut active_entity = entity_id_t{1};
      58:	00100413          	li	s0,1
# 
#     while (true) {
#         mut& ent = entity_by_id(active_entity);
#         print_location(ent.location, active_entity);
      5c:	00002ab7          	lui	s5,0x2
#         uart_send_cstr(ent.name);
#         uart_send_cstr(" > ");
      60:	00002a37          	lui	s4,0x2
#         input(cmd_buf);
#         uart_send_cstr("\r\n");
      64:	000029b7          	lui	s3,0x2
#         handle_input(active_entity, cmd_buf);
#         active_entity = active_entity == 1 ? 2 : 1;
      68:	00300913          	li	s2,3
#         print_location(ent.location, active_entity);
      6c:	00141793          	slli	a5,s0,0x1
      70:	008787b3          	add	a5,a5,s0
      74:	00279793          	slli	a5,a5,0x2
      78:	408787b3          	sub	a5,a5,s0
      7c:	00279793          	slli	a5,a5,0x2
      80:	fb4a8493          	addi	s1,s5,-76 # 1fb4 <entities>
      84:	00f484b3          	add	s1,s1,a5
      88:	0044c503          	lbu	a0,4(s1)
      8c:	00040593          	mv	a1,s0
      90:	494000ef          	jal	524 <print_location(unsigned char, unsigned char)>
#         uart_send_cstr(ent.name);
      94:	0004a503          	lw	a0,0(s1)
      98:	4e8010ef          	jal	1580 <uart_send_cstr(char const*)>
#         uart_send_cstr(" > ");
      9c:	c38a0513          	addi	a0,s4,-968 # 1c38 <void span<char>::for_each<string_print(span<char>)::{lambda(auto:1)#1}>(string_print(span<char>)::{lambda(auto:1)#1}&&) const [clone .isra.0]+0x424>
      a0:	4e0010ef          	jal	1580 <uart_send_cstr(char const*)>
#         input(cmd_buf);
      a4:	00810513          	addi	a0,sp,8
      a8:	02c010ef          	jal	10d4 <input(cursor_buffer<char, 160u>&)>
#         uart_send_cstr("\r\n");
      ac:	c8498513          	addi	a0,s3,-892 # 1c84 <void span<char>::for_each<string_print(span<char>)::{lambda(auto:1)#1}>(string_print(span<char>)::{lambda(auto:1)#1}&&) const [clone .isra.0]+0x470>
      b0:	4d0010ef          	jal	1580 <uart_send_cstr(char const*)>
#         handle_input(active_entity, cmd_buf);
      b4:	00040513          	mv	a0,s0
      b8:	00810593          	addi	a1,sp,8
#         active_entity = active_entity == 1 ? 2 : 1;
      bc:	40890433          	sub	s0,s2,s0
#         handle_input(active_entity, cmd_buf);
      c0:	100000ef          	jal	1c0 <handle_input(unsigned char, cursor_buffer<char, 160u>&)>
#         active_entity = active_entity == 1 ? 2 : 1;
      c4:	0ff47413          	zext.b	s0,s0
      c8:	fa5ff06f          	j	6c <run+0x64>

000000cc <string_equals_cstr(span<char>, char const*)>:
#     }
# }
# 
# static auto string_equals_cstr(string const str, cstr s) -> bool {
      cc:	ff010113          	addi	sp,sp,-16
      d0:	00a12423          	sw	a0,8(sp)
      d4:	00b12623          	sw	a1,12(sp)
#     mut e = str.for_each_until_false([&s](let ch) {
#         if (*s != '\0' && *s == ch) {
      d8:	00064783          	lbu	a5,0(a2)
#     }
# 
#     auto for_each_until_false(callable_returns_bool<Type> auto&& f) const
#         -> position {
#         Type* it = begin_;
#         for (; it < end_; ++it) {
      dc:	00b56e63          	bltu	a0,a1,f8 <string_equals_cstr(span<char>, char const*)+0x2c>
#             ++s;
#             return true;
#         }
#         return false;
#     });
#     return *s == '\0' && str.is_at_end(e);
      e0:	40b50533          	sub	a0,a0,a1
      e4:	00153593          	seqz	a1,a0
      e8:	0017b513          	seqz	a0,a5
# }
      ec:	00a5f533          	and	a0,a1,a0
      f0:	01010113          	addi	sp,sp,16
      f4:	00008067          	ret
#         if (*s != '\0' && *s == ch) {
      f8:	fe0784e3          	beqz	a5,e0 <string_equals_cstr(span<char>, char const*)+0x14>
      fc:	00054703          	lbu	a4,0(a0)
     100:	fef710e3          	bne	a4,a5,e0 <string_equals_cstr(span<char>, char const*)+0x14>
#             ++s;
     104:	00160613          	addi	a2,a2,1
     108:	00150513          	addi	a0,a0,1
     10c:	fcdff06f          	j	d8 <string_equals_cstr(span<char>, char const*)+0xc>

00000110 <string_print(span<char>)>:
# 
# static auto string_print(string const str) -> void {
     110:	fe010113          	addi	sp,sp,-32
     114:	00a12423          	sw	a0,8(sp)
#     str.for_each([](let ch) { uart_send_char(ch); });
     118:	00810513          	addi	a0,sp,8
# static auto string_print(string const str) -> void {
     11c:	00112e23          	sw	ra,28(sp)
     120:	00b12623          	sw	a1,12(sp)
#     str.for_each([](let ch) { uart_send_char(ch); });
     124:	6f0010ef          	jal	1814 <void span<char>::for_each<string_print(span<char>)::{lambda(auto:1)#1}>(string_print(span<char>)::{lambda(auto:1)#1}&&) const [clone .isra.0]>
# }
     128:	01c12083          	lw	ra,28(sp)
     12c:	02010113          	addi	sp,sp,32
     130:	00008067          	ret

00000134 <string_next_word(span<char>)>:
#     string word;
#     string rem;
# };
# 
# static auto string_next_word(string const str)
#     -> struct string_next_word_return {
     134:	fe010113          	addi	sp,sp,-32
     138:	00b12423          	sw	a1,8(sp)
     13c:	00c12623          	sw	a2,12(sp)
#         Type* it = begin_;
     140:	00058793          	mv	a5,a1
#             if (!f(*it)) {
     144:	02000713          	li	a4,32
#         for (; it < end_; ++it) {
     148:	00c7f663          	bgeu	a5,a2,154 <string_next_word(span<char>)+0x20>
#             if (!f(*it)) {
     14c:	0007c683          	lbu	a3,0(a5)
     150:	06e69063          	bne	a3,a4,1b0 <string_next_word(span<char>)+0x7c>
#     mut ce = str.for_each_until_false([](let ch) { return ch != ' '; });
#     let word = str.subspan_ending_at(ce);
     154:	00b12823          	sw	a1,16(sp)
#             if (begin_ > end_) {
     158:	00f5f463          	bgeu	a1,a5,160 <string_next_word(span<char>)+0x2c>
     15c:	00078593          	mv	a1,a5
     160:	00b12a23          	sw	a1,20(sp)
     164:	00078713          	mv	a4,a5
     168:	00c7f463          	bgeu	a5,a2,170 <string_next_word(span<char>)+0x3c>
     16c:	00060713          	mv	a4,a2
#             if (!f(*it)) {
     170:	02000693          	li	a3,32
#         for (; it < end_; ++it) {
     174:	00e7f663          	bgeu	a5,a4,180 <string_next_word(span<char>)+0x4c>
#             if (!f(*it)) {
     178:	0007c603          	lbu	a2,0(a5)
     17c:	02d60e63          	beq	a2,a3,1b8 <string_next_word(span<char>)+0x84>
     180:	00f12c23          	sw	a5,24(sp)
#             if (begin_ > end_) {
     184:	00f77463          	bgeu	a4,a5,18c <string_next_word(span<char>)+0x58>
     188:	00078713          	mv	a4,a5
#     let rem = str.subspan_starting_at(ce);
#     let rem_trimmed = rem.subspan_starting_at(
#         rem.for_each_until_false([](let ch) { return ch == ' '; }));
#     return {word, rem_trimmed};
     18c:	01012783          	lw	a5,16(sp)
     190:	00e52623          	sw	a4,12(a0)
     194:	00f52023          	sw	a5,0(a0)
     198:	01412783          	lw	a5,20(sp)
     19c:	00f52223          	sw	a5,4(a0)
     1a0:	01812783          	lw	a5,24(sp)
     1a4:	00f52423          	sw	a5,8(a0)
# }
     1a8:	02010113          	addi	sp,sp,32
     1ac:	00008067          	ret
#         for (; it < end_; ++it) {
     1b0:	00178793          	addi	a5,a5,1
     1b4:	f95ff06f          	j	148 <string_next_word(span<char>)+0x14>
     1b8:	00178793          	addi	a5,a5,1
     1bc:	fb9ff06f          	j	174 <string_next_word(span<char>)+0x40>

000001c0 <handle_input(unsigned char, cursor_buffer<char, 160u>&)>:
#         : begin_{begin}, end_{begin + size} {}
     1c0:	0a45a783          	lw	a5,164(a1)
# 
# static auto
# handle_input(entity_id_t const eid, command_buffer& cmd_buf) -> void {
     1c4:	fb010113          	addi	sp,sp,-80
     1c8:	05212023          	sw	s2,64(sp)
# 
#     let line = cmd_buf.span();
#     let w1 = string_next_word(line);
     1cc:	00f58633          	add	a2,a1,a5
# handle_input(entity_id_t const eid, command_buffer& cmd_buf) -> void {
     1d0:	00050913          	mv	s2,a0
#     let w1 = string_next_word(line);
     1d4:	02010513          	addi	a0,sp,32
# handle_input(entity_id_t const eid, command_buffer& cmd_buf) -> void {
     1d8:	04812423          	sw	s0,72(sp)
     1dc:	04912223          	sw	s1,68(sp)
     1e0:	03312e23          	sw	s3,60(sp)
     1e4:	03412c23          	sw	s4,56(sp)
     1e8:	04112623          	sw	ra,76(sp)
#     let w1 = string_next_word(line);
     1ec:	f49ff0ef          	jal	134 <string_next_word(span<char>)>
#     let cmd = w1.word;
     1f0:	02012483          	lw	s1,32(sp)
     1f4:	02412403          	lw	s0,36(sp)
#     let args = w1.rem;
     1f8:	02812a03          	lw	s4,40(sp)
     1fc:	02c12983          	lw	s3,44(sp)
# 
#     if (string_equals_cstr(cmd, "help")) {
     200:	00002637          	lui	a2,0x2
     204:	c3c60613          	addi	a2,a2,-964 # 1c3c <void span<char>::for_each<string_print(span<char>)::{lambda(auto:1)#1}>(string_print(span<char>)::{lambda(auto:1)#1}&&) const [clone .isra.0]+0x428>
     208:	00048513          	mv	a0,s1
     20c:	00040593          	mv	a1,s0
#     let cmd = w1.word;
     210:	00912823          	sw	s1,16(sp)
     214:	00812a23          	sw	s0,20(sp)
#     let args = w1.rem;
     218:	01412c23          	sw	s4,24(sp)
     21c:	01312e23          	sw	s3,28(sp)
#     if (string_equals_cstr(cmd, "help")) {
     220:	eadff0ef          	jal	cc <string_equals_cstr(span<char>, char const*)>
     224:	02050263          	beqz	a0,248 <handle_input(unsigned char, cursor_buffer<char, 160u>&)+0x88>
#     } else if (string_equals_cstr(cmd, "q")) {
#         exit(0);
#     } else {
#         uart_send_cstr("not understood\r\n\r\n");
#     }
# }
     228:	04812403          	lw	s0,72(sp)
     22c:	04c12083          	lw	ra,76(sp)
     230:	04412483          	lw	s1,68(sp)
     234:	04012903          	lw	s2,64(sp)
     238:	03c12983          	lw	s3,60(sp)
     23c:	03812a03          	lw	s4,56(sp)
     240:	05010113          	addi	sp,sp,80
#         print_help();
     244:	6850006f          	j	10c8 <print_help()>
#     } else if (string_equals_cstr(cmd, "i")) {
     248:	00002637          	lui	a2,0x2
     24c:	c4460613          	addi	a2,a2,-956 # 1c44 <void span<char>::for_each<string_print(span<char>)::{lambda(auto:1)#1}>(string_print(span<char>)::{lambda(auto:1)#1}&&) const [clone .isra.0]+0x430>
     250:	00048513          	mv	a0,s1
     254:	00040593          	mv	a1,s0
     258:	e75ff0ef          	jal	cc <string_equals_cstr(span<char>, char const*)>
     25c:	02050a63          	beqz	a0,290 <handle_input(unsigned char, cursor_buffer<char, 160u>&)+0xd0>
#         action_inventory(eid);
     260:	00090513          	mv	a0,s2
     264:	4b8000ef          	jal	71c <action_inventory(unsigned char)>
#         uart_send_cstr("\r\n");
     268:	00002537          	lui	a0,0x2
     26c:	c8450513          	addi	a0,a0,-892 # 1c84 <void span<char>::for_each<string_print(span<char>)::{lambda(auto:1)#1}>(string_print(span<char>)::{lambda(auto:1)#1}&&) const [clone .isra.0]+0x470>
# }
     270:	04812403          	lw	s0,72(sp)
     274:	04c12083          	lw	ra,76(sp)
     278:	04412483          	lw	s1,68(sp)
     27c:	04012903          	lw	s2,64(sp)
     280:	03c12983          	lw	s3,60(sp)
     284:	03812a03          	lw	s4,56(sp)
     288:	05010113          	addi	sp,sp,80
#         uart_send_cstr("not understood\r\n\r\n");
     28c:	2f40106f          	j	1580 <uart_send_cstr(char const*)>
#     } else if (string_equals_cstr(cmd, "t")) {
     290:	00002637          	lui	a2,0x2
     294:	c4860613          	addi	a2,a2,-952 # 1c48 <void span<char>::for_each<string_print(span<char>)::{lambda(auto:1)#1}>(string_print(span<char>)::{lambda(auto:1)#1}&&) const [clone .isra.0]+0x434>
     298:	00048513          	mv	a0,s1
     29c:	00040593          	mv	a1,s0
     2a0:	e2dff0ef          	jal	cc <string_equals_cstr(span<char>, char const*)>
     2a4:	02050863          	beqz	a0,2d4 <handle_input(unsigned char, cursor_buffer<char, 160u>&)+0x114>
# }
     2a8:	04812403          	lw	s0,72(sp)
     2ac:	04c12083          	lw	ra,76(sp)
     2b0:	04412483          	lw	s1,68(sp)
#         action_take(eid, args);
     2b4:	000a0593          	mv	a1,s4
     2b8:	00098613          	mv	a2,s3
# }
     2bc:	03812a03          	lw	s4,56(sp)
     2c0:	03c12983          	lw	s3,60(sp)
#         action_take(eid, args);
     2c4:	00090513          	mv	a0,s2
# }
     2c8:	04012903          	lw	s2,64(sp)
     2cc:	05010113          	addi	sp,sp,80
#         action_take(eid, args);
     2d0:	5380006f          	j	808 <action_take(unsigned char, span<char>)>
#     } else if (string_equals_cstr(cmd, "d")) {
     2d4:	00002637          	lui	a2,0x2
     2d8:	c4c60613          	addi	a2,a2,-948 # 1c4c <void span<char>::for_each<string_print(span<char>)::{lambda(auto:1)#1}>(string_print(span<char>)::{lambda(auto:1)#1}&&) const [clone .isra.0]+0x438>
     2dc:	00048513          	mv	a0,s1
     2e0:	00040593          	mv	a1,s0
     2e4:	de9ff0ef          	jal	cc <string_equals_cstr(span<char>, char const*)>
     2e8:	02050863          	beqz	a0,318 <handle_input(unsigned char, cursor_buffer<char, 160u>&)+0x158>
# }
     2ec:	04812403          	lw	s0,72(sp)
     2f0:	04c12083          	lw	ra,76(sp)
     2f4:	04412483          	lw	s1,68(sp)
#         action_drop(eid, args);
     2f8:	000a0593          	mv	a1,s4
     2fc:	00098613          	mv	a2,s3
# }
     300:	03812a03          	lw	s4,56(sp)
     304:	03c12983          	lw	s3,60(sp)
#         action_drop(eid, args);
     308:	00090513          	mv	a0,s2
# }
     30c:	04012903          	lw	s2,64(sp)
     310:	05010113          	addi	sp,sp,80
#         action_drop(eid, args);
     314:	6b00006f          	j	9c4 <action_drop(unsigned char, span<char>)>
#     } else if (string_equals_cstr(cmd, "n")) {
     318:	00002637          	lui	a2,0x2
     31c:	00040593          	mv	a1,s0
     320:	c5060613          	addi	a2,a2,-944 # 1c50 <void span<char>::for_each<string_print(span<char>)::{lambda(auto:1)#1}>(string_print(span<char>)::{lambda(auto:1)#1}&&) const [clone .isra.0]+0x43c>
     324:	00048513          	mv	a0,s1
     328:	da5ff0ef          	jal	cc <string_equals_cstr(span<char>, char const*)>
#         action_go(eid, 1);
     32c:	00100593          	li	a1,1
#     } else if (string_equals_cstr(cmd, "n")) {
     330:	02051063          	bnez	a0,350 <handle_input(unsigned char, cursor_buffer<char, 160u>&)+0x190>
#     } else if (string_equals_cstr(cmd, "e")) {
     334:	00002637          	lui	a2,0x2
     338:	bec60613          	addi	a2,a2,-1044 # 1bec <void span<char>::for_each<string_print(span<char>)::{lambda(auto:1)#1}>(string_print(span<char>)::{lambda(auto:1)#1}&&) const [clone .isra.0]+0x3d8>
     33c:	00048513          	mv	a0,s1
     340:	00040593          	mv	a1,s0
     344:	d89ff0ef          	jal	cc <string_equals_cstr(span<char>, char const*)>
     348:	02050663          	beqz	a0,374 <handle_input(unsigned char, cursor_buffer<char, 160u>&)+0x1b4>
#         action_go(eid, 2);
     34c:	00200593          	li	a1,2
# }
     350:	04812403          	lw	s0,72(sp)
     354:	04c12083          	lw	ra,76(sp)
     358:	04412483          	lw	s1,68(sp)
     35c:	03c12983          	lw	s3,60(sp)
     360:	03812a03          	lw	s4,56(sp)
#         action_go(eid, 2);
     364:	00090513          	mv	a0,s2
# }
     368:	04012903          	lw	s2,64(sp)
     36c:	05010113          	addi	sp,sp,80
#         action_go(eid, 2);
     370:	0110006f          	j	b80 <action_go(unsigned char, unsigned char)>
#     } else if (string_equals_cstr(cmd, "s")) {
     374:	00002637          	lui	a2,0x2
     378:	00040593          	mv	a1,s0
     37c:	c5460613          	addi	a2,a2,-940 # 1c54 <void span<char>::for_each<string_print(span<char>)::{lambda(auto:1)#1}>(string_print(span<char>)::{lambda(auto:1)#1}&&) const [clone .isra.0]+0x440>
     380:	00048513          	mv	a0,s1
     384:	d49ff0ef          	jal	cc <string_equals_cstr(span<char>, char const*)>
#         action_go(eid, 3);
     388:	00300593          	li	a1,3
#     } else if (string_equals_cstr(cmd, "s")) {
     38c:	fc0512e3          	bnez	a0,350 <handle_input(unsigned char, cursor_buffer<char, 160u>&)+0x190>
#     } else if (string_equals_cstr(cmd, "w")) {
     390:	00002637          	lui	a2,0x2
     394:	00040593          	mv	a1,s0
     398:	c5860613          	addi	a2,a2,-936 # 1c58 <void span<char>::for_each<string_print(span<char>)::{lambda(auto:1)#1}>(string_print(span<char>)::{lambda(auto:1)#1}&&) const [clone .isra.0]+0x444>
     39c:	00048513          	mv	a0,s1
     3a0:	d2dff0ef          	jal	cc <string_equals_cstr(span<char>, char const*)>
#         action_go(eid, 4);
     3a4:	00400593          	li	a1,4
#     } else if (string_equals_cstr(cmd, "w")) {
     3a8:	fa0514e3          	bnez	a0,350 <handle_input(unsigned char, cursor_buffer<char, 160u>&)+0x190>
#     } else if (string_equals_cstr(cmd, "g")) {
     3ac:	00002637          	lui	a2,0x2
     3b0:	c5c60613          	addi	a2,a2,-932 # 1c5c <void span<char>::for_each<string_print(span<char>)::{lambda(auto:1)#1}>(string_print(span<char>)::{lambda(auto:1)#1}&&) const [clone .isra.0]+0x448>
     3b4:	00048513          	mv	a0,s1
     3b8:	00040593          	mv	a1,s0
     3bc:	d11ff0ef          	jal	cc <string_equals_cstr(span<char>, char const*)>
     3c0:	02050863          	beqz	a0,3f0 <handle_input(unsigned char, cursor_buffer<char, 160u>&)+0x230>
# }
     3c4:	04812403          	lw	s0,72(sp)
     3c8:	04c12083          	lw	ra,76(sp)
     3cc:	04412483          	lw	s1,68(sp)
#         action_give(eid, args);
     3d0:	000a0593          	mv	a1,s4
     3d4:	00098613          	mv	a2,s3
# }
     3d8:	03812a03          	lw	s4,56(sp)
     3dc:	03c12983          	lw	s3,60(sp)
#         action_give(eid, args);
     3e0:	00090513          	mv	a0,s2
# }
     3e4:	04012903          	lw	s2,64(sp)
     3e8:	05010113          	addi	sp,sp,80
#         action_give(eid, args);
     3ec:	0c90006f          	j	cb4 <action_give(unsigned char, span<char>)>
#     } else if (string_equals_cstr(cmd, "m")) {
     3f0:	00002637          	lui	a2,0x2
     3f4:	c6060613          	addi	a2,a2,-928 # 1c60 <void span<char>::for_each<string_print(span<char>)::{lambda(auto:1)#1}>(string_print(span<char>)::{lambda(auto:1)#1}&&) const [clone .isra.0]+0x44c>
     3f8:	00048513          	mv	a0,s1
     3fc:	00040593          	mv	a1,s0
     400:	ccdff0ef          	jal	cc <string_equals_cstr(span<char>, char const*)>
     404:	02050263          	beqz	a0,428 <handle_input(unsigned char, cursor_buffer<char, 160u>&)+0x268>
# }
     408:	04812403          	lw	s0,72(sp)
     40c:	04c12083          	lw	ra,76(sp)
     410:	04412483          	lw	s1,68(sp)
     414:	04012903          	lw	s2,64(sp)
     418:	03c12983          	lw	s3,60(sp)
     41c:	03812a03          	lw	s4,56(sp)
     420:	05010113          	addi	sp,sp,80
#         action_mem_test();
     424:	1a80106f          	j	15cc <action_mem_test()>
#     } else if (string_equals_cstr(cmd, "sds")) {
     428:	01012503          	lw	a0,16(sp)
     42c:	01412583          	lw	a1,20(sp)
     430:	00002637          	lui	a2,0x2
     434:	c6460613          	addi	a2,a2,-924 # 1c64 <void span<char>::for_each<string_print(span<char>)::{lambda(auto:1)#1}>(string_print(span<char>)::{lambda(auto:1)#1}&&) const [clone .isra.0]+0x450>
     438:	c95ff0ef          	jal	cc <string_equals_cstr(span<char>, char const*)>
     43c:	02050263          	beqz	a0,460 <handle_input(unsigned char, cursor_buffer<char, 160u>&)+0x2a0>
# }
     440:	04812403          	lw	s0,72(sp)
     444:	04c12083          	lw	ra,76(sp)
     448:	04412483          	lw	s1,68(sp)
     44c:	04012903          	lw	s2,64(sp)
     450:	03c12983          	lw	s3,60(sp)
     454:	03812a03          	lw	s4,56(sp)
     458:	05010113          	addi	sp,sp,80
#         action_sdcard_status();
     45c:	2700106f          	j	16cc <action_sdcard_status()>
#     } else if (string_equals_cstr(cmd, "sdr")) {
     460:	01012503          	lw	a0,16(sp)
     464:	01412583          	lw	a1,20(sp)
     468:	00002637          	lui	a2,0x2
     46c:	c6860613          	addi	a2,a2,-920 # 1c68 <void span<char>::for_each<string_print(span<char>)::{lambda(auto:1)#1}>(string_print(span<char>)::{lambda(auto:1)#1}&&) const [clone .isra.0]+0x454>
     470:	c5dff0ef          	jal	cc <string_equals_cstr(span<char>, char const*)>
     474:	02050663          	beqz	a0,4a0 <handle_input(unsigned char, cursor_buffer<char, 160u>&)+0x2e0>
# }
     478:	04812403          	lw	s0,72(sp)
#         action_sdcard_read(args);
     47c:	01812503          	lw	a0,24(sp)
     480:	01c12583          	lw	a1,28(sp)
# }
     484:	04c12083          	lw	ra,76(sp)
     488:	04412483          	lw	s1,68(sp)
     48c:	04012903          	lw	s2,64(sp)
     490:	03c12983          	lw	s3,60(sp)
     494:	03812a03          	lw	s4,56(sp)
     498:	05010113          	addi	sp,sp,80
#         action_sdcard_read(args);
     49c:	2e90006f          	j	f84 <action_sdcard_read(span<char>)>
#     } else if (string_equals_cstr(cmd, "sdw")) {
     4a0:	01012503          	lw	a0,16(sp)
     4a4:	01412583          	lw	a1,20(sp)
     4a8:	00002637          	lui	a2,0x2
     4ac:	c6c60613          	addi	a2,a2,-916 # 1c6c <void span<char>::for_each<string_print(span<char>)::{lambda(auto:1)#1}>(string_print(span<char>)::{lambda(auto:1)#1}&&) const [clone .isra.0]+0x458>
     4b0:	c1dff0ef          	jal	cc <string_equals_cstr(span<char>, char const*)>
     4b4:	02050663          	beqz	a0,4e0 <handle_input(unsigned char, cursor_buffer<char, 160u>&)+0x320>
# }
     4b8:	04812403          	lw	s0,72(sp)
#         action_sdcard_write(args);
     4bc:	01812503          	lw	a0,24(sp)
     4c0:	01c12583          	lw	a1,28(sp)
# }
     4c4:	04c12083          	lw	ra,76(sp)
     4c8:	04412483          	lw	s1,68(sp)
     4cc:	04012903          	lw	s2,64(sp)
     4d0:	03c12983          	lw	s3,60(sp)
     4d4:	03812a03          	lw	s4,56(sp)
     4d8:	05010113          	addi	sp,sp,80
#         action_sdcard_write(args);
     4dc:	3390006f          	j	1014 <action_sdcard_write(span<char>)>
#     } else if (string_equals_cstr(cmd, "q")) {
     4e0:	01012503          	lw	a0,16(sp)
     4e4:	01412583          	lw	a1,20(sp)
     4e8:	00002637          	lui	a2,0x2
     4ec:	c7060613          	addi	a2,a2,-912 # 1c70 <void span<char>::for_each<string_print(span<char>)::{lambda(auto:1)#1}>(string_print(span<char>)::{lambda(auto:1)#1}&&) const [clone .isra.0]+0x45c>
     4f0:	bddff0ef          	jal	cc <string_equals_cstr(span<char>, char const*)>
     4f4:	00051863          	bnez	a0,504 <handle_input(unsigned char, cursor_buffer<char, 160u>&)+0x344>
#         uart_send_cstr("not understood\r\n\r\n");
     4f8:	00002537          	lui	a0,0x2
     4fc:	c7450513          	addi	a0,a0,-908 # 1c74 <void span<char>::for_each<string_print(span<char>)::{lambda(auto:1)#1}>(string_print(span<char>)::{lambda(auto:1)#1}&&) const [clone .isra.0]+0x460>
     500:	d71ff06f          	j	270 <handle_input(unsigned char, cursor_buffer<char, 160u>&)+0xb0>
# }
     504:	04c12083          	lw	ra,76(sp)
     508:	04812403          	lw	s0,72(sp)
     50c:	04412483          	lw	s1,68(sp)
     510:	04012903          	lw	s2,64(sp)
     514:	03c12983          	lw	s3,60(sp)
     518:	03812a03          	lw	s4,56(sp)
     51c:	05010113          	addi	sp,sp,80
     520:	00008067          	ret

00000524 <print_location(unsigned char, unsigned char)>:
# 
# static auto print_location(location_id_t const lid,
#                            entity_id_t const eid_excluded_from_output) -> void {
     524:	fd010113          	addi	sp,sp,-48
     528:	02812423          	sw	s0,40(sp)
     52c:	03212023          	sw	s2,32(sp)
     530:	02112623          	sw	ra,44(sp)
     534:	02912223          	sw	s1,36(sp)
     538:	01312e23          	sw	s3,28(sp)
     53c:	01412c23          	sw	s4,24(sp)
     540:	01512a23          	sw	s5,20(sp)
     544:	01612823          	sw	s6,16(sp)
     548:	01712623          	sw	s7,12(sp)
     54c:	01812423          	sw	s8,8(sp)
#     return objects[id];
# }
# 
# static auto location_by_id(location_id_t const id) -> location& {
#     if constexpr (safe_arrays) {
#         if (id >= sizeof(locations) / sizeof(location)) {
     550:	00400713          	li	a4,4
#                            entity_id_t const eid_excluded_from_output) -> void {
     554:	00058913          	mv	s2,a1
     558:	00002437          	lui	s0,0x2
#         if (id >= sizeof(locations) / sizeof(location)) {
     55c:	10a76663          	bltu	a4,a0,668 <print_location(unsigned char, unsigned char)+0x144>
     560:	03840793          	addi	a5,s0,56 # 2038 <locations>
#             return locations[0];
#         }
#     }
#     return locations[id];
     564:	00251413          	slli	s0,a0,0x2
     568:	00a40433          	add	s0,s0,a0
     56c:	00341413          	slli	s0,s0,0x3
     570:	00a40433          	add	s0,s0,a0
     574:	00241413          	slli	s0,s0,0x2
     578:	00878433          	add	s0,a5,s0
#     uart_send_cstr("u r in ");
     57c:	00002537          	lui	a0,0x2
     580:	c8850513          	addi	a0,a0,-888 # 1c88 <void span<char>::for_each<string_print(span<char>)::{lambda(auto:1)#1}>(string_print(span<char>)::{lambda(auto:1)#1}&&) const [clone .isra.0]+0x474>
     584:	7fd000ef          	jal	1580 <uart_send_cstr(char const*)>
#     uart_send_cstr(loc.name);
     588:	00042503          	lw	a0,0(s0)
     58c:	000029b7          	lui	s3,0x2
#         }
#         return data[pos.index];
#     }
# 
#     auto for_each(callable_returns_void<Type> auto&& f) const -> void {
#         for (size_t i = 0; i < len; ++i) {
     590:	00000493          	li	s1,0
     594:	7ed000ef          	jal	1580 <uart_send_cstr(char const*)>
#     uart_send_cstr("\r\nu c: ");
     598:	00002537          	lui	a0,0x2
     59c:	c9050513          	addi	a0,a0,-880 # 1c90 <void span<char>::for_each<string_print(span<char>)::{lambda(auto:1)#1}>(string_print(span<char>)::{lambda(auto:1)#1}&&) const [clone .isra.0]+0x47c>
     5a0:	7e1000ef          	jal	1580 <uart_send_cstr(char const*)>
#                 uart_send_cstr(", ");
     5a4:	00002ab7          	lui	s5,0x2
#         if (id >= sizeof(objects) / sizeof(object)) {
     5a8:	00300b13          	li	s6,3
     5ac:	fa498993          	addi	s3,s3,-92 # 1fa4 <objects>
     5b0:	09442783          	lw	a5,148(s0)
     5b4:	0af4ee63          	bltu	s1,a5,670 <print_location(unsigned char, unsigned char)+0x14c>
#         if (!counter) {
     5b8:	00049863          	bnez	s1,5c8 <print_location(unsigned char, unsigned char)+0xa4>
#             uart_send_cstr("nothing");
     5bc:	00002537          	lui	a0,0x2
     5c0:	c9c50513          	addi	a0,a0,-868 # 1c9c <void span<char>::for_each<string_print(span<char>)::{lambda(auto:1)#1}>(string_print(span<char>)::{lambda(auto:1)#1}&&) const [clone .isra.0]+0x488>
     5c4:	7bd000ef          	jal	1580 <uart_send_cstr(char const*)>
#         uart_send_cstr("\r\n");
     5c8:	000029b7          	lui	s3,0x2
     5cc:	c8498513          	addi	a0,s3,-892 # 1c84 <void span<char>::for_each<string_print(span<char>)::{lambda(auto:1)#1}>(string_print(span<char>)::{lambda(auto:1)#1}&&) const [clone .isra.0]+0x470>
     5d0:	7b1000ef          	jal	1580 <uart_send_cstr(char const*)>
#         loc.entities.for_each([&counter, eid_excluded_from_output](let id) {
     5d4:	000024b7          	lui	s1,0x2
#         mut counter = 0;
     5d8:	00000793          	li	a5,0
     5dc:	00000c13          	li	s8,0
#         if (id >= sizeof(entities) / sizeof(entity)) {
     5e0:	00200a13          	li	s4,2
     5e4:	fb448493          	addi	s1,s1,-76 # 1fb4 <entities>
#                 uart_send_cstr(", ");
     5e8:	00002ab7          	lui	s5,0x2
     5ec:	0a042703          	lw	a4,160(s0)
     5f0:	0aec6a63          	bltu	s8,a4,6a4 <print_location(unsigned char, unsigned char)+0x180>
#         if (counter != 0) {
     5f4:	00078863          	beqz	a5,604 <print_location(unsigned char, unsigned char)+0xe0>
#             uart_send_cstr(" is here\r\n");
     5f8:	00002537          	lui	a0,0x2
     5fc:	ca450513          	addi	a0,a0,-860 # 1ca4 <void span<char>::for_each<string_print(span<char>)::{lambda(auto:1)#1}>(string_print(span<char>)::{lambda(auto:1)#1}&&) const [clone .isra.0]+0x490>
     600:	781000ef          	jal	1580 <uart_send_cstr(char const*)>
#         uart_send_cstr("exits: ");
     604:	00002537          	lui	a0,0x2
     608:	cb050513          	addi	a0,a0,-848 # 1cb0 <void span<char>::for_each<string_print(span<char>)::{lambda(auto:1)#1}>(string_print(span<char>)::{lambda(auto:1)#1}&&) const [clone .isra.0]+0x49c>
     60c:	775000ef          	jal	1580 <uart_send_cstr(char const*)>
#         lse.for_each([&counter](let& lnk) {
     610:	00440913          	addi	s2,s0,4
     614:	00000493          	li	s1,0
#                 uart_send_cstr(", ");
     618:	00002a37          	lui	s4,0x2
     61c:	01042783          	lw	a5,16(s0)
     620:	0cf4ea63          	bltu	s1,a5,6f4 <print_location(unsigned char, unsigned char)+0x1d0>
#         if (counter == 0) {
     624:	00049863          	bnez	s1,634 <print_location(unsigned char, unsigned char)+0x110>
#             uart_send_cstr("none");
     628:	00002537          	lui	a0,0x2
     62c:	cb850513          	addi	a0,a0,-840 # 1cb8 <void span<char>::for_each<string_print(span<char>)::{lambda(auto:1)#1}>(string_print(span<char>)::{lambda(auto:1)#1}&&) const [clone .isra.0]+0x4a4>
     630:	751000ef          	jal	1580 <uart_send_cstr(char const*)>
# }
     634:	02812403          	lw	s0,40(sp)
     638:	02c12083          	lw	ra,44(sp)
     63c:	02412483          	lw	s1,36(sp)
     640:	02012903          	lw	s2,32(sp)
     644:	01812a03          	lw	s4,24(sp)
     648:	01412a83          	lw	s5,20(sp)
     64c:	01012b03          	lw	s6,16(sp)
     650:	00c12b83          	lw	s7,12(sp)
     654:	00812c03          	lw	s8,8(sp)
#         uart_send_cstr("\r\n");
     658:	c8498513          	addi	a0,s3,-892
# }
     65c:	01c12983          	lw	s3,28(sp)
     660:	03010113          	addi	sp,sp,48
#         uart_send_cstr("\r\n");
     664:	71d0006f          	j	1580 <uart_send_cstr(char const*)>
     668:	03840413          	addi	s0,s0,56
     66c:	f11ff06f          	j	57c <print_location(unsigned char, unsigned char)+0x58>
#             f(data[i]);
     670:	009407b3          	add	a5,s0,s1
     674:	0147ca03          	lbu	s4,20(a5)
#             if (counter++) {
     678:	00048663          	beqz	s1,684 <print_location(unsigned char, unsigned char)+0x160>
#                 uart_send_cstr(", ");
     67c:	c98a8513          	addi	a0,s5,-872 # 1c98 <void span<char>::for_each<string_print(span<char>)::{lambda(auto:1)#1}>(string_print(span<char>)::{lambda(auto:1)#1}&&) const [clone .isra.0]+0x484>
     680:	701000ef          	jal	1580 <uart_send_cstr(char const*)>
#             return objects[0];
     684:	00098793          	mv	a5,s3
#         if (id >= sizeof(objects) / sizeof(object)) {
     688:	014b6663          	bltu	s6,s4,694 <print_location(unsigned char, unsigned char)+0x170>
#     return objects[id];
     68c:	002a1a13          	slli	s4,s4,0x2
     690:	014987b3          	add	a5,s3,s4
#             uart_send_cstr(object_by_id(id).name);
     694:	0007a503          	lw	a0,0(a5)
#         for (size_t i = 0; i < len; ++i) {
     698:	00148493          	addi	s1,s1,1
     69c:	6e5000ef          	jal	1580 <uart_send_cstr(char const*)>
     6a0:	f11ff06f          	j	5b0 <print_location(unsigned char, unsigned char)+0x8c>
#             f(data[i]);
     6a4:	01840733          	add	a4,s0,s8
     6a8:	09874b83          	lbu	s7,152(a4)
#             if (id == eid_excluded_from_output) {
     6ac:	05790063          	beq	s2,s7,6ec <print_location(unsigned char, unsigned char)+0x1c8>
#             if (counter++) {
     6b0:	00178b13          	addi	s6,a5,1
     6b4:	00078663          	beqz	a5,6c0 <print_location(unsigned char, unsigned char)+0x19c>
#                 uart_send_cstr(", ");
     6b8:	c98a8513          	addi	a0,s5,-872
     6bc:	6c5000ef          	jal	1580 <uart_send_cstr(char const*)>
#             return entities[0];
     6c0:	00048793          	mv	a5,s1
#         if (id >= sizeof(entities) / sizeof(entity)) {
     6c4:	017a6e63          	bltu	s4,s7,6e0 <print_location(unsigned char, unsigned char)+0x1bc>
#     return entities[id];
     6c8:	001b9793          	slli	a5,s7,0x1
     6cc:	017787b3          	add	a5,a5,s7
     6d0:	00279793          	slli	a5,a5,0x2
     6d4:	417787b3          	sub	a5,a5,s7
     6d8:	00279793          	slli	a5,a5,0x2
     6dc:	00f487b3          	add	a5,s1,a5
#             uart_send_cstr(entity_by_id(id).name);
     6e0:	0007a503          	lw	a0,0(a5)
     6e4:	69d000ef          	jal	1580 <uart_send_cstr(char const*)>
#             if (counter++) {
     6e8:	000b0793          	mv	a5,s6
#         for (size_t i = 0; i < len; ++i) {
     6ec:	001c0c13          	addi	s8,s8,1
     6f0:	efdff06f          	j	5ec <print_location(unsigned char, unsigned char)+0xc8>
     6f4:	00094a83          	lbu	s5,0(s2)
#             if (counter++) {
     6f8:	00048663          	beqz	s1,704 <print_location(unsigned char, unsigned char)+0x1e0>
#                 uart_send_cstr(", ");
     6fc:	c98a0513          	addi	a0,s4,-872 # 1c98 <void span<char>::for_each<string_print(span<char>)::{lambda(auto:1)#1}>(string_print(span<char>)::{lambda(auto:1)#1}&&) const [clone .isra.0]+0x484>
     700:	681000ef          	jal	1580 <uart_send_cstr(char const*)>
#             uart_send_cstr(link_by_id(lnk.link));
     704:	000a8513          	mv	a0,s5
     708:	64d000ef          	jal	1554 <link_by_id(unsigned char)>
     70c:	675000ef          	jal	1580 <uart_send_cstr(char const*)>
     710:	00148493          	addi	s1,s1,1
     714:	00290913          	addi	s2,s2,2
     718:	f05ff06f          	j	61c <print_location(unsigned char, unsigned char)+0xf8>

0000071c <action_inventory(unsigned char)>:
# static auto action_inventory(entity_id_t const eid) -> void {
     71c:	fe010113          	addi	sp,sp,-32
     720:	00912a23          	sw	s1,20(sp)
     724:	00050493          	mv	s1,a0
#     uart_send_cstr("u have: ");
     728:	00002537          	lui	a0,0x2
     72c:	cc050513          	addi	a0,a0,-832 # 1cc0 <void span<char>::for_each<string_print(span<char>)::{lambda(auto:1)#1}>(string_print(span<char>)::{lambda(auto:1)#1}&&) const [clone .isra.0]+0x4ac>
# static auto action_inventory(entity_id_t const eid) -> void {
     730:	00812c23          	sw	s0,24(sp)
     734:	00112e23          	sw	ra,28(sp)
     738:	01212823          	sw	s2,16(sp)
     73c:	01312623          	sw	s3,12(sp)
     740:	01412423          	sw	s4,8(sp)
     744:	01512223          	sw	s5,4(sp)
#     uart_send_cstr("u have: ");
     748:	639000ef          	jal	1580 <uart_send_cstr(char const*)>
#         if (id >= sizeof(entities) / sizeof(entity)) {
     74c:	00200713          	li	a4,2
     750:	00002437          	lui	s0,0x2
     754:	06976c63          	bltu	a4,s1,7cc <action_inventory(unsigned char)+0xb0>
     758:	fb440793          	addi	a5,s0,-76 # 1fb4 <entities>
#     return entities[id];
     75c:	00149413          	slli	s0,s1,0x1
     760:	00940433          	add	s0,s0,s1
     764:	00241413          	slli	s0,s0,0x2
     768:	40940433          	sub	s0,s0,s1
     76c:	00241413          	slli	s0,s0,0x2
     770:	00878433          	add	s0,a5,s0
     774:	00002937          	lui	s2,0x2
     778:	00000493          	li	s1,0
#             uart_send_cstr(", ");
     77c:	00002a37          	lui	s4,0x2
#         if (id >= sizeof(objects) / sizeof(object)) {
     780:	00300a93          	li	s5,3
     784:	fa490913          	addi	s2,s2,-92 # 1fa4 <objects>
     788:	02842783          	lw	a5,40(s0)
     78c:	04f4e463          	bltu	s1,a5,7d4 <action_inventory(unsigned char)+0xb8>
#     if (counter == 0) {
     790:	00049863          	bnez	s1,7a0 <action_inventory(unsigned char)+0x84>
#         uart_send_cstr("nothing");
     794:	00002537          	lui	a0,0x2
     798:	c9c50513          	addi	a0,a0,-868 # 1c9c <void span<char>::for_each<string_print(span<char>)::{lambda(auto:1)#1}>(string_print(span<char>)::{lambda(auto:1)#1}&&) const [clone .isra.0]+0x488>
     79c:	5e5000ef          	jal	1580 <uart_send_cstr(char const*)>
# }
     7a0:	01812403          	lw	s0,24(sp)
     7a4:	01c12083          	lw	ra,28(sp)
     7a8:	01412483          	lw	s1,20(sp)
     7ac:	01012903          	lw	s2,16(sp)
     7b0:	00c12983          	lw	s3,12(sp)
     7b4:	00812a03          	lw	s4,8(sp)
     7b8:	00412a83          	lw	s5,4(sp)
#     uart_send_cstr("\r\n");
     7bc:	00002537          	lui	a0,0x2
     7c0:	c8450513          	addi	a0,a0,-892 # 1c84 <void span<char>::for_each<string_print(span<char>)::{lambda(auto:1)#1}>(string_print(span<char>)::{lambda(auto:1)#1}&&) const [clone .isra.0]+0x470>
# }
     7c4:	02010113          	addi	sp,sp,32
#     uart_send_cstr("\r\n");
     7c8:	5b90006f          	j	1580 <uart_send_cstr(char const*)>
     7cc:	fb440413          	addi	s0,s0,-76
     7d0:	fa5ff06f          	j	774 <action_inventory(unsigned char)+0x58>
#             f(data[i]);
     7d4:	009407b3          	add	a5,s0,s1
     7d8:	0087c983          	lbu	s3,8(a5)
#         if (counter++) {
     7dc:	00048663          	beqz	s1,7e8 <action_inventory(unsigned char)+0xcc>
#             uart_send_cstr(", ");
     7e0:	c98a0513          	addi	a0,s4,-872 # 1c98 <void span<char>::for_each<string_print(span<char>)::{lambda(auto:1)#1}>(string_print(span<char>)::{lambda(auto:1)#1}&&) const [clone .isra.0]+0x484>
     7e4:	59d000ef          	jal	1580 <uart_send_cstr(char const*)>
#             return objects[0];
     7e8:	00090793          	mv	a5,s2
#         if (id >= sizeof(objects) / sizeof(object)) {
     7ec:	013ae663          	bltu	s5,s3,7f8 <action_inventory(unsigned char)+0xdc>
#     return objects[id];
     7f0:	00299993          	slli	s3,s3,0x2
     7f4:	013907b3          	add	a5,s2,s3
#         uart_send_cstr(object_by_id(id).name);
     7f8:	0007a503          	lw	a0,0(a5)
#         for (size_t i = 0; i < len; ++i) {
     7fc:	00148493          	addi	s1,s1,1
     800:	581000ef          	jal	1580 <uart_send_cstr(char const*)>
     804:	f85ff06f          	j	788 <action_inventory(unsigned char)+0x6c>

00000808 <action_take(unsigned char, span<char>)>:
# static auto action_take(entity_id_t const eid, string const args) -> void {
     808:	fb010113          	addi	sp,sp,-80
     80c:	04112623          	sw	ra,76(sp)
     810:	04812423          	sw	s0,72(sp)
     814:	04912223          	sw	s1,68(sp)
     818:	05212023          	sw	s2,64(sp)
     81c:	03312e23          	sw	s3,60(sp)
     820:	03412c23          	sw	s4,56(sp)
     824:	03512a23          	sw	s5,52(sp)
     828:	03612823          	sw	s6,48(sp)
     82c:	03712623          	sw	s7,44(sp)
     830:	03812423          	sw	s8,40(sp)
     834:	00b12423          	sw	a1,8(sp)
     838:	00c12623          	sw	a2,12(sp)
#     if (args.is_empty()) {
     83c:	02b61e63          	bne	a2,a1,878 <action_take(unsigned char, span<char>)+0x70>
#         uart_send_cstr("take what\r\n\r\n");
     840:	00002537          	lui	a0,0x2
     844:	ccc50513          	addi	a0,a0,-820 # 1ccc <void span<char>::for_each<string_print(span<char>)::{lambda(auto:1)#1}>(string_print(span<char>)::{lambda(auto:1)#1}&&) const [clone .isra.0]+0x4b8>
# }
     848:	04812403          	lw	s0,72(sp)
     84c:	04c12083          	lw	ra,76(sp)
     850:	04412483          	lw	s1,68(sp)
     854:	04012903          	lw	s2,64(sp)
     858:	03c12983          	lw	s3,60(sp)
     85c:	03812a03          	lw	s4,56(sp)
     860:	03412a83          	lw	s5,52(sp)
     864:	03012b03          	lw	s6,48(sp)
     868:	02c12b83          	lw	s7,44(sp)
     86c:	02812c03          	lw	s8,40(sp)
     870:	05010113          	addi	sp,sp,80
#         uart_send_cstr(" not here\r\n\r\n");
     874:	50d0006f          	j	1580 <uart_send_cstr(char const*)>
     878:	000024b7          	lui	s1,0x2
#         if (id >= sizeof(entities) / sizeof(entity)) {
     87c:	00200713          	li	a4,2
     880:	fb448793          	addi	a5,s1,-76 # 1fb4 <entities>
     884:	00058b13          	mv	s6,a1
     888:	00060a93          	mv	s5,a2
#             return entities[0];
     88c:	fb448493          	addi	s1,s1,-76
#         if (id >= sizeof(entities) / sizeof(entity)) {
     890:	00a76e63          	bltu	a4,a0,8ac <action_take(unsigned char, span<char>)+0xa4>
#     return entities[id];
     894:	00151493          	slli	s1,a0,0x1
     898:	00a484b3          	add	s1,s1,a0
     89c:	00249493          	slli	s1,s1,0x2
     8a0:	40a484b3          	sub	s1,s1,a0
     8a4:	00249493          	slli	s1,s1,0x2
     8a8:	009784b3          	add	s1,a5,s1
#     mut& lso = location_by_id(ent.location).objects;
     8ac:	0044c783          	lbu	a5,4(s1)
#         if (id >= sizeof(locations) / sizeof(location)) {
     8b0:	00002437          	lui	s0,0x2
     8b4:	00400693          	li	a3,4
     8b8:	03840713          	addi	a4,s0,56 # 2038 <locations>
#             return locations[0];
     8bc:	03840413          	addi	s0,s0,56
#         if (id >= sizeof(locations) / sizeof(location)) {
     8c0:	00f6ee63          	bltu	a3,a5,8dc <action_take(unsigned char, span<char>)+0xd4>
#     return locations[id];
     8c4:	00279413          	slli	s0,a5,0x2
     8c8:	00f40433          	add	s0,s0,a5
     8cc:	00341413          	slli	s0,s0,0x3
     8d0:	00f40433          	add	s0,s0,a5
     8d4:	00241413          	slli	s0,s0,0x2
     8d8:	00870433          	add	s0,a4,s0
#     }
# 
#     auto for_each_until_false(callable_returns_bool<Type> auto&& f) const
#         -> position {
#         size_t i = 0;
#         for (; i < len; ++i) {
     8dc:	09442983          	lw	s3,148(s0)
     8e0:	00002bb7          	lui	s7,0x2
#         size_t i = 0;
     8e4:	00000a13          	li	s4,0
#         if (id >= sizeof(objects) / sizeof(object)) {
     8e8:	00300c13          	li	s8,3
     8ec:	fa4b8b93          	addi	s7,s7,-92 # 1fa4 <objects>
#         for (; i < len; ++i) {
     8f0:	033a1063          	bne	s4,s3,910 <action_take(unsigned char, span<char>)+0x108>
#     str.for_each([](let ch) { uart_send_char(ch); });
     8f4:	01810513          	addi	a0,sp,24
     8f8:	01612c23          	sw	s6,24(sp)
     8fc:	01512e23          	sw	s5,28(sp)
     900:	715000ef          	jal	1814 <void span<char>::for_each<string_print(span<char>)::{lambda(auto:1)#1}>(string_print(span<char>)::{lambda(auto:1)#1}&&) const [clone .isra.0]>
#         uart_send_cstr(" not here\r\n\r\n");
     904:	00002537          	lui	a0,0x2
     908:	cdc50513          	addi	a0,a0,-804 # 1cdc <void span<char>::for_each<string_print(span<char>)::{lambda(auto:1)#1}>(string_print(span<char>)::{lambda(auto:1)#1}&&) const [clone .isra.0]+0x4c8>
     90c:	f3dff06f          	j	848 <action_take(unsigned char, span<char>)+0x40>
#             if (!f(data[i])) {
     910:	01440933          	add	s2,s0,s4
     914:	01494783          	lbu	a5,20(s2)
#             return objects[0];
     918:	000b8713          	mv	a4,s7
#         if (id >= sizeof(objects) / sizeof(object)) {
     91c:	00fc6663          	bltu	s8,a5,928 <action_take(unsigned char, span<char>)+0x120>
#     return objects[id];
     920:	00279793          	slli	a5,a5,0x2
     924:	00fb8733          	add	a4,s7,a5
#         if (string_equals_cstr(args, object_by_id(id).name)) {
     928:	00072603          	lw	a2,0(a4)
     92c:	00812503          	lw	a0,8(sp)
     930:	00c12583          	lw	a1,12(sp)
     934:	f98ff0ef          	jal	cc <string_equals_cstr(span<char>, char const*)>
     938:	00051663          	bnez	a0,944 <action_take(unsigned char, span<char>)+0x13c>
#         for (; i < len; ++i) {
     93c:	001a0a13          	addi	s4,s4,1
     940:	fb1ff06f          	j	8f0 <action_take(unsigned char, span<char>)+0xe8>
#                 return {};
     944:	00000713          	li	a4,0
#             if (pos.index >= len) {
     948:	013a7463          	bgeu	s4,s3,950 <action_take(unsigned char, span<char>)+0x148>
#         return data[pos.index];
     94c:	01494703          	lbu	a4,20(s2)
#             if (len == Size - 1) {
     950:	0284a783          	lw	a5,40(s1)
     954:	01f00693          	li	a3,31
     958:	02d78863          	beq	a5,a3,988 <action_take(unsigned char, span<char>)+0x180>
#         data[len] = elem;
     95c:	00f486b3          	add	a3,s1,a5
     960:	00e68423          	sb	a4,8(a3)
#         ++len;
     964:	00178793          	addi	a5,a5,1
     968:	02f4a423          	sw	a5,40(s1)
#             if (pos.index >= len) {
     96c:	013a7e63          	bgeu	s4,s3,988 <action_take(unsigned char, span<char>)+0x180>
#         --len;
     970:	fff98793          	addi	a5,s3,-1
     974:	08f42a23          	sw	a5,148(s0)
     978:	008989b3          	add	s3,s3,s0
     97c:	00090793          	mv	a5,s2
#         for (size_t i = pos.index; i < len; ++i) {
     980:	00178793          	addi	a5,a5,1
     984:	03379a63          	bne	a5,s3,9b8 <action_take(unsigned char, span<char>)+0x1b0>
# }
     988:	04c12083          	lw	ra,76(sp)
     98c:	04812403          	lw	s0,72(sp)
     990:	04412483          	lw	s1,68(sp)
     994:	04012903          	lw	s2,64(sp)
     998:	03c12983          	lw	s3,60(sp)
     99c:	03812a03          	lw	s4,56(sp)
     9a0:	03412a83          	lw	s5,52(sp)
     9a4:	03012b03          	lw	s6,48(sp)
     9a8:	02c12b83          	lw	s7,44(sp)
     9ac:	02812c03          	lw	s8,40(sp)
     9b0:	05010113          	addi	sp,sp,80
     9b4:	00008067          	ret
#             data[i] = data[i + 1];
     9b8:	0147c703          	lbu	a4,20(a5)
     9bc:	00e789a3          	sb	a4,19(a5)
#         for (size_t i = pos.index; i < len; ++i) {
     9c0:	fc1ff06f          	j	980 <action_take(unsigned char, span<char>)+0x178>

000009c4 <action_drop(unsigned char, span<char>)>:
# static auto action_drop(entity_id_t const eid, string const args) -> void {
     9c4:	fb010113          	addi	sp,sp,-80
     9c8:	04112623          	sw	ra,76(sp)
     9cc:	04812423          	sw	s0,72(sp)
     9d0:	04912223          	sw	s1,68(sp)
     9d4:	05212023          	sw	s2,64(sp)
     9d8:	03312e23          	sw	s3,60(sp)
     9dc:	03412c23          	sw	s4,56(sp)
     9e0:	03512a23          	sw	s5,52(sp)
     9e4:	03612823          	sw	s6,48(sp)
     9e8:	03712623          	sw	s7,44(sp)
     9ec:	00b12423          	sw	a1,8(sp)
     9f0:	00c12623          	sw	a2,12(sp)
#     if (args.size() == 0) {
     9f4:	02b61c63          	bne	a2,a1,a2c <action_drop(unsigned char, span<char>)+0x68>
#         uart_send_cstr("drop what\r\n\r\n");
     9f8:	00002537          	lui	a0,0x2
     9fc:	cec50513          	addi	a0,a0,-788 # 1cec <void span<char>::for_each<string_print(span<char>)::{lambda(auto:1)#1}>(string_print(span<char>)::{lambda(auto:1)#1}&&) const [clone .isra.0]+0x4d8>
# }
     a00:	04812403          	lw	s0,72(sp)
     a04:	04c12083          	lw	ra,76(sp)
     a08:	04412483          	lw	s1,68(sp)
     a0c:	04012903          	lw	s2,64(sp)
     a10:	03c12983          	lw	s3,60(sp)
     a14:	03812a03          	lw	s4,56(sp)
     a18:	03412a83          	lw	s5,52(sp)
     a1c:	03012b03          	lw	s6,48(sp)
     a20:	02c12b83          	lw	s7,44(sp)
     a24:	05010113          	addi	sp,sp,80
#         uart_send_cstr("\r\n\r\n");
     a28:	3590006f          	j	1580 <uart_send_cstr(char const*)>
     a2c:	00002437          	lui	s0,0x2
#         if (id >= sizeof(entities) / sizeof(entity)) {
     a30:	00200713          	li	a4,2
     a34:	fb440793          	addi	a5,s0,-76 # 1fb4 <entities>
     a38:	00058a93          	mv	s5,a1
     a3c:	00060a13          	mv	s4,a2
#             return entities[0];
     a40:	fb440413          	addi	s0,s0,-76
#         if (id >= sizeof(entities) / sizeof(entity)) {
     a44:	00a76e63          	bltu	a4,a0,a60 <action_drop(unsigned char, span<char>)+0x9c>
#     return entities[id];
     a48:	00151413          	slli	s0,a0,0x1
     a4c:	00a40433          	add	s0,s0,a0
     a50:	00241413          	slli	s0,s0,0x2
     a54:	40a40433          	sub	s0,s0,a0
     a58:	00241413          	slli	s0,s0,0x2
     a5c:	00878433          	add	s0,a5,s0
#         for (; i < len; ++i) {
     a60:	02842903          	lw	s2,40(s0)
     a64:	00002b37          	lui	s6,0x2
#         size_t i = 0;
     a68:	00000993          	li	s3,0
#         if (id >= sizeof(objects) / sizeof(object)) {
     a6c:	00300b93          	li	s7,3
     a70:	fa4b0b13          	addi	s6,s6,-92 # 1fa4 <objects>
#         for (; i < len; ++i) {
     a74:	03299663          	bne	s3,s2,aa0 <action_drop(unsigned char, span<char>)+0xdc>
#         uart_send_cstr("u don't have ");
     a78:	00002537          	lui	a0,0x2
     a7c:	cfc50513          	addi	a0,a0,-772 # 1cfc <void span<char>::for_each<string_print(span<char>)::{lambda(auto:1)#1}>(string_print(span<char>)::{lambda(auto:1)#1}&&) const [clone .isra.0]+0x4e8>
     a80:	301000ef          	jal	1580 <uart_send_cstr(char const*)>
#     str.for_each([](let ch) { uart_send_char(ch); });
     a84:	01810513          	addi	a0,sp,24
     a88:	01512c23          	sw	s5,24(sp)
     a8c:	01412e23          	sw	s4,28(sp)
     a90:	585000ef          	jal	1814 <void span<char>::for_each<string_print(span<char>)::{lambda(auto:1)#1}>(string_print(span<char>)::{lambda(auto:1)#1}&&) const [clone .isra.0]>
#         uart_send_cstr("\r\n\r\n");
     a94:	00002537          	lui	a0,0x2
     a98:	88050513          	addi	a0,a0,-1920 # 1880 <void span<char>::for_each<string_print(span<char>)::{lambda(auto:1)#1}>(string_print(span<char>)::{lambda(auto:1)#1}&&) const [clone .isra.0]+0x6c>
     a9c:	f65ff06f          	j	a00 <action_drop(unsigned char, span<char>)+0x3c>
#             if (!f(data[i])) {
     aa0:	013404b3          	add	s1,s0,s3
     aa4:	0084c783          	lbu	a5,8(s1)
#             return objects[0];
     aa8:	000b0713          	mv	a4,s6
#         if (id >= sizeof(objects) / sizeof(object)) {
     aac:	00fbe663          	bltu	s7,a5,ab8 <action_drop(unsigned char, span<char>)+0xf4>
#     return objects[id];
     ab0:	00279793          	slli	a5,a5,0x2
     ab4:	00fb0733          	add	a4,s6,a5
#         if (string_equals_cstr(args, object_by_id(id).name)) {
     ab8:	00072603          	lw	a2,0(a4)
     abc:	00812503          	lw	a0,8(sp)
     ac0:	00c12583          	lw	a1,12(sp)
     ac4:	e08ff0ef          	jal	cc <string_equals_cstr(span<char>, char const*)>
     ac8:	00051663          	bnez	a0,ad4 <action_drop(unsigned char, span<char>)+0x110>
#         for (; i < len; ++i) {
     acc:	00198993          	addi	s3,s3,1
     ad0:	fa5ff06f          	j	a74 <action_drop(unsigned char, span<char>)+0xb0>
#     if (location_by_id(ent.location).objects.add(lso.at(pos))) {
     ad4:	00444703          	lbu	a4,4(s0)
#         if (id >= sizeof(locations) / sizeof(location)) {
     ad8:	000027b7          	lui	a5,0x2
     adc:	00400613          	li	a2,4
     ae0:	03878693          	addi	a3,a5,56 # 2038 <locations>
#             return locations[0];
     ae4:	03878793          	addi	a5,a5,56
#         if (id >= sizeof(locations) / sizeof(location)) {
     ae8:	00e66e63          	bltu	a2,a4,b04 <action_drop(unsigned char, span<char>)+0x140>
#     return locations[id];
     aec:	00271793          	slli	a5,a4,0x2
     af0:	00e787b3          	add	a5,a5,a4
     af4:	00379793          	slli	a5,a5,0x3
     af8:	00e787b3          	add	a5,a5,a4
     afc:	00279793          	slli	a5,a5,0x2
     b00:	00f687b3          	add	a5,a3,a5
#                 return {};
     b04:	00000693          	li	a3,0
#             if (pos.index >= len) {
     b08:	0129f463          	bgeu	s3,s2,b10 <action_drop(unsigned char, span<char>)+0x14c>
#         return data[pos.index];
     b0c:	0084c683          	lbu	a3,8(s1)
#             if (len == Size - 1) {
     b10:	0947a703          	lw	a4,148(a5)
     b14:	07f00613          	li	a2,127
     b18:	02c70863          	beq	a4,a2,b48 <action_drop(unsigned char, span<char>)+0x184>
#         data[len] = elem;
     b1c:	00e78633          	add	a2,a5,a4
     b20:	00d60a23          	sb	a3,20(a2)
#         ++len;
     b24:	00170713          	addi	a4,a4,1
     b28:	08e7aa23          	sw	a4,148(a5)
#             if (pos.index >= len) {
     b2c:	0129fe63          	bgeu	s3,s2,b48 <action_drop(unsigned char, span<char>)+0x184>
#         --len;
     b30:	fff90793          	addi	a5,s2,-1
     b34:	02f42423          	sw	a5,40(s0)
     b38:	00890933          	add	s2,s2,s0
     b3c:	00048793          	mv	a5,s1
#         for (size_t i = pos.index; i < len; ++i) {
     b40:	00178793          	addi	a5,a5,1
     b44:	03279863          	bne	a5,s2,b74 <action_drop(unsigned char, span<char>)+0x1b0>
# }
     b48:	04c12083          	lw	ra,76(sp)
     b4c:	04812403          	lw	s0,72(sp)
     b50:	04412483          	lw	s1,68(sp)
     b54:	04012903          	lw	s2,64(sp)
     b58:	03c12983          	lw	s3,60(sp)
     b5c:	03812a03          	lw	s4,56(sp)
     b60:	03412a83          	lw	s5,52(sp)
     b64:	03012b03          	lw	s6,48(sp)
     b68:	02c12b83          	lw	s7,44(sp)
     b6c:	05010113          	addi	sp,sp,80
     b70:	00008067          	ret
#             data[i] = data[i + 1];
     b74:	0087c703          	lbu	a4,8(a5)
     b78:	00e783a3          	sb	a4,7(a5)
#         for (size_t i = pos.index; i < len; ++i) {
     b7c:	fc5ff06f          	j	b40 <action_drop(unsigned char, span<char>)+0x17c>

00000b80 <action_go(unsigned char, unsigned char)>:
#         if (id >= sizeof(entities) / sizeof(entity)) {
     b80:	000026b7          	lui	a3,0x2
     b84:	00200713          	li	a4,2
     b88:	fb468793          	addi	a5,a3,-76 # 1fb4 <entities>
#             return entities[0];
     b8c:	fb468693          	addi	a3,a3,-76
#         if (id >= sizeof(entities) / sizeof(entity)) {
     b90:	00a76e63          	bltu	a4,a0,bac <action_go(unsigned char, unsigned char)+0x2c>
#     return entities[id];
     b94:	00151693          	slli	a3,a0,0x1
     b98:	00a686b3          	add	a3,a3,a0
     b9c:	00269693          	slli	a3,a3,0x2
     ba0:	40a686b3          	sub	a3,a3,a0
     ba4:	00269693          	slli	a3,a3,0x2
     ba8:	00d786b3          	add	a3,a5,a3
#     mut& loc = location_by_id(ent.location);
     bac:	0046c703          	lbu	a4,4(a3)
#         if (id >= sizeof(locations) / sizeof(location)) {
     bb0:	000027b7          	lui	a5,0x2
     bb4:	00400613          	li	a2,4
     bb8:	03878813          	addi	a6,a5,56 # 2038 <locations>
#             return locations[0];
     bbc:	03878793          	addi	a5,a5,56
#         if (id >= sizeof(locations) / sizeof(location)) {
     bc0:	00e66e63          	bltu	a2,a4,bdc <action_go(unsigned char, unsigned char)+0x5c>
#     return locations[id];
     bc4:	00271793          	slli	a5,a4,0x2
     bc8:	00e787b3          	add	a5,a5,a4
     bcc:	00379793          	slli	a5,a5,0x3
     bd0:	00e787b3          	add	a5,a5,a4
     bd4:	00279793          	slli	a5,a5,0x2
     bd8:	00f807b3          	add	a5,a6,a5
#         for (; i < len; ++i) {
     bdc:	0107a883          	lw	a7,16(a5)
     be0:	00478613          	addi	a2,a5,4
#         size_t i = 0;
     be4:	00000713          	li	a4,0
#         for (; i < len; ++i) {
     be8:	01171863          	bne	a4,a7,bf8 <action_go(unsigned char, unsigned char)+0x78>
#         uart_send_cstr("cannot go there\r\n\r\n");
     bec:	00002537          	lui	a0,0x2
     bf0:	d0c50513          	addi	a0,a0,-756 # 1d0c <void span<char>::for_each<string_print(span<char>)::{lambda(auto:1)#1}>(string_print(span<char>)::{lambda(auto:1)#1}&&) const [clone .isra.0]+0x4f8>
     bf4:	18d0006f          	j	1580 <uart_send_cstr(char const*)>
#         if (lnk.link == link_id) {
     bf8:	00064303          	lbu	t1,0(a2)
     bfc:	00260613          	addi	a2,a2,2
     c00:	00b30663          	beq	t1,a1,c0c <action_go(unsigned char, unsigned char)+0x8c>
     c04:	00170713          	addi	a4,a4,1
     c08:	fe1ff06f          	j	be8 <action_go(unsigned char, unsigned char)+0x68>
#             if (pos.index >= len) {
     c0c:	07177863          	bgeu	a4,a7,c7c <action_go(unsigned char, unsigned char)+0xfc>
#         return data[pos.index];
     c10:	00171713          	slli	a4,a4,0x1
     c14:	00e78733          	add	a4,a5,a4
     c18:	00574603          	lbu	a2,5(a4)
#         if (id >= sizeof(locations) / sizeof(location)) {
     c1c:	00400593          	li	a1,4
#             return locations[0];
     c20:	00080713          	mv	a4,a6
#         if (id >= sizeof(locations) / sizeof(location)) {
     c24:	00c5ee63          	bltu	a1,a2,c40 <action_go(unsigned char, unsigned char)+0xc0>
#     return locations[id];
     c28:	00261713          	slli	a4,a2,0x2
     c2c:	00c70733          	add	a4,a4,a2
     c30:	00371713          	slli	a4,a4,0x3
     c34:	00c70733          	add	a4,a4,a2
     c38:	00271713          	slli	a4,a4,0x2
     c3c:	00e80733          	add	a4,a6,a4
#             if (len == Size - 1) {
     c40:	0a072583          	lw	a1,160(a4)
     c44:	00700813          	li	a6,7
     c48:	07058463          	beq	a1,a6,cb0 <action_go(unsigned char, unsigned char)+0x130>
#         data[len] = elem;
     c4c:	00b70833          	add	a6,a4,a1
     c50:	08a80c23          	sb	a0,152(a6)
#         ++len;
     c54:	00158593          	addi	a1,a1,1
     c58:	0ab72023          	sw	a1,160(a4)
#         for (size_t i = 0; i < len; ++i) {
     c5c:	00000813          	li	a6,0
     c60:	0a07a583          	lw	a1,160(a5)
     c64:	02b87a63          	bgeu	a6,a1,c98 <action_go(unsigned char, unsigned char)+0x118>
#             if (data[i] != elem) {
     c68:	01078733          	add	a4,a5,a6
     c6c:	09874883          	lbu	a7,152(a4)
     c70:	00a88a63          	beq	a7,a0,c84 <action_go(unsigned char, unsigned char)+0x104>
#         for (size_t i = 0; i < len; ++i) {
     c74:	00180813          	addi	a6,a6,1
     c78:	fe9ff06f          	j	c60 <action_go(unsigned char, unsigned char)+0xe0>
#                 return {};
     c7c:	00000613          	li	a2,0
     c80:	fa9ff06f          	j	c28 <action_go(unsigned char, unsigned char)+0xa8>
#             --len;
     c84:	fff58593          	addi	a1,a1,-1
     c88:	0ab7a023          	sw	a1,160(a5)
#             for (size_t j = i; j < len; ++j) {
     c8c:	00170513          	addi	a0,a4,1
     c90:	40f70733          	sub	a4,a4,a5
     c94:	00b76663          	bltu	a4,a1,ca0 <action_go(unsigned char, unsigned char)+0x120>
#         ent.location = lnk.location;
     c98:	00c68223          	sb	a2,4(a3)
     c9c:	00008067          	ret
#                 data[j] = data[j + 1];
     ca0:	09854703          	lbu	a4,152(a0)
     ca4:	08e50ba3          	sb	a4,151(a0)
     ca8:	00050713          	mv	a4,a0
     cac:	fe1ff06f          	j	c8c <action_go(unsigned char, unsigned char)+0x10c>
# }
     cb0:	00008067          	ret

00000cb4 <action_give(unsigned char, span<char>)>:
# static auto action_give(entity_id_t const eid, string const args) -> void {
     cb4:	f8010113          	addi	sp,sp,-128
     cb8:	06912a23          	sw	s1,116(sp)
     cbc:	00050493          	mv	s1,a0
#     let w1 = string_next_word(args);
     cc0:	03010513          	addi	a0,sp,48
# static auto action_give(entity_id_t const eid, string const args) -> void {
     cc4:	07212823          	sw	s2,112(sp)
     cc8:	07312623          	sw	s3,108(sp)
     ccc:	06112e23          	sw	ra,124(sp)
     cd0:	06812c23          	sw	s0,120(sp)
     cd4:	07412423          	sw	s4,104(sp)
     cd8:	07512223          	sw	s5,100(sp)
     cdc:	07612023          	sw	s6,96(sp)
     ce0:	05712e23          	sw	s7,92(sp)
     ce4:	05812c23          	sw	s8,88(sp)
     ce8:	05912a23          	sw	s9,84(sp)
     cec:	05a12823          	sw	s10,80(sp)
     cf0:	00b12423          	sw	a1,8(sp)
     cf4:	00c12623          	sw	a2,12(sp)
#     let w1 = string_next_word(args);
     cf8:	c3cff0ef          	jal	134 <string_next_word(span<char>)>
#     let obj_nm = w1.word;
     cfc:	03012903          	lw	s2,48(sp)
     d00:	03412983          	lw	s3,52(sp)
     d04:	01212c23          	sw	s2,24(sp)
     d08:	01312e23          	sw	s3,28(sp)
#     if (obj_nm.is_empty()) {
     d0c:	05299263          	bne	s3,s2,d50 <action_give(unsigned char, span<char>)+0x9c>
#         uart_send_cstr("give what\r\n\r\n");
     d10:	00002537          	lui	a0,0x2
     d14:	d2050513          	addi	a0,a0,-736 # 1d20 <void span<char>::for_each<string_print(span<char>)::{lambda(auto:1)#1}>(string_print(span<char>)::{lambda(auto:1)#1}&&) const [clone .isra.0]+0x50c>
# }
     d18:	07812403          	lw	s0,120(sp)
     d1c:	07c12083          	lw	ra,124(sp)
     d20:	07412483          	lw	s1,116(sp)
     d24:	07012903          	lw	s2,112(sp)
     d28:	06c12983          	lw	s3,108(sp)
     d2c:	06812a03          	lw	s4,104(sp)
     d30:	06412a83          	lw	s5,100(sp)
     d34:	06012b03          	lw	s6,96(sp)
     d38:	05c12b83          	lw	s7,92(sp)
     d3c:	05812c03          	lw	s8,88(sp)
     d40:	05412c83          	lw	s9,84(sp)
     d44:	05012d03          	lw	s10,80(sp)
     d48:	08010113          	addi	sp,sp,128
#         uart_send_cstr(" is not here\r\n\r\n");
     d4c:	0350006f          	j	1580 <uart_send_cstr(char const*)>
#     let w2 = string_next_word(w1.rem);
     d50:	03812583          	lw	a1,56(sp)
     d54:	03c12603          	lw	a2,60(sp)
     d58:	04010513          	addi	a0,sp,64
     d5c:	bd8ff0ef          	jal	134 <string_next_word(span<char>)>
#     let to_ent_nm = w2.word;
     d60:	04012a83          	lw	s5,64(sp)
     d64:	04412b03          	lw	s6,68(sp)
     d68:	03512023          	sw	s5,32(sp)
     d6c:	03612223          	sw	s6,36(sp)
#     if (to_ent_nm.is_empty()) {
     d70:	015b1863          	bne	s6,s5,d80 <action_give(unsigned char, span<char>)+0xcc>
#         uart_send_cstr("give to whom\r\n\r\n");
     d74:	00002537          	lui	a0,0x2
     d78:	d3050513          	addi	a0,a0,-720 # 1d30 <void span<char>::for_each<string_print(span<char>)::{lambda(auto:1)#1}>(string_print(span<char>)::{lambda(auto:1)#1}&&) const [clone .isra.0]+0x51c>
     d7c:	f9dff06f          	j	d18 <action_give(unsigned char, span<char>)+0x64>
#         if (id >= sizeof(entities) / sizeof(entity)) {
     d80:	00002437          	lui	s0,0x2
     d84:	00200793          	li	a5,2
     d88:	fb440a13          	addi	s4,s0,-76 # 1fb4 <entities>
#             return entities[0];
     d8c:	fb440413          	addi	s0,s0,-76
#         if (id >= sizeof(entities) / sizeof(entity)) {
     d90:	0097ee63          	bltu	a5,s1,dac <action_give(unsigned char, span<char>)+0xf8>
#     return entities[id];
     d94:	00149413          	slli	s0,s1,0x1
     d98:	00940433          	add	s0,s0,s1
     d9c:	00241413          	slli	s0,s0,0x2
     da0:	40940433          	sub	s0,s0,s1
     da4:	00241413          	slli	s0,s0,0x2
     da8:	008a0433          	add	s0,s4,s0
#     let& loc = location_by_id(from_entity.location);
     dac:	00444783          	lbu	a5,4(s0)
#         if (id >= sizeof(locations) / sizeof(location)) {
     db0:	000024b7          	lui	s1,0x2
     db4:	00400693          	li	a3,4
     db8:	03848713          	addi	a4,s1,56 # 2038 <locations>
#             return locations[0];
     dbc:	03848493          	addi	s1,s1,56
#         if (id >= sizeof(locations) / sizeof(location)) {
     dc0:	00f6ee63          	bltu	a3,a5,ddc <action_give(unsigned char, span<char>)+0x128>
#     return locations[id];
     dc4:	00279493          	slli	s1,a5,0x2
     dc8:	00f484b3          	add	s1,s1,a5
     dcc:	00349493          	slli	s1,s1,0x3
     dd0:	00f484b3          	add	s1,s1,a5
     dd4:	00249493          	slli	s1,s1,0x2
     dd8:	009704b3          	add	s1,a4,s1
#         for (; i < len; ++i) {
     ddc:	0a04ac03          	lw	s8,160(s1)
#         size_t i = 0;
     de0:	00000b93          	li	s7,0
#         if (id >= sizeof(entities) / sizeof(entity)) {
     de4:	00200d13          	li	s10,2
#         for (; i < len; ++i) {
     de8:	038b9063          	bne	s7,s8,e08 <action_give(unsigned char, span<char>)+0x154>
#     str.for_each([](let ch) { uart_send_char(ch); });
     dec:	02810513          	addi	a0,sp,40
     df0:	03512423          	sw	s5,40(sp)
     df4:	03612623          	sw	s6,44(sp)
     df8:	21d000ef          	jal	1814 <void span<char>::for_each<string_print(span<char>)::{lambda(auto:1)#1}>(string_print(span<char>)::{lambda(auto:1)#1}&&) const [clone .isra.0]>
#         uart_send_cstr(" is not here\r\n\r\n");
     dfc:	00002537          	lui	a0,0x2
     e00:	d5c50513          	addi	a0,a0,-676 # 1d5c <void span<char>::for_each<string_print(span<char>)::{lambda(auto:1)#1}>(string_print(span<char>)::{lambda(auto:1)#1}&&) const [clone .isra.0]+0x548>
     e04:	f15ff06f          	j	d18 <action_give(unsigned char, span<char>)+0x64>
#             if (!f(data[i])) {
     e08:	01748cb3          	add	s9,s1,s7
     e0c:	098cc703          	lbu	a4,152(s9)
#             return entities[0];
     e10:	000a0793          	mv	a5,s4
#         if (id >= sizeof(entities) / sizeof(entity)) {
     e14:	00ed6e63          	bltu	s10,a4,e30 <action_give(unsigned char, span<char>)+0x17c>
#     return entities[id];
     e18:	00171793          	slli	a5,a4,0x1
     e1c:	00e787b3          	add	a5,a5,a4
     e20:	00279793          	slli	a5,a5,0x2
     e24:	40e787b3          	sub	a5,a5,a4
     e28:	00279793          	slli	a5,a5,0x2
     e2c:	00fa07b3          	add	a5,s4,a5
#         if (string_equals_cstr(to_ent_nm, entity_by_id(id).name)) {
     e30:	0007a603          	lw	a2,0(a5)
     e34:	000a8513          	mv	a0,s5
     e38:	000b0593          	mv	a1,s6
     e3c:	03512023          	sw	s5,32(sp)
     e40:	03612223          	sw	s6,36(sp)
     e44:	a88ff0ef          	jal	cc <string_equals_cstr(span<char>, char const*)>
     e48:	10051c63          	bnez	a0,f60 <action_give(unsigned char, span<char>)+0x2ac>
#         for (; i < len; ++i) {
     e4c:	001b8b93          	addi	s7,s7,1
     e50:	f99ff06f          	j	de8 <action_give(unsigned char, span<char>)+0x134>
#         return data[pos.index];
     e54:	098cc783          	lbu	a5,152(s9)
#         if (id >= sizeof(entities) / sizeof(entity)) {
     e58:	00200713          	li	a4,2
#             return entities[0];
     e5c:	000a0493          	mv	s1,s4
#         if (id >= sizeof(entities) / sizeof(entity)) {
     e60:	10f77463          	bgeu	a4,a5,f68 <action_give(unsigned char, span<char>)+0x2b4>
#         for (; i < len; ++i) {
     e64:	02842b83          	lw	s7,40(s0)
     e68:	00002b37          	lui	s6,0x2
#         size_t i = 0;
     e6c:	00000a93          	li	s5,0
#         if (id >= sizeof(objects) / sizeof(object)) {
     e70:	00300c13          	li	s8,3
     e74:	fa4b0b13          	addi	s6,s6,-92 # 1fa4 <objects>
#         for (; i < len; ++i) {
     e78:	037a9063          	bne	s5,s7,e98 <action_give(unsigned char, span<char>)+0x1e4>
#     str.for_each([](let ch) { uart_send_char(ch); });
     e7c:	02810513          	addi	a0,sp,40
     e80:	03212423          	sw	s2,40(sp)
     e84:	03312623          	sw	s3,44(sp)
     e88:	18d000ef          	jal	1814 <void span<char>::for_each<string_print(span<char>)::{lambda(auto:1)#1}>(string_print(span<char>)::{lambda(auto:1)#1}&&) const [clone .isra.0]>
#         uart_send_cstr(" not in inventory\r\n\r\n");
     e8c:	00002537          	lui	a0,0x2
     e90:	d4450513          	addi	a0,a0,-700 # 1d44 <void span<char>::for_each<string_print(span<char>)::{lambda(auto:1)#1}>(string_print(span<char>)::{lambda(auto:1)#1}&&) const [clone .isra.0]+0x530>
     e94:	e85ff06f          	j	d18 <action_give(unsigned char, span<char>)+0x64>
#             if (!f(data[i])) {
     e98:	01540a33          	add	s4,s0,s5
     e9c:	008a4783          	lbu	a5,8(s4)
#             return objects[0];
     ea0:	000b0713          	mv	a4,s6
#         if (id >= sizeof(objects) / sizeof(object)) {
     ea4:	00fc6663          	bltu	s8,a5,eb0 <action_give(unsigned char, span<char>)+0x1fc>
#     return objects[id];
     ea8:	00279793          	slli	a5,a5,0x2
     eac:	00fb0733          	add	a4,s6,a5
#         if (string_equals_cstr(obj_nm, object_by_id(id).name)) {
     eb0:	00072603          	lw	a2,0(a4)
     eb4:	00090513          	mv	a0,s2
     eb8:	00098593          	mv	a1,s3
     ebc:	01212c23          	sw	s2,24(sp)
     ec0:	01312e23          	sw	s3,28(sp)
     ec4:	a08ff0ef          	jal	cc <string_equals_cstr(span<char>, char const*)>
     ec8:	00051c63          	bnez	a0,ee0 <action_give(unsigned char, span<char>)+0x22c>
#         for (; i < len; ++i) {
     ecc:	001a8a93          	addi	s5,s5,1
     ed0:	fa9ff06f          	j	e78 <action_give(unsigned char, span<char>)+0x1c4>
#             data[i] = data[i + 1];
     ed4:	0087c683          	lbu	a3,8(a5)
     ed8:	00d783a3          	sb	a3,7(a5)
#         for (size_t i = pos.index; i < len; ++i) {
     edc:	0440006f          	j	f20 <action_give(unsigned char, span<char>)+0x26c>
#                 return {};
     ee0:	00000713          	li	a4,0
#             if (pos.index >= len) {
     ee4:	017af463          	bgeu	s5,s7,eec <action_give(unsigned char, span<char>)+0x238>
#         return data[pos.index];
     ee8:	008a4703          	lbu	a4,8(s4)
#             if (len == Size - 1) {
     eec:	0284a783          	lw	a5,40(s1)
     ef0:	01f00693          	li	a3,31
     ef4:	02d78a63          	beq	a5,a3,f28 <action_give(unsigned char, span<char>)+0x274>
#         data[len] = elem;
     ef8:	00f486b3          	add	a3,s1,a5
     efc:	00e68423          	sb	a4,8(a3)
#         ++len;
     f00:	00178793          	addi	a5,a5,1
     f04:	02f4a423          	sw	a5,40(s1)
#             if (pos.index >= len) {
     f08:	02842703          	lw	a4,40(s0)
     f0c:	00eafe63          	bgeu	s5,a4,f28 <action_give(unsigned char, span<char>)+0x274>
#         --len;
     f10:	fff70793          	addi	a5,a4,-1
     f14:	02f42423          	sw	a5,40(s0)
     f18:	00e40733          	add	a4,s0,a4
     f1c:	000a0793          	mv	a5,s4
#         for (size_t i = pos.index; i < len; ++i) {
     f20:	00178793          	addi	a5,a5,1
     f24:	fae798e3          	bne	a5,a4,ed4 <action_give(unsigned char, span<char>)+0x220>
# }
     f28:	07c12083          	lw	ra,124(sp)
     f2c:	07812403          	lw	s0,120(sp)
     f30:	07412483          	lw	s1,116(sp)
     f34:	07012903          	lw	s2,112(sp)
     f38:	06c12983          	lw	s3,108(sp)
     f3c:	06812a03          	lw	s4,104(sp)
     f40:	06412a83          	lw	s5,100(sp)
     f44:	06012b03          	lw	s6,96(sp)
     f48:	05c12b83          	lw	s7,92(sp)
     f4c:	05812c03          	lw	s8,88(sp)
     f50:	05412c83          	lw	s9,84(sp)
     f54:	05012d03          	lw	s10,80(sp)
     f58:	08010113          	addi	sp,sp,128
     f5c:	00008067          	ret
#             if (pos.index >= len) {
     f60:	ef8beae3          	bltu	s7,s8,e54 <action_give(unsigned char, span<char>)+0x1a0>
#                 return {};
     f64:	00000793          	li	a5,0
#     return entities[id];
     f68:	00179493          	slli	s1,a5,0x1
     f6c:	00f484b3          	add	s1,s1,a5
     f70:	00249493          	slli	s1,s1,0x2
     f74:	40f484b3          	sub	s1,s1,a5
     f78:	00249493          	slli	s1,s1,0x2
     f7c:	009a04b3          	add	s1,s4,s1
     f80:	ee5ff06f          	j	e64 <action_give(unsigned char, span<char>)+0x1b0>

00000f84 <action_sdcard_read(span<char>)>:
# static auto action_sdcard_read(string const args) -> void {
     f84:	dd010113          	addi	sp,sp,-560
     f88:	00a12423          	sw	a0,8(sp)
     f8c:	00058613          	mv	a2,a1
     f90:	00b12623          	sw	a1,12(sp)
#     let w1 = string_next_word(args);
     f94:	00050593          	mv	a1,a0
     f98:	01010513          	addi	a0,sp,16
# static auto action_sdcard_read(string const args) -> void {
     f9c:	22112623          	sw	ra,556(sp)
     fa0:	22812423          	sw	s0,552(sp)
     fa4:	22912223          	sw	s1,548(sp)
     fa8:	23212023          	sw	s2,544(sp)
#     let w1 = string_next_word(args);
     fac:	988ff0ef          	jal	134 <string_next_word(span<char>)>
#     if (w1.word.is_empty()) {
     fb0:	01012503          	lw	a0,16(sp)
     fb4:	01412583          	lw	a1,20(sp)
     fb8:	02b51263          	bne	a0,a1,fdc <action_sdcard_read(span<char>)+0x58>
#         uart_send_cstr("<sector>\r\n");
     fbc:	00002537          	lui	a0,0x2
     fc0:	d7050513          	addi	a0,a0,-656 # 1d70 <void span<char>::for_each<string_print(span<char>)::{lambda(auto:1)#1}>(string_print(span<char>)::{lambda(auto:1)#1}&&) const [clone .isra.0]+0x55c>
# }
     fc4:	22812403          	lw	s0,552(sp)
     fc8:	22c12083          	lw	ra,556(sp)
     fcc:	22412483          	lw	s1,548(sp)
     fd0:	22012903          	lw	s2,544(sp)
     fd4:	23010113          	addi	sp,sp,560
#     uart_send_cstr("\r\n");
     fd8:	5a80006f          	j	1580 <uart_send_cstr(char const*)>
#     let sector = string_to_uint32(w1.word);
     fdc:	3b8000ef          	jal	1394 <string_to_uint32(span<char>)>
#     sdcard_read_blocking(sector, buf);
     fe0:	02010493          	addi	s1,sp,32
     fe4:	00048593          	mv	a1,s1
     fe8:	724000ef          	jal	170c <sdcard_read_blocking(unsigned int, char*)>
#     for (mut i = 0u; i < sizeof(buf); ++i) {
     fec:	00000413          	li	s0,0
     ff0:	20000913          	li	s2,512
#         uart_send_char(buf[i]);
     ff4:	008487b3          	add	a5,s1,s0
     ff8:	0007c503          	lbu	a0,0(a5)
#     for (mut i = 0u; i < sizeof(buf); ++i) {
     ffc:	00140413          	addi	s0,s0,1
#         uart_send_char(buf[i]);
    1000:	5a4000ef          	jal	15a4 <uart_send_char(char)>
#     for (mut i = 0u; i < sizeof(buf); ++i) {
    1004:	ff2418e3          	bne	s0,s2,ff4 <action_sdcard_read(span<char>)+0x70>
#     uart_send_cstr("\r\n");
    1008:	00002537          	lui	a0,0x2
    100c:	c8450513          	addi	a0,a0,-892 # 1c84 <void span<char>::for_each<string_print(span<char>)::{lambda(auto:1)#1}>(string_print(span<char>)::{lambda(auto:1)#1}&&) const [clone .isra.0]+0x470>
    1010:	fb5ff06f          	j	fc4 <action_sdcard_read(span<char>)+0x40>

00001014 <action_sdcard_write(span<char>)>:
# static auto action_sdcard_write(string const args) -> void {
    1014:	dd010113          	addi	sp,sp,-560
    1018:	00a12423          	sw	a0,8(sp)
    101c:	00058613          	mv	a2,a1
    1020:	00b12623          	sw	a1,12(sp)
#     let w1 = string_next_word(args);
    1024:	00050593          	mv	a1,a0
    1028:	01010513          	addi	a0,sp,16
# static auto action_sdcard_write(string const args) -> void {
    102c:	22112623          	sw	ra,556(sp)
    1030:	22812423          	sw	s0,552(sp)
#     let w1 = string_next_word(args);
    1034:	900ff0ef          	jal	134 <string_next_word(span<char>)>
#     if (w1.word.is_empty()) {
    1038:	01412703          	lw	a4,20(sp)
    103c:	01012783          	lw	a5,16(sp)
    1040:	00f71e63          	bne	a4,a5,105c <action_sdcard_write(span<char>)+0x48>
#         uart_send_cstr("<sector> <text>\r\n");
    1044:	00002537          	lui	a0,0x2
    1048:	d7c50513          	addi	a0,a0,-644 # 1d7c <void span<char>::for_each<string_print(span<char>)::{lambda(auto:1)#1}>(string_print(span<char>)::{lambda(auto:1)#1}&&) const [clone .isra.0]+0x568>
# }
    104c:	22812403          	lw	s0,552(sp)
    1050:	22c12083          	lw	ra,556(sp)
    1054:	23010113          	addi	sp,sp,560
#         uart_send_cstr("<text> exceeds sector size");
    1058:	5280006f          	j	1580 <uart_send_cstr(char const*)>
#     int8_t buf[512]{};
    105c:	20000413          	li	s0,512
    1060:	00040613          	mv	a2,s0
    1064:	00000593          	li	a1,0
    1068:	02010513          	addi	a0,sp,32
    106c:	6f8000ef          	jal	1764 <memset>
#     auto size() const -> size_t { return size_t(end_ - begin_); }
    1070:	01c12683          	lw	a3,28(sp)
    1074:	01812783          	lw	a5,24(sp)
#     mut* buf_ptr = buf;
    1078:	02010713          	addi	a4,sp,32
    107c:	40f68633          	sub	a2,a3,a5
#     if (w1.rem.size() > sizeof(buf)) {
    1080:	02c47063          	bgeu	s0,a2,10a0 <action_sdcard_write(span<char>)+0x8c>
#         uart_send_cstr("<text> exceeds sector size");
    1084:	00002537          	lui	a0,0x2
    1088:	d9050513          	addi	a0,a0,-624 # 1d90 <void span<char>::for_each<string_print(span<char>)::{lambda(auto:1)#1}>(string_print(span<char>)::{lambda(auto:1)#1}&&) const [clone .isra.0]+0x57c>
    108c:	fc1ff06f          	j	104c <action_sdcard_write(span<char>)+0x38>
#         *buf_ptr = ch;
    1090:	0007c603          	lbu	a2,0(a5)
#         ++buf_ptr;
    1094:	00170713          	addi	a4,a4,1
#         for (Type* it = begin_; it < end_; ++it) {
    1098:	00178793          	addi	a5,a5,1
#         *buf_ptr = ch;
    109c:	fec70fa3          	sb	a2,-1(a4)
    10a0:	fed7e8e3          	bltu	a5,a3,1090 <action_sdcard_write(span<char>)+0x7c>
#     size_t const sector = string_to_uint32(w1.word);
    10a4:	01412583          	lw	a1,20(sp)
    10a8:	01012503          	lw	a0,16(sp)
    10ac:	2e8000ef          	jal	1394 <string_to_uint32(span<char>)>
#     sdcard_write_blocking(sector, buf);
    10b0:	02010593          	addi	a1,sp,32
    10b4:	684000ef          	jal	1738 <sdcard_write_blocking(unsigned int, char const*)>
# }
    10b8:	22c12083          	lw	ra,556(sp)
    10bc:	22812403          	lw	s0,552(sp)
    10c0:	23010113          	addi	sp,sp,560
    10c4:	00008067          	ret

000010c8 <print_help()>:
#     uart_send_cstr(
    10c8:	00002537          	lui	a0,0x2
    10cc:	dac50513          	addi	a0,a0,-596 # 1dac <void span<char>::for_each<string_print(span<char>)::{lambda(auto:1)#1}>(string_print(span<char>)::{lambda(auto:1)#1}&&) const [clone .isra.0]+0x598>
    10d0:	4b00006f          	j	1580 <uart_send_cstr(char const*)>

000010d4 <input(cursor_buffer<char, 160u>&)>:
# static auto input(command_buffer& cmd_buf) -> void {
    10d4:	fd010113          	addi	sp,sp,-48
    10d8:	02812423          	sw	s0,40(sp)
    10dc:	02912223          	sw	s1,36(sp)
    10e0:	01312e23          	sw	s3,28(sp)
    10e4:	01412c23          	sw	s4,24(sp)
    10e8:	01512a23          	sw	s5,20(sp)
    10ec:	01612823          	sw	s6,16(sp)
    10f0:	01712623          	sw	s7,12(sp)
    10f4:	01812423          	sw	s8,8(sp)
    10f8:	01912223          	sw	s9,4(sp)
    10fc:	01a12023          	sw	s10,0(sp)
    1100:	02112623          	sw	ra,44(sp)
    1104:	03212023          	sw	s2,32(sp)
#         switch (state) {
    1108:	00100993          	li	s3,1
# static auto input(command_buffer& cmd_buf) -> void {
    110c:	00050413          	mv	s0,a0
#             line_[i - 1] = line_[i];
#         }
#         --end_;
#     }
# 
#     auto reset() -> void { cursor_ = end_ = 0; }
    1110:	0a052223          	sw	zero,164(a0)
    1114:	0a052023          	sw	zero,160(a0)
#     mut escape_sequence_parameter = 0;
    1118:	00000d13          	li	s10,0
#     mut state = input_state::NORMAL;
    111c:	00000493          	li	s1,0
#         switch (state) {
    1120:	00200a13          	li	s4,2
#             if (ch >= '0' && ch <= '9') {
    1124:	00900a93          	li	s5,9
#                 switch (ch) {
    1128:	04400b13          	li	s6,68
#                         uart_send_cstr("\x1B[D");
    112c:	00002bb7          	lui	s7,0x2
#                 switch (ch) {
    1130:	07e00c13          	li	s8,126
#         for (size_t i = end_; i > cursor_; --i) {
    1134:	40a98cb3          	sub	s9,s3,a0
#         let ch = uart_read_char();
    1138:	480000ef          	jal	15b8 <uart_read_char()>
#         led_set(uint32_t(~ch));
    113c:	fff54793          	not	a5,a0
    1140:	fef02e23          	sw	a5,-4(zero) # fffffffc <__bss_end+0xffffdc74>
#         let ch = uart_read_char();
    1144:	00050913          	mv	s2,a0
#         switch (state) {
    1148:	17348263          	beq	s1,s3,12ac <input(cursor_buffer<char, 160u>&)+0x1d8>
    114c:	17448863          	beq	s1,s4,12bc <input(cursor_buffer<char, 160u>&)+0x1e8>
#             if (ch == 0x1B) {
    1150:	01b00793          	li	a5,27
    1154:	04f50263          	beq	a0,a5,1198 <input(cursor_buffer<char, 160u>&)+0xc4>
#             } else if (ch == char_backspace) {
    1158:	07f00793          	li	a5,127
    115c:	08f51663          	bne	a0,a5,11e8 <input(cursor_buffer<char, 160u>&)+0x114>
#         if (cursor_ == 0) {
    1160:	0a042783          	lw	a5,160(s0)
    1164:	00000493          	li	s1,0
    1168:	fc0788e3          	beqz	a5,1138 <input(cursor_buffer<char, 160u>&)+0x64>
#         if (cursor_ == end_) {
    116c:	0a442703          	lw	a4,164(s0)
#             --cursor_;
    1170:	fff78593          	addi	a1,a5,-1
#             --end_;
    1174:	fff70613          	addi	a2,a4,-1
#         if (cursor_ == end_) {
    1178:	02e78463          	beq	a5,a4,11a0 <input(cursor_buffer<char, 160u>&)+0xcc>
    117c:	00f407b3          	add	a5,s0,a5
#         for (size_t i = cursor_ - 1; i < end_; ++i) {
    1180:	408786b3          	sub	a3,a5,s0
    1184:	fff68693          	addi	a3,a3,-1
    1188:	04e6e863          	bltu	a3,a4,11d8 <input(cursor_buffer<char, 160u>&)+0x104>
#         --cursor_;
    118c:	0ab42023          	sw	a1,160(s0)
#         --end_;
    1190:	0ac42223          	sw	a2,164(s0)
    1194:	0140006f          	j	11a8 <input(cursor_buffer<char, 160u>&)+0xd4>
#                 state = input_state::ESCAPE;
    1198:	00100493          	li	s1,1
    119c:	f9dff06f          	j	1138 <input(cursor_buffer<char, 160u>&)+0x64>
#             --end_;
    11a0:	0ac42223          	sw	a2,164(s0)
#             --cursor_;
    11a4:	0ab42023          	sw	a1,160(s0)
#                     uart_send_char(ch);
    11a8:	07f00513          	li	a0,127
    11ac:	3f8000ef          	jal	15a4 <uart_send_char(char)>
#                     cmd_buf.apply_on_elements_from_cursor_to_end(
    11b0:	00040513          	mv	a0,s0
    11b4:	618000ef          	jal	17cc <void cursor_buffer<char, 160u>::apply_on_elements_from_cursor_to_end<input(cursor_buffer<char, 160u>&)::{lambda(auto:1)#1}>(input(cursor_buffer<char, 160u>&)::{lambda(auto:1)#1}&&) const [clone .isra.0]>
#                     uart_send_char(' ');
    11b8:	02000513          	li	a0,32
    11bc:	3e8000ef          	jal	15a4 <uart_send_char(char)>
#                     uart_send_move_back(cmd_buf.elements_after_cursor_count() +
    11c0:	0a442783          	lw	a5,164(s0)
    11c4:	0a042503          	lw	a0,160(s0)
    11c8:	00178793          	addi	a5,a5,1
    11cc:	40a78533          	sub	a0,a5,a0
#                 uart_send_move_back(cmd_buf.elements_after_cursor_count());
    11d0:	2b8000ef          	jal	1488 <uart_send_move_back(unsigned int)>
    11d4:	11c0006f          	j	12f0 <input(cursor_buffer<char, 160u>&)+0x21c>
#             line_[i] = line_[i + 1];
    11d8:	0007c683          	lbu	a3,0(a5)
    11dc:	00178793          	addi	a5,a5,1
    11e0:	fed78f23          	sb	a3,-2(a5)
#         for (size_t i = cursor_ - 1; i < end_; ++i) {
    11e4:	f9dff06f          	j	1180 <input(cursor_buffer<char, 160u>&)+0xac>
#             } else if (ch == char_carriage_return || cmd_buf.is_full()) {
    11e8:	00d00713          	li	a4,13
#         if (cursor_ == end_) {
    11ec:	0a442783          	lw	a5,164(s0)
    11f0:	00e50663          	beq	a0,a4,11fc <input(cursor_buffer<char, 160u>&)+0x128>
    11f4:	09f00493          	li	s1,159
    11f8:	04979263          	bne	a5,s1,123c <input(cursor_buffer<char, 160u>&)+0x168>
# 
#     auto set_terminator() -> void { line_[end_] = {}; }
    11fc:	00f407b3          	add	a5,s0,a5
    1200:	00078023          	sb	zero,0(a5)
# }
    1204:	02c12083          	lw	ra,44(sp)
    1208:	02812403          	lw	s0,40(sp)
    120c:	02412483          	lw	s1,36(sp)
    1210:	02012903          	lw	s2,32(sp)
    1214:	01c12983          	lw	s3,28(sp)
    1218:	01812a03          	lw	s4,24(sp)
    121c:	01412a83          	lw	s5,20(sp)
    1220:	01012b03          	lw	s6,16(sp)
    1224:	00c12b83          	lw	s7,12(sp)
    1228:	00812c03          	lw	s8,8(sp)
    122c:	00412c83          	lw	s9,4(sp)
    1230:	00012d03          	lw	s10,0(sp)
    1234:	03010113          	addi	sp,sp,48
    1238:	00008067          	ret
#                 uart_send_char(ch);
    123c:	368000ef          	jal	15a4 <uart_send_char(char)>
#         if (end_ == sizeof(line_) - 1) {
    1240:	0a442683          	lw	a3,164(s0)
    1244:	02968263          	beq	a3,s1,1268 <input(cursor_buffer<char, 160u>&)+0x194>
#         if (cursor_ == end_) {
    1248:	0a042703          	lw	a4,160(s0)
#             ++end_;
    124c:	00168593          	addi	a1,a3,1
    1250:	00d407b3          	add	a5,s0,a3
#             ++cursor_;
    1254:	00170613          	addi	a2,a4,1
#         if (cursor_ == end_) {
    1258:	02e69463          	bne	a3,a4,1280 <input(cursor_buffer<char, 160u>&)+0x1ac>
#             line_[cursor_] = ch;
    125c:	01278023          	sb	s2,0(a5)
#             ++cursor_;
    1260:	0ac42023          	sw	a2,160(s0)
#             ++end_;
    1264:	0ab42223          	sw	a1,164(s0)
#                 cmd_buf.apply_on_elements_from_cursor_to_end(
    1268:	00040513          	mv	a0,s0
    126c:	560000ef          	jal	17cc <void cursor_buffer<char, 160u>::apply_on_elements_from_cursor_to_end<input(cursor_buffer<char, 160u>&)::{lambda(auto:1)#1}>(input(cursor_buffer<char, 160u>&)::{lambda(auto:1)#1}&&) const [clone .isra.0]>
#             f(line_[i]);
#         }
#     }
# 
#     auto elements_after_cursor_count() const -> size_t {
#         return end_ - cursor_;
    1270:	0a442503          	lw	a0,164(s0)
    1274:	0a042783          	lw	a5,160(s0)
#                 uart_send_move_back(cmd_buf.elements_after_cursor_count());
    1278:	40f50533          	sub	a0,a0,a5
    127c:	f55ff06f          	j	11d0 <input(cursor_buffer<char, 160u>&)+0xfc>
#         ++end_;
    1280:	0ab42223          	sw	a1,164(s0)
#         for (size_t i = end_; i > cursor_; --i) {
    1284:	00fc86b3          	add	a3,s9,a5
    1288:	00d76a63          	bltu	a4,a3,129c <input(cursor_buffer<char, 160u>&)+0x1c8>
#         line_[cursor_] = ch;
    128c:	00e40733          	add	a4,s0,a4
    1290:	01270023          	sb	s2,0(a4)
#         ++cursor_;
    1294:	0ac42023          	sw	a2,160(s0)
#         return true;
    1298:	fd1ff06f          	j	1268 <input(cursor_buffer<char, 160u>&)+0x194>
#             line_[i] = line_[i - 1];
    129c:	0007c683          	lbu	a3,0(a5)
    12a0:	fff78793          	addi	a5,a5,-1
    12a4:	00d78123          	sb	a3,2(a5)
#         for (size_t i = end_; i > cursor_; --i) {
    12a8:	fddff06f          	j	1284 <input(cursor_buffer<char, 160u>&)+0x1b0>
#             if (ch == 0x5B) {
    12ac:	fa550493          	addi	s1,a0,-91
    12b0:	0014b493          	seqz	s1,s1
    12b4:	00149493          	slli	s1,s1,0x1
    12b8:	e81ff06f          	j	1138 <input(cursor_buffer<char, 160u>&)+0x64>
#             if (ch >= '0' && ch <= '9') {
    12bc:	fd050713          	addi	a4,a0,-48
    12c0:	0ff77793          	zext.b	a5,a4
    12c4:	00faec63          	bltu	s5,a5,12dc <input(cursor_buffer<char, 160u>&)+0x208>
#                     escape_sequence_parameter * 10 + (ch - '0');
    12c8:	002d1793          	slli	a5,s10,0x2
    12cc:	01a787b3          	add	a5,a5,s10
    12d0:	00179793          	slli	a5,a5,0x1
#                 escape_sequence_parameter =
    12d4:	00f70d33          	add	s10,a4,a5
    12d8:	e61ff06f          	j	1138 <input(cursor_buffer<char, 160u>&)+0x64>
#                 switch (ch) {
    12dc:	01650e63          	beq	a0,s6,12f8 <input(cursor_buffer<char, 160u>&)+0x224>
    12e0:	05850a63          	beq	a0,s8,1334 <input(cursor_buffer<char, 160u>&)+0x260>
    12e4:	04300793          	li	a5,67
    12e8:	02f50663          	beq	a0,a5,1314 <input(cursor_buffer<char, 160u>&)+0x240>
#                 escape_sequence_parameter = 0;
    12ec:	00000d13          	li	s10,0
#                 state = input_state::NORMAL;
    12f0:	00000493          	li	s1,0
    12f4:	e45ff06f          	j	1138 <input(cursor_buffer<char, 160u>&)+0x64>
#         if (cursor_ == 0) {
    12f8:	0a042783          	lw	a5,160(s0)
    12fc:	fe0788e3          	beqz	a5,12ec <input(cursor_buffer<char, 160u>&)+0x218>
#         --cursor_;
    1300:	fff78793          	addi	a5,a5,-1
    1304:	0af42023          	sw	a5,160(s0)
#                         uart_send_cstr("\x1B[D");
    1308:	ee4b8513          	addi	a0,s7,-284 # 1ee4 <void span<char>::for_each<string_print(span<char>)::{lambda(auto:1)#1}>(string_print(span<char>)::{lambda(auto:1)#1}&&) const [clone .isra.0]+0x6d0>
#                         uart_send_cstr("\x1B[C");
    130c:	274000ef          	jal	1580 <uart_send_cstr(char const*)>
    1310:	fddff06f          	j	12ec <input(cursor_buffer<char, 160u>&)+0x218>
#         if (cursor_ == end_) {
    1314:	0a042783          	lw	a5,160(s0)
    1318:	0a442703          	lw	a4,164(s0)
    131c:	fce788e3          	beq	a5,a4,12ec <input(cursor_buffer<char, 160u>&)+0x218>
#         ++cursor_;
    1320:	00178793          	addi	a5,a5,1
    1324:	00002537          	lui	a0,0x2
    1328:	0af42023          	sw	a5,160(s0)
    132c:	ee850513          	addi	a0,a0,-280 # 1ee8 <void span<char>::for_each<string_print(span<char>)::{lambda(auto:1)#1}>(string_print(span<char>)::{lambda(auto:1)#1}&&) const [clone .isra.0]+0x6d4>
    1330:	fddff06f          	j	130c <input(cursor_buffer<char, 160u>&)+0x238>
#                     if (escape_sequence_parameter == 3) {
    1334:	00300793          	li	a5,3
    1338:	fafd1ae3          	bne	s10,a5,12ec <input(cursor_buffer<char, 160u>&)+0x218>
#         if (cursor_ == end_) {
    133c:	0a042783          	lw	a5,160(s0)
    1340:	0a442703          	lw	a4,164(s0)
    1344:	00e78e63          	beq	a5,a4,1360 <input(cursor_buffer<char, 160u>&)+0x28c>
    1348:	00f407b3          	add	a5,s0,a5
#         for (size_t i = cursor_ + 1; i < end_; ++i) {
    134c:	00178793          	addi	a5,a5,1
    1350:	408786b3          	sub	a3,a5,s0
    1354:	02e6ea63          	bltu	a3,a4,1388 <input(cursor_buffer<char, 160u>&)+0x2b4>
#         --end_;
    1358:	fff70713          	addi	a4,a4,-1
    135c:	0ae42223          	sw	a4,164(s0)
#                         cmd_buf.apply_on_elements_from_cursor_to_end(
    1360:	00040513          	mv	a0,s0
    1364:	468000ef          	jal	17cc <void cursor_buffer<char, 160u>::apply_on_elements_from_cursor_to_end<input(cursor_buffer<char, 160u>&)::{lambda(auto:1)#1}>(input(cursor_buffer<char, 160u>&)::{lambda(auto:1)#1}&&) const [clone .isra.0]>
#                         uart_send_char(' ');
    1368:	02000513          	li	a0,32
    136c:	238000ef          	jal	15a4 <uart_send_char(char)>
#                         uart_send_move_back(
    1370:	0a442783          	lw	a5,164(s0)
    1374:	0a042503          	lw	a0,160(s0)
    1378:	00178793          	addi	a5,a5,1
    137c:	40a78533          	sub	a0,a5,a0
    1380:	108000ef          	jal	1488 <uart_send_move_back(unsigned int)>
    1384:	f69ff06f          	j	12ec <input(cursor_buffer<char, 160u>&)+0x218>
#             line_[i - 1] = line_[i];
    1388:	0007c683          	lbu	a3,0(a5)
    138c:	fed78fa3          	sb	a3,-1(a5)
#         for (size_t i = cursor_ + 1; i < end_; ++i) {
    1390:	fbdff06f          	j	134c <input(cursor_buffer<char, 160u>&)+0x278>

00001394 <string_to_uint32(span<char>)>:
# static auto string_to_uint32(string const str) -> uint32_t {
    1394:	ff010113          	addi	sp,sp,-16
    1398:	00a12423          	sw	a0,8(sp)
#         Type* it = begin_;
    139c:	00050713          	mv	a4,a0
    13a0:	00b12623          	sw	a1,12(sp)
#     mut num = 0u;
    13a4:	00000513          	li	a0,0
#         if (ch <= '0' || ch >= '9') {
    13a8:	00700613          	li	a2,7
#         for (; it < end_; ++it) {
    13ac:	00b76663          	bltu	a4,a1,13b8 <string_to_uint32(span<char>)+0x24>
# }
    13b0:	01010113          	addi	sp,sp,16
    13b4:	00008067          	ret
#             if (!f(*it)) {
    13b8:	00074683          	lbu	a3,0(a4)
#         if (ch <= '0' || ch >= '9') {
    13bc:	fcf68793          	addi	a5,a3,-49
    13c0:	0ff7f793          	zext.b	a5,a5
    13c4:	fef666e3          	bltu	a2,a5,13b0 <string_to_uint32(span<char>)+0x1c>
#         num = num * 10 + uint32_t(ch - '0');
    13c8:	00251793          	slli	a5,a0,0x2
    13cc:	00a787b3          	add	a5,a5,a0
    13d0:	00179793          	slli	a5,a5,0x1
    13d4:	fd078793          	addi	a5,a5,-48
    13d8:	00d78533          	add	a0,a5,a3
#         for (; it < end_; ++it) {
    13dc:	00170713          	addi	a4,a4,1
    13e0:	fcdff06f          	j	13ac <string_to_uint32(span<char>)+0x18>

000013e4 <uart_send_hex_uint32(unsigned int, bool)>:
#                                  bool const separate_half_words) -> void {
    13e4:	ff010113          	addi	sp,sp,-16
    13e8:	00812423          	sw	s0,8(sp)
    13ec:	00050413          	mv	s0,a0
#     uart_send_hex_byte(uint8_t(i >> 24));
    13f0:	01855513          	srli	a0,a0,0x18
#                                  bool const separate_half_words) -> void {
    13f4:	00912223          	sw	s1,4(sp)
    13f8:	00112623          	sw	ra,12(sp)
    13fc:	00058493          	mv	s1,a1
#     uart_send_hex_byte(uint8_t(i >> 24));
    1400:	040000ef          	jal	1440 <uart_send_hex_byte(unsigned char)>
#     uart_send_hex_byte(uint8_t(i >> 16));
    1404:	01045513          	srli	a0,s0,0x10
    1408:	0ff57513          	zext.b	a0,a0
    140c:	034000ef          	jal	1440 <uart_send_hex_byte(unsigned char)>
#     if (separate_half_words) {
    1410:	00048663          	beqz	s1,141c <uart_send_hex_uint32(unsigned int, bool)+0x38>
#         uart_send_char(':');
    1414:	03a00513          	li	a0,58
    1418:	18c000ef          	jal	15a4 <uart_send_char(char)>
#     uart_send_hex_byte(uint8_t(i >> 8));
    141c:	00845513          	srli	a0,s0,0x8
    1420:	0ff57513          	zext.b	a0,a0
    1424:	01c000ef          	jal	1440 <uart_send_hex_byte(unsigned char)>
#     uart_send_hex_byte(uint8_t(i));
    1428:	0ff47513          	zext.b	a0,s0
# }
    142c:	00812403          	lw	s0,8(sp)
    1430:	00c12083          	lw	ra,12(sp)
    1434:	00412483          	lw	s1,4(sp)
    1438:	01010113          	addi	sp,sp,16
#     uart_send_hex_byte(uint8_t(i));
    143c:	0040006f          	j	1440 <uart_send_hex_byte(unsigned char)>

00001440 <uart_send_hex_byte(unsigned char)>:
# static auto uart_send_hex_byte(uint8_t const ch) -> void {
    1440:	ff010113          	addi	sp,sp,-16
    1444:	00812423          	sw	s0,8(sp)
    1448:	00050413          	mv	s0,a0
#     uart_send_hex_nibble(ch >> 4);
    144c:	00455513          	srli	a0,a0,0x4
# static auto uart_send_hex_byte(uint8_t const ch) -> void {
    1450:	00112623          	sw	ra,12(sp)
#     uart_send_hex_nibble(ch >> 4);
    1454:	018000ef          	jal	146c <uart_send_hex_nibble(unsigned char)>
#     uart_send_hex_nibble(ch & 0x0f);
    1458:	00f47513          	andi	a0,s0,15
# }
    145c:	00812403          	lw	s0,8(sp)
    1460:	00c12083          	lw	ra,12(sp)
    1464:	01010113          	addi	sp,sp,16
#     uart_send_hex_nibble(ch & 0x0f);
    1468:	0040006f          	j	146c <uart_send_hex_nibble(unsigned char)>

0000146c <uart_send_hex_nibble(unsigned char)>:
#     if (nibble < 10) {
    146c:	00900793          	li	a5,9
    1470:	00a7e863          	bltu	a5,a0,1480 <uart_send_hex_nibble(unsigned char)+0x14>
#         uart_send_char('0' + char(nibble));
    1474:	03050513          	addi	a0,a0,48
#         uart_send_char('A' + char(nibble - 10));
    1478:	0ff57513          	zext.b	a0,a0
    147c:	1280006f          	j	15a4 <uart_send_char(char)>
    1480:	03750513          	addi	a0,a0,55
    1484:	ff5ff06f          	j	1478 <uart_send_hex_nibble(unsigned char)+0xc>

00001488 <uart_send_move_back(unsigned int)>:
# static auto uart_send_move_back(size_t const n) -> void {
    1488:	ff010113          	addi	sp,sp,-16
    148c:	00812423          	sw	s0,8(sp)
    1490:	00912223          	sw	s1,4(sp)
    1494:	00112623          	sw	ra,12(sp)
    1498:	00050413          	mv	s0,a0
#     for (mut i = 0u; i < n; ++i) {
    149c:	00000493          	li	s1,0
    14a0:	00849c63          	bne	s1,s0,14b8 <uart_send_move_back(unsigned int)+0x30>
# }
    14a4:	00c12083          	lw	ra,12(sp)
    14a8:	00812403          	lw	s0,8(sp)
    14ac:	00412483          	lw	s1,4(sp)
    14b0:	01010113          	addi	sp,sp,16
    14b4:	00008067          	ret
#         uart_send_char('\b');
    14b8:	00800513          	li	a0,8
    14bc:	0e8000ef          	jal	15a4 <uart_send_char(char)>
#     for (mut i = 0u; i < n; ++i) {
    14c0:	00148493          	addi	s1,s1,1
    14c4:	fddff06f          	j	14a0 <uart_send_move_back(unsigned int)+0x18>

000014c8 <entity_by_id(unsigned char)>:
#         if (id >= sizeof(entities) / sizeof(entity)) {
    14c8:	000027b7          	lui	a5,0x2
    14cc:	00200693          	li	a3,2
    14d0:	fb478713          	addi	a4,a5,-76 # 1fb4 <entities>
    14d4:	02a6e063          	bltu	a3,a0,14f4 <entity_by_id(unsigned char)+0x2c>
#     return entities[id];
    14d8:	00151793          	slli	a5,a0,0x1
    14dc:	00a787b3          	add	a5,a5,a0
    14e0:	00279793          	slli	a5,a5,0x2
    14e4:	40a78533          	sub	a0,a5,a0
    14e8:	00251513          	slli	a0,a0,0x2
    14ec:	00a70533          	add	a0,a4,a0
    14f0:	00008067          	ret
#             return entities[0];
    14f4:	fb478513          	addi	a0,a5,-76
# }
    14f8:	00008067          	ret

000014fc <object_by_id(unsigned char)>:
#         if (id >= sizeof(objects) / sizeof(object)) {
    14fc:	000027b7          	lui	a5,0x2
    1500:	00300693          	li	a3,3
    1504:	fa478713          	addi	a4,a5,-92 # 1fa4 <objects>
    1508:	00a6e863          	bltu	a3,a0,1518 <object_by_id(unsigned char)+0x1c>
#     return objects[id];
    150c:	00251513          	slli	a0,a0,0x2
    1510:	00a70533          	add	a0,a4,a0
    1514:	00008067          	ret
#             return objects[0];
    1518:	fa478513          	addi	a0,a5,-92
# }
    151c:	00008067          	ret

00001520 <location_by_id(unsigned char)>:
#         if (id >= sizeof(locations) / sizeof(location)) {
    1520:	000027b7          	lui	a5,0x2
    1524:	00400693          	li	a3,4
    1528:	03878713          	addi	a4,a5,56 # 2038 <locations>
    152c:	02a6e063          	bltu	a3,a0,154c <location_by_id(unsigned char)+0x2c>
#     return locations[id];
    1530:	00251793          	slli	a5,a0,0x2
    1534:	00a787b3          	add	a5,a5,a0
    1538:	00379793          	slli	a5,a5,0x3
    153c:	00a78533          	add	a0,a5,a0
    1540:	00251513          	slli	a0,a0,0x2
    1544:	00a70533          	add	a0,a4,a0
    1548:	00008067          	ret
#             return locations[0];
    154c:	03878513          	addi	a0,a5,56
# }
    1550:	00008067          	ret

00001554 <link_by_id(unsigned char)>:
# 
# static auto link_by_id(link_id_t const id) -> cstr {
#     if constexpr (safe_arrays) {
#         if (id >= sizeof(links) / sizeof(cstr)) {
    1554:	000027b7          	lui	a5,0x2
    1558:	00600713          	li	a4,6
    155c:	36c78793          	addi	a5,a5,876 # 236c <links>
    1560:	00a77663          	bgeu	a4,a0,156c <link_by_id(unsigned char)+0x18>
#             return links[0];
#         }
#     }
#     return links[id];
    1564:	0007a503          	lw	a0,0(a5)
# }
    1568:	00008067          	ret
#     return links[id];
    156c:	00251513          	slli	a0,a0,0x2
    1570:	00a787b3          	add	a5,a5,a0
    1574:	ff1ff06f          	j	1564 <link_by_id(unsigned char)+0x10>

00001578 <led_set(unsigned int)>:
    1578:	fea02e23          	sw	a0,-4(zero) # fffffffc <__bss_end+0xffffdc74>
    157c:	00008067          	ret

00001580 <uart_send_cstr(char const*)>:
#         while (*UART_OUT != -1)
    1580:	fff00713          	li	a4,-1
#     while (*str) {
    1584:	00054783          	lbu	a5,0(a0)
    1588:	00079463          	bnez	a5,1590 <uart_send_cstr(char const*)+0x10>
# }
    158c:	00008067          	ret
#         while (*UART_OUT != -1)
    1590:	ff802683          	lw	a3,-8(zero) # fffffff8 <__bss_end+0xffffdc70>
    1594:	fee69ee3          	bne	a3,a4,1590 <uart_send_cstr(char const*)+0x10>
#         *UART_OUT = *str++;
    1598:	00150513          	addi	a0,a0,1
    159c:	fef02c23          	sw	a5,-8(zero) # fffffff8 <__bss_end+0xffffdc70>
    15a0:	fe5ff06f          	j	1584 <uart_send_cstr(char const*)+0x4>

000015a4 <uart_send_char(char)>:
#     while (*UART_OUT != -1)
    15a4:	fff00793          	li	a5,-1
    15a8:	ff802703          	lw	a4,-8(zero) # fffffff8 <__bss_end+0xffffdc70>
    15ac:	fef71ee3          	bne	a4,a5,15a8 <uart_send_char(char)+0x4>
#     *UART_OUT = ch;
    15b0:	fea02c23          	sw	a0,-8(zero) # fffffff8 <__bss_end+0xffffdc70>
# }
    15b4:	00008067          	ret

000015b8 <uart_read_char()>:
#     while ((ch = *UART_IN) == -1)
    15b8:	fff00793          	li	a5,-1
    15bc:	ff402503          	lw	a0,-12(zero) # fffffff4 <__bss_end+0xffffdc6c>
    15c0:	fef50ee3          	beq	a0,a5,15bc <uart_read_char()+0x4>
# }
    15c4:	0ff57513          	zext.b	a0,a0
    15c8:	00008067          	ret

000015cc <action_mem_test()>:
#     uart_send_cstr("testing memory (write)\r\n");
    15cc:	00002537          	lui	a0,0x2
# static auto action_mem_test() -> void {
    15d0:	ff010113          	addi	sp,sp,-16
#     uart_send_cstr("testing memory (write)\r\n");
    15d4:	eec50513          	addi	a0,a0,-276 # 1eec <void span<char>::for_each<string_print(span<char>)::{lambda(auto:1)#1}>(string_print(span<char>)::{lambda(auto:1)#1}&&) const [clone .isra.0]+0x6d8>
# static auto action_mem_test() -> void {
    15d8:	00812423          	sw	s0,8(sp)
    15dc:	00112623          	sw	ra,12(sp)
#     char* ptr = &__heap_start;
    15e0:	00002437          	lui	s0,0x2
# static auto action_mem_test() -> void {
    15e4:	00912223          	sw	s1,4(sp)
    15e8:	01212023          	sw	s2,0(sp)
#     uart_send_cstr("testing memory (write)\r\n");
    15ec:	f95ff0ef          	jal	1580 <uart_send_cstr(char const*)>
#     char* ptr = &__heap_start;
    15f0:	38840713          	addi	a4,s0,904 # 2388 <__bss_end>
#     char ch = 0;
    15f4:	00000793          	li	a5,0
    15f8:	38840413          	addi	s0,s0,904
#     while (ptr < end) {
    15fc:	007f06b7          	lui	a3,0x7f0
    1600:	04d76263          	bltu	a4,a3,1644 <action_mem_test()+0x78>
#     uart_send_cstr("testing memory (read)\r\n");
    1604:	00002537          	lui	a0,0x2
    1608:	f0850513          	addi	a0,a0,-248 # 1f08 <void span<char>::for_each<string_print(span<char>)::{lambda(auto:1)#1}>(string_print(span<char>)::{lambda(auto:1)#1}&&) const [clone .isra.0]+0x6f4>
    160c:	f75ff0ef          	jal	1580 <uart_send_cstr(char const*)>
#     bool failed = false;
    1610:	00000793          	li	a5,0
#     ch = 0;
    1614:	00000493          	li	s1,0
#     while (ptr < end) {
    1618:	007f0937          	lui	s2,0x7f0
    161c:	03246e63          	bltu	s0,s2,1658 <action_mem_test()+0x8c>
#     if (failed) {
    1620:	0a078063          	beqz	a5,16c0 <action_mem_test()+0xf4>
#         uart_send_cstr("testing memory FAILED\r\n");
    1624:	00002537          	lui	a0,0x2
    1628:	f3850513          	addi	a0,a0,-200 # 1f38 <void span<char>::for_each<string_print(span<char>)::{lambda(auto:1)#1}>(string_print(span<char>)::{lambda(auto:1)#1}&&) const [clone .isra.0]+0x724>
# }
    162c:	00812403          	lw	s0,8(sp)
    1630:	00c12083          	lw	ra,12(sp)
    1634:	00412483          	lw	s1,4(sp)
    1638:	00012903          	lw	s2,0(sp)
    163c:	01010113          	addi	sp,sp,16
#         uart_send_cstr("testing memory succeeded\r\n");
    1640:	f41ff06f          	j	1580 <uart_send_cstr(char const*)>
#         *ptr = ch;
    1644:	00f70023          	sb	a5,0(a4)
#         ++ch;
    1648:	00178793          	addi	a5,a5,1
#         ++ptr;
    164c:	00170713          	addi	a4,a4,1
#         ++ch;
    1650:	0ff7f793          	zext.b	a5,a5
    1654:	fadff06f          	j	1600 <action_mem_test()+0x34>
#         if (*ptr != ch) [[unlikely]] {
    1658:	00044703          	lbu	a4,0(s0)
    165c:	04970a63          	beq	a4,s1,16b0 <action_mem_test()+0xe4>
#             uart_send_cstr("at ");
    1660:	00002537          	lui	a0,0x2
    1664:	f2050513          	addi	a0,a0,-224 # 1f20 <void span<char>::for_each<string_print(span<char>)::{lambda(auto:1)#1}>(string_print(span<char>)::{lambda(auto:1)#1}&&) const [clone .isra.0]+0x70c>
    1668:	f19ff0ef          	jal	1580 <uart_send_cstr(char const*)>
#             uart_send_hex_uint32(uint32_t(ptr), true);
    166c:	00100593          	li	a1,1
    1670:	00040513          	mv	a0,s0
    1674:	d71ff0ef          	jal	13e4 <uart_send_hex_uint32(unsigned int, bool)>
#             uart_send_cstr(" expected ");
    1678:	00002537          	lui	a0,0x2
    167c:	f2450513          	addi	a0,a0,-220 # 1f24 <void span<char>::for_each<string_print(span<char>)::{lambda(auto:1)#1}>(string_print(span<char>)::{lambda(auto:1)#1}&&) const [clone .isra.0]+0x710>
    1680:	f01ff0ef          	jal	1580 <uart_send_cstr(char const*)>
#             uart_send_hex_byte(ch);
    1684:	00048513          	mv	a0,s1
    1688:	db9ff0ef          	jal	1440 <uart_send_hex_byte(unsigned char)>
#             uart_send_cstr(" got ");
    168c:	00002537          	lui	a0,0x2
    1690:	f3050513          	addi	a0,a0,-208 # 1f30 <void span<char>::for_each<string_print(span<char>)::{lambda(auto:1)#1}>(string_print(span<char>)::{lambda(auto:1)#1}&&) const [clone .isra.0]+0x71c>
    1694:	eedff0ef          	jal	1580 <uart_send_cstr(char const*)>
#             uart_send_hex_byte(*ptr);
    1698:	00044503          	lbu	a0,0(s0)
    169c:	da5ff0ef          	jal	1440 <uart_send_hex_byte(unsigned char)>
#             uart_send_cstr("\r\n");
    16a0:	00002537          	lui	a0,0x2
    16a4:	c8450513          	addi	a0,a0,-892 # 1c84 <void span<char>::for_each<string_print(span<char>)::{lambda(auto:1)#1}>(string_print(span<char>)::{lambda(auto:1)#1}&&) const [clone .isra.0]+0x470>
    16a8:	ed9ff0ef          	jal	1580 <uart_send_cstr(char const*)>
#             failed = true;
    16ac:	00100793          	li	a5,1
#         ++ch;
    16b0:	00148493          	addi	s1,s1,1
#         ++ptr;
    16b4:	00140413          	addi	s0,s0,1
#         ++ch;
    16b8:	0ff4f493          	zext.b	s1,s1
    16bc:	f61ff06f          	j	161c <action_mem_test()+0x50>
#         uart_send_cstr("testing memory succeeded\r\n");
    16c0:	00002537          	lui	a0,0x2
    16c4:	f5050513          	addi	a0,a0,-176 # 1f50 <void span<char>::for_each<string_print(span<char>)::{lambda(auto:1)#1}>(string_print(span<char>)::{lambda(auto:1)#1}&&) const [clone .isra.0]+0x73c>
    16c8:	f65ff06f          	j	162c <action_mem_test()+0x60>

000016cc <action_sdcard_status()>:
# static auto action_sdcard_status() -> void {
    16cc:	ff010113          	addi	sp,sp,-16
    16d0:	00812423          	sw	s0,8(sp)
#     uart_send_cstr("SDCARD_STATUS: 0x");
    16d4:	00002537          	lui	a0,0x2
#     uint32_t const status = *SDCARD_STATUS;
    16d8:	fe402403          	lw	s0,-28(zero) # ffffffe4 <__bss_end+0xffffdc5c>
#     uart_send_cstr("SDCARD_STATUS: 0x");
    16dc:	f6c50513          	addi	a0,a0,-148 # 1f6c <void span<char>::for_each<string_print(span<char>)::{lambda(auto:1)#1}>(string_print(span<char>)::{lambda(auto:1)#1}&&) const [clone .isra.0]+0x758>
# static auto action_sdcard_status() -> void {
    16e0:	00112623          	sw	ra,12(sp)
#     uart_send_cstr("SDCARD_STATUS: 0x");
    16e4:	e9dff0ef          	jal	1580 <uart_send_cstr(char const*)>
#     uart_send_hex_uint32(status, true);
    16e8:	00040513          	mv	a0,s0
    16ec:	00100593          	li	a1,1
    16f0:	cf5ff0ef          	jal	13e4 <uart_send_hex_uint32(unsigned int, bool)>
# }
    16f4:	00812403          	lw	s0,8(sp)
    16f8:	00c12083          	lw	ra,12(sp)
#     uart_send_cstr("\r\n");
    16fc:	00002537          	lui	a0,0x2
    1700:	c8450513          	addi	a0,a0,-892 # 1c84 <void span<char>::for_each<string_print(span<char>)::{lambda(auto:1)#1}>(string_print(span<char>)::{lambda(auto:1)#1}&&) const [clone .isra.0]+0x470>
# }
    1704:	01010113          	addi	sp,sp,16
#     uart_send_cstr("\r\n");
    1708:	e79ff06f          	j	1580 <uart_send_cstr(char const*)>

0000170c <sdcard_read_blocking(unsigned int, char*)>:
#     while (*SDCARD_BUSY)
    170c:	ff002783          	lw	a5,-16(zero) # fffffff0 <__bss_end+0xffffdc68>
    1710:	fe079ee3          	bnez	a5,170c <sdcard_read_blocking(unsigned int, char*)>
#     *SDCARD_READ_SECTOR = sector;
    1714:	fea02623          	sw	a0,-20(zero) # ffffffec <__bss_end+0xffffdc64>
#     while (*SDCARD_BUSY)
    1718:	ff002783          	lw	a5,-16(zero) # fffffff0 <__bss_end+0xffffdc68>
    171c:	fe079ee3          	bnez	a5,1718 <sdcard_read_blocking(unsigned int, char*)+0xc>
    1720:	20058793          	addi	a5,a1,512
#         *buffer512B = char(*SDCARD_NEXT_BYTE);
    1724:	fe802703          	lw	a4,-24(zero) # ffffffe8 <__bss_end+0xffffdc60>
#         ++buffer512B;
    1728:	00158593          	addi	a1,a1,1
#         *buffer512B = char(*SDCARD_NEXT_BYTE);
    172c:	fee58fa3          	sb	a4,-1(a1)
#     for (size_t i = 0; i < 512; ++i) {
    1730:	feb79ae3          	bne	a5,a1,1724 <sdcard_read_blocking(unsigned int, char*)+0x18>
# }
    1734:	00008067          	ret

00001738 <sdcard_write_blocking(unsigned int, char const*)>:
#     while (*SDCARD_BUSY)
    1738:	ff002783          	lw	a5,-16(zero) # fffffff0 <__bss_end+0xffffdc68>
    173c:	fe079ee3          	bnez	a5,1738 <sdcard_write_blocking(unsigned int, char const*)>
    1740:	20058793          	addi	a5,a1,512
#         *SDCARD_NEXT_BYTE = *buffer512B;
    1744:	0005c703          	lbu	a4,0(a1)
#         ++buffer512B;
    1748:	00158593          	addi	a1,a1,1
#         *SDCARD_NEXT_BYTE = *buffer512B;
    174c:	fee02423          	sw	a4,-24(zero) # ffffffe8 <__bss_end+0xffffdc60>
#     for (size_t i = 0; i < 512; ++i) {
    1750:	feb79ae3          	bne	a5,a1,1744 <sdcard_write_blocking(unsigned int, char const*)+0xc>
#     *SDCARD_WRITE_SECTOR = sector;
    1754:	fea02023          	sw	a0,-32(zero) # ffffffe0 <__bss_end+0xffffdc58>
#     while (*SDCARD_BUSY)
    1758:	ff002783          	lw	a5,-16(zero) # fffffff0 <__bss_end+0xffffdc68>
    175c:	fe079ee3          	bnez	a5,1758 <sdcard_write_blocking(unsigned int, char const*)+0x20>
# }
    1760:	00008067          	ret

00001764 <memset>:
#     while (n--) {
    1764:	00c50633          	add	a2,a0,a2
#     char* ptr = reinterpret_cast<char*>(str);
    1768:	00050793          	mv	a5,a0
#     while (n--) {
    176c:	00c79463          	bne	a5,a2,1774 <memset+0x10>
# }
    1770:	00008067          	ret
#         *ptr = char(ch);
    1774:	00b78023          	sb	a1,0(a5)
#         ++ptr;
    1778:	00178793          	addi	a5,a5,1
    177c:	ff1ff06f          	j	176c <memset+0x8>

00001780 <memcpy>:
#     char* p1 = reinterpret_cast<char*>(dst);
#     char const* p2 = reinterpret_cast<char const*>(src);
#     while (n--) {
    1780:	00000793          	li	a5,0
    1784:	00f61463          	bne	a2,a5,178c <memcpy+0xc>
#         *p1 = *p2;
#         ++p1;
#         ++p2;
#     }
#     return dst;
# }
    1788:	00008067          	ret
#         *p1 = *p2;
    178c:	00f58733          	add	a4,a1,a5
    1790:	00074683          	lbu	a3,0(a4)
    1794:	00f50733          	add	a4,a0,a5
    1798:	00178793          	addi	a5,a5,1
    179c:	00d70023          	sb	a3,0(a4)
#         ++p2;
    17a0:	fe5ff06f          	j	1784 <memcpy+0x4>

000017a4 <initiate_bss()>:
# 
# // zero bss section
# static auto initiate_bss() -> void {
#     memset(&__bss_start, 0, &__bss_end - &__bss_start);
    17a4:	00002537          	lui	a0,0x2
    17a8:	000027b7          	lui	a5,0x2
    17ac:	38850613          	addi	a2,a0,904 # 2388 <__bss_end>
    17b0:	38878793          	addi	a5,a5,904 # 2388 <__bss_end>
    17b4:	40c78633          	sub	a2,a5,a2
    17b8:	00000593          	li	a1,0
    17bc:	38850513          	addi	a0,a0,904
    17c0:	fa5ff06f          	j	1764 <memset>

000017c4 <initiate_statics()>:
# }
# 
# static auto initiate_statics() -> void {}
    17c4:	00008067          	ret

000017c8 <exit(int)>:
# 
# static auto exit(int code) -> void {}
    17c8:	00008067          	ret

000017cc <void cursor_buffer<char, 160u>::apply_on_elements_from_cursor_to_end<input(cursor_buffer<char, 160u>&)::{lambda(auto:1)#1}>(input(cursor_buffer<char, 160u>&)::{lambda(auto:1)#1}&&) const [clone .isra.0]>:
#     auto apply_on_elements_from_cursor_to_end(
    17cc:	ff010113          	addi	sp,sp,-16
    17d0:	00912223          	sw	s1,4(sp)
#         for (size_t i = cursor_; i < end_; ++i) {
    17d4:	0a052483          	lw	s1,160(a0)
#     auto apply_on_elements_from_cursor_to_end(
    17d8:	00812423          	sw	s0,8(sp)
    17dc:	00112623          	sw	ra,12(sp)
    17e0:	00050413          	mv	s0,a0
#         for (size_t i = cursor_; i < end_; ++i) {
    17e4:	0a442783          	lw	a5,164(s0)
    17e8:	00f4ec63          	bltu	s1,a5,1800 <void cursor_buffer<char, 160u>::apply_on_elements_from_cursor_to_end<input(cursor_buffer<char, 160u>&)::{lambda(auto:1)#1}>(input(cursor_buffer<char, 160u>&)::{lambda(auto:1)#1}&&) const [clone .isra.0]+0x34>
#     }
    17ec:	00c12083          	lw	ra,12(sp)
    17f0:	00812403          	lw	s0,8(sp)
    17f4:	00412483          	lw	s1,4(sp)
    17f8:	01010113          	addi	sp,sp,16
    17fc:	00008067          	ret
#             f(line_[i]);
    1800:	009407b3          	add	a5,s0,s1
#                         [](let c) { uart_send_char(c); });
    1804:	0007c503          	lbu	a0,0(a5)
#         for (size_t i = cursor_; i < end_; ++i) {
    1808:	00148493          	addi	s1,s1,1
    180c:	d99ff0ef          	jal	15a4 <uart_send_char(char)>
    1810:	fd5ff06f          	j	17e4 <void cursor_buffer<char, 160u>::apply_on_elements_from_cursor_to_end<input(cursor_buffer<char, 160u>&)::{lambda(auto:1)#1}>(input(cursor_buffer<char, 160u>&)::{lambda(auto:1)#1}&&) const [clone .isra.0]+0x18>

00001814 <void span<char>::for_each<string_print(span<char>)::{lambda(auto:1)#1}>(string_print(span<char>)::{lambda(auto:1)#1}&&) const [clone .isra.0]>:
#     auto for_each(callable_returns_void<Type> auto&& f) const -> void {
    1814:	ff010113          	addi	sp,sp,-16
    1818:	00812423          	sw	s0,8(sp)
#         for (Type* it = begin_; it < end_; ++it) {
    181c:	00052403          	lw	s0,0(a0)
#     auto for_each(callable_returns_void<Type> auto&& f) const -> void {
    1820:	00912223          	sw	s1,4(sp)
    1824:	00112623          	sw	ra,12(sp)
    1828:	00050493          	mv	s1,a0
#         for (Type* it = begin_; it < end_; ++it) {
    182c:	0044a783          	lw	a5,4(s1)
    1830:	00f46c63          	bltu	s0,a5,1848 <void span<char>::for_each<string_print(span<char>)::{lambda(auto:1)#1}>(string_print(span<char>)::{lambda(auto:1)#1}&&) const [clone .isra.0]+0x34>
#     }
    1834:	00c12083          	lw	ra,12(sp)
    1838:	00812403          	lw	s0,8(sp)
    183c:	00412483          	lw	s1,4(sp)
    1840:	01010113          	addi	sp,sp,16
    1844:	00008067          	ret
#     str.for_each([](let ch) { uart_send_char(ch); });
    1848:	00044503          	lbu	a0,0(s0)
#         for (Type* it = begin_; it < end_; ++it) {
    184c:	00140413          	addi	s0,s0,1
    1850:	d55ff0ef          	jal	15a4 <uart_send_char(char)>
    1854:	fd9ff06f          	j	182c <void span<char>::for_each<string_print(span<char>)::{lambda(auto:1)#1}>(string_print(span<char>)::{lambda(auto:1)#1}&&) const [clone .isra.0]+0x18>
