
os:     file format elf32-littleriscv


Disassembly of section .text:

00000000 <_start>:
# # generated - do not edit (see `configuration.py`)
# .global _start
# _start:
#     li sp, 0x200000
       0:	00200137          	lui	sp,0x200
#     jal ra, run
       4:	0c0000ef          	jal	c4 <run>

00000008 <_ZL16startup_init_bssv>:
# constexpr char CHAR_CARRIAGE_RETURN = 0x0d;
# 
# extern char __bss_start;
# extern char __bss_end;
# 
# static auto startup_init_bss() -> void {
       8:	fe010113          	add	sp,sp,-32 # 1fffe0 <__bss_end+0x1fcb74>
       c:	00812e23          	sw	s0,28(sp)
      10:	02010413          	add	s0,sp,32
#   for (char *bss = &__bss_start; bss < &__bss_end; ++bss) {
      14:	000037b7          	lui	a5,0x3
      18:	46478793          	add	a5,a5,1124 # 3464 <_ZL21input_escape_sequence>
      1c:	fef42623          	sw	a5,-20(s0)
      20:	0180006f          	j	38 <_ZL16startup_init_bssv+0x30>
#     *bss = 0;
      24:	fec42783          	lw	a5,-20(s0)
      28:	00078023          	sb	zero,0(a5)
#   for (char *bss = &__bss_start; bss < &__bss_end; ++bss) {
      2c:	fec42783          	lw	a5,-20(s0)
      30:	00178793          	add	a5,a5,1
      34:	fef42623          	sw	a5,-20(s0)
      38:	fec42703          	lw	a4,-20(s0)
      3c:	000037b7          	lui	a5,0x3
      40:	46c78793          	add	a5,a5,1132 # 346c <__bss_end>
      44:	fef760e3          	bltu	a4,a5,24 <_ZL16startup_init_bssv+0x1c>
#   }
# }
      48:	00000013          	nop
      4c:	00000013          	nop
      50:	01c12403          	lw	s0,28(sp)
      54:	02010113          	add	sp,sp,32
      58:	00008067          	ret

0000005c <_ZL11string_copyPKcjPc>:
# constexpr uint32_t LOCATION_MAX_EXITS = 6;
# constexpr uint32_t ENTITY_MAX_OBJECTS = 32;
# 
# static auto strings_equal(char const *s1, char const *s2) -> bool;
# 
# static auto string_copy(char const *src, uint32_t src_len, char *dst) -> void {
      5c:	fe010113          	add	sp,sp,-32
      60:	00812e23          	sw	s0,28(sp)
      64:	02010413          	add	s0,sp,32
      68:	fea42623          	sw	a0,-20(s0)
      6c:	feb42423          	sw	a1,-24(s0)
      70:	fec42223          	sw	a2,-28(s0)
#   while (src_len--) {
      74:	0240006f          	j	98 <_ZL11string_copyPKcjPc+0x3c>
#     *dst++ = *src++;
      78:	fec42783          	lw	a5,-20(s0)
      7c:	00178713          	add	a4,a5,1
      80:	fee42623          	sw	a4,-20(s0)
      84:	0007c703          	lbu	a4,0(a5)
      88:	fe442783          	lw	a5,-28(s0)
      8c:	00178693          	add	a3,a5,1
      90:	fed42223          	sw	a3,-28(s0)
      94:	00e78023          	sb	a4,0(a5)
#   while (src_len--) {
      98:	fe842783          	lw	a5,-24(s0)
      9c:	fff78713          	add	a4,a5,-1
      a0:	fee42423          	sw	a4,-24(s0)
      a4:	00f037b3          	snez	a5,a5
      a8:	0ff7f793          	zext.b	a5,a5
      ac:	fc0796e3          	bnez	a5,78 <_ZL11string_copyPKcjPc+0x1c>
#   }
# }
      b0:	00000013          	nop
      b4:	00000013          	nop
      b8:	01c12403          	lw	s0,28(sp)
      bc:	02010113          	add	sp,sp,32
      c0:	00008067          	ret

000000c4 <run>:
# static auto action_take(entity_id_t eid, name_t obj) -> void;
# static auto input(command_buffer &buf) -> void;
# static auto handle_input(entity_id_t eid, command_buffer &buf) -> void;
# static auto action_mem_test() -> void;
# 
# extern "C" auto run() -> void {
      c4:	f9010113          	add	sp,sp,-112
      c8:	06112623          	sw	ra,108(sp)
      cc:	06812423          	sw	s0,104(sp)
      d0:	07010413          	add	s0,sp,112
#   startup_init_bss();
      d4:	00000097          	auipc	ra,0x0
      d8:	f34080e7          	jalr	-204(ra) # 8 <_ZL16startup_init_bssv>
#   // initiates bss section to zeros
# 
#   led_set(0);
      dc:	00000513          	li	a0,0
      e0:	00002097          	auipc	ra,0x2
      e4:	9ec080e7          	jalr	-1556(ra) # 1acc <_ZL7led_seth>
#   // turn all leds on
# 
#   entity_id_t active_entity = 1;
      e8:	00100793          	li	a5,1
      ec:	fef407a3          	sb	a5,-17(s0)
#   command_buffer inbuf{};
      f0:	f9440793          	add	a5,s0,-108
      f4:	05200713          	li	a4,82
      f8:	00070613          	mv	a2,a4
      fc:	00000593          	li	a1,0
     100:	00078513          	mv	a0,a5
     104:	00002097          	auipc	ra,0x2
     108:	bdc080e7          	jalr	-1060(ra) # 1ce0 <memset>
# 
#   uart_send_str(ascii_art);
     10c:	000037b7          	lui	a5,0x3
     110:	4607a783          	lw	a5,1120(a5) # 3460 <_ZL9ascii_art>
     114:	00078513          	mv	a0,a5
     118:	00002097          	auipc	ra,0x2
     11c:	9e4080e7          	jalr	-1564(ra) # 1afc <_ZL13uart_send_strPKc>
#   uart_send_str(hello);
     120:	000037b7          	lui	a5,0x3
     124:	45c7a783          	lw	a5,1116(a5) # 345c <_ZL5hello>
     128:	00078513          	mv	a0,a5
     12c:	00002097          	auipc	ra,0x2
     130:	9d0080e7          	jalr	-1584(ra) # 1afc <_ZL13uart_send_strPKc>
# 
#   while (true) {
#     entity const &ent = entities[active_entity];
     134:	fef44703          	lbu	a4,-17(s0)
     138:	00070793          	mv	a5,a4
     13c:	00279793          	sll	a5,a5,0x2
     140:	00e787b3          	add	a5,a5,a4
     144:	00379793          	sll	a5,a5,0x3
     148:	00003737          	lui	a4,0x3
     14c:	0e870713          	add	a4,a4,232 # 30e8 <_ZL8entities>
     150:	00e787b3          	add	a5,a5,a4
     154:	fef42423          	sw	a5,-24(s0)
#     print_location(ent.location, active_entity);
     158:	fe842783          	lw	a5,-24(s0)
     15c:	0047c783          	lbu	a5,4(a5)
     160:	fef44703          	lbu	a4,-17(s0)
     164:	00070593          	mv	a1,a4
     168:	00078513          	mv	a0,a5
     16c:	00000097          	auipc	ra,0x0
     170:	470080e7          	jalr	1136(ra) # 5dc <_ZL14print_locationhh>
#     uart_send_str(ent.name);
     174:	fe842783          	lw	a5,-24(s0)
     178:	0007a783          	lw	a5,0(a5)
     17c:	00078513          	mv	a0,a5
     180:	00002097          	auipc	ra,0x2
     184:	97c080e7          	jalr	-1668(ra) # 1afc <_ZL13uart_send_strPKc>
#     uart_send_str(" > ");
     188:	000027b7          	lui	a5,0x2
     18c:	67878513          	add	a0,a5,1656 # 2678 <_ZN14command_buffer12input_lengthEv+0x40c>
     190:	00002097          	auipc	ra,0x2
     194:	96c080e7          	jalr	-1684(ra) # 1afc <_ZL13uart_send_strPKc>
#     input(inbuf);
     198:	f9440793          	add	a5,s0,-108
     19c:	00078513          	mv	a0,a5
     1a0:	00001097          	auipc	ra,0x1
     1a4:	440080e7          	jalr	1088(ra) # 15e0 <_ZL5inputR14command_buffer>
#     uart_send_str("\r\n");
     1a8:	000027b7          	lui	a5,0x2
     1ac:	67c78513          	add	a0,a5,1660 # 267c <_ZN14command_buffer12input_lengthEv+0x410>
     1b0:	00002097          	auipc	ra,0x2
     1b4:	94c080e7          	jalr	-1716(ra) # 1afc <_ZL13uart_send_strPKc>
#     handle_input(active_entity, inbuf);
     1b8:	f9440713          	add	a4,s0,-108
     1bc:	fef44783          	lbu	a5,-17(s0)
     1c0:	00070593          	mv	a1,a4
     1c4:	00078513          	mv	a0,a5
     1c8:	00000097          	auipc	ra,0x0
     1cc:	02c080e7          	jalr	44(ra) # 1f4 <_ZL12handle_inputhR14command_buffer>
#     if (active_entity == 1)
     1d0:	fef44703          	lbu	a4,-17(s0)
     1d4:	00100793          	li	a5,1
     1d8:	00f71863          	bne	a4,a5,1e8 <run+0x124>
#       active_entity = 2;
     1dc:	00200793          	li	a5,2
     1e0:	fef407a3          	sb	a5,-17(s0)
     1e4:	f51ff06f          	j	134 <run+0x70>
#     else
#       active_entity = 1;
     1e8:	00100793          	li	a5,1
     1ec:	fef407a3          	sb	a5,-17(s0)
#   }
     1f0:	f45ff06f          	j	134 <run+0x70>

000001f4 <_ZL12handle_inputhR14command_buffer>:
# }
# 
# static auto handle_input(entity_id_t eid, command_buffer &buf) -> void {
     1f4:	fb010113          	add	sp,sp,-80
     1f8:	04112623          	sw	ra,76(sp)
     1fc:	04812423          	sw	s0,72(sp)
     200:	05010413          	add	s0,sp,80
     204:	00050793          	mv	a5,a0
     208:	fab42c23          	sw	a1,-72(s0)
     20c:	faf40fa3          	sb	a5,-65(s0)
#   char const *words[8];
#   char *ptr = buf.line();
     210:	fb842503          	lw	a0,-72(s0)
     214:	00002097          	auipc	ra,0x2
     218:	034080e7          	jalr	52(ra) # 2248 <_ZN14command_buffer4lineEv>
     21c:	fea42623          	sw	a0,-20(s0)
#   uint32_t nwords = 0;
     220:	fe042423          	sw	zero,-24(s0)
#   while (true) {
#     words[nwords++] = ptr;
     224:	fec42703          	lw	a4,-20(s0)
     228:	fe842783          	lw	a5,-24(s0)
     22c:	00178693          	add	a3,a5,1
     230:	fed42423          	sw	a3,-24(s0)
     234:	00279793          	sll	a5,a5,0x2
     238:	ff078793          	add	a5,a5,-16
     23c:	008787b3          	add	a5,a5,s0
     240:	fce7aa23          	sw	a4,-44(a5)
#     while (*ptr && *ptr != ' ') {
     244:	0100006f          	j	254 <_ZL12handle_inputhR14command_buffer+0x60>
#       ptr++;
     248:	fec42783          	lw	a5,-20(s0)
     24c:	00178793          	add	a5,a5,1
     250:	fef42623          	sw	a5,-20(s0)
#     while (*ptr && *ptr != ' ') {
     254:	fec42783          	lw	a5,-20(s0)
     258:	0007c783          	lbu	a5,0(a5)
     25c:	00078a63          	beqz	a5,270 <_ZL12handle_inputhR14command_buffer+0x7c>
     260:	fec42783          	lw	a5,-20(s0)
     264:	0007c703          	lbu	a4,0(a5)
     268:	02000793          	li	a5,32
     26c:	fcf71ee3          	bne	a4,a5,248 <_ZL12handle_inputhR14command_buffer+0x54>
#     }
#     if (!*ptr)
     270:	fec42783          	lw	a5,-20(s0)
     274:	0007c783          	lbu	a5,0(a5)
     278:	02078c63          	beqz	a5,2b0 <_ZL12handle_inputhR14command_buffer+0xbc>
#       break;
#     *ptr = '\0';
     27c:	fec42783          	lw	a5,-20(s0)
     280:	00078023          	sb	zero,0(a5)
#     ptr++;
     284:	fec42783          	lw	a5,-20(s0)
     288:	00178793          	add	a5,a5,1
     28c:	fef42623          	sw	a5,-20(s0)
#     if (nwords == sizeof(words) / sizeof(char const *)) {
     290:	fe842703          	lw	a4,-24(s0)
     294:	00800793          	li	a5,8
     298:	f8f716e3          	bne	a4,a5,224 <_ZL12handle_inputhR14command_buffer+0x30>
#       uart_send_str("too many words, some ignored\r\n\r\n");
     29c:	000027b7          	lui	a5,0x2
     2a0:	68078513          	add	a0,a5,1664 # 2680 <_ZN14command_buffer12input_lengthEv+0x414>
     2a4:	00002097          	auipc	ra,0x2
     2a8:	858080e7          	jalr	-1960(ra) # 1afc <_ZL13uart_send_strPKc>
#       break;
     2ac:	0080006f          	j	2b4 <_ZL12handle_inputhR14command_buffer+0xc0>
#       break;
     2b0:	00000013          	nop
#     }
#   }
#   for (uint32_t i = 0; i < nwords; i++) {
     2b4:	fe042223          	sw	zero,-28(s0)
     2b8:	0400006f          	j	2f8 <_ZL12handle_inputhR14command_buffer+0x104>
#     uart_send_str(words[i]);
     2bc:	fe442783          	lw	a5,-28(s0)
     2c0:	00279793          	sll	a5,a5,0x2
     2c4:	ff078793          	add	a5,a5,-16
     2c8:	008787b3          	add	a5,a5,s0
     2cc:	fd47a783          	lw	a5,-44(a5)
     2d0:	00078513          	mv	a0,a5
     2d4:	00002097          	auipc	ra,0x2
     2d8:	828080e7          	jalr	-2008(ra) # 1afc <_ZL13uart_send_strPKc>
#     uart_send_str("\r\n");
     2dc:	000027b7          	lui	a5,0x2
     2e0:	67c78513          	add	a0,a5,1660 # 267c <_ZN14command_buffer12input_lengthEv+0x410>
     2e4:	00002097          	auipc	ra,0x2
     2e8:	818080e7          	jalr	-2024(ra) # 1afc <_ZL13uart_send_strPKc>
#   for (uint32_t i = 0; i < nwords; i++) {
     2ec:	fe442783          	lw	a5,-28(s0)
     2f0:	00178793          	add	a5,a5,1
     2f4:	fef42223          	sw	a5,-28(s0)
     2f8:	fe442703          	lw	a4,-28(s0)
     2fc:	fe842783          	lw	a5,-24(s0)
     300:	faf76ee3          	bltu	a4,a5,2bc <_ZL12handle_inputhR14command_buffer+0xc8>
#   }
#   if (strings_equal(words[0], "help")) {
     304:	fc442703          	lw	a4,-60(s0)
     308:	000027b7          	lui	a5,0x2
     30c:	6a478593          	add	a1,a5,1700 # 26a4 <_ZN14command_buffer12input_lengthEv+0x438>
     310:	00070513          	mv	a0,a4
     314:	00001097          	auipc	ra,0x1
     318:	61c080e7          	jalr	1564(ra) # 1930 <_ZL13strings_equalPKcS0_>
     31c:	00050793          	mv	a5,a0
     320:	00078863          	beqz	a5,330 <_ZL12handle_inputhR14command_buffer+0x13c>
#     print_help();
     324:	00001097          	auipc	ra,0x1
     328:	044080e7          	jalr	68(ra) # 1368 <_ZL10print_helpv>
     32c:	2a00006f          	j	5cc <_ZL12handle_inputhR14command_buffer+0x3d8>
#   } else if (strings_equal(words[0], "i")) {
     330:	fc442703          	lw	a4,-60(s0)
     334:	000027b7          	lui	a5,0x2
     338:	6ac78593          	add	a1,a5,1708 # 26ac <_ZN14command_buffer12input_lengthEv+0x440>
     33c:	00070513          	mv	a0,a4
     340:	00001097          	auipc	ra,0x1
     344:	5f0080e7          	jalr	1520(ra) # 1930 <_ZL13strings_equalPKcS0_>
     348:	00050793          	mv	a5,a0
     34c:	02078463          	beqz	a5,374 <_ZL12handle_inputhR14command_buffer+0x180>
#     action_inventory(eid);
     350:	fbf44783          	lbu	a5,-65(s0)
     354:	00078513          	mv	a0,a5
     358:	00000097          	auipc	ra,0x0
     35c:	584080e7          	jalr	1412(ra) # 8dc <_ZL16action_inventoryh>
#     uart_send_str("\r\n");
     360:	000027b7          	lui	a5,0x2
     364:	67c78513          	add	a0,a5,1660 # 267c <_ZN14command_buffer12input_lengthEv+0x410>
     368:	00001097          	auipc	ra,0x1
     36c:	794080e7          	jalr	1940(ra) # 1afc <_ZL13uart_send_strPKc>
     370:	25c0006f          	j	5cc <_ZL12handle_inputhR14command_buffer+0x3d8>
#   } else if (strings_equal(words[0], "t")) {
     374:	fc442703          	lw	a4,-60(s0)
     378:	000027b7          	lui	a5,0x2
     37c:	6b078593          	add	a1,a5,1712 # 26b0 <_ZN14command_buffer12input_lengthEv+0x444>
     380:	00070513          	mv	a0,a4
     384:	00001097          	auipc	ra,0x1
     388:	5ac080e7          	jalr	1452(ra) # 1930 <_ZL13strings_equalPKcS0_>
     38c:	00050793          	mv	a5,a0
     390:	04078063          	beqz	a5,3d0 <_ZL12handle_inputhR14command_buffer+0x1dc>
#     if (nwords < 2) {
     394:	fe842703          	lw	a4,-24(s0)
     398:	00100793          	li	a5,1
     39c:	00e7ec63          	bltu	a5,a4,3b4 <_ZL12handle_inputhR14command_buffer+0x1c0>
#       uart_send_str("take what\r\n\r\n");
     3a0:	000027b7          	lui	a5,0x2
     3a4:	6b478513          	add	a0,a5,1716 # 26b4 <_ZN14command_buffer12input_lengthEv+0x448>
     3a8:	00001097          	auipc	ra,0x1
     3ac:	754080e7          	jalr	1876(ra) # 1afc <_ZL13uart_send_strPKc>
#       return;
     3b0:	21c0006f          	j	5cc <_ZL12handle_inputhR14command_buffer+0x3d8>
#     }
#     action_take(eid, words[1]);
     3b4:	fc842703          	lw	a4,-56(s0)
     3b8:	fbf44783          	lbu	a5,-65(s0)
     3bc:	00070593          	mv	a1,a4
     3c0:	00078513          	mv	a0,a5
     3c4:	00001097          	auipc	ra,0x1
     3c8:	950080e7          	jalr	-1712(ra) # d14 <_ZL11action_takehPKc>
     3cc:	2000006f          	j	5cc <_ZL12handle_inputhR14command_buffer+0x3d8>
#   } else if (strings_equal(words[0], "d")) {
     3d0:	fc442703          	lw	a4,-60(s0)
     3d4:	000027b7          	lui	a5,0x2
     3d8:	6c478593          	add	a1,a5,1732 # 26c4 <_ZN14command_buffer12input_lengthEv+0x458>
     3dc:	00070513          	mv	a0,a4
     3e0:	00001097          	auipc	ra,0x1
     3e4:	550080e7          	jalr	1360(ra) # 1930 <_ZL13strings_equalPKcS0_>
     3e8:	00050793          	mv	a5,a0
     3ec:	04078063          	beqz	a5,42c <_ZL12handle_inputhR14command_buffer+0x238>
#     if (nwords < 2) {
     3f0:	fe842703          	lw	a4,-24(s0)
     3f4:	00100793          	li	a5,1
     3f8:	00e7ec63          	bltu	a5,a4,410 <_ZL12handle_inputhR14command_buffer+0x21c>
#       uart_send_str("drop what\r\n\r\n");
     3fc:	000027b7          	lui	a5,0x2
     400:	6c878513          	add	a0,a5,1736 # 26c8 <_ZN14command_buffer12input_lengthEv+0x45c>
     404:	00001097          	auipc	ra,0x1
     408:	6f8080e7          	jalr	1784(ra) # 1afc <_ZL13uart_send_strPKc>
#       return;
     40c:	1c00006f          	j	5cc <_ZL12handle_inputhR14command_buffer+0x3d8>
#     }
#     action_drop(eid, words[1]);
     410:	fc842703          	lw	a4,-56(s0)
     414:	fbf44783          	lbu	a5,-65(s0)
     418:	00070593          	mv	a1,a4
     41c:	00078513          	mv	a0,a5
     420:	00001097          	auipc	ra,0x1
     424:	a5c080e7          	jalr	-1444(ra) # e7c <_ZL11action_drophPKc>
     428:	1a40006f          	j	5cc <_ZL12handle_inputhR14command_buffer+0x3d8>
#   } else if (strings_equal(words[0], "n")) {
     42c:	fc442703          	lw	a4,-60(s0)
     430:	000027b7          	lui	a5,0x2
     434:	6d878593          	add	a1,a5,1752 # 26d8 <_ZN14command_buffer12input_lengthEv+0x46c>
     438:	00070513          	mv	a0,a4
     43c:	00001097          	auipc	ra,0x1
     440:	4f4080e7          	jalr	1268(ra) # 1930 <_ZL13strings_equalPKcS0_>
     444:	00050793          	mv	a5,a0
     448:	00078e63          	beqz	a5,464 <_ZL12handle_inputhR14command_buffer+0x270>
#     action_go(eid, 0);
     44c:	fbf44783          	lbu	a5,-65(s0)
     450:	00000593          	li	a1,0
     454:	00078513          	mv	a0,a5
     458:	00001097          	auipc	ra,0x1
     45c:	b9c080e7          	jalr	-1124(ra) # ff4 <_ZL9action_gohh>
     460:	16c0006f          	j	5cc <_ZL12handle_inputhR14command_buffer+0x3d8>
#   } else if (strings_equal(words[0], "e")) {
     464:	fc442703          	lw	a4,-60(s0)
     468:	000027b7          	lui	a5,0x2
     46c:	6dc78593          	add	a1,a5,1756 # 26dc <_ZN14command_buffer12input_lengthEv+0x470>
     470:	00070513          	mv	a0,a4
     474:	00001097          	auipc	ra,0x1
     478:	4bc080e7          	jalr	1212(ra) # 1930 <_ZL13strings_equalPKcS0_>
     47c:	00050793          	mv	a5,a0
     480:	00078e63          	beqz	a5,49c <_ZL12handle_inputhR14command_buffer+0x2a8>
#     action_go(eid, 1);
     484:	fbf44783          	lbu	a5,-65(s0)
     488:	00100593          	li	a1,1
     48c:	00078513          	mv	a0,a5
     490:	00001097          	auipc	ra,0x1
     494:	b64080e7          	jalr	-1180(ra) # ff4 <_ZL9action_gohh>
     498:	1340006f          	j	5cc <_ZL12handle_inputhR14command_buffer+0x3d8>
#   } else if (strings_equal(words[0], "s")) {
     49c:	fc442703          	lw	a4,-60(s0)
     4a0:	000027b7          	lui	a5,0x2
     4a4:	6e078593          	add	a1,a5,1760 # 26e0 <_ZN14command_buffer12input_lengthEv+0x474>
     4a8:	00070513          	mv	a0,a4
     4ac:	00001097          	auipc	ra,0x1
     4b0:	484080e7          	jalr	1156(ra) # 1930 <_ZL13strings_equalPKcS0_>
     4b4:	00050793          	mv	a5,a0
     4b8:	00078e63          	beqz	a5,4d4 <_ZL12handle_inputhR14command_buffer+0x2e0>
#     action_go(eid, 2);
     4bc:	fbf44783          	lbu	a5,-65(s0)
     4c0:	00200593          	li	a1,2
     4c4:	00078513          	mv	a0,a5
     4c8:	00001097          	auipc	ra,0x1
     4cc:	b2c080e7          	jalr	-1236(ra) # ff4 <_ZL9action_gohh>
     4d0:	0fc0006f          	j	5cc <_ZL12handle_inputhR14command_buffer+0x3d8>
#   } else if (strings_equal(words[0], "w")) {
     4d4:	fc442703          	lw	a4,-60(s0)
     4d8:	000027b7          	lui	a5,0x2
     4dc:	6e478593          	add	a1,a5,1764 # 26e4 <_ZN14command_buffer12input_lengthEv+0x478>
     4e0:	00070513          	mv	a0,a4
     4e4:	00001097          	auipc	ra,0x1
     4e8:	44c080e7          	jalr	1100(ra) # 1930 <_ZL13strings_equalPKcS0_>
     4ec:	00050793          	mv	a5,a0
     4f0:	00078e63          	beqz	a5,50c <_ZL12handle_inputhR14command_buffer+0x318>
#     action_go(eid, 3);
     4f4:	fbf44783          	lbu	a5,-65(s0)
     4f8:	00300593          	li	a1,3
     4fc:	00078513          	mv	a0,a5
     500:	00001097          	auipc	ra,0x1
     504:	af4080e7          	jalr	-1292(ra) # ff4 <_ZL9action_gohh>
     508:	0c40006f          	j	5cc <_ZL12handle_inputhR14command_buffer+0x3d8>
#   } else if (strings_equal(words[0], "g")) {
     50c:	fc442703          	lw	a4,-60(s0)
     510:	000027b7          	lui	a5,0x2
     514:	6e878593          	add	a1,a5,1768 # 26e8 <_ZN14command_buffer12input_lengthEv+0x47c>
     518:	00070513          	mv	a0,a4
     51c:	00001097          	auipc	ra,0x1
     520:	414080e7          	jalr	1044(ra) # 1930 <_ZL13strings_equalPKcS0_>
     524:	00050793          	mv	a5,a0
     528:	06078463          	beqz	a5,590 <_ZL12handle_inputhR14command_buffer+0x39c>
#     if (nwords < 2) {
     52c:	fe842703          	lw	a4,-24(s0)
     530:	00100793          	li	a5,1
     534:	00e7ec63          	bltu	a5,a4,54c <_ZL12handle_inputhR14command_buffer+0x358>
#       uart_send_str("give what\r\n\r\n");
     538:	000027b7          	lui	a5,0x2
     53c:	6ec78513          	add	a0,a5,1772 # 26ec <_ZN14command_buffer12input_lengthEv+0x480>
     540:	00001097          	auipc	ra,0x1
     544:	5bc080e7          	jalr	1468(ra) # 1afc <_ZL13uart_send_strPKc>
#       return;
     548:	0840006f          	j	5cc <_ZL12handle_inputhR14command_buffer+0x3d8>
#     }
#     if (nwords < 3) {
     54c:	fe842703          	lw	a4,-24(s0)
     550:	00200793          	li	a5,2
     554:	00e7ec63          	bltu	a5,a4,56c <_ZL12handle_inputhR14command_buffer+0x378>
#       uart_send_str("give to whom\r\n\r\n");
     558:	000027b7          	lui	a5,0x2
     55c:	6fc78513          	add	a0,a5,1788 # 26fc <_ZN14command_buffer12input_lengthEv+0x490>
     560:	00001097          	auipc	ra,0x1
     564:	59c080e7          	jalr	1436(ra) # 1afc <_ZL13uart_send_strPKc>
#       return;
     568:	0640006f          	j	5cc <_ZL12handle_inputhR14command_buffer+0x3d8>
#     }
#     action_give(eid, words[1], words[2]);
     56c:	fc842703          	lw	a4,-56(s0)
     570:	fcc42683          	lw	a3,-52(s0)
     574:	fbf44783          	lbu	a5,-65(s0)
     578:	00068613          	mv	a2,a3
     57c:	00070593          	mv	a1,a4
     580:	00078513          	mv	a0,a5
     584:	00001097          	auipc	ra,0x1
     588:	ba8080e7          	jalr	-1112(ra) # 112c <_ZL11action_givehPKcS0_>
     58c:	0400006f          	j	5cc <_ZL12handle_inputhR14command_buffer+0x3d8>
#   } else if (strings_equal(words[0], "m")) {
     590:	fc442703          	lw	a4,-60(s0)
     594:	000027b7          	lui	a5,0x2
     598:	71078593          	add	a1,a5,1808 # 2710 <_ZN14command_buffer12input_lengthEv+0x4a4>
     59c:	00070513          	mv	a0,a4
     5a0:	00001097          	auipc	ra,0x1
     5a4:	390080e7          	jalr	912(ra) # 1930 <_ZL13strings_equalPKcS0_>
     5a8:	00050793          	mv	a5,a0
     5ac:	00078863          	beqz	a5,5bc <_ZL12handle_inputhR14command_buffer+0x3c8>
#     action_mem_test();
     5b0:	00001097          	auipc	ra,0x1
     5b4:	640080e7          	jalr	1600(ra) # 1bf0 <_ZL15action_mem_testv>
     5b8:	0140006f          	j	5cc <_ZL12handle_inputhR14command_buffer+0x3d8>
#   } else {
#     uart_send_str("not understood\r\n\r\n");
     5bc:	000027b7          	lui	a5,0x2
     5c0:	71478513          	add	a0,a5,1812 # 2714 <_ZN14command_buffer12input_lengthEv+0x4a8>
     5c4:	00001097          	auipc	ra,0x1
     5c8:	538080e7          	jalr	1336(ra) # 1afc <_ZL13uart_send_strPKc>
#   }
# }
     5cc:	04c12083          	lw	ra,76(sp)
     5d0:	04812403          	lw	s0,72(sp)
     5d4:	05010113          	add	sp,sp,80
     5d8:	00008067          	ret

000005dc <_ZL14print_locationhh>:
# 
# static auto print_location(location_id_t lid,
#                            entity_id_t eid_exclude_from_output) -> void {
     5dc:	fb010113          	add	sp,sp,-80
     5e0:	04112623          	sw	ra,76(sp)
     5e4:	04812423          	sw	s0,72(sp)
     5e8:	05010413          	add	s0,sp,80
     5ec:	00050793          	mv	a5,a0
     5f0:	00058713          	mv	a4,a1
     5f4:	faf40fa3          	sb	a5,-65(s0)
     5f8:	00070793          	mv	a5,a4
     5fc:	faf40f23          	sb	a5,-66(s0)
#   location const &loc = locations[lid];
     600:	fbf44703          	lbu	a4,-65(s0)
     604:	00070793          	mv	a5,a4
     608:	00379793          	sll	a5,a5,0x3
     60c:	00e787b3          	add	a5,a5,a4
     610:	00279793          	sll	a5,a5,0x2
     614:	00e787b3          	add	a5,a5,a4
     618:	00279793          	sll	a5,a5,0x2
     61c:	00003737          	lui	a4,0x3
     620:	16070713          	add	a4,a4,352 # 3160 <_ZL9locations>
     624:	00e787b3          	add	a5,a5,a4
     628:	fcf42e23          	sw	a5,-36(s0)
#   uart_send_str("u r in ");
     62c:	000027b7          	lui	a5,0x2
     630:	72878513          	add	a0,a5,1832 # 2728 <_ZN14command_buffer12input_lengthEv+0x4bc>
     634:	00001097          	auipc	ra,0x1
     638:	4c8080e7          	jalr	1224(ra) # 1afc <_ZL13uart_send_strPKc>
#   uart_send_str(loc.name);
     63c:	fdc42783          	lw	a5,-36(s0)
     640:	0007a783          	lw	a5,0(a5)
     644:	00078513          	mv	a0,a5
     648:	00001097          	auipc	ra,0x1
     64c:	4b4080e7          	jalr	1204(ra) # 1afc <_ZL13uart_send_strPKc>
#   uart_send_str("\r\nu c: ");
     650:	000027b7          	lui	a5,0x2
     654:	73078513          	add	a0,a5,1840 # 2730 <_ZN14command_buffer12input_lengthEv+0x4c4>
     658:	00001097          	auipc	ra,0x1
     65c:	4a4080e7          	jalr	1188(ra) # 1afc <_ZL13uart_send_strPKc>
# 
#   // print objects in location
#   bool add_list_sep = false;
     660:	fe0407a3          	sb	zero,-17(s0)
#   object_id_t const *lso = loc.objects;
     664:	fdc42783          	lw	a5,-36(s0)
     668:	00478793          	add	a5,a5,4
     66c:	fcf42c23          	sw	a5,-40(s0)
#   for (uint32_t i = 0; i < LOCATION_MAX_OBJECTS; i++) {
     670:	fe042423          	sw	zero,-24(s0)
     674:	0740006f          	j	6e8 <_ZL14print_locationhh+0x10c>
#     object_id_t const oid = lso[i];
     678:	fd842703          	lw	a4,-40(s0)
     67c:	fe842783          	lw	a5,-24(s0)
     680:	00f707b3          	add	a5,a4,a5
     684:	0007c783          	lbu	a5,0(a5)
     688:	fcf40ba3          	sb	a5,-41(s0)
#     if (!oid)
     68c:	fd744783          	lbu	a5,-41(s0)
     690:	06078463          	beqz	a5,6f8 <_ZL14print_locationhh+0x11c>
#       break;
#     if (add_list_sep) {
     694:	fef44783          	lbu	a5,-17(s0)
     698:	00078c63          	beqz	a5,6b0 <_ZL14print_locationhh+0xd4>
#       uart_send_str(", ");
     69c:	000027b7          	lui	a5,0x2
     6a0:	73878513          	add	a0,a5,1848 # 2738 <_ZN14command_buffer12input_lengthEv+0x4cc>
     6a4:	00001097          	auipc	ra,0x1
     6a8:	458080e7          	jalr	1112(ra) # 1afc <_ZL13uart_send_strPKc>
     6ac:	00c0006f          	j	6b8 <_ZL14print_locationhh+0xdc>
#     } else {
#       add_list_sep = true;
     6b0:	00100793          	li	a5,1
     6b4:	fef407a3          	sb	a5,-17(s0)
#     }
#     uart_send_str(objects[oid].name);
     6b8:	fd744783          	lbu	a5,-41(s0)
     6bc:	00003737          	lui	a4,0x3
     6c0:	0d870713          	add	a4,a4,216 # 30d8 <_ZL7objects>
     6c4:	00279793          	sll	a5,a5,0x2
     6c8:	00f707b3          	add	a5,a4,a5
     6cc:	0007a783          	lw	a5,0(a5)
     6d0:	00078513          	mv	a0,a5
     6d4:	00001097          	auipc	ra,0x1
     6d8:	428080e7          	jalr	1064(ra) # 1afc <_ZL13uart_send_strPKc>
#   for (uint32_t i = 0; i < LOCATION_MAX_OBJECTS; i++) {
     6dc:	fe842783          	lw	a5,-24(s0)
     6e0:	00178793          	add	a5,a5,1
     6e4:	fef42423          	sw	a5,-24(s0)
     6e8:	fe842703          	lw	a4,-24(s0)
     6ec:	07f00793          	li	a5,127
     6f0:	f8e7f4e3          	bgeu	a5,a4,678 <_ZL14print_locationhh+0x9c>
     6f4:	0080006f          	j	6fc <_ZL14print_locationhh+0x120>
#       break;
     6f8:	00000013          	nop
#   }
#   if (!add_list_sep) {
     6fc:	fef44783          	lbu	a5,-17(s0)
     700:	0017c793          	xor	a5,a5,1
     704:	0ff7f793          	zext.b	a5,a5
     708:	00078a63          	beqz	a5,71c <_ZL14print_locationhh+0x140>
#     uart_send_str("nothing");
     70c:	000027b7          	lui	a5,0x2
     710:	73c78513          	add	a0,a5,1852 # 273c <_ZN14command_buffer12input_lengthEv+0x4d0>
     714:	00001097          	auipc	ra,0x1
     718:	3e8080e7          	jalr	1000(ra) # 1afc <_ZL13uart_send_strPKc>
#   }
#   uart_send_str("\r\n");
     71c:	000027b7          	lui	a5,0x2
     720:	67c78513          	add	a0,a5,1660 # 267c <_ZN14command_buffer12input_lengthEv+0x410>
     724:	00001097          	auipc	ra,0x1
     728:	3d8080e7          	jalr	984(ra) # 1afc <_ZL13uart_send_strPKc>
# 
#   // print entities in location
#   add_list_sep = false;
     72c:	fe0407a3          	sb	zero,-17(s0)
#   entity_id_t const *lse = loc.entities;
     730:	fdc42783          	lw	a5,-36(s0)
     734:	08478793          	add	a5,a5,132
     738:	fcf42823          	sw	a5,-48(s0)
#   for (uint32_t i = 0; i < LOCATION_MAX_ENTITIES; i++) {
     73c:	fe042223          	sw	zero,-28(s0)
     740:	0940006f          	j	7d4 <_ZL14print_locationhh+0x1f8>
#     entity_id_t const eid = lse[i];
     744:	fd042703          	lw	a4,-48(s0)
     748:	fe442783          	lw	a5,-28(s0)
     74c:	00f707b3          	add	a5,a4,a5
     750:	0007c783          	lbu	a5,0(a5)
     754:	fcf407a3          	sb	a5,-49(s0)
#     if (!eid)
     758:	fcf44783          	lbu	a5,-49(s0)
     75c:	08078463          	beqz	a5,7e4 <_ZL14print_locationhh+0x208>
#       break;
#     if (eid == eid_exclude_from_output)
     760:	fcf44703          	lbu	a4,-49(s0)
     764:	fbe44783          	lbu	a5,-66(s0)
     768:	04f70e63          	beq	a4,a5,7c4 <_ZL14print_locationhh+0x1e8>
#       continue;
#     if (add_list_sep) {
     76c:	fef44783          	lbu	a5,-17(s0)
     770:	00078c63          	beqz	a5,788 <_ZL14print_locationhh+0x1ac>
#       uart_send_str(", ");
     774:	000027b7          	lui	a5,0x2
     778:	73878513          	add	a0,a5,1848 # 2738 <_ZN14command_buffer12input_lengthEv+0x4cc>
     77c:	00001097          	auipc	ra,0x1
     780:	380080e7          	jalr	896(ra) # 1afc <_ZL13uart_send_strPKc>
     784:	00c0006f          	j	790 <_ZL14print_locationhh+0x1b4>
#     } else {
#       add_list_sep = true;
     788:	00100793          	li	a5,1
     78c:	fef407a3          	sb	a5,-17(s0)
#     }
#     uart_send_str(entities[eid].name);
     790:	fcf44703          	lbu	a4,-49(s0)
     794:	000037b7          	lui	a5,0x3
     798:	0e878693          	add	a3,a5,232 # 30e8 <_ZL8entities>
     79c:	00070793          	mv	a5,a4
     7a0:	00279793          	sll	a5,a5,0x2
     7a4:	00e787b3          	add	a5,a5,a4
     7a8:	00379793          	sll	a5,a5,0x3
     7ac:	00f687b3          	add	a5,a3,a5
     7b0:	0007a783          	lw	a5,0(a5)
     7b4:	00078513          	mv	a0,a5
     7b8:	00001097          	auipc	ra,0x1
     7bc:	344080e7          	jalr	836(ra) # 1afc <_ZL13uart_send_strPKc>
     7c0:	0080006f          	j	7c8 <_ZL14print_locationhh+0x1ec>
#       continue;
     7c4:	00000013          	nop
#   for (uint32_t i = 0; i < LOCATION_MAX_ENTITIES; i++) {
     7c8:	fe442783          	lw	a5,-28(s0)
     7cc:	00178793          	add	a5,a5,1
     7d0:	fef42223          	sw	a5,-28(s0)
     7d4:	fe442703          	lw	a4,-28(s0)
     7d8:	00700793          	li	a5,7
     7dc:	f6e7f4e3          	bgeu	a5,a4,744 <_ZL14print_locationhh+0x168>
     7e0:	0080006f          	j	7e8 <_ZL14print_locationhh+0x20c>
#       break;
     7e4:	00000013          	nop
#   }
#   if (add_list_sep) {
     7e8:	fef44783          	lbu	a5,-17(s0)
     7ec:	00078a63          	beqz	a5,800 <_ZL14print_locationhh+0x224>
#     uart_send_str(" is here\r\n");
     7f0:	000027b7          	lui	a5,0x2
     7f4:	74478513          	add	a0,a5,1860 # 2744 <_ZN14command_buffer12input_lengthEv+0x4d8>
     7f8:	00001097          	auipc	ra,0x1
     7fc:	304080e7          	jalr	772(ra) # 1afc <_ZL13uart_send_strPKc>
#   }
# 
#   // print exits from location
#   add_list_sep = false;
     800:	fe0407a3          	sb	zero,-17(s0)
#   uart_send_str("exits: ");
     804:	000027b7          	lui	a5,0x2
     808:	75078513          	add	a0,a5,1872 # 2750 <_ZN14command_buffer12input_lengthEv+0x4e4>
     80c:	00001097          	auipc	ra,0x1
     810:	2f0080e7          	jalr	752(ra) # 1afc <_ZL13uart_send_strPKc>
#   for (uint32_t i = 0; i < LOCATION_MAX_EXITS; i++) {
     814:	fe042023          	sw	zero,-32(s0)
     818:	0740006f          	j	88c <_ZL14print_locationhh+0x2b0>
#     if (!loc.exits[i])
     81c:	fdc42703          	lw	a4,-36(s0)
     820:	fe042783          	lw	a5,-32(s0)
     824:	00f707b3          	add	a5,a4,a5
     828:	08c7c783          	lbu	a5,140(a5)
     82c:	04078863          	beqz	a5,87c <_ZL14print_locationhh+0x2a0>
#       continue;
#     if (add_list_sep) {
     830:	fef44783          	lbu	a5,-17(s0)
     834:	00078c63          	beqz	a5,84c <_ZL14print_locationhh+0x270>
#       uart_send_str(", ");
     838:	000027b7          	lui	a5,0x2
     83c:	73878513          	add	a0,a5,1848 # 2738 <_ZN14command_buffer12input_lengthEv+0x4cc>
     840:	00001097          	auipc	ra,0x1
     844:	2bc080e7          	jalr	700(ra) # 1afc <_ZL13uart_send_strPKc>
     848:	00c0006f          	j	854 <_ZL14print_locationhh+0x278>
#     } else {
#       add_list_sep = true;
     84c:	00100793          	li	a5,1
     850:	fef407a3          	sb	a5,-17(s0)
#     }
#     uart_send_str(exit_names[i]);
     854:	000037b7          	lui	a5,0x3
     858:	44478713          	add	a4,a5,1092 # 3444 <_ZL10exit_names>
     85c:	fe042783          	lw	a5,-32(s0)
     860:	00279793          	sll	a5,a5,0x2
     864:	00f707b3          	add	a5,a4,a5
     868:	0007a783          	lw	a5,0(a5)
     86c:	00078513          	mv	a0,a5
     870:	00001097          	auipc	ra,0x1
     874:	28c080e7          	jalr	652(ra) # 1afc <_ZL13uart_send_strPKc>
     878:	0080006f          	j	880 <_ZL14print_locationhh+0x2a4>
#       continue;
     87c:	00000013          	nop
#   for (uint32_t i = 0; i < LOCATION_MAX_EXITS; i++) {
     880:	fe042783          	lw	a5,-32(s0)
     884:	00178793          	add	a5,a5,1
     888:	fef42023          	sw	a5,-32(s0)
     88c:	fe042703          	lw	a4,-32(s0)
     890:	00500793          	li	a5,5
     894:	f8e7f4e3          	bgeu	a5,a4,81c <_ZL14print_locationhh+0x240>
#   }
#   if (!add_list_sep) {
     898:	fef44783          	lbu	a5,-17(s0)
     89c:	0017c793          	xor	a5,a5,1
     8a0:	0ff7f793          	zext.b	a5,a5
     8a4:	00078a63          	beqz	a5,8b8 <_ZL14print_locationhh+0x2dc>
#     uart_send_str("none");
     8a8:	000027b7          	lui	a5,0x2
     8ac:	75878513          	add	a0,a5,1880 # 2758 <_ZN14command_buffer12input_lengthEv+0x4ec>
     8b0:	00001097          	auipc	ra,0x1
     8b4:	24c080e7          	jalr	588(ra) # 1afc <_ZL13uart_send_strPKc>
#   }
#   uart_send_str("\r\n");
     8b8:	000027b7          	lui	a5,0x2
     8bc:	67c78513          	add	a0,a5,1660 # 267c <_ZN14command_buffer12input_lengthEv+0x410>
     8c0:	00001097          	auipc	ra,0x1
     8c4:	23c080e7          	jalr	572(ra) # 1afc <_ZL13uart_send_strPKc>
# }
     8c8:	00000013          	nop
     8cc:	04c12083          	lw	ra,76(sp)
     8d0:	04812403          	lw	s0,72(sp)
     8d4:	05010113          	add	sp,sp,80
     8d8:	00008067          	ret

000008dc <_ZL16action_inventoryh>:
# 
# static auto action_inventory(entity_id_t eid) -> void {
     8dc:	fd010113          	add	sp,sp,-48
     8e0:	02112623          	sw	ra,44(sp)
     8e4:	02812423          	sw	s0,40(sp)
     8e8:	03010413          	add	s0,sp,48
     8ec:	00050793          	mv	a5,a0
     8f0:	fcf40fa3          	sb	a5,-33(s0)
#   uart_send_str("u have: ");
     8f4:	000027b7          	lui	a5,0x2
     8f8:	76078513          	add	a0,a5,1888 # 2760 <_ZN14command_buffer12input_lengthEv+0x4f4>
     8fc:	00001097          	auipc	ra,0x1
     900:	200080e7          	jalr	512(ra) # 1afc <_ZL13uart_send_strPKc>
#   bool add_list_sep = false;
     904:	fe0407a3          	sb	zero,-17(s0)
#   object_id_t const *lso = entities[eid].objects;
     908:	fdf44703          	lbu	a4,-33(s0)
     90c:	00070793          	mv	a5,a4
     910:	00279793          	sll	a5,a5,0x2
     914:	00e787b3          	add	a5,a5,a4
     918:	00379793          	sll	a5,a5,0x3
     91c:	00003737          	lui	a4,0x3
     920:	0e870713          	add	a4,a4,232 # 30e8 <_ZL8entities>
     924:	00e787b3          	add	a5,a5,a4
     928:	00578793          	add	a5,a5,5
     92c:	fef42223          	sw	a5,-28(s0)
#   for (uint32_t i = 0; i < ENTITY_MAX_OBJECTS; i++) {
     930:	fe042423          	sw	zero,-24(s0)
     934:	0740006f          	j	9a8 <_ZL16action_inventoryh+0xcc>
#     object_id_t const oid = lso[i];
     938:	fe442703          	lw	a4,-28(s0)
     93c:	fe842783          	lw	a5,-24(s0)
     940:	00f707b3          	add	a5,a4,a5
     944:	0007c783          	lbu	a5,0(a5)
     948:	fef401a3          	sb	a5,-29(s0)
#     if (!oid)
     94c:	fe344783          	lbu	a5,-29(s0)
     950:	06078463          	beqz	a5,9b8 <_ZL16action_inventoryh+0xdc>
#       break;
#     if (add_list_sep) {
     954:	fef44783          	lbu	a5,-17(s0)
     958:	00078c63          	beqz	a5,970 <_ZL16action_inventoryh+0x94>
#       uart_send_str(", ");
     95c:	000027b7          	lui	a5,0x2
     960:	73878513          	add	a0,a5,1848 # 2738 <_ZN14command_buffer12input_lengthEv+0x4cc>
     964:	00001097          	auipc	ra,0x1
     968:	198080e7          	jalr	408(ra) # 1afc <_ZL13uart_send_strPKc>
     96c:	00c0006f          	j	978 <_ZL16action_inventoryh+0x9c>
#     } else {
#       add_list_sep = true;
     970:	00100793          	li	a5,1
     974:	fef407a3          	sb	a5,-17(s0)
#     }
#     uart_send_str(objects[oid].name);
     978:	fe344783          	lbu	a5,-29(s0)
     97c:	00003737          	lui	a4,0x3
     980:	0d870713          	add	a4,a4,216 # 30d8 <_ZL7objects>
     984:	00279793          	sll	a5,a5,0x2
     988:	00f707b3          	add	a5,a4,a5
     98c:	0007a783          	lw	a5,0(a5)
     990:	00078513          	mv	a0,a5
     994:	00001097          	auipc	ra,0x1
     998:	168080e7          	jalr	360(ra) # 1afc <_ZL13uart_send_strPKc>
#   for (uint32_t i = 0; i < ENTITY_MAX_OBJECTS; i++) {
     99c:	fe842783          	lw	a5,-24(s0)
     9a0:	00178793          	add	a5,a5,1
     9a4:	fef42423          	sw	a5,-24(s0)
     9a8:	fe842703          	lw	a4,-24(s0)
     9ac:	01f00793          	li	a5,31
     9b0:	f8e7f4e3          	bgeu	a5,a4,938 <_ZL16action_inventoryh+0x5c>
     9b4:	0080006f          	j	9bc <_ZL16action_inventoryh+0xe0>
#       break;
     9b8:	00000013          	nop
#   }
#   if (!add_list_sep) {
     9bc:	fef44783          	lbu	a5,-17(s0)
     9c0:	0017c793          	xor	a5,a5,1
     9c4:	0ff7f793          	zext.b	a5,a5
     9c8:	00078a63          	beqz	a5,9dc <_ZL16action_inventoryh+0x100>
#     uart_send_str("nothing");
     9cc:	000027b7          	lui	a5,0x2
     9d0:	73c78513          	add	a0,a5,1852 # 273c <_ZN14command_buffer12input_lengthEv+0x4d0>
     9d4:	00001097          	auipc	ra,0x1
     9d8:	128080e7          	jalr	296(ra) # 1afc <_ZL13uart_send_strPKc>
#   }
#   uart_send_str("\r\n");
     9dc:	000027b7          	lui	a5,0x2
     9e0:	67c78513          	add	a0,a5,1660 # 267c <_ZN14command_buffer12input_lengthEv+0x410>
     9e4:	00001097          	auipc	ra,0x1
     9e8:	118080e7          	jalr	280(ra) # 1afc <_ZL13uart_send_strPKc>
# }
     9ec:	00000013          	nop
     9f0:	02c12083          	lw	ra,44(sp)
     9f4:	02812403          	lw	s0,40(sp)
     9f8:	03010113          	add	sp,sp,48
     9fc:	00008067          	ret

00000a00 <_ZL32remove_object_from_list_by_indexPhj>:
# 
# static auto remove_object_from_list_by_index(object_id_t list[],
#                                              uint32_t ix) -> void {
     a00:	fd010113          	add	sp,sp,-48
     a04:	02812623          	sw	s0,44(sp)
     a08:	03010413          	add	s0,sp,48
     a0c:	fca42e23          	sw	a0,-36(s0)
     a10:	fcb42c23          	sw	a1,-40(s0)
#   object_id_t *ptr = &list[ix];
     a14:	fdc42703          	lw	a4,-36(s0)
     a18:	fd842783          	lw	a5,-40(s0)
     a1c:	00f707b3          	add	a5,a4,a5
     a20:	fef42623          	sw	a5,-20(s0)
#   while (true) {
#     *ptr = *(ptr + 1);
     a24:	fec42783          	lw	a5,-20(s0)
     a28:	0017c703          	lbu	a4,1(a5)
     a2c:	fec42783          	lw	a5,-20(s0)
     a30:	00e78023          	sb	a4,0(a5)
#     if (!*ptr)
     a34:	fec42783          	lw	a5,-20(s0)
     a38:	0007c783          	lbu	a5,0(a5)
     a3c:	00078a63          	beqz	a5,a50 <_ZL32remove_object_from_list_by_indexPhj+0x50>
#       return;
#     ptr++;
     a40:	fec42783          	lw	a5,-20(s0)
     a44:	00178793          	add	a5,a5,1
     a48:	fef42623          	sw	a5,-20(s0)
#     *ptr = *(ptr + 1);
     a4c:	fd9ff06f          	j	a24 <_ZL32remove_object_from_list_by_indexPhj+0x24>
#       return;
     a50:	00000013          	nop
#   }
# }
     a54:	02c12403          	lw	s0,44(sp)
     a58:	03010113          	add	sp,sp,48
     a5c:	00008067          	ret

00000a60 <_ZL18add_object_to_listPhjh>:
# 
# static auto add_object_to_list(object_id_t list[], uint32_t list_len,
#                                object_id_t oid) -> bool {
     a60:	fd010113          	add	sp,sp,-48
     a64:	02112623          	sw	ra,44(sp)
     a68:	02812423          	sw	s0,40(sp)
     a6c:	03010413          	add	s0,sp,48
     a70:	fca42e23          	sw	a0,-36(s0)
     a74:	fcb42c23          	sw	a1,-40(s0)
     a78:	00060793          	mv	a5,a2
     a7c:	fcf40ba3          	sb	a5,-41(s0)
#   // list_len - 1 since last element has to be 0
#   for (uint32_t i = 0; i < list_len - 1; i++) {
     a80:	fe042623          	sw	zero,-20(s0)
     a84:	0580006f          	j	adc <_ZL18add_object_to_listPhjh+0x7c>
#     if (list[i])
     a88:	fdc42703          	lw	a4,-36(s0)
     a8c:	fec42783          	lw	a5,-20(s0)
     a90:	00f707b3          	add	a5,a4,a5
     a94:	0007c783          	lbu	a5,0(a5)
     a98:	02079a63          	bnez	a5,acc <_ZL18add_object_to_listPhjh+0x6c>
#       continue;
#     list[i] = oid;
     a9c:	fdc42703          	lw	a4,-36(s0)
     aa0:	fec42783          	lw	a5,-20(s0)
     aa4:	00f707b3          	add	a5,a4,a5
     aa8:	fd744703          	lbu	a4,-41(s0)
     aac:	00e78023          	sb	a4,0(a5)
#     list[i + 1] = 0;
     ab0:	fec42783          	lw	a5,-20(s0)
     ab4:	00178793          	add	a5,a5,1
     ab8:	fdc42703          	lw	a4,-36(s0)
     abc:	00f707b3          	add	a5,a4,a5
     ac0:	00078023          	sb	zero,0(a5)
#     return true;
     ac4:	00100793          	li	a5,1
     ac8:	0380006f          	j	b00 <_ZL18add_object_to_listPhjh+0xa0>
#       continue;
     acc:	00000013          	nop
#   for (uint32_t i = 0; i < list_len - 1; i++) {
     ad0:	fec42783          	lw	a5,-20(s0)
     ad4:	00178793          	add	a5,a5,1
     ad8:	fef42623          	sw	a5,-20(s0)
     adc:	fd842783          	lw	a5,-40(s0)
     ae0:	fff78793          	add	a5,a5,-1
     ae4:	fec42703          	lw	a4,-20(s0)
     ae8:	faf760e3          	bltu	a4,a5,a88 <_ZL18add_object_to_listPhjh+0x28>
#   }
#   uart_send_str("space full\r\n");
     aec:	000027b7          	lui	a5,0x2
     af0:	76c78513          	add	a0,a5,1900 # 276c <_ZN14command_buffer12input_lengthEv+0x500>
     af4:	00001097          	auipc	ra,0x1
     af8:	008080e7          	jalr	8(ra) # 1afc <_ZL13uart_send_strPKc>
#   return false;
     afc:	00000793          	li	a5,0
# }
     b00:	00078513          	mv	a0,a5
     b04:	02c12083          	lw	ra,44(sp)
     b08:	02812403          	lw	s0,40(sp)
     b0c:	03010113          	add	sp,sp,48
     b10:	00008067          	ret

00000b14 <_ZL18add_entity_to_listPhjh>:
# 
# static auto add_entity_to_list(entity_id_t list[], uint32_t list_len,
#                                entity_id_t eid) -> bool {
     b14:	fd010113          	add	sp,sp,-48
     b18:	02112623          	sw	ra,44(sp)
     b1c:	02812423          	sw	s0,40(sp)
     b20:	03010413          	add	s0,sp,48
     b24:	fca42e23          	sw	a0,-36(s0)
     b28:	fcb42c23          	sw	a1,-40(s0)
     b2c:	00060793          	mv	a5,a2
     b30:	fcf40ba3          	sb	a5,-41(s0)
#   // list_len - 1 since last element has to be 0
#   for (uint32_t i = 0; i < list_len - 1; i++) {
     b34:	fe042623          	sw	zero,-20(s0)
     b38:	0580006f          	j	b90 <_ZL18add_entity_to_listPhjh+0x7c>
#     if (list[i])
     b3c:	fdc42703          	lw	a4,-36(s0)
     b40:	fec42783          	lw	a5,-20(s0)
     b44:	00f707b3          	add	a5,a4,a5
     b48:	0007c783          	lbu	a5,0(a5)
     b4c:	02079a63          	bnez	a5,b80 <_ZL18add_entity_to_listPhjh+0x6c>
#       continue;
#     list[i] = eid;
     b50:	fdc42703          	lw	a4,-36(s0)
     b54:	fec42783          	lw	a5,-20(s0)
     b58:	00f707b3          	add	a5,a4,a5
     b5c:	fd744703          	lbu	a4,-41(s0)
     b60:	00e78023          	sb	a4,0(a5)
#     list[i + 1] = 0;
     b64:	fec42783          	lw	a5,-20(s0)
     b68:	00178793          	add	a5,a5,1
     b6c:	fdc42703          	lw	a4,-36(s0)
     b70:	00f707b3          	add	a5,a4,a5
     b74:	00078023          	sb	zero,0(a5)
#     return true;
     b78:	00100793          	li	a5,1
     b7c:	0380006f          	j	bb4 <_ZL18add_entity_to_listPhjh+0xa0>
#       continue;
     b80:	00000013          	nop
#   for (uint32_t i = 0; i < list_len - 1; i++) {
     b84:	fec42783          	lw	a5,-20(s0)
     b88:	00178793          	add	a5,a5,1
     b8c:	fef42623          	sw	a5,-20(s0)
     b90:	fd842783          	lw	a5,-40(s0)
     b94:	fff78793          	add	a5,a5,-1
     b98:	fec42703          	lw	a4,-20(s0)
     b9c:	faf760e3          	bltu	a4,a5,b3c <_ZL18add_entity_to_listPhjh+0x28>
#   }
#   uart_send_str("location full\r\n");
     ba0:	000027b7          	lui	a5,0x2
     ba4:	77c78513          	add	a0,a5,1916 # 277c <_ZN14command_buffer12input_lengthEv+0x510>
     ba8:	00001097          	auipc	ra,0x1
     bac:	f54080e7          	jalr	-172(ra) # 1afc <_ZL13uart_send_strPKc>
#   return false;
     bb0:	00000793          	li	a5,0
# }
     bb4:	00078513          	mv	a0,a5
     bb8:	02c12083          	lw	ra,44(sp)
     bbc:	02812403          	lw	s0,40(sp)
     bc0:	03010113          	add	sp,sp,48
     bc4:	00008067          	ret

00000bc8 <_ZL23remove_entity_from_listPhjh>:
# 
# static auto remove_entity_from_list(entity_id_t list[], uint32_t list_len,
#                                     entity_id_t eid) -> void {
     bc8:	fd010113          	add	sp,sp,-48
     bcc:	02112623          	sw	ra,44(sp)
     bd0:	02812423          	sw	s0,40(sp)
     bd4:	03010413          	add	s0,sp,48
     bd8:	fca42e23          	sw	a0,-36(s0)
     bdc:	fcb42c23          	sw	a1,-40(s0)
     be0:	00060793          	mv	a5,a2
     be4:	fcf40ba3          	sb	a5,-41(s0)
#   // list_len - 1 since last element has to be 0
#   for (uint32_t i = 0; i < list_len - 1; i++) {
     be8:	fe042623          	sw	zero,-20(s0)
     bec:	0900006f          	j	c7c <_ZL23remove_entity_from_listPhjh+0xb4>
#     if (list[i] != eid)
     bf0:	fdc42703          	lw	a4,-36(s0)
     bf4:	fec42783          	lw	a5,-20(s0)
     bf8:	00f707b3          	add	a5,a4,a5
     bfc:	0007c783          	lbu	a5,0(a5)
     c00:	fd744703          	lbu	a4,-41(s0)
     c04:	06f71463          	bne	a4,a5,c6c <_ZL23remove_entity_from_listPhjh+0xa4>
#       continue;
#     // list_len - 1 since last element has to be 0
#     for (uint32_t j = i; j < list_len - 1; j++) {
     c08:	fec42783          	lw	a5,-20(s0)
     c0c:	fef42423          	sw	a5,-24(s0)
     c10:	0480006f          	j	c58 <_ZL23remove_entity_from_listPhjh+0x90>
#       list[j] = list[j + 1];
     c14:	fe842783          	lw	a5,-24(s0)
     c18:	00178793          	add	a5,a5,1
     c1c:	fdc42703          	lw	a4,-36(s0)
     c20:	00f70733          	add	a4,a4,a5
     c24:	fdc42683          	lw	a3,-36(s0)
     c28:	fe842783          	lw	a5,-24(s0)
     c2c:	00f687b3          	add	a5,a3,a5
     c30:	00074703          	lbu	a4,0(a4)
     c34:	00e78023          	sb	a4,0(a5)
#       if (!list[j])
     c38:	fdc42703          	lw	a4,-36(s0)
     c3c:	fe842783          	lw	a5,-24(s0)
     c40:	00f707b3          	add	a5,a4,a5
     c44:	0007c783          	lbu	a5,0(a5)
     c48:	04078c63          	beqz	a5,ca0 <_ZL23remove_entity_from_listPhjh+0xd8>
#     for (uint32_t j = i; j < list_len - 1; j++) {
     c4c:	fe842783          	lw	a5,-24(s0)
     c50:	00178793          	add	a5,a5,1
     c54:	fef42423          	sw	a5,-24(s0)
     c58:	fd842783          	lw	a5,-40(s0)
     c5c:	fff78793          	add	a5,a5,-1
     c60:	fe842703          	lw	a4,-24(s0)
     c64:	faf768e3          	bltu	a4,a5,c14 <_ZL23remove_entity_from_listPhjh+0x4c>
     c68:	0080006f          	j	c70 <_ZL23remove_entity_from_listPhjh+0xa8>
#       continue;
     c6c:	00000013          	nop
#   for (uint32_t i = 0; i < list_len - 1; i++) {
     c70:	fec42783          	lw	a5,-20(s0)
     c74:	00178793          	add	a5,a5,1
     c78:	fef42623          	sw	a5,-20(s0)
     c7c:	fd842783          	lw	a5,-40(s0)
     c80:	fff78793          	add	a5,a5,-1
     c84:	fec42703          	lw	a4,-20(s0)
     c88:	f6f764e3          	bltu	a4,a5,bf0 <_ZL23remove_entity_from_listPhjh+0x28>
#         return;
#     }
#   }
#   uart_send_str("entity not here\r\n");
     c8c:	000027b7          	lui	a5,0x2
     c90:	78c78513          	add	a0,a5,1932 # 278c <_ZN14command_buffer12input_lengthEv+0x520>
     c94:	00001097          	auipc	ra,0x1
     c98:	e68080e7          	jalr	-408(ra) # 1afc <_ZL13uart_send_strPKc>
     c9c:	0080006f          	j	ca4 <_ZL23remove_entity_from_listPhjh+0xdc>
#         return;
     ca0:	00000013          	nop
# }
     ca4:	02c12083          	lw	ra,44(sp)
     ca8:	02812403          	lw	s0,40(sp)
     cac:	03010113          	add	sp,sp,48
     cb0:	00008067          	ret

00000cb4 <_ZL32remove_entity_from_list_by_indexPhj>:
# 
# static auto remove_entity_from_list_by_index(entity_id_t list[],
#                                              uint32_t ix) -> void {
     cb4:	fd010113          	add	sp,sp,-48
     cb8:	02812623          	sw	s0,44(sp)
     cbc:	03010413          	add	s0,sp,48
     cc0:	fca42e23          	sw	a0,-36(s0)
     cc4:	fcb42c23          	sw	a1,-40(s0)
#   entity_id_t *ptr = &list[ix];
     cc8:	fdc42703          	lw	a4,-36(s0)
     ccc:	fd842783          	lw	a5,-40(s0)
     cd0:	00f707b3          	add	a5,a4,a5
     cd4:	fef42623          	sw	a5,-20(s0)
#   while (true) {
#     *ptr = *(ptr + 1);
     cd8:	fec42783          	lw	a5,-20(s0)
     cdc:	0017c703          	lbu	a4,1(a5)
     ce0:	fec42783          	lw	a5,-20(s0)
     ce4:	00e78023          	sb	a4,0(a5)
#     if (!*ptr)
     ce8:	fec42783          	lw	a5,-20(s0)
     cec:	0007c783          	lbu	a5,0(a5)
     cf0:	00078a63          	beqz	a5,d04 <_ZL32remove_entity_from_list_by_indexPhj+0x50>
#       return;
#     ptr++;
     cf4:	fec42783          	lw	a5,-20(s0)
     cf8:	00178793          	add	a5,a5,1
     cfc:	fef42623          	sw	a5,-20(s0)
#     *ptr = *(ptr + 1);
     d00:	fd9ff06f          	j	cd8 <_ZL32remove_entity_from_list_by_indexPhj+0x24>
#       return;
     d04:	00000013          	nop
#   }
# }
     d08:	02c12403          	lw	s0,44(sp)
     d0c:	03010113          	add	sp,sp,48
     d10:	00008067          	ret

00000d14 <_ZL11action_takehPKc>:
# 
# static auto action_take(entity_id_t eid, name_t obj) -> void {
     d14:	fd010113          	add	sp,sp,-48
     d18:	02112623          	sw	ra,44(sp)
     d1c:	02812423          	sw	s0,40(sp)
     d20:	03010413          	add	s0,sp,48
     d24:	00050793          	mv	a5,a0
     d28:	fcb42c23          	sw	a1,-40(s0)
     d2c:	fcf40fa3          	sb	a5,-33(s0)
#   entity &ent = entities[eid];
     d30:	fdf44703          	lbu	a4,-33(s0)
     d34:	00070793          	mv	a5,a4
     d38:	00279793          	sll	a5,a5,0x2
     d3c:	00e787b3          	add	a5,a5,a4
     d40:	00379793          	sll	a5,a5,0x3
     d44:	00003737          	lui	a4,0x3
     d48:	0e870713          	add	a4,a4,232 # 30e8 <_ZL8entities>
     d4c:	00e787b3          	add	a5,a5,a4
     d50:	fef42423          	sw	a5,-24(s0)
#   object_id_t *lso = locations[ent.location].objects;
     d54:	fe842783          	lw	a5,-24(s0)
     d58:	0047c783          	lbu	a5,4(a5)
     d5c:	00078713          	mv	a4,a5
     d60:	00070793          	mv	a5,a4
     d64:	00379793          	sll	a5,a5,0x3
     d68:	00e787b3          	add	a5,a5,a4
     d6c:	00279793          	sll	a5,a5,0x2
     d70:	00e787b3          	add	a5,a5,a4
     d74:	00279793          	sll	a5,a5,0x2
     d78:	00003737          	lui	a4,0x3
     d7c:	16070713          	add	a4,a4,352 # 3160 <_ZL9locations>
     d80:	00e787b3          	add	a5,a5,a4
     d84:	00478793          	add	a5,a5,4
     d88:	fef42223          	sw	a5,-28(s0)
#   for (uint32_t i = 0; i < LOCATION_MAX_OBJECTS; i++) {
     d8c:	fe042623          	sw	zero,-20(s0)
     d90:	0a40006f          	j	e34 <_ZL11action_takehPKc+0x120>
#     object_id_t const oid = lso[i];
     d94:	fe442703          	lw	a4,-28(s0)
     d98:	fec42783          	lw	a5,-20(s0)
     d9c:	00f707b3          	add	a5,a4,a5
     da0:	0007c783          	lbu	a5,0(a5)
     da4:	fef401a3          	sb	a5,-29(s0)
#     if (!oid)
     da8:	fe344783          	lbu	a5,-29(s0)
     dac:	08078c63          	beqz	a5,e44 <_ZL11action_takehPKc+0x130>
#       break;
#     if (!strings_equal(objects[oid].name, obj))
     db0:	fe344783          	lbu	a5,-29(s0)
     db4:	00003737          	lui	a4,0x3
     db8:	0d870713          	add	a4,a4,216 # 30d8 <_ZL7objects>
     dbc:	00279793          	sll	a5,a5,0x2
     dc0:	00f707b3          	add	a5,a4,a5
     dc4:	0007a783          	lw	a5,0(a5)
     dc8:	fd842583          	lw	a1,-40(s0)
     dcc:	00078513          	mv	a0,a5
     dd0:	00001097          	auipc	ra,0x1
     dd4:	b60080e7          	jalr	-1184(ra) # 1930 <_ZL13strings_equalPKcS0_>
     dd8:	00050793          	mv	a5,a0
     ddc:	0017c793          	xor	a5,a5,1
     de0:	0ff7f793          	zext.b	a5,a5
     de4:	04079063          	bnez	a5,e24 <_ZL11action_takehPKc+0x110>
#       continue;
#     if (add_object_to_list(ent.objects, ENTITY_MAX_OBJECTS, oid)) {
     de8:	fe842783          	lw	a5,-24(s0)
     dec:	00578793          	add	a5,a5,5
     df0:	fe344703          	lbu	a4,-29(s0)
     df4:	00070613          	mv	a2,a4
     df8:	02000593          	li	a1,32
     dfc:	00078513          	mv	a0,a5
     e00:	00000097          	auipc	ra,0x0
     e04:	c60080e7          	jalr	-928(ra) # a60 <_ZL18add_object_to_listPhjh>
     e08:	00050793          	mv	a5,a0
     e0c:	04078e63          	beqz	a5,e68 <_ZL11action_takehPKc+0x154>
#       remove_object_from_list_by_index(lso, i);
     e10:	fec42583          	lw	a1,-20(s0)
     e14:	fe442503          	lw	a0,-28(s0)
     e18:	00000097          	auipc	ra,0x0
     e1c:	be8080e7          	jalr	-1048(ra) # a00 <_ZL32remove_object_from_list_by_indexPhj>
#     }
#     return;
     e20:	0480006f          	j	e68 <_ZL11action_takehPKc+0x154>
#       continue;
     e24:	00000013          	nop
#   for (uint32_t i = 0; i < LOCATION_MAX_OBJECTS; i++) {
     e28:	fec42783          	lw	a5,-20(s0)
     e2c:	00178793          	add	a5,a5,1
     e30:	fef42623          	sw	a5,-20(s0)
     e34:	fec42703          	lw	a4,-20(s0)
     e38:	07f00793          	li	a5,127
     e3c:	f4e7fce3          	bgeu	a5,a4,d94 <_ZL11action_takehPKc+0x80>
     e40:	0080006f          	j	e48 <_ZL11action_takehPKc+0x134>
#       break;
     e44:	00000013          	nop
#   }
#   uart_send_str(obj);
     e48:	fd842503          	lw	a0,-40(s0)
     e4c:	00001097          	auipc	ra,0x1
     e50:	cb0080e7          	jalr	-848(ra) # 1afc <_ZL13uart_send_strPKc>
#   uart_send_str(" not here\r\n\r\n");
     e54:	000027b7          	lui	a5,0x2
     e58:	7a078513          	add	a0,a5,1952 # 27a0 <_ZN14command_buffer12input_lengthEv+0x534>
     e5c:	00001097          	auipc	ra,0x1
     e60:	ca0080e7          	jalr	-864(ra) # 1afc <_ZL13uart_send_strPKc>
     e64:	0080006f          	j	e6c <_ZL11action_takehPKc+0x158>
#     return;
     e68:	00000013          	nop
# }
     e6c:	02c12083          	lw	ra,44(sp)
     e70:	02812403          	lw	s0,40(sp)
     e74:	03010113          	add	sp,sp,48
     e78:	00008067          	ret

00000e7c <_ZL11action_drophPKc>:
# 
# static auto action_drop(entity_id_t eid, name_t obj) -> void {
     e7c:	fd010113          	add	sp,sp,-48
     e80:	02112623          	sw	ra,44(sp)
     e84:	02812423          	sw	s0,40(sp)
     e88:	03010413          	add	s0,sp,48
     e8c:	00050793          	mv	a5,a0
     e90:	fcb42c23          	sw	a1,-40(s0)
     e94:	fcf40fa3          	sb	a5,-33(s0)
#   entity &ent = entities[eid];
     e98:	fdf44703          	lbu	a4,-33(s0)
     e9c:	00070793          	mv	a5,a4
     ea0:	00279793          	sll	a5,a5,0x2
     ea4:	00e787b3          	add	a5,a5,a4
     ea8:	00379793          	sll	a5,a5,0x3
     eac:	00003737          	lui	a4,0x3
     eb0:	0e870713          	add	a4,a4,232 # 30e8 <_ZL8entities>
     eb4:	00e787b3          	add	a5,a5,a4
     eb8:	fef42423          	sw	a5,-24(s0)
#   object_id_t *lso = ent.objects;
     ebc:	fe842783          	lw	a5,-24(s0)
     ec0:	00578793          	add	a5,a5,5
     ec4:	fef42223          	sw	a5,-28(s0)
#   for (uint32_t i = 0; i < ENTITY_MAX_OBJECTS; i++) {
     ec8:	fe042623          	sw	zero,-20(s0)
     ecc:	0d00006f          	j	f9c <_ZL11action_drophPKc+0x120>
#     object_id_t const oid = lso[i];
     ed0:	fe442703          	lw	a4,-28(s0)
     ed4:	fec42783          	lw	a5,-20(s0)
     ed8:	00f707b3          	add	a5,a4,a5
     edc:	0007c783          	lbu	a5,0(a5)
     ee0:	fef401a3          	sb	a5,-29(s0)
#     if (!oid)
     ee4:	fe344783          	lbu	a5,-29(s0)
     ee8:	0c078263          	beqz	a5,fac <_ZL11action_drophPKc+0x130>
#       break;
#     if (!strings_equal(objects[oid].name, obj))
     eec:	fe344783          	lbu	a5,-29(s0)
     ef0:	00003737          	lui	a4,0x3
     ef4:	0d870713          	add	a4,a4,216 # 30d8 <_ZL7objects>
     ef8:	00279793          	sll	a5,a5,0x2
     efc:	00f707b3          	add	a5,a4,a5
     f00:	0007a783          	lw	a5,0(a5)
     f04:	fd842583          	lw	a1,-40(s0)
     f08:	00078513          	mv	a0,a5
     f0c:	00001097          	auipc	ra,0x1
     f10:	a24080e7          	jalr	-1500(ra) # 1930 <_ZL13strings_equalPKcS0_>
     f14:	00050793          	mv	a5,a0
     f18:	0017c793          	xor	a5,a5,1
     f1c:	0ff7f793          	zext.b	a5,a5
     f20:	06079663          	bnez	a5,f8c <_ZL11action_drophPKc+0x110>
#       continue;
#     if (add_object_to_list(locations[ent.location].objects,
     f24:	fe842783          	lw	a5,-24(s0)
     f28:	0047c783          	lbu	a5,4(a5)
     f2c:	00078713          	mv	a4,a5
     f30:	00070793          	mv	a5,a4
     f34:	00379793          	sll	a5,a5,0x3
     f38:	00e787b3          	add	a5,a5,a4
     f3c:	00279793          	sll	a5,a5,0x2
     f40:	00e787b3          	add	a5,a5,a4
     f44:	00279793          	sll	a5,a5,0x2
     f48:	00003737          	lui	a4,0x3
     f4c:	16070713          	add	a4,a4,352 # 3160 <_ZL9locations>
     f50:	00e787b3          	add	a5,a5,a4
     f54:	00478793          	add	a5,a5,4
     f58:	fe344703          	lbu	a4,-29(s0)
     f5c:	00070613          	mv	a2,a4
     f60:	08000593          	li	a1,128
     f64:	00078513          	mv	a0,a5
     f68:	00000097          	auipc	ra,0x0
     f6c:	af8080e7          	jalr	-1288(ra) # a60 <_ZL18add_object_to_listPhjh>
     f70:	00050793          	mv	a5,a0
     f74:	06078663          	beqz	a5,fe0 <_ZL11action_drophPKc+0x164>
#                            LOCATION_MAX_OBJECTS, oid)) {
#       remove_object_from_list_by_index(lso, i);
     f78:	fec42583          	lw	a1,-20(s0)
     f7c:	fe442503          	lw	a0,-28(s0)
     f80:	00000097          	auipc	ra,0x0
     f84:	a80080e7          	jalr	-1408(ra) # a00 <_ZL32remove_object_from_list_by_indexPhj>
#     }
#     return;
     f88:	0580006f          	j	fe0 <_ZL11action_drophPKc+0x164>
#       continue;
     f8c:	00000013          	nop
#   for (uint32_t i = 0; i < ENTITY_MAX_OBJECTS; i++) {
     f90:	fec42783          	lw	a5,-20(s0)
     f94:	00178793          	add	a5,a5,1
     f98:	fef42623          	sw	a5,-20(s0)
     f9c:	fec42703          	lw	a4,-20(s0)
     fa0:	01f00793          	li	a5,31
     fa4:	f2e7f6e3          	bgeu	a5,a4,ed0 <_ZL11action_drophPKc+0x54>
     fa8:	0080006f          	j	fb0 <_ZL11action_drophPKc+0x134>
#       break;
     fac:	00000013          	nop
#   }
#   uart_send_str("u don't have ");
     fb0:	000027b7          	lui	a5,0x2
     fb4:	7b078513          	add	a0,a5,1968 # 27b0 <_ZN14command_buffer12input_lengthEv+0x544>
     fb8:	00001097          	auipc	ra,0x1
     fbc:	b44080e7          	jalr	-1212(ra) # 1afc <_ZL13uart_send_strPKc>
#   uart_send_str(obj);
     fc0:	fd842503          	lw	a0,-40(s0)
     fc4:	00001097          	auipc	ra,0x1
     fc8:	b38080e7          	jalr	-1224(ra) # 1afc <_ZL13uart_send_strPKc>
#   uart_send_str("\r\n\r\n");
     fcc:	000027b7          	lui	a5,0x2
     fd0:	7c078513          	add	a0,a5,1984 # 27c0 <_ZN14command_buffer12input_lengthEv+0x554>
     fd4:	00001097          	auipc	ra,0x1
     fd8:	b28080e7          	jalr	-1240(ra) # 1afc <_ZL13uart_send_strPKc>
     fdc:	0080006f          	j	fe4 <_ZL11action_drophPKc+0x168>
#     return;
     fe0:	00000013          	nop
# }
     fe4:	02c12083          	lw	ra,44(sp)
     fe8:	02812403          	lw	s0,40(sp)
     fec:	03010113          	add	sp,sp,48
     ff0:	00008067          	ret

00000ff4 <_ZL9action_gohh>:
# 
# static auto action_go(entity_id_t eid, direction_t dir) -> void {
     ff4:	fd010113          	add	sp,sp,-48
     ff8:	02112623          	sw	ra,44(sp)
     ffc:	02812423          	sw	s0,40(sp)
    1000:	03010413          	add	s0,sp,48
    1004:	00050793          	mv	a5,a0
    1008:	00058713          	mv	a4,a1
    100c:	fcf40fa3          	sb	a5,-33(s0)
    1010:	00070793          	mv	a5,a4
    1014:	fcf40f23          	sb	a5,-34(s0)
#   entity &ent = entities[eid];
    1018:	fdf44703          	lbu	a4,-33(s0)
    101c:	00070793          	mv	a5,a4
    1020:	00279793          	sll	a5,a5,0x2
    1024:	00e787b3          	add	a5,a5,a4
    1028:	00379793          	sll	a5,a5,0x3
    102c:	00003737          	lui	a4,0x3
    1030:	0e870713          	add	a4,a4,232 # 30e8 <_ZL8entities>
    1034:	00e787b3          	add	a5,a5,a4
    1038:	fef42623          	sw	a5,-20(s0)
#   location &loc = locations[ent.location];
    103c:	fec42783          	lw	a5,-20(s0)
    1040:	0047c783          	lbu	a5,4(a5)
    1044:	00078713          	mv	a4,a5
    1048:	00070793          	mv	a5,a4
    104c:	00379793          	sll	a5,a5,0x3
    1050:	00e787b3          	add	a5,a5,a4
    1054:	00279793          	sll	a5,a5,0x2
    1058:	00e787b3          	add	a5,a5,a4
    105c:	00279793          	sll	a5,a5,0x2
    1060:	00003737          	lui	a4,0x3
    1064:	16070713          	add	a4,a4,352 # 3160 <_ZL9locations>
    1068:	00e787b3          	add	a5,a5,a4
    106c:	fef42423          	sw	a5,-24(s0)
#   location_id_t const to = loc.exits[dir];
    1070:	fde44783          	lbu	a5,-34(s0)
    1074:	fe842703          	lw	a4,-24(s0)
    1078:	00f707b3          	add	a5,a4,a5
    107c:	08c7c783          	lbu	a5,140(a5)
    1080:	fef403a3          	sb	a5,-25(s0)
#   if (!to) {
    1084:	fe744783          	lbu	a5,-25(s0)
    1088:	00079c63          	bnez	a5,10a0 <_ZL9action_gohh+0xac>
#     uart_send_str("cannot go there\r\n\r\n");
    108c:	000027b7          	lui	a5,0x2
    1090:	7c878513          	add	a0,a5,1992 # 27c8 <_ZN14command_buffer12input_lengthEv+0x55c>
    1094:	00001097          	auipc	ra,0x1
    1098:	a68080e7          	jalr	-1432(ra) # 1afc <_ZL13uart_send_strPKc>
#     return;
    109c:	0800006f          	j	111c <_ZL9action_gohh+0x128>
#   }
#   if (add_entity_to_list(locations[to].entities, LOCATION_MAX_ENTITIES, eid)) {
    10a0:	fe744703          	lbu	a4,-25(s0)
    10a4:	00070793          	mv	a5,a4
    10a8:	00379793          	sll	a5,a5,0x3
    10ac:	00e787b3          	add	a5,a5,a4
    10b0:	00279793          	sll	a5,a5,0x2
    10b4:	00e787b3          	add	a5,a5,a4
    10b8:	00279793          	sll	a5,a5,0x2
    10bc:	08078713          	add	a4,a5,128
    10c0:	000037b7          	lui	a5,0x3
    10c4:	16078793          	add	a5,a5,352 # 3160 <_ZL9locations>
    10c8:	00f707b3          	add	a5,a4,a5
    10cc:	00478793          	add	a5,a5,4
    10d0:	fdf44703          	lbu	a4,-33(s0)
    10d4:	00070613          	mv	a2,a4
    10d8:	00800593          	li	a1,8
    10dc:	00078513          	mv	a0,a5
    10e0:	00000097          	auipc	ra,0x0
    10e4:	a34080e7          	jalr	-1484(ra) # b14 <_ZL18add_entity_to_listPhjh>
    10e8:	00050793          	mv	a5,a0
    10ec:	02078863          	beqz	a5,111c <_ZL9action_gohh+0x128>
#     remove_entity_from_list(loc.entities, LOCATION_MAX_ENTITIES, eid);
    10f0:	fe842783          	lw	a5,-24(s0)
    10f4:	08478793          	add	a5,a5,132
    10f8:	fdf44703          	lbu	a4,-33(s0)
    10fc:	00070613          	mv	a2,a4
    1100:	00800593          	li	a1,8
    1104:	00078513          	mv	a0,a5
    1108:	00000097          	auipc	ra,0x0
    110c:	ac0080e7          	jalr	-1344(ra) # bc8 <_ZL23remove_entity_from_listPhjh>
#     ent.location = to;
    1110:	fec42783          	lw	a5,-20(s0)
    1114:	fe744703          	lbu	a4,-25(s0)
    1118:	00e78223          	sb	a4,4(a5)
#   }
# }
    111c:	02c12083          	lw	ra,44(sp)
    1120:	02812403          	lw	s0,40(sp)
    1124:	03010113          	add	sp,sp,48
    1128:	00008067          	ret

0000112c <_ZL11action_givehPKcS0_>:
# 
# static auto action_give(entity_id_t eid, name_t obj, name_t to_ent) -> void {
    112c:	fc010113          	add	sp,sp,-64
    1130:	02112e23          	sw	ra,60(sp)
    1134:	02812c23          	sw	s0,56(sp)
    1138:	04010413          	add	s0,sp,64
    113c:	00050793          	mv	a5,a0
    1140:	fcb42423          	sw	a1,-56(s0)
    1144:	fcc42223          	sw	a2,-60(s0)
    1148:	fcf407a3          	sb	a5,-49(s0)
#   entity &ent = entities[eid];
    114c:	fcf44703          	lbu	a4,-49(s0)
    1150:	00070793          	mv	a5,a4
    1154:	00279793          	sll	a5,a5,0x2
    1158:	00e787b3          	add	a5,a5,a4
    115c:	00379793          	sll	a5,a5,0x3
    1160:	00003737          	lui	a4,0x3
    1164:	0e870713          	add	a4,a4,232 # 30e8 <_ZL8entities>
    1168:	00e787b3          	add	a5,a5,a4
    116c:	fef42223          	sw	a5,-28(s0)
#   location const &loc = locations[ent.location];
    1170:	fe442783          	lw	a5,-28(s0)
    1174:	0047c783          	lbu	a5,4(a5)
    1178:	00078713          	mv	a4,a5
    117c:	00070793          	mv	a5,a4
    1180:	00379793          	sll	a5,a5,0x3
    1184:	00e787b3          	add	a5,a5,a4
    1188:	00279793          	sll	a5,a5,0x2
    118c:	00e787b3          	add	a5,a5,a4
    1190:	00279793          	sll	a5,a5,0x2
    1194:	00003737          	lui	a4,0x3
    1198:	16070713          	add	a4,a4,352 # 3160 <_ZL9locations>
    119c:	00e787b3          	add	a5,a5,a4
    11a0:	fef42023          	sw	a5,-32(s0)
#   entity_id_t const *lse = loc.entities;
    11a4:	fe042783          	lw	a5,-32(s0)
    11a8:	08478793          	add	a5,a5,132
    11ac:	fcf42e23          	sw	a5,-36(s0)
#   for (uint32_t i = 0; i < LOCATION_MAX_ENTITIES; i++) {
    11b0:	fe042623          	sw	zero,-20(s0)
    11b4:	16c0006f          	j	1320 <_ZL11action_givehPKcS0_+0x1f4>
#     if (!lse[i])
    11b8:	fdc42703          	lw	a4,-36(s0)
    11bc:	fec42783          	lw	a5,-20(s0)
    11c0:	00f707b3          	add	a5,a4,a5
    11c4:	0007c783          	lbu	a5,0(a5)
    11c8:	16078463          	beqz	a5,1330 <_ZL11action_givehPKcS0_+0x204>
#       break;
#     entity &to = entities[lse[i]];
    11cc:	fdc42703          	lw	a4,-36(s0)
    11d0:	fec42783          	lw	a5,-20(s0)
    11d4:	00f707b3          	add	a5,a4,a5
    11d8:	0007c783          	lbu	a5,0(a5)
    11dc:	00078713          	mv	a4,a5
    11e0:	00070793          	mv	a5,a4
    11e4:	00279793          	sll	a5,a5,0x2
    11e8:	00e787b3          	add	a5,a5,a4
    11ec:	00379793          	sll	a5,a5,0x3
    11f0:	00003737          	lui	a4,0x3
    11f4:	0e870713          	add	a4,a4,232 # 30e8 <_ZL8entities>
    11f8:	00e787b3          	add	a5,a5,a4
    11fc:	fcf42c23          	sw	a5,-40(s0)
#     if (!strings_equal(to.name, to_ent))
    1200:	fd842783          	lw	a5,-40(s0)
    1204:	0007a783          	lw	a5,0(a5)
    1208:	fc442583          	lw	a1,-60(s0)
    120c:	00078513          	mv	a0,a5
    1210:	00000097          	auipc	ra,0x0
    1214:	720080e7          	jalr	1824(ra) # 1930 <_ZL13strings_equalPKcS0_>
    1218:	00050793          	mv	a5,a0
    121c:	0017c793          	xor	a5,a5,1
    1220:	0ff7f793          	zext.b	a5,a5
    1224:	0e079663          	bnez	a5,1310 <_ZL11action_givehPKcS0_+0x1e4>
#       continue;
#     object_id_t *lso = ent.objects;
    1228:	fe442783          	lw	a5,-28(s0)
    122c:	00578793          	add	a5,a5,5
    1230:	fcf42a23          	sw	a5,-44(s0)
#     for (uint32_t j = 0; j < ENTITY_MAX_OBJECTS; j++) {
    1234:	fe042423          	sw	zero,-24(s0)
    1238:	0a40006f          	j	12dc <_ZL11action_givehPKcS0_+0x1b0>
#       object_id_t const oid = lso[j];
    123c:	fd442703          	lw	a4,-44(s0)
    1240:	fe842783          	lw	a5,-24(s0)
    1244:	00f707b3          	add	a5,a4,a5
    1248:	0007c783          	lbu	a5,0(a5)
    124c:	fcf409a3          	sb	a5,-45(s0)
#       if (!oid)
    1250:	fd344783          	lbu	a5,-45(s0)
    1254:	08078c63          	beqz	a5,12ec <_ZL11action_givehPKcS0_+0x1c0>
#         break;
#       if (!strings_equal(objects[oid].name, obj))
    1258:	fd344783          	lbu	a5,-45(s0)
    125c:	00003737          	lui	a4,0x3
    1260:	0d870713          	add	a4,a4,216 # 30d8 <_ZL7objects>
    1264:	00279793          	sll	a5,a5,0x2
    1268:	00f707b3          	add	a5,a4,a5
    126c:	0007a783          	lw	a5,0(a5)
    1270:	fc842583          	lw	a1,-56(s0)
    1274:	00078513          	mv	a0,a5
    1278:	00000097          	auipc	ra,0x0
    127c:	6b8080e7          	jalr	1720(ra) # 1930 <_ZL13strings_equalPKcS0_>
    1280:	00050793          	mv	a5,a0
    1284:	0017c793          	xor	a5,a5,1
    1288:	0ff7f793          	zext.b	a5,a5
    128c:	04079063          	bnez	a5,12cc <_ZL11action_givehPKcS0_+0x1a0>
#         continue;
#       if (add_object_to_list(to.objects, ENTITY_MAX_OBJECTS, oid)) {
    1290:	fd842783          	lw	a5,-40(s0)
    1294:	00578793          	add	a5,a5,5
    1298:	fd344703          	lbu	a4,-45(s0)
    129c:	00070613          	mv	a2,a4
    12a0:	02000593          	li	a1,32
    12a4:	00078513          	mv	a0,a5
    12a8:	fffff097          	auipc	ra,0xfffff
    12ac:	7b8080e7          	jalr	1976(ra) # a60 <_ZL18add_object_to_listPhjh>
    12b0:	00050793          	mv	a5,a0
    12b4:	0a078063          	beqz	a5,1354 <_ZL11action_givehPKcS0_+0x228>
#         remove_object_from_list_by_index(lso, j);
    12b8:	fe842583          	lw	a1,-24(s0)
    12bc:	fd442503          	lw	a0,-44(s0)
    12c0:	fffff097          	auipc	ra,0xfffff
    12c4:	740080e7          	jalr	1856(ra) # a00 <_ZL32remove_object_from_list_by_indexPhj>
#       }
#       return;
    12c8:	08c0006f          	j	1354 <_ZL11action_givehPKcS0_+0x228>
#         continue;
    12cc:	00000013          	nop
#     for (uint32_t j = 0; j < ENTITY_MAX_OBJECTS; j++) {
    12d0:	fe842783          	lw	a5,-24(s0)
    12d4:	00178793          	add	a5,a5,1
    12d8:	fef42423          	sw	a5,-24(s0)
    12dc:	fe842703          	lw	a4,-24(s0)
    12e0:	01f00793          	li	a5,31
    12e4:	f4e7fce3          	bgeu	a5,a4,123c <_ZL11action_givehPKcS0_+0x110>
    12e8:	0080006f          	j	12f0 <_ZL11action_givehPKcS0_+0x1c4>
#         break;
    12ec:	00000013          	nop
#     }
#     uart_send_str(obj);
    12f0:	fc842503          	lw	a0,-56(s0)
    12f4:	00001097          	auipc	ra,0x1
    12f8:	808080e7          	jalr	-2040(ra) # 1afc <_ZL13uart_send_strPKc>
#     uart_send_str(" not in inventory\r\n\r\n");
    12fc:	000027b7          	lui	a5,0x2
    1300:	7dc78513          	add	a0,a5,2012 # 27dc <_ZN14command_buffer12input_lengthEv+0x570>
    1304:	00000097          	auipc	ra,0x0
    1308:	7f8080e7          	jalr	2040(ra) # 1afc <_ZL13uart_send_strPKc>
#     return;
    130c:	04c0006f          	j	1358 <_ZL11action_givehPKcS0_+0x22c>
#       continue;
    1310:	00000013          	nop
#   for (uint32_t i = 0; i < LOCATION_MAX_ENTITIES; i++) {
    1314:	fec42783          	lw	a5,-20(s0)
    1318:	00178793          	add	a5,a5,1
    131c:	fef42623          	sw	a5,-20(s0)
    1320:	fec42703          	lw	a4,-20(s0)
    1324:	00700793          	li	a5,7
    1328:	e8e7f8e3          	bgeu	a5,a4,11b8 <_ZL11action_givehPKcS0_+0x8c>
    132c:	0080006f          	j	1334 <_ZL11action_givehPKcS0_+0x208>
#       break;
    1330:	00000013          	nop
#   }
#   uart_send_str(to_ent);
    1334:	fc442503          	lw	a0,-60(s0)
    1338:	00000097          	auipc	ra,0x0
    133c:	7c4080e7          	jalr	1988(ra) # 1afc <_ZL13uart_send_strPKc>
#   uart_send_str(" is not here\r\n\r\n");
    1340:	000027b7          	lui	a5,0x2
    1344:	7f478513          	add	a0,a5,2036 # 27f4 <_ZN14command_buffer12input_lengthEv+0x588>
    1348:	00000097          	auipc	ra,0x0
    134c:	7b4080e7          	jalr	1972(ra) # 1afc <_ZL13uart_send_strPKc>
    1350:	0080006f          	j	1358 <_ZL11action_givehPKcS0_+0x22c>
#       return;
    1354:	00000013          	nop
# }
    1358:	03c12083          	lw	ra,60(sp)
    135c:	03812403          	lw	s0,56(sp)
    1360:	04010113          	add	sp,sp,64
    1364:	00008067          	ret

00001368 <_ZL10print_helpv>:
# 
# static auto print_help() -> void {
    1368:	ff010113          	add	sp,sp,-16
    136c:	00112623          	sw	ra,12(sp)
    1370:	00812423          	sw	s0,8(sp)
    1374:	01010413          	add	s0,sp,16
#   uart_send_str(
    1378:	000037b7          	lui	a5,0x3
    137c:	80878513          	add	a0,a5,-2040 # 2808 <_ZN14command_buffer12input_lengthEv+0x59c>
    1380:	00000097          	auipc	ra,0x0
    1384:	77c080e7          	jalr	1916(ra) # 1afc <_ZL13uart_send_strPKc>
#       "\r\ncommand:\r\n  n: go north\r\n  e: go east\r\n  s: go south\r\n  w: "
#       "go west\r\n  i: "
#       "display inventory\r\n  t <object>: take object\r\n  d <object>: drop "
#       "object\r\n  g <object> <entity>: give object to entity\r\n  help: this "
#       "message\r\n\r\n");
# }
    1388:	00000013          	nop
    138c:	00c12083          	lw	ra,12(sp)
    1390:	00812403          	lw	s0,8(sp)
    1394:	01010113          	add	sp,sp,16
    1398:	00008067          	ret

0000139c <_ZL27input_escape_sequence_clearv>:
# 
# static char input_escape_sequence[8];
# static auto input_escape_sequence_clear() -> void {
    139c:	fe010113          	add	sp,sp,-32
    13a0:	00812e23          	sw	s0,28(sp)
    13a4:	02010413          	add	s0,sp,32
#   for (uint32_t i = 0; i < sizeof(input_escape_sequence); ++i) {
    13a8:	fe042623          	sw	zero,-20(s0)
    13ac:	0280006f          	j	13d4 <_ZL27input_escape_sequence_clearv+0x38>
#     input_escape_sequence[i] = '0';
    13b0:	000037b7          	lui	a5,0x3
    13b4:	46478713          	add	a4,a5,1124 # 3464 <_ZL21input_escape_sequence>
    13b8:	fec42783          	lw	a5,-20(s0)
    13bc:	00f707b3          	add	a5,a4,a5
    13c0:	03000713          	li	a4,48
    13c4:	00e78023          	sb	a4,0(a5)
#   for (uint32_t i = 0; i < sizeof(input_escape_sequence); ++i) {
    13c8:	fec42783          	lw	a5,-20(s0)
    13cc:	00178793          	add	a5,a5,1
    13d0:	fef42623          	sw	a5,-20(s0)
    13d4:	fec42703          	lw	a4,-20(s0)
    13d8:	00700793          	li	a5,7
    13dc:	fce7fae3          	bgeu	a5,a4,13b0 <_ZL27input_escape_sequence_clearv+0x14>
#   }
# }
    13e0:	00000013          	nop
    13e4:	00000013          	nop
    13e8:	01c12403          	lw	s0,28(sp)
    13ec:	02010113          	add	sp,sp,32
    13f0:	00008067          	ret

000013f4 <_ZZL5inputR14command_bufferENKUlcE_clEc>:
#           // in escape sequence: 0x1B 0x5B 0x33
#           if (ch == 0x7e) {
#             // escape sequence 0x1B 0x5B 0x33 0x7E
#             // delete
#             buf.del();
#             buf.send_from_index_to_end([](char c) { uart_send_char(c); });
    13f4:	fe010113          	add	sp,sp,-32
    13f8:	00112e23          	sw	ra,28(sp)
    13fc:	00812c23          	sw	s0,24(sp)
    1400:	02010413          	add	s0,sp,32
    1404:	fea42623          	sw	a0,-20(s0)
    1408:	00058793          	mv	a5,a1
    140c:	fef405a3          	sb	a5,-21(s0)
    1410:	feb44783          	lbu	a5,-21(s0)
    1414:	00078513          	mv	a0,a5
    1418:	00000097          	auipc	ra,0x0
    141c:	74c080e7          	jalr	1868(ra) # 1b64 <_ZL14uart_send_charc>
    1420:	00000013          	nop
    1424:	01c12083          	lw	ra,28(sp)
    1428:	01812403          	lw	s0,24(sp)
    142c:	02010113          	add	sp,sp,32
    1430:	00008067          	ret

00001434 <_ZZL5inputR14command_bufferENUlcE_4_FUNEc>:
    1434:	fe010113          	add	sp,sp,-32
    1438:	00112e23          	sw	ra,28(sp)
    143c:	00812c23          	sw	s0,24(sp)
    1440:	02010413          	add	s0,sp,32
    1444:	00050793          	mv	a5,a0
    1448:	fef407a3          	sb	a5,-17(s0)
    144c:	fef44783          	lbu	a5,-17(s0)
    1450:	00078593          	mv	a1,a5
    1454:	00000513          	li	a0,0
    1458:	00000097          	auipc	ra,0x0
    145c:	f9c080e7          	jalr	-100(ra) # 13f4 <_ZZL5inputR14command_bufferENKUlcE_clEc>
    1460:	01c12083          	lw	ra,28(sp)
    1464:	01812403          	lw	s0,24(sp)
    1468:	02010113          	add	sp,sp,32
    146c:	00008067          	ret

00001470 <_ZZL5inputR14command_bufferENKUlcE_cvPFvcEEv>:
    1470:	fe010113          	add	sp,sp,-32
    1474:	00812e23          	sw	s0,28(sp)
    1478:	02010413          	add	s0,sp,32
    147c:	fea42623          	sw	a0,-20(s0)
    1480:	000017b7          	lui	a5,0x1
    1484:	43478793          	add	a5,a5,1076 # 1434 <_ZZL5inputR14command_bufferENUlcE_4_FUNEc>
    1488:	00078513          	mv	a0,a5
    148c:	01c12403          	lw	s0,28(sp)
    1490:	02010113          	add	sp,sp,32
    1494:	00008067          	ret

00001498 <_ZZL5inputR14command_bufferENKUlcE0_clEc>:
#       }
#     }
#     if (ch == CHAR_BACKSPACE) {
#       if (buf.backspace()) {
#         uart_send_char(ch);
#         buf.send_from_index_to_end([](char c) { uart_send_char(c); });
    1498:	fe010113          	add	sp,sp,-32
    149c:	00112e23          	sw	ra,28(sp)
    14a0:	00812c23          	sw	s0,24(sp)
    14a4:	02010413          	add	s0,sp,32
    14a8:	fea42623          	sw	a0,-20(s0)
    14ac:	00058793          	mv	a5,a1
    14b0:	fef405a3          	sb	a5,-21(s0)
    14b4:	feb44783          	lbu	a5,-21(s0)
    14b8:	00078513          	mv	a0,a5
    14bc:	00000097          	auipc	ra,0x0
    14c0:	6a8080e7          	jalr	1704(ra) # 1b64 <_ZL14uart_send_charc>
    14c4:	00000013          	nop
    14c8:	01c12083          	lw	ra,28(sp)
    14cc:	01812403          	lw	s0,24(sp)
    14d0:	02010113          	add	sp,sp,32
    14d4:	00008067          	ret

000014d8 <_ZZL5inputR14command_bufferENUlcE0_4_FUNEc>:
    14d8:	fe010113          	add	sp,sp,-32
    14dc:	00112e23          	sw	ra,28(sp)
    14e0:	00812c23          	sw	s0,24(sp)
    14e4:	02010413          	add	s0,sp,32
    14e8:	00050793          	mv	a5,a0
    14ec:	fef407a3          	sb	a5,-17(s0)
    14f0:	fef44783          	lbu	a5,-17(s0)
    14f4:	00078593          	mv	a1,a5
    14f8:	00000513          	li	a0,0
    14fc:	00000097          	auipc	ra,0x0
    1500:	f9c080e7          	jalr	-100(ra) # 1498 <_ZZL5inputR14command_bufferENKUlcE0_clEc>
    1504:	01c12083          	lw	ra,28(sp)
    1508:	01812403          	lw	s0,24(sp)
    150c:	02010113          	add	sp,sp,32
    1510:	00008067          	ret

00001514 <_ZZL5inputR14command_bufferENKUlcE0_cvPFvcEEv>:
    1514:	fe010113          	add	sp,sp,-32
    1518:	00812e23          	sw	s0,28(sp)
    151c:	02010413          	add	s0,sp,32
    1520:	fea42623          	sw	a0,-20(s0)
    1524:	000017b7          	lui	a5,0x1
    1528:	4d878793          	add	a5,a5,1240 # 14d8 <_ZZL5inputR14command_bufferENUlcE0_4_FUNEc>
    152c:	00078513          	mv	a0,a5
    1530:	01c12403          	lw	s0,28(sp)
    1534:	02010113          	add	sp,sp,32
    1538:	00008067          	ret

0000153c <_ZZL5inputR14command_bufferENKUlcE1_clEc>:
#       buf.set_eos();
#       return;
#     } else {
#       uart_send_char(ch);
#       buf.insert(ch);
#       buf.send_from_index_to_end([](char const c) { uart_send_char(c); });
    153c:	fe010113          	add	sp,sp,-32
    1540:	00112e23          	sw	ra,28(sp)
    1544:	00812c23          	sw	s0,24(sp)
    1548:	02010413          	add	s0,sp,32
    154c:	fea42623          	sw	a0,-20(s0)
    1550:	00058793          	mv	a5,a1
    1554:	fef405a3          	sb	a5,-21(s0)
    1558:	feb44783          	lbu	a5,-21(s0)
    155c:	00078513          	mv	a0,a5
    1560:	00000097          	auipc	ra,0x0
    1564:	604080e7          	jalr	1540(ra) # 1b64 <_ZL14uart_send_charc>
    1568:	00000013          	nop
    156c:	01c12083          	lw	ra,28(sp)
    1570:	01812403          	lw	s0,24(sp)
    1574:	02010113          	add	sp,sp,32
    1578:	00008067          	ret

0000157c <_ZZL5inputR14command_bufferENUlcE1_4_FUNEc>:
    157c:	fe010113          	add	sp,sp,-32
    1580:	00112e23          	sw	ra,28(sp)
    1584:	00812c23          	sw	s0,24(sp)
    1588:	02010413          	add	s0,sp,32
    158c:	00050793          	mv	a5,a0
    1590:	fef407a3          	sb	a5,-17(s0)
    1594:	fef44783          	lbu	a5,-17(s0)
    1598:	00078593          	mv	a1,a5
    159c:	00000513          	li	a0,0
    15a0:	00000097          	auipc	ra,0x0
    15a4:	f9c080e7          	jalr	-100(ra) # 153c <_ZZL5inputR14command_bufferENKUlcE1_clEc>
    15a8:	01c12083          	lw	ra,28(sp)
    15ac:	01812403          	lw	s0,24(sp)
    15b0:	02010113          	add	sp,sp,32
    15b4:	00008067          	ret

000015b8 <_ZZL5inputR14command_bufferENKUlcE1_cvPFvcEEv>:
    15b8:	fe010113          	add	sp,sp,-32
    15bc:	00812e23          	sw	s0,28(sp)
    15c0:	02010413          	add	s0,sp,32
    15c4:	fea42623          	sw	a0,-20(s0)
    15c8:	000017b7          	lui	a5,0x1
    15cc:	57c78793          	add	a5,a5,1404 # 157c <_ZZL5inputR14command_bufferENUlcE1_4_FUNEc>
    15d0:	00078513          	mv	a0,a5
    15d4:	01c12403          	lw	s0,28(sp)
    15d8:	02010113          	add	sp,sp,32
    15dc:	00008067          	ret

000015e0 <_ZL5inputR14command_buffer>:
# static auto input(command_buffer &buf) -> void {
    15e0:	fd010113          	add	sp,sp,-48
    15e4:	02112623          	sw	ra,44(sp)
    15e8:	02812423          	sw	s0,40(sp)
    15ec:	03010413          	add	s0,sp,48
    15f0:	fca42e23          	sw	a0,-36(s0)
#   buf.reset();
    15f4:	fdc42503          	lw	a0,-36(s0)
    15f8:	00001097          	auipc	ra,0x1
    15fc:	a50080e7          	jalr	-1456(ra) # 2048 <_ZN14command_buffer5resetEv>
#     char const ch = uart_read_char();
    1600:	00000097          	auipc	ra,0x0
    1604:	5b0080e7          	jalr	1456(ra) # 1bb0 <_ZL14uart_read_charv>
    1608:	00050793          	mv	a5,a0
    160c:	fef407a3          	sb	a5,-17(s0)
#     if (ch == 0x1B) {
    1610:	fef44703          	lbu	a4,-17(s0)
    1614:	01b00793          	li	a5,27
    1618:	00f71c63          	bne	a4,a5,1630 <_ZL5inputR14command_buffer+0x50>
#       input_escape_sequence[0] = 0x1B;
    161c:	000037b7          	lui	a5,0x3
    1620:	46478793          	add	a5,a5,1124 # 3464 <_ZL21input_escape_sequence>
    1624:	01b00713          	li	a4,27
    1628:	00e78023          	sb	a4,0(a5)
#       continue;
    162c:	2f00006f          	j	191c <_ZL5inputR14command_buffer+0x33c>
#     if (input_escape_sequence[0] == 0x1B) {
    1630:	000037b7          	lui	a5,0x3
    1634:	46478793          	add	a5,a5,1124 # 3464 <_ZL21input_escape_sequence>
    1638:	0007c703          	lbu	a4,0(a5)
    163c:	01b00793          	li	a5,27
    1640:	18f71663          	bne	a4,a5,17cc <_ZL5inputR14command_buffer+0x1ec>
#       if (ch == 0x5B) {
    1644:	fef44703          	lbu	a4,-17(s0)
    1648:	05b00793          	li	a5,91
    164c:	00f71c63          	bne	a4,a5,1664 <_ZL5inputR14command_buffer+0x84>
#         input_escape_sequence[1] = 0x5B;
    1650:	000037b7          	lui	a5,0x3
    1654:	46478793          	add	a5,a5,1124 # 3464 <_ZL21input_escape_sequence>
    1658:	05b00713          	li	a4,91
    165c:	00e780a3          	sb	a4,1(a5)
#         continue;
    1660:	2bc0006f          	j	191c <_ZL5inputR14command_buffer+0x33c>
#       if (input_escape_sequence[1] == 0x5B) {
    1664:	000037b7          	lui	a5,0x3
    1668:	46478793          	add	a5,a5,1124 # 3464 <_ZL21input_escape_sequence>
    166c:	0017c703          	lbu	a4,1(a5)
    1670:	05b00793          	li	a5,91
    1674:	14f71c63          	bne	a4,a5,17cc <_ZL5inputR14command_buffer+0x1ec>
#         if (ch == 0x44) {
    1678:	fef44703          	lbu	a4,-17(s0)
    167c:	04400793          	li	a5,68
    1680:	04f71463          	bne	a4,a5,16c8 <_ZL5inputR14command_buffer+0xe8>
#           if (buf.move_cursor_left()) {
    1684:	fdc42503          	lw	a0,-36(s0)
    1688:	00001097          	auipc	ra,0x1
    168c:	a64080e7          	jalr	-1436(ra) # 20ec <_ZN14command_buffer16move_cursor_leftEv>
    1690:	00050793          	mv	a5,a0
    1694:	02078463          	beqz	a5,16bc <_ZL5inputR14command_buffer+0xdc>
#             uart_send_char(0x1B);
    1698:	01b00513          	li	a0,27
    169c:	00000097          	auipc	ra,0x0
    16a0:	4c8080e7          	jalr	1224(ra) # 1b64 <_ZL14uart_send_charc>
#             uart_send_char(0x5B);
    16a4:	05b00513          	li	a0,91
    16a8:	00000097          	auipc	ra,0x0
    16ac:	4bc080e7          	jalr	1212(ra) # 1b64 <_ZL14uart_send_charc>
#             uart_send_char(0x44);
    16b0:	04400513          	li	a0,68
    16b4:	00000097          	auipc	ra,0x0
    16b8:	4b0080e7          	jalr	1200(ra) # 1b64 <_ZL14uart_send_charc>
#           input_escape_sequence_clear();
    16bc:	00000097          	auipc	ra,0x0
    16c0:	ce0080e7          	jalr	-800(ra) # 139c <_ZL27input_escape_sequence_clearv>
#           continue;
    16c4:	2580006f          	j	191c <_ZL5inputR14command_buffer+0x33c>
#         if (ch == 0x43) {
    16c8:	fef44703          	lbu	a4,-17(s0)
    16cc:	04300793          	li	a5,67
    16d0:	04f71463          	bne	a4,a5,1718 <_ZL5inputR14command_buffer+0x138>
#           if (buf.move_cursor_right()) {
    16d4:	fdc42503          	lw	a0,-36(s0)
    16d8:	00001097          	auipc	ra,0x1
    16dc:	a64080e7          	jalr	-1436(ra) # 213c <_ZN14command_buffer17move_cursor_rightEv>
    16e0:	00050793          	mv	a5,a0
    16e4:	02078463          	beqz	a5,170c <_ZL5inputR14command_buffer+0x12c>
#             uart_send_char(0x1B);
    16e8:	01b00513          	li	a0,27
    16ec:	00000097          	auipc	ra,0x0
    16f0:	478080e7          	jalr	1144(ra) # 1b64 <_ZL14uart_send_charc>
#             uart_send_char(0x5B);
    16f4:	05b00513          	li	a0,91
    16f8:	00000097          	auipc	ra,0x0
    16fc:	46c080e7          	jalr	1132(ra) # 1b64 <_ZL14uart_send_charc>
#             uart_send_char(0x43);
    1700:	04300513          	li	a0,67
    1704:	00000097          	auipc	ra,0x0
    1708:	460080e7          	jalr	1120(ra) # 1b64 <_ZL14uart_send_charc>
#           input_escape_sequence_clear();
    170c:	00000097          	auipc	ra,0x0
    1710:	c90080e7          	jalr	-880(ra) # 139c <_ZL27input_escape_sequence_clearv>
#           continue;
    1714:	2080006f          	j	191c <_ZL5inputR14command_buffer+0x33c>
#         if (ch == 0x33) {
    1718:	fef44703          	lbu	a4,-17(s0)
    171c:	03300793          	li	a5,51
    1720:	00f71c63          	bne	a4,a5,1738 <_ZL5inputR14command_buffer+0x158>
#           input_escape_sequence[2] = 0x33;
    1724:	000037b7          	lui	a5,0x3
    1728:	46478793          	add	a5,a5,1124 # 3464 <_ZL21input_escape_sequence>
    172c:	03300713          	li	a4,51
    1730:	00e78123          	sb	a4,2(a5)
#           continue;
    1734:	1e80006f          	j	191c <_ZL5inputR14command_buffer+0x33c>
#         if (input_escape_sequence[2] == 0x33) {
    1738:	000037b7          	lui	a5,0x3
    173c:	46478793          	add	a5,a5,1124 # 3464 <_ZL21input_escape_sequence>
    1740:	0027c703          	lbu	a4,2(a5)
    1744:	03300793          	li	a5,51
    1748:	06f71c63          	bne	a4,a5,17c0 <_ZL5inputR14command_buffer+0x1e0>
#           if (ch == 0x7e) {
    174c:	fef44703          	lbu	a4,-17(s0)
    1750:	07e00793          	li	a5,126
    1754:	06f71063          	bne	a4,a5,17b4 <_ZL5inputR14command_buffer+0x1d4>
#             buf.del();
    1758:	fdc42503          	lw	a0,-36(s0)
    175c:	00001097          	auipc	ra,0x1
    1760:	844080e7          	jalr	-1980(ra) # 1fa0 <_ZN14command_buffer3delEv>
#             buf.send_from_index_to_end([](char c) { uart_send_char(c); });
    1764:	fe440793          	add	a5,s0,-28
    1768:	00078513          	mv	a0,a5
    176c:	00000097          	auipc	ra,0x0
    1770:	d04080e7          	jalr	-764(ra) # 1470 <_ZZL5inputR14command_bufferENKUlcE_cvPFvcEEv>
    1774:	00050793          	mv	a5,a0
    1778:	00078593          	mv	a1,a5
    177c:	fdc42503          	lw	a0,-36(s0)
    1780:	00001097          	auipc	ra,0x1
    1784:	a14080e7          	jalr	-1516(ra) # 2194 <_ZN14command_buffer22send_from_index_to_endEPFvcE>
#             uart_send_char(' ');
    1788:	02000513          	li	a0,32
    178c:	00000097          	auipc	ra,0x0
    1790:	3d8080e7          	jalr	984(ra) # 1b64 <_ZL14uart_send_charc>
#             uart_send_move_back(buf.characters_after_cursor() + 1);
    1794:	fdc42503          	lw	a0,-36(s0)
    1798:	00001097          	auipc	ra,0x1
    179c:	a78080e7          	jalr	-1416(ra) # 2210 <_ZN14command_buffer23characters_after_cursorEv>
    17a0:	00050793          	mv	a5,a0
    17a4:	00178793          	add	a5,a5,1
    17a8:	00078513          	mv	a0,a5
    17ac:	00000097          	auipc	ra,0x0
    17b0:	2c8080e7          	jalr	712(ra) # 1a74 <_ZL19uart_send_move_backj>
#           input_escape_sequence_clear();
    17b4:	00000097          	auipc	ra,0x0
    17b8:	be8080e7          	jalr	-1048(ra) # 139c <_ZL27input_escape_sequence_clearv>
#           continue;
    17bc:	1600006f          	j	191c <_ZL5inputR14command_buffer+0x33c>
#         input_escape_sequence_clear();
    17c0:	00000097          	auipc	ra,0x0
    17c4:	bdc080e7          	jalr	-1060(ra) # 139c <_ZL27input_escape_sequence_clearv>
#         continue;
    17c8:	1540006f          	j	191c <_ZL5inputR14command_buffer+0x33c>
#     if (ch == CHAR_BACKSPACE) {
    17cc:	fef44703          	lbu	a4,-17(s0)
    17d0:	07f00793          	li	a5,127
    17d4:	06f71e63          	bne	a4,a5,1850 <_ZL5inputR14command_buffer+0x270>
#       if (buf.backspace()) {
    17d8:	fdc42503          	lw	a0,-36(s0)
    17dc:	00000097          	auipc	ra,0x0
    17e0:	6b8080e7          	jalr	1720(ra) # 1e94 <_ZN14command_buffer9backspaceEv>
    17e4:	00050793          	mv	a5,a0
    17e8:	10078663          	beqz	a5,18f4 <_ZL5inputR14command_buffer+0x314>
#         uart_send_char(ch);
    17ec:	fef44783          	lbu	a5,-17(s0)
    17f0:	00078513          	mv	a0,a5
    17f4:	00000097          	auipc	ra,0x0
    17f8:	370080e7          	jalr	880(ra) # 1b64 <_ZL14uart_send_charc>
#         buf.send_from_index_to_end([](char c) { uart_send_char(c); });
    17fc:	fe840793          	add	a5,s0,-24
    1800:	00078513          	mv	a0,a5
    1804:	00000097          	auipc	ra,0x0
    1808:	d10080e7          	jalr	-752(ra) # 1514 <_ZZL5inputR14command_bufferENKUlcE0_cvPFvcEEv>
    180c:	00050793          	mv	a5,a0
    1810:	00078593          	mv	a1,a5
    1814:	fdc42503          	lw	a0,-36(s0)
    1818:	00001097          	auipc	ra,0x1
    181c:	97c080e7          	jalr	-1668(ra) # 2194 <_ZN14command_buffer22send_from_index_to_endEPFvcE>
#         uart_send_char(' ');
    1820:	02000513          	li	a0,32
    1824:	00000097          	auipc	ra,0x0
    1828:	340080e7          	jalr	832(ra) # 1b64 <_ZL14uart_send_charc>
#         uart_send_move_back(buf.characters_after_cursor() + 1);
    182c:	fdc42503          	lw	a0,-36(s0)
    1830:	00001097          	auipc	ra,0x1
    1834:	9e0080e7          	jalr	-1568(ra) # 2210 <_ZN14command_buffer23characters_after_cursorEv>
    1838:	00050793          	mv	a5,a0
    183c:	00178793          	add	a5,a5,1
    1840:	00078513          	mv	a0,a5
    1844:	00000097          	auipc	ra,0x0
    1848:	230080e7          	jalr	560(ra) # 1a74 <_ZL19uart_send_move_backj>
    184c:	0a80006f          	j	18f4 <_ZL5inputR14command_buffer+0x314>
#     } else if (ch == CHAR_CARRIAGE_RETURN || buf.is_full()) {
    1850:	fef44703          	lbu	a4,-17(s0)
    1854:	00d00793          	li	a5,13
    1858:	00f70c63          	beq	a4,a5,1870 <_ZL5inputR14command_buffer+0x290>
    185c:	fdc42503          	lw	a0,-36(s0)
    1860:	00001097          	auipc	ra,0x1
    1864:	858080e7          	jalr	-1960(ra) # 20b8 <_ZN14command_buffer7is_fullEv>
    1868:	00050793          	mv	a5,a0
    186c:	00078663          	beqz	a5,1878 <_ZL5inputR14command_buffer+0x298>
    1870:	00100793          	li	a5,1
    1874:	0080006f          	j	187c <_ZL5inputR14command_buffer+0x29c>
    1878:	00000793          	li	a5,0
    187c:	00078a63          	beqz	a5,1890 <_ZL5inputR14command_buffer+0x2b0>
#       buf.set_eos();
    1880:	fdc42503          	lw	a0,-36(s0)
    1884:	00000097          	auipc	ra,0x0
    1888:	7fc080e7          	jalr	2044(ra) # 2080 <_ZN14command_buffer7set_eosEv>
#       return;
    188c:	0940006f          	j	1920 <_ZL5inputR14command_buffer+0x340>
#       uart_send_char(ch);
    1890:	fef44783          	lbu	a5,-17(s0)
    1894:	00078513          	mv	a0,a5
    1898:	00000097          	auipc	ra,0x0
    189c:	2cc080e7          	jalr	716(ra) # 1b64 <_ZL14uart_send_charc>
#       buf.insert(ch);
    18a0:	fef44783          	lbu	a5,-17(s0)
    18a4:	00078593          	mv	a1,a5
    18a8:	fdc42503          	lw	a0,-36(s0)
    18ac:	00000097          	auipc	ra,0x0
    18b0:	49c080e7          	jalr	1180(ra) # 1d48 <_ZN14command_buffer6insertEc>
#       buf.send_from_index_to_end([](char const c) { uart_send_char(c); });
    18b4:	fec40793          	add	a5,s0,-20
    18b8:	00078513          	mv	a0,a5
    18bc:	00000097          	auipc	ra,0x0
    18c0:	cfc080e7          	jalr	-772(ra) # 15b8 <_ZZL5inputR14command_bufferENKUlcE1_cvPFvcEEv>
    18c4:	00050793          	mv	a5,a0
    18c8:	00078593          	mv	a1,a5
    18cc:	fdc42503          	lw	a0,-36(s0)
    18d0:	00001097          	auipc	ra,0x1
    18d4:	8c4080e7          	jalr	-1852(ra) # 2194 <_ZN14command_buffer22send_from_index_to_endEPFvcE>
#       uart_send_move_back(buf.characters_after_cursor());
    18d8:	fdc42503          	lw	a0,-36(s0)
    18dc:	00001097          	auipc	ra,0x1
    18e0:	934080e7          	jalr	-1740(ra) # 2210 <_ZN14command_buffer23characters_after_cursorEv>
    18e4:	00050793          	mv	a5,a0
    18e8:	00078513          	mv	a0,a5
    18ec:	00000097          	auipc	ra,0x0
    18f0:	188080e7          	jalr	392(ra) # 1a74 <_ZL19uart_send_move_backj>
#     }
#     led_set(~uint8_t(buf.input_length()));
    18f4:	fdc42503          	lw	a0,-36(s0)
    18f8:	00001097          	auipc	ra,0x1
    18fc:	974080e7          	jalr	-1676(ra) # 226c <_ZN14command_buffer12input_lengthEv>
    1900:	00050793          	mv	a5,a0
    1904:	0ff7f793          	zext.b	a5,a5
    1908:	fff7c793          	not	a5,a5
    190c:	0ff7f793          	zext.b	a5,a5
    1910:	00078513          	mv	a0,a5
    1914:	00000097          	auipc	ra,0x0
    1918:	1b8080e7          	jalr	440(ra) # 1acc <_ZL7led_seth>
#   }
    191c:	ce5ff06f          	j	1600 <_ZL5inputR14command_buffer+0x20>
# }
    1920:	02c12083          	lw	ra,44(sp)
    1924:	02812403          	lw	s0,40(sp)
    1928:	03010113          	add	sp,sp,48
    192c:	00008067          	ret

00001930 <_ZL13strings_equalPKcS0_>:
# 
# static auto strings_equal(char const *s1, char const *s2) -> bool {
    1930:	fe010113          	add	sp,sp,-32
    1934:	00812e23          	sw	s0,28(sp)
    1938:	02010413          	add	s0,sp,32
    193c:	fea42623          	sw	a0,-20(s0)
    1940:	feb42423          	sw	a1,-24(s0)
#   while (true) {
#     if (*s1 - *s2)
    1944:	fec42783          	lw	a5,-20(s0)
    1948:	0007c703          	lbu	a4,0(a5)
    194c:	fe842783          	lw	a5,-24(s0)
    1950:	0007c783          	lbu	a5,0(a5)
    1954:	00f70663          	beq	a4,a5,1960 <_ZL13strings_equalPKcS0_+0x30>
#       return false;
    1958:	00000793          	li	a5,0
    195c:	0400006f          	j	199c <_ZL13strings_equalPKcS0_+0x6c>
#     if (!*s1 && !*s2)
    1960:	fec42783          	lw	a5,-20(s0)
    1964:	0007c783          	lbu	a5,0(a5)
    1968:	00079c63          	bnez	a5,1980 <_ZL13strings_equalPKcS0_+0x50>
    196c:	fe842783          	lw	a5,-24(s0)
    1970:	0007c783          	lbu	a5,0(a5)
    1974:	00079663          	bnez	a5,1980 <_ZL13strings_equalPKcS0_+0x50>
#       return true;
    1978:	00100793          	li	a5,1
    197c:	0200006f          	j	199c <_ZL13strings_equalPKcS0_+0x6c>
#     s1++;
    1980:	fec42783          	lw	a5,-20(s0)
    1984:	00178793          	add	a5,a5,1
    1988:	fef42623          	sw	a5,-20(s0)
#     s2++;
    198c:	fe842783          	lw	a5,-24(s0)
    1990:	00178793          	add	a5,a5,1
    1994:	fef42423          	sw	a5,-24(s0)
#     if (*s1 - *s2)
    1998:	fadff06f          	j	1944 <_ZL13strings_equalPKcS0_+0x14>
#   }
# }
    199c:	00078513          	mv	a0,a5
    19a0:	01c12403          	lw	s0,28(sp)
    19a4:	02010113          	add	sp,sp,32
    19a8:	00008067          	ret

000019ac <_ZL18uart_send_hex_bytec>:
# 
# static auto uart_send_hex_byte(char const ch) -> void {
    19ac:	fe010113          	add	sp,sp,-32
    19b0:	00112e23          	sw	ra,28(sp)
    19b4:	00812c23          	sw	s0,24(sp)
    19b8:	02010413          	add	s0,sp,32
    19bc:	00050793          	mv	a5,a0
    19c0:	fef407a3          	sb	a5,-17(s0)
#   uart_send_hex_nibble((ch & 0xf0) >> 4);
    19c4:	fef44783          	lbu	a5,-17(s0)
    19c8:	0047d793          	srl	a5,a5,0x4
    19cc:	0ff7f793          	zext.b	a5,a5
    19d0:	00078513          	mv	a0,a5
    19d4:	00000097          	auipc	ra,0x0
    19d8:	034080e7          	jalr	52(ra) # 1a08 <_ZL20uart_send_hex_nibblec>
#   uart_send_hex_nibble(ch & 0x0f);
    19dc:	fef44783          	lbu	a5,-17(s0)
    19e0:	00f7f793          	and	a5,a5,15
    19e4:	0ff7f793          	zext.b	a5,a5
    19e8:	00078513          	mv	a0,a5
    19ec:	00000097          	auipc	ra,0x0
    19f0:	01c080e7          	jalr	28(ra) # 1a08 <_ZL20uart_send_hex_nibblec>
# }
    19f4:	00000013          	nop
    19f8:	01c12083          	lw	ra,28(sp)
    19fc:	01812403          	lw	s0,24(sp)
    1a00:	02010113          	add	sp,sp,32
    1a04:	00008067          	ret

00001a08 <_ZL20uart_send_hex_nibblec>:
# 
# static auto uart_send_hex_nibble(char const nibble) -> void {
    1a08:	fe010113          	add	sp,sp,-32
    1a0c:	00112e23          	sw	ra,28(sp)
    1a10:	00812c23          	sw	s0,24(sp)
    1a14:	02010413          	add	s0,sp,32
    1a18:	00050793          	mv	a5,a0
    1a1c:	fef407a3          	sb	a5,-17(s0)
#   if (nibble < 10) {
    1a20:	fef44703          	lbu	a4,-17(s0)
    1a24:	00900793          	li	a5,9
    1a28:	02e7e063          	bltu	a5,a4,1a48 <_ZL20uart_send_hex_nibblec+0x40>
#     uart_send_char('0' + nibble);
    1a2c:	fef44783          	lbu	a5,-17(s0)
    1a30:	03078793          	add	a5,a5,48
    1a34:	0ff7f793          	zext.b	a5,a5
    1a38:	00078513          	mv	a0,a5
    1a3c:	00000097          	auipc	ra,0x0
    1a40:	128080e7          	jalr	296(ra) # 1b64 <_ZL14uart_send_charc>
#   } else {
#     uart_send_char('A' + (nibble - 10));
#   }
# }
    1a44:	01c0006f          	j	1a60 <_ZL20uart_send_hex_nibblec+0x58>
#     uart_send_char('A' + (nibble - 10));
    1a48:	fef44783          	lbu	a5,-17(s0)
    1a4c:	03778793          	add	a5,a5,55
    1a50:	0ff7f793          	zext.b	a5,a5
    1a54:	00078513          	mv	a0,a5
    1a58:	00000097          	auipc	ra,0x0
    1a5c:	10c080e7          	jalr	268(ra) # 1b64 <_ZL14uart_send_charc>
# }
    1a60:	00000013          	nop
    1a64:	01c12083          	lw	ra,28(sp)
    1a68:	01812403          	lw	s0,24(sp)
    1a6c:	02010113          	add	sp,sp,32
    1a70:	00008067          	ret

00001a74 <_ZL19uart_send_move_backj>:
# 
# static auto uart_send_move_back(uint32_t const n) -> void {
    1a74:	fd010113          	add	sp,sp,-48
    1a78:	02112623          	sw	ra,44(sp)
    1a7c:	02812423          	sw	s0,40(sp)
    1a80:	03010413          	add	s0,sp,48
    1a84:	fca42e23          	sw	a0,-36(s0)
#   for (uint32_t i = 0; i < n; ++i) {
    1a88:	fe042623          	sw	zero,-20(s0)
    1a8c:	01c0006f          	j	1aa8 <_ZL19uart_send_move_backj+0x34>
#     uart_send_char('\b');
    1a90:	00800513          	li	a0,8
    1a94:	00000097          	auipc	ra,0x0
    1a98:	0d0080e7          	jalr	208(ra) # 1b64 <_ZL14uart_send_charc>
#   for (uint32_t i = 0; i < n; ++i) {
    1a9c:	fec42783          	lw	a5,-20(s0)
    1aa0:	00178793          	add	a5,a5,1
    1aa4:	fef42623          	sw	a5,-20(s0)
    1aa8:	fec42703          	lw	a4,-20(s0)
    1aac:	fdc42783          	lw	a5,-36(s0)
    1ab0:	fef760e3          	bltu	a4,a5,1a90 <_ZL19uart_send_move_backj+0x1c>
#   }
# }
    1ab4:	00000013          	nop
    1ab8:	00000013          	nop
    1abc:	02c12083          	lw	ra,44(sp)
    1ac0:	02812403          	lw	s0,40(sp)
    1ac4:	03010113          	add	sp,sp,48
    1ac8:	00008067          	ret

00001acc <_ZL7led_seth>:
# 
# #include "os_common.hpp"
# 
# static auto led_set(uint8_t bits) -> void { *LED = bits; }
    1acc:	fe010113          	add	sp,sp,-32
    1ad0:	00812e23          	sw	s0,28(sp)
    1ad4:	02010413          	add	s0,sp,32
    1ad8:	00050793          	mv	a5,a0
    1adc:	fef407a3          	sb	a5,-17(s0)
    1ae0:	fff00793          	li	a5,-1
    1ae4:	fef44703          	lbu	a4,-17(s0)
    1ae8:	00e78023          	sb	a4,0(a5)
    1aec:	00000013          	nop
    1af0:	01c12403          	lw	s0,28(sp)
    1af4:	02010113          	add	sp,sp,32
    1af8:	00008067          	ret

00001afc <_ZL13uart_send_strPKc>:
# 
# static auto uart_send_str(char const *str) -> void {
    1afc:	fe010113          	add	sp,sp,-32
    1b00:	00812e23          	sw	s0,28(sp)
    1b04:	02010413          	add	s0,sp,32
    1b08:	fea42623          	sw	a0,-20(s0)
#   while (*str) {
    1b0c:	0380006f          	j	1b44 <_ZL13uart_send_strPKc+0x48>
#     while (*UART_OUT)
    1b10:	00000013          	nop
    1b14:	ffe00793          	li	a5,-2
    1b18:	0007c783          	lbu	a5,0(a5)
    1b1c:	0ff7f793          	zext.b	a5,a5
    1b20:	00f037b3          	snez	a5,a5
    1b24:	0ff7f793          	zext.b	a5,a5
    1b28:	fe0796e3          	bnez	a5,1b14 <_ZL13uart_send_strPKc+0x18>
#       ;
#     *UART_OUT = *str++;
    1b2c:	fec42783          	lw	a5,-20(s0)
    1b30:	00178713          	add	a4,a5,1
    1b34:	fee42623          	sw	a4,-20(s0)
    1b38:	ffe00713          	li	a4,-2
    1b3c:	0007c783          	lbu	a5,0(a5)
    1b40:	00f70023          	sb	a5,0(a4)
#   while (*str) {
    1b44:	fec42783          	lw	a5,-20(s0)
    1b48:	0007c783          	lbu	a5,0(a5)
    1b4c:	fc0792e3          	bnez	a5,1b10 <_ZL13uart_send_strPKc+0x14>
#   }
# }
    1b50:	00000013          	nop
    1b54:	00000013          	nop
    1b58:	01c12403          	lw	s0,28(sp)
    1b5c:	02010113          	add	sp,sp,32
    1b60:	00008067          	ret

00001b64 <_ZL14uart_send_charc>:
# 
# static auto uart_send_char(char const ch) -> void {
    1b64:	fe010113          	add	sp,sp,-32
    1b68:	00812e23          	sw	s0,28(sp)
    1b6c:	02010413          	add	s0,sp,32
    1b70:	00050793          	mv	a5,a0
    1b74:	fef407a3          	sb	a5,-17(s0)
#   while (*UART_OUT)
    1b78:	00000013          	nop
    1b7c:	ffe00793          	li	a5,-2
    1b80:	0007c783          	lbu	a5,0(a5)
    1b84:	0ff7f793          	zext.b	a5,a5
    1b88:	00f037b3          	snez	a5,a5
    1b8c:	0ff7f793          	zext.b	a5,a5
    1b90:	fe0796e3          	bnez	a5,1b7c <_ZL14uart_send_charc+0x18>
#     ;
#   *UART_OUT = ch;
    1b94:	ffe00793          	li	a5,-2
    1b98:	fef44703          	lbu	a4,-17(s0)
    1b9c:	00e78023          	sb	a4,0(a5)
# }
    1ba0:	00000013          	nop
    1ba4:	01c12403          	lw	s0,28(sp)
    1ba8:	02010113          	add	sp,sp,32
    1bac:	00008067          	ret

00001bb0 <_ZL14uart_read_charv>:
# 
# static auto uart_read_char() -> char {
    1bb0:	fe010113          	add	sp,sp,-32
    1bb4:	00812e23          	sw	s0,28(sp)
    1bb8:	02010413          	add	s0,sp,32
#   char ch;
#   while ((ch = *UART_IN) == 0)
    1bbc:	00000013          	nop
    1bc0:	ffd00793          	li	a5,-3
    1bc4:	0007c783          	lbu	a5,0(a5)
    1bc8:	fef407a3          	sb	a5,-17(s0)
    1bcc:	fef44783          	lbu	a5,-17(s0)
    1bd0:	0017b793          	seqz	a5,a5
    1bd4:	0ff7f793          	zext.b	a5,a5
    1bd8:	fe0794e3          	bnez	a5,1bc0 <_ZL14uart_read_charv+0x10>
#     ;
#   return ch;
    1bdc:	fef44783          	lbu	a5,-17(s0)
# }
    1be0:	00078513          	mv	a0,a5
    1be4:	01c12403          	lw	s0,28(sp)
    1be8:	02010113          	add	sp,sp,32
    1bec:	00008067          	ret

00001bf0 <_ZL15action_mem_testv>:
# 
# static auto action_mem_test() -> void {
    1bf0:	fe010113          	add	sp,sp,-32
    1bf4:	00112e23          	sw	ra,28(sp)
    1bf8:	00812c23          	sw	s0,24(sp)
    1bfc:	02010413          	add	s0,sp,32
#   uart_send_str("testing memory (write)\r\n");
    1c00:	000037b7          	lui	a5,0x3
    1c04:	8e478513          	add	a0,a5,-1820 # 28e4 <_ZN14command_buffer12input_lengthEv+0x678>
    1c08:	00000097          	auipc	ra,0x0
    1c0c:	ef4080e7          	jalr	-268(ra) # 1afc <_ZL13uart_send_strPKc>
#   char *ptr = (char *)0x10000;
    1c10:	000107b7          	lui	a5,0x10
    1c14:	fef42623          	sw	a5,-20(s0)
#   char const *end = (char *)MEMORY_TOP - 1024; // -1024 to avoid the stack
    1c18:	002007b7          	lui	a5,0x200
    1c1c:	c0078793          	add	a5,a5,-1024 # 1ffc00 <__bss_end+0x1fc794>
    1c20:	fef42223          	sw	a5,-28(s0)
#   char ch = 0;
    1c24:	fe0405a3          	sb	zero,-21(s0)
#   while (ptr < end) {
    1c28:	0200006f          	j	1c48 <_ZL15action_mem_testv+0x58>
#     *ptr++ = ch++;
    1c2c:	feb44703          	lbu	a4,-21(s0)
    1c30:	00170793          	add	a5,a4,1
    1c34:	fef405a3          	sb	a5,-21(s0)
    1c38:	fec42783          	lw	a5,-20(s0)
    1c3c:	00178693          	add	a3,a5,1
    1c40:	fed42623          	sw	a3,-20(s0)
    1c44:	00e78023          	sb	a4,0(a5)
#   while (ptr < end) {
    1c48:	fec42703          	lw	a4,-20(s0)
    1c4c:	fe442783          	lw	a5,-28(s0)
    1c50:	fcf76ee3          	bltu	a4,a5,1c2c <_ZL15action_mem_testv+0x3c>
#   }
#   uart_send_str("testing memory (read)\r\n");
    1c54:	000037b7          	lui	a5,0x3
    1c58:	90078513          	add	a0,a5,-1792 # 2900 <_ZN14command_buffer12input_lengthEv+0x694>
    1c5c:	00000097          	auipc	ra,0x0
    1c60:	ea0080e7          	jalr	-352(ra) # 1afc <_ZL13uart_send_strPKc>
#   ptr = (char *)0x10000;
    1c64:	000107b7          	lui	a5,0x10
    1c68:	fef42623          	sw	a5,-20(s0)
#   ch = 0;
    1c6c:	fe0405a3          	sb	zero,-21(s0)
#   while (ptr < end) {
    1c70:	0440006f          	j	1cb4 <_ZL15action_mem_testv+0xc4>
#     if (*ptr++ != ch++) {
    1c74:	fec42783          	lw	a5,-20(s0)
    1c78:	00178713          	add	a4,a5,1 # 10001 <__bss_end+0xcb95>
    1c7c:	fee42623          	sw	a4,-20(s0)
    1c80:	0007c703          	lbu	a4,0(a5)
    1c84:	feb44783          	lbu	a5,-21(s0)
    1c88:	00178693          	add	a3,a5,1
    1c8c:	fed405a3          	sb	a3,-21(s0)
    1c90:	40f707b3          	sub	a5,a4,a5
    1c94:	00f037b3          	snez	a5,a5
    1c98:	0ff7f793          	zext.b	a5,a5
    1c9c:	00078c63          	beqz	a5,1cb4 <_ZL15action_mem_testv+0xc4>
#       uart_send_str("!!! test memory failed\r\n");
    1ca0:	000037b7          	lui	a5,0x3
    1ca4:	91878513          	add	a0,a5,-1768 # 2918 <_ZN14command_buffer12input_lengthEv+0x6ac>
    1ca8:	00000097          	auipc	ra,0x0
    1cac:	e54080e7          	jalr	-428(ra) # 1afc <_ZL13uart_send_strPKc>
#       return;
    1cb0:	0200006f          	j	1cd0 <_ZL15action_mem_testv+0xe0>
#   while (ptr < end) {
    1cb4:	fec42703          	lw	a4,-20(s0)
    1cb8:	fe442783          	lw	a5,-28(s0)
    1cbc:	faf76ce3          	bltu	a4,a5,1c74 <_ZL15action_mem_testv+0x84>
#     }
#   }
#   uart_send_str("testing memory succeeded\r\n");
    1cc0:	000037b7          	lui	a5,0x3
    1cc4:	93478513          	add	a0,a5,-1740 # 2934 <_ZN14command_buffer12input_lengthEv+0x6c8>
    1cc8:	00000097          	auipc	ra,0x0
    1ccc:	e34080e7          	jalr	-460(ra) # 1afc <_ZL13uart_send_strPKc>
# }
    1cd0:	01c12083          	lw	ra,28(sp)
    1cd4:	01812403          	lw	s0,24(sp)
    1cd8:	02010113          	add	sp,sp,32
    1cdc:	00008067          	ret

00001ce0 <memset>:
# 
# // built-in function called by compiler
# extern "C" auto memset(void *str, int ch, int n) -> void * {
    1ce0:	fd010113          	add	sp,sp,-48
    1ce4:	02812623          	sw	s0,44(sp)
    1ce8:	03010413          	add	s0,sp,48
    1cec:	fca42e23          	sw	a0,-36(s0)
    1cf0:	fcb42c23          	sw	a1,-40(s0)
    1cf4:	fcc42a23          	sw	a2,-44(s0)
#   char *ptr = reinterpret_cast<char *>(str);
    1cf8:	fdc42783          	lw	a5,-36(s0)
    1cfc:	fef42623          	sw	a5,-20(s0)
#   while (n--) {
    1d00:	01c0006f          	j	1d1c <memset+0x3c>
#     *ptr++ = (char)ch;
    1d04:	fd842783          	lw	a5,-40(s0)
    1d08:	0ff7f713          	zext.b	a4,a5
    1d0c:	fec42783          	lw	a5,-20(s0)
    1d10:	00178693          	add	a3,a5,1
    1d14:	fed42623          	sw	a3,-20(s0)
    1d18:	00e78023          	sb	a4,0(a5)
#   while (n--) {
    1d1c:	fd442783          	lw	a5,-44(s0)
    1d20:	fff78713          	add	a4,a5,-1
    1d24:	fce42a23          	sw	a4,-44(s0)
    1d28:	00f037b3          	snez	a5,a5
    1d2c:	0ff7f793          	zext.b	a5,a5
    1d30:	fc079ae3          	bnez	a5,1d04 <memset+0x24>
#   }
#   return str;
    1d34:	fdc42783          	lw	a5,-36(s0)
# }
    1d38:	00078513          	mv	a0,a5
    1d3c:	02c12403          	lw	s0,44(sp)
    1d40:	03010113          	add	sp,sp,48
    1d44:	00008067          	ret

00001d48 <_ZN14command_buffer6insertEc>:
#   auto insert(char ch) -> bool {
    1d48:	fd010113          	add	sp,sp,-48
    1d4c:	02812623          	sw	s0,44(sp)
    1d50:	03010413          	add	s0,sp,48
    1d54:	fca42e23          	sw	a0,-36(s0)
    1d58:	00058793          	mv	a5,a1
    1d5c:	fcf40da3          	sb	a5,-37(s0)
#     if (end_ == sizeof(line_) - 1) {
    1d60:	fdc42783          	lw	a5,-36(s0)
    1d64:	0517c703          	lbu	a4,81(a5)
    1d68:	04f00793          	li	a5,79
    1d6c:	00f71663          	bne	a4,a5,1d78 <_ZN14command_buffer6insertEc+0x30>
#       return false;
    1d70:	00000793          	li	a5,0
    1d74:	1100006f          	j	1e84 <_ZN14command_buffer6insertEc+0x13c>
#     if (ix_ == end_) {
    1d78:	fdc42783          	lw	a5,-36(s0)
    1d7c:	0507c703          	lbu	a4,80(a5)
    1d80:	fdc42783          	lw	a5,-36(s0)
    1d84:	0517c783          	lbu	a5,81(a5)
    1d88:	04f71c63          	bne	a4,a5,1de0 <_ZN14command_buffer6insertEc+0x98>
#       line_[ix_] = ch;
    1d8c:	fdc42783          	lw	a5,-36(s0)
    1d90:	0507c783          	lbu	a5,80(a5)
    1d94:	00078713          	mv	a4,a5
    1d98:	fdc42783          	lw	a5,-36(s0)
    1d9c:	00e787b3          	add	a5,a5,a4
    1da0:	fdb44703          	lbu	a4,-37(s0)
    1da4:	00e78023          	sb	a4,0(a5)
#       ++ix_;
    1da8:	fdc42783          	lw	a5,-36(s0)
    1dac:	0507c783          	lbu	a5,80(a5)
    1db0:	00178793          	add	a5,a5,1
    1db4:	0ff7f713          	zext.b	a4,a5
    1db8:	fdc42783          	lw	a5,-36(s0)
    1dbc:	04e78823          	sb	a4,80(a5)
#       ++end_;
    1dc0:	fdc42783          	lw	a5,-36(s0)
    1dc4:	0517c783          	lbu	a5,81(a5)
    1dc8:	00178793          	add	a5,a5,1
    1dcc:	0ff7f713          	zext.b	a4,a5
    1dd0:	fdc42783          	lw	a5,-36(s0)
    1dd4:	04e788a3          	sb	a4,81(a5)
#       return true;
    1dd8:	00100793          	li	a5,1
    1ddc:	0a80006f          	j	1e84 <_ZN14command_buffer6insertEc+0x13c>
#     ++end_;
    1de0:	fdc42783          	lw	a5,-36(s0)
    1de4:	0517c783          	lbu	a5,81(a5)
    1de8:	00178793          	add	a5,a5,1
    1dec:	0ff7f713          	zext.b	a4,a5
    1df0:	fdc42783          	lw	a5,-36(s0)
    1df4:	04e788a3          	sb	a4,81(a5)
#     for (uint32_t i = end_; i > ix_; --i) {
    1df8:	fdc42783          	lw	a5,-36(s0)
    1dfc:	0517c783          	lbu	a5,81(a5)
    1e00:	fef42623          	sw	a5,-20(s0)
    1e04:	0340006f          	j	1e38 <_ZN14command_buffer6insertEc+0xf0>
#       line_[i] = line_[i - 1];
    1e08:	fec42783          	lw	a5,-20(s0)
    1e0c:	fff78793          	add	a5,a5,-1
    1e10:	fdc42703          	lw	a4,-36(s0)
    1e14:	00f707b3          	add	a5,a4,a5
    1e18:	0007c703          	lbu	a4,0(a5)
    1e1c:	fdc42683          	lw	a3,-36(s0)
    1e20:	fec42783          	lw	a5,-20(s0)
    1e24:	00f687b3          	add	a5,a3,a5
    1e28:	00e78023          	sb	a4,0(a5)
#     for (uint32_t i = end_; i > ix_; --i) {
    1e2c:	fec42783          	lw	a5,-20(s0)
    1e30:	fff78793          	add	a5,a5,-1
    1e34:	fef42623          	sw	a5,-20(s0)
    1e38:	fdc42783          	lw	a5,-36(s0)
    1e3c:	0507c783          	lbu	a5,80(a5)
    1e40:	00078713          	mv	a4,a5
    1e44:	fec42783          	lw	a5,-20(s0)
    1e48:	fcf760e3          	bltu	a4,a5,1e08 <_ZN14command_buffer6insertEc+0xc0>
#     line_[ix_] = ch;
    1e4c:	fdc42783          	lw	a5,-36(s0)
    1e50:	0507c783          	lbu	a5,80(a5)
    1e54:	00078713          	mv	a4,a5
    1e58:	fdc42783          	lw	a5,-36(s0)
    1e5c:	00e787b3          	add	a5,a5,a4
    1e60:	fdb44703          	lbu	a4,-37(s0)
    1e64:	00e78023          	sb	a4,0(a5)
#     ++ix_;
    1e68:	fdc42783          	lw	a5,-36(s0)
    1e6c:	0507c783          	lbu	a5,80(a5)
    1e70:	00178793          	add	a5,a5,1
    1e74:	0ff7f713          	zext.b	a4,a5
    1e78:	fdc42783          	lw	a5,-36(s0)
    1e7c:	04e78823          	sb	a4,80(a5)
#     return true;
    1e80:	00100793          	li	a5,1
#   }
    1e84:	00078513          	mv	a0,a5
    1e88:	02c12403          	lw	s0,44(sp)
    1e8c:	03010113          	add	sp,sp,48
    1e90:	00008067          	ret

00001e94 <_ZN14command_buffer9backspaceEv>:
#   auto backspace() -> bool {
    1e94:	fd010113          	add	sp,sp,-48
    1e98:	02812623          	sw	s0,44(sp)
    1e9c:	03010413          	add	s0,sp,48
    1ea0:	fca42e23          	sw	a0,-36(s0)
#     if (ix_ == 0) {
    1ea4:	fdc42783          	lw	a5,-36(s0)
    1ea8:	0507c783          	lbu	a5,80(a5)
    1eac:	00079663          	bnez	a5,1eb8 <_ZN14command_buffer9backspaceEv+0x24>
#       return false;
    1eb0:	00000793          	li	a5,0
    1eb4:	0dc0006f          	j	1f90 <_ZN14command_buffer9backspaceEv+0xfc>
#     if (ix_ == end_) {
    1eb8:	fdc42783          	lw	a5,-36(s0)
    1ebc:	0507c703          	lbu	a4,80(a5)
    1ec0:	fdc42783          	lw	a5,-36(s0)
    1ec4:	0517c783          	lbu	a5,81(a5)
    1ec8:	02f71e63          	bne	a4,a5,1f04 <_ZN14command_buffer9backspaceEv+0x70>
#       --end_;
    1ecc:	fdc42783          	lw	a5,-36(s0)
    1ed0:	0517c783          	lbu	a5,81(a5)
    1ed4:	fff78793          	add	a5,a5,-1
    1ed8:	0ff7f713          	zext.b	a4,a5
    1edc:	fdc42783          	lw	a5,-36(s0)
    1ee0:	04e788a3          	sb	a4,81(a5)
#       --ix_;
    1ee4:	fdc42783          	lw	a5,-36(s0)
    1ee8:	0507c783          	lbu	a5,80(a5)
    1eec:	fff78793          	add	a5,a5,-1
    1ef0:	0ff7f713          	zext.b	a4,a5
    1ef4:	fdc42783          	lw	a5,-36(s0)
    1ef8:	04e78823          	sb	a4,80(a5)
#       return true;
    1efc:	00100793          	li	a5,1
    1f00:	0900006f          	j	1f90 <_ZN14command_buffer9backspaceEv+0xfc>
#     for (uint32_t i = ix_ - 1; i < end_; ++i) {
    1f04:	fdc42783          	lw	a5,-36(s0)
    1f08:	0507c783          	lbu	a5,80(a5)
    1f0c:	fff78793          	add	a5,a5,-1
    1f10:	fef42623          	sw	a5,-20(s0)
    1f14:	0340006f          	j	1f48 <_ZN14command_buffer9backspaceEv+0xb4>
#       line_[i] = line_[i + 1];
    1f18:	fec42783          	lw	a5,-20(s0)
    1f1c:	00178793          	add	a5,a5,1
    1f20:	fdc42703          	lw	a4,-36(s0)
    1f24:	00f707b3          	add	a5,a4,a5
    1f28:	0007c703          	lbu	a4,0(a5)
    1f2c:	fdc42683          	lw	a3,-36(s0)
    1f30:	fec42783          	lw	a5,-20(s0)
    1f34:	00f687b3          	add	a5,a3,a5
    1f38:	00e78023          	sb	a4,0(a5)
#     for (uint32_t i = ix_ - 1; i < end_; ++i) {
    1f3c:	fec42783          	lw	a5,-20(s0)
    1f40:	00178793          	add	a5,a5,1
    1f44:	fef42623          	sw	a5,-20(s0)
    1f48:	fdc42783          	lw	a5,-36(s0)
    1f4c:	0517c783          	lbu	a5,81(a5)
    1f50:	00078713          	mv	a4,a5
    1f54:	fec42783          	lw	a5,-20(s0)
    1f58:	fce7e0e3          	bltu	a5,a4,1f18 <_ZN14command_buffer9backspaceEv+0x84>
#     --ix_;
    1f5c:	fdc42783          	lw	a5,-36(s0)
    1f60:	0507c783          	lbu	a5,80(a5)
    1f64:	fff78793          	add	a5,a5,-1
    1f68:	0ff7f713          	zext.b	a4,a5
    1f6c:	fdc42783          	lw	a5,-36(s0)
    1f70:	04e78823          	sb	a4,80(a5)
#     --end_;
    1f74:	fdc42783          	lw	a5,-36(s0)
    1f78:	0517c783          	lbu	a5,81(a5)
    1f7c:	fff78793          	add	a5,a5,-1
    1f80:	0ff7f713          	zext.b	a4,a5
    1f84:	fdc42783          	lw	a5,-36(s0)
    1f88:	04e788a3          	sb	a4,81(a5)
#     return true;
    1f8c:	00100793          	li	a5,1
#   }
    1f90:	00078513          	mv	a0,a5
    1f94:	02c12403          	lw	s0,44(sp)
    1f98:	03010113          	add	sp,sp,48
    1f9c:	00008067          	ret

00001fa0 <_ZN14command_buffer3delEv>:
#   auto del() -> void {
    1fa0:	fd010113          	add	sp,sp,-48
    1fa4:	02812623          	sw	s0,44(sp)
    1fa8:	03010413          	add	s0,sp,48
    1fac:	fca42e23          	sw	a0,-36(s0)
#     if (ix_ == end_) {
    1fb0:	fdc42783          	lw	a5,-36(s0)
    1fb4:	0507c703          	lbu	a4,80(a5)
    1fb8:	fdc42783          	lw	a5,-36(s0)
    1fbc:	0517c783          	lbu	a5,81(a5)
    1fc0:	06f70c63          	beq	a4,a5,2038 <_ZN14command_buffer3delEv+0x98>
#     for (uint32_t i = ix_ + 1; i < end_; ++i) {
    1fc4:	fdc42783          	lw	a5,-36(s0)
    1fc8:	0507c783          	lbu	a5,80(a5)
    1fcc:	00178793          	add	a5,a5,1
    1fd0:	fef42623          	sw	a5,-20(s0)
    1fd4:	0340006f          	j	2008 <_ZN14command_buffer3delEv+0x68>
#       line_[i - 1] = line_[i];
    1fd8:	fec42783          	lw	a5,-20(s0)
    1fdc:	fff78793          	add	a5,a5,-1
    1fe0:	fdc42683          	lw	a3,-36(s0)
    1fe4:	fec42703          	lw	a4,-20(s0)
    1fe8:	00e68733          	add	a4,a3,a4
    1fec:	00074703          	lbu	a4,0(a4)
    1ff0:	fdc42683          	lw	a3,-36(s0)
    1ff4:	00f687b3          	add	a5,a3,a5
    1ff8:	00e78023          	sb	a4,0(a5)
#     for (uint32_t i = ix_ + 1; i < end_; ++i) {
    1ffc:	fec42783          	lw	a5,-20(s0)
    2000:	00178793          	add	a5,a5,1
    2004:	fef42623          	sw	a5,-20(s0)
    2008:	fdc42783          	lw	a5,-36(s0)
    200c:	0517c783          	lbu	a5,81(a5)
    2010:	00078713          	mv	a4,a5
    2014:	fec42783          	lw	a5,-20(s0)
    2018:	fce7e0e3          	bltu	a5,a4,1fd8 <_ZN14command_buffer3delEv+0x38>
#     --end_;
    201c:	fdc42783          	lw	a5,-36(s0)
    2020:	0517c783          	lbu	a5,81(a5)
    2024:	fff78793          	add	a5,a5,-1
    2028:	0ff7f713          	zext.b	a4,a5
    202c:	fdc42783          	lw	a5,-36(s0)
    2030:	04e788a3          	sb	a4,81(a5)
    2034:	0080006f          	j	203c <_ZN14command_buffer3delEv+0x9c>
#       return;
    2038:	00000013          	nop
#   }
    203c:	02c12403          	lw	s0,44(sp)
    2040:	03010113          	add	sp,sp,48
    2044:	00008067          	ret

00002048 <_ZN14command_buffer5resetEv>:
#   auto reset() -> void { ix_ = end_ = 0; }
    2048:	fe010113          	add	sp,sp,-32
    204c:	00812e23          	sw	s0,28(sp)
    2050:	02010413          	add	s0,sp,32
    2054:	fea42623          	sw	a0,-20(s0)
    2058:	fec42783          	lw	a5,-20(s0)
    205c:	040788a3          	sb	zero,81(a5)
    2060:	fec42783          	lw	a5,-20(s0)
    2064:	0517c703          	lbu	a4,81(a5)
    2068:	fec42783          	lw	a5,-20(s0)
    206c:	04e78823          	sb	a4,80(a5)
    2070:	00000013          	nop
    2074:	01c12403          	lw	s0,28(sp)
    2078:	02010113          	add	sp,sp,32
    207c:	00008067          	ret

00002080 <_ZN14command_buffer7set_eosEv>:
#   auto set_eos() -> void { line_[end_] = '\0'; }
    2080:	fe010113          	add	sp,sp,-32
    2084:	00812e23          	sw	s0,28(sp)
    2088:	02010413          	add	s0,sp,32
    208c:	fea42623          	sw	a0,-20(s0)
    2090:	fec42783          	lw	a5,-20(s0)
    2094:	0517c783          	lbu	a5,81(a5)
    2098:	00078713          	mv	a4,a5
    209c:	fec42783          	lw	a5,-20(s0)
    20a0:	00e787b3          	add	a5,a5,a4
    20a4:	00078023          	sb	zero,0(a5)
    20a8:	00000013          	nop
    20ac:	01c12403          	lw	s0,28(sp)
    20b0:	02010113          	add	sp,sp,32
    20b4:	00008067          	ret

000020b8 <_ZN14command_buffer7is_fullEv>:
#   auto is_full() -> bool { return end_ == sizeof(line_) - 1; }
    20b8:	fe010113          	add	sp,sp,-32
    20bc:	00812e23          	sw	s0,28(sp)
    20c0:	02010413          	add	s0,sp,32
    20c4:	fea42623          	sw	a0,-20(s0)
    20c8:	fec42783          	lw	a5,-20(s0)
    20cc:	0517c783          	lbu	a5,81(a5)
    20d0:	fb178793          	add	a5,a5,-79
    20d4:	0017b793          	seqz	a5,a5
    20d8:	0ff7f793          	zext.b	a5,a5
    20dc:	00078513          	mv	a0,a5
    20e0:	01c12403          	lw	s0,28(sp)
    20e4:	02010113          	add	sp,sp,32
    20e8:	00008067          	ret

000020ec <_ZN14command_buffer16move_cursor_leftEv>:
#   auto move_cursor_left() -> bool {
    20ec:	fe010113          	add	sp,sp,-32
    20f0:	00812e23          	sw	s0,28(sp)
    20f4:	02010413          	add	s0,sp,32
    20f8:	fea42623          	sw	a0,-20(s0)
#     if (ix_ == 0) {
    20fc:	fec42783          	lw	a5,-20(s0)
    2100:	0507c783          	lbu	a5,80(a5)
    2104:	00079663          	bnez	a5,2110 <_ZN14command_buffer16move_cursor_leftEv+0x24>
#       return false;
    2108:	00000793          	li	a5,0
    210c:	0200006f          	j	212c <_ZN14command_buffer16move_cursor_leftEv+0x40>
#     --ix_;
    2110:	fec42783          	lw	a5,-20(s0)
    2114:	0507c783          	lbu	a5,80(a5)
    2118:	fff78793          	add	a5,a5,-1
    211c:	0ff7f713          	zext.b	a4,a5
    2120:	fec42783          	lw	a5,-20(s0)
    2124:	04e78823          	sb	a4,80(a5)
#     return true;
    2128:	00100793          	li	a5,1
#   }
    212c:	00078513          	mv	a0,a5
    2130:	01c12403          	lw	s0,28(sp)
    2134:	02010113          	add	sp,sp,32
    2138:	00008067          	ret

0000213c <_ZN14command_buffer17move_cursor_rightEv>:
#   auto move_cursor_right() -> bool {
    213c:	fe010113          	add	sp,sp,-32
    2140:	00812e23          	sw	s0,28(sp)
    2144:	02010413          	add	s0,sp,32
    2148:	fea42623          	sw	a0,-20(s0)
#     if (ix_ == end_) {
    214c:	fec42783          	lw	a5,-20(s0)
    2150:	0507c703          	lbu	a4,80(a5)
    2154:	fec42783          	lw	a5,-20(s0)
    2158:	0517c783          	lbu	a5,81(a5)
    215c:	00f71663          	bne	a4,a5,2168 <_ZN14command_buffer17move_cursor_rightEv+0x2c>
#       return false;
    2160:	00000793          	li	a5,0
    2164:	0200006f          	j	2184 <_ZN14command_buffer17move_cursor_rightEv+0x48>
#     ++ix_;
    2168:	fec42783          	lw	a5,-20(s0)
    216c:	0507c783          	lbu	a5,80(a5)
    2170:	00178793          	add	a5,a5,1
    2174:	0ff7f713          	zext.b	a4,a5
    2178:	fec42783          	lw	a5,-20(s0)
    217c:	04e78823          	sb	a4,80(a5)
#     return true;
    2180:	00100793          	li	a5,1
#   }
    2184:	00078513          	mv	a0,a5
    2188:	01c12403          	lw	s0,28(sp)
    218c:	02010113          	add	sp,sp,32
    2190:	00008067          	ret

00002194 <_ZN14command_buffer22send_from_index_to_endEPFvcE>:
#   auto send_from_index_to_end(void (*f)(char)) -> void {
    2194:	fd010113          	add	sp,sp,-48
    2198:	02112623          	sw	ra,44(sp)
    219c:	02812423          	sw	s0,40(sp)
    21a0:	03010413          	add	s0,sp,48
    21a4:	fca42e23          	sw	a0,-36(s0)
    21a8:	fcb42c23          	sw	a1,-40(s0)
#     for (uint32_t i = ix_; i < end_; ++i) {
    21ac:	fdc42783          	lw	a5,-36(s0)
    21b0:	0507c783          	lbu	a5,80(a5)
    21b4:	fef42623          	sw	a5,-20(s0)
    21b8:	02c0006f          	j	21e4 <_ZN14command_buffer22send_from_index_to_endEPFvcE+0x50>
#       f(line_[i]);
    21bc:	fd842783          	lw	a5,-40(s0)
    21c0:	fdc42683          	lw	a3,-36(s0)
    21c4:	fec42703          	lw	a4,-20(s0)
    21c8:	00e68733          	add	a4,a3,a4
    21cc:	00074703          	lbu	a4,0(a4)
    21d0:	00070513          	mv	a0,a4
    21d4:	000780e7          	jalr	a5
#     for (uint32_t i = ix_; i < end_; ++i) {
    21d8:	fec42783          	lw	a5,-20(s0)
    21dc:	00178793          	add	a5,a5,1
    21e0:	fef42623          	sw	a5,-20(s0)
    21e4:	fdc42783          	lw	a5,-36(s0)
    21e8:	0517c783          	lbu	a5,81(a5)
    21ec:	00078713          	mv	a4,a5
    21f0:	fec42783          	lw	a5,-20(s0)
    21f4:	fce7e4e3          	bltu	a5,a4,21bc <_ZN14command_buffer22send_from_index_to_endEPFvcE+0x28>
#   }
    21f8:	00000013          	nop
    21fc:	00000013          	nop
    2200:	02c12083          	lw	ra,44(sp)
    2204:	02812403          	lw	s0,40(sp)
    2208:	03010113          	add	sp,sp,48
    220c:	00008067          	ret

00002210 <_ZN14command_buffer23characters_after_cursorEv>:
#   auto characters_after_cursor() -> uint32_t { return end_ - ix_; }
    2210:	fe010113          	add	sp,sp,-32
    2214:	00812e23          	sw	s0,28(sp)
    2218:	02010413          	add	s0,sp,32
    221c:	fea42623          	sw	a0,-20(s0)
    2220:	fec42783          	lw	a5,-20(s0)
    2224:	0517c783          	lbu	a5,81(a5)
    2228:	00078713          	mv	a4,a5
    222c:	fec42783          	lw	a5,-20(s0)
    2230:	0507c783          	lbu	a5,80(a5)
    2234:	40f707b3          	sub	a5,a4,a5
    2238:	00078513          	mv	a0,a5
    223c:	01c12403          	lw	s0,28(sp)
    2240:	02010113          	add	sp,sp,32
    2244:	00008067          	ret

00002248 <_ZN14command_buffer4lineEv>:
#   auto line() -> char * { return line_; }
    2248:	fe010113          	add	sp,sp,-32
    224c:	00812e23          	sw	s0,28(sp)
    2250:	02010413          	add	s0,sp,32
    2254:	fea42623          	sw	a0,-20(s0)
    2258:	fec42783          	lw	a5,-20(s0)
    225c:	00078513          	mv	a0,a5
    2260:	01c12403          	lw	s0,28(sp)
    2264:	02010113          	add	sp,sp,32
    2268:	00008067          	ret

0000226c <_ZN14command_buffer12input_lengthEv>:
#   auto input_length() -> uint32_t { return end_; }
    226c:	fe010113          	add	sp,sp,-32
    2270:	00812e23          	sw	s0,28(sp)
    2274:	02010413          	add	s0,sp,32
    2278:	fea42623          	sw	a0,-20(s0)
    227c:	fec42783          	lw	a5,-20(s0)
    2280:	0517c783          	lbu	a5,81(a5)
    2284:	00078513          	mv	a0,a5
    2288:	01c12403          	lw	s0,28(sp)
    228c:	02010113          	add	sp,sp,32
    2290:	00008067          	ret
