
os:     file format elf32-littleriscv


Disassembly of section .text:

00000000 <_start>:
# # generated - do not edit (see `configuration.py`)
# .global _start
# _start:
#     li sp, 0x200000
       0:	00200137          	lui	sp,0x200
#     jal ra, run
       4:	004000ef          	jal	8 <run>

00000008 <run>:
       8:	f9010113          	add	sp,sp,-112 # 1fff90 <__bss_end+0x1fc87c>
       c:	06112623          	sw	ra,108(sp)
      10:	06812423          	sw	s0,104(sp)
      14:	07010413          	add	s0,sp,112
      18:	00002097          	auipc	ra,0x2
      1c:	9dc080e7          	jalr	-1572(ra) # 19f4 <_ZL16startup_init_bssv>
      20:	00002097          	auipc	ra,0x2
      24:	a24080e7          	jalr	-1500(ra) # 1a44 <_ZL20startup_init_staticsv>
      28:	00000513          	li	a0,0
      2c:	00001097          	auipc	ra,0x1
      30:	74c080e7          	jalr	1868(ra) # 1778 <_ZL7led_seth>
      34:	00100793          	li	a5,1
      38:	fef407a3          	sb	a5,-17(s0)
      3c:	f9440793          	add	a5,s0,-108
      40:	05200713          	li	a4,82
      44:	00070613          	mv	a2,a4
      48:	00000593          	li	a1,0
      4c:	00078513          	mv	a0,a5
      50:	00002097          	auipc	ra,0x2
      54:	93c080e7          	jalr	-1732(ra) # 198c <memset>
      58:	000037b7          	lui	a5,0x3
      5c:	7087a783          	lw	a5,1800(a5) # 3708 <_ZL9ascii_art>
      60:	00078513          	mv	a0,a5
      64:	00001097          	auipc	ra,0x1
      68:	744080e7          	jalr	1860(ra) # 17a8 <_ZL13uart_send_strPKc>
      6c:	000037b7          	lui	a5,0x3
      70:	7047a783          	lw	a5,1796(a5) # 3704 <_ZL5hello>
      74:	00078513          	mv	a0,a5
      78:	00001097          	auipc	ra,0x1
      7c:	730080e7          	jalr	1840(ra) # 17a8 <_ZL13uart_send_strPKc>
      80:	fef44703          	lbu	a4,-17(s0)
      84:	00070793          	mv	a5,a4
      88:	00179793          	sll	a5,a5,0x1
      8c:	00e787b3          	add	a5,a5,a4
      90:	00279793          	sll	a5,a5,0x2
      94:	40e787b3          	sub	a5,a5,a4
      98:	00279793          	sll	a5,a5,0x2
      9c:	00003737          	lui	a4,0x3
      a0:	34870713          	add	a4,a4,840 # 3348 <_ZL8entities>
      a4:	00e787b3          	add	a5,a5,a4
      a8:	fef42423          	sw	a5,-24(s0)
      ac:	fe842783          	lw	a5,-24(s0)
      b0:	0047c783          	lbu	a5,4(a5)
      b4:	fef44703          	lbu	a4,-17(s0)
      b8:	00070593          	mv	a1,a4
      bc:	00078513          	mv	a0,a5
      c0:	00000097          	auipc	ra,0x0
      c4:	43c080e7          	jalr	1084(ra) # 4fc <_ZL14print_locationhh>
      c8:	fe842783          	lw	a5,-24(s0)
      cc:	0007a783          	lw	a5,0(a5)
      d0:	00078513          	mv	a0,a5
      d4:	00001097          	auipc	ra,0x1
      d8:	6d4080e7          	jalr	1748(ra) # 17a8 <_ZL13uart_send_strPKc>
      dc:	000037b7          	lui	a5,0x3
      e0:	82878513          	add	a0,a5,-2008 # 2828 <_ZN4listIhLi8EE6removeEh+0x4c0>
      e4:	00001097          	auipc	ra,0x1
      e8:	6c4080e7          	jalr	1732(ra) # 17a8 <_ZL13uart_send_strPKc>
      ec:	f9440793          	add	a5,s0,-108
      f0:	00078513          	mv	a0,a5
      f4:	00001097          	auipc	ra,0x1
      f8:	130080e7          	jalr	304(ra) # 1224 <_ZL5inputR14command_buffer>
      fc:	000037b7          	lui	a5,0x3
     100:	82c78513          	add	a0,a5,-2004 # 282c <_ZN4listIhLi8EE6removeEh+0x4c4>
     104:	00001097          	auipc	ra,0x1
     108:	6a4080e7          	jalr	1700(ra) # 17a8 <_ZL13uart_send_strPKc>
     10c:	f9440713          	add	a4,s0,-108
     110:	fef44783          	lbu	a5,-17(s0)
     114:	00070593          	mv	a1,a4
     118:	00078513          	mv	a0,a5
     11c:	00000097          	auipc	ra,0x0
     120:	02c080e7          	jalr	44(ra) # 148 <_ZL12handle_inputhR14command_buffer>
     124:	fef44703          	lbu	a4,-17(s0)
     128:	00100793          	li	a5,1
     12c:	00f71863          	bne	a4,a5,13c <run+0x134>
     130:	00200793          	li	a5,2
     134:	fef407a3          	sb	a5,-17(s0)
     138:	f49ff06f          	j	80 <run+0x78>
     13c:	00100793          	li	a5,1
     140:	fef407a3          	sb	a5,-17(s0)
     144:	f3dff06f          	j	80 <run+0x78>

00000148 <_ZL12handle_inputhR14command_buffer>:
     148:	fb010113          	add	sp,sp,-80
     14c:	04112623          	sw	ra,76(sp)
     150:	04812423          	sw	s0,72(sp)
     154:	05010413          	add	s0,sp,80
     158:	00050793          	mv	a5,a0
     15c:	fab42c23          	sw	a1,-72(s0)
     160:	faf40fa3          	sb	a5,-65(s0)
     164:	fb842503          	lw	a0,-72(s0)
     168:	00002097          	auipc	ra,0x2
     16c:	e18080e7          	jalr	-488(ra) # 1f80 <_ZN14command_buffer12command_lineEv>
     170:	fea42623          	sw	a0,-20(s0)
     174:	fe042423          	sw	zero,-24(s0)
     178:	fec42703          	lw	a4,-20(s0)
     17c:	fe842783          	lw	a5,-24(s0)
     180:	00178693          	add	a3,a5,1
     184:	fed42423          	sw	a3,-24(s0)
     188:	00279793          	sll	a5,a5,0x2
     18c:	ff078793          	add	a5,a5,-16
     190:	008787b3          	add	a5,a5,s0
     194:	fce7ac23          	sw	a4,-40(a5)
     198:	0100006f          	j	1a8 <_ZL12handle_inputhR14command_buffer+0x60>
     19c:	fec42783          	lw	a5,-20(s0)
     1a0:	00178793          	add	a5,a5,1
     1a4:	fef42623          	sw	a5,-20(s0)
     1a8:	fec42783          	lw	a5,-20(s0)
     1ac:	0007c783          	lbu	a5,0(a5)
     1b0:	00078a63          	beqz	a5,1c4 <_ZL12handle_inputhR14command_buffer+0x7c>
     1b4:	fec42783          	lw	a5,-20(s0)
     1b8:	0007c703          	lbu	a4,0(a5)
     1bc:	02000793          	li	a5,32
     1c0:	fcf71ee3          	bne	a4,a5,19c <_ZL12handle_inputhR14command_buffer+0x54>
     1c4:	fec42783          	lw	a5,-20(s0)
     1c8:	0007c783          	lbu	a5,0(a5)
     1cc:	02078c63          	beqz	a5,204 <_ZL12handle_inputhR14command_buffer+0xbc>
     1d0:	fec42783          	lw	a5,-20(s0)
     1d4:	00078023          	sb	zero,0(a5)
     1d8:	fec42783          	lw	a5,-20(s0)
     1dc:	00178793          	add	a5,a5,1
     1e0:	fef42623          	sw	a5,-20(s0)
     1e4:	fe842703          	lw	a4,-24(s0)
     1e8:	00800793          	li	a5,8
     1ec:	f8f716e3          	bne	a4,a5,178 <_ZL12handle_inputhR14command_buffer+0x30>
     1f0:	000037b7          	lui	a5,0x3
     1f4:	83078513          	add	a0,a5,-2000 # 2830 <_ZN4listIhLi8EE6removeEh+0x4c8>
     1f8:	00001097          	auipc	ra,0x1
     1fc:	5b0080e7          	jalr	1456(ra) # 17a8 <_ZL13uart_send_strPKc>
     200:	0080006f          	j	208 <_ZL12handle_inputhR14command_buffer+0xc0>
     204:	00000013          	nop
     208:	fc842703          	lw	a4,-56(s0)
     20c:	000037b7          	lui	a5,0x3
     210:	85478593          	add	a1,a5,-1964 # 2854 <_ZN4listIhLi8EE6removeEh+0x4ec>
     214:	00070513          	mv	a0,a4
     218:	00001097          	auipc	ra,0x1
     21c:	35c080e7          	jalr	860(ra) # 1574 <_ZL13strings_equalPKcS0_>
     220:	00050793          	mv	a5,a0
     224:	00078863          	beqz	a5,234 <_ZL12handle_inputhR14command_buffer+0xec>
     228:	00001097          	auipc	ra,0x1
     22c:	d84080e7          	jalr	-636(ra) # fac <_ZL10print_helpv>
     230:	2bc0006f          	j	4ec <_ZL12handle_inputhR14command_buffer+0x3a4>
     234:	fc842703          	lw	a4,-56(s0)
     238:	000037b7          	lui	a5,0x3
     23c:	85c78593          	add	a1,a5,-1956 # 285c <_ZN4listIhLi8EE6removeEh+0x4f4>
     240:	00070513          	mv	a0,a4
     244:	00001097          	auipc	ra,0x1
     248:	330080e7          	jalr	816(ra) # 1574 <_ZL13strings_equalPKcS0_>
     24c:	00050793          	mv	a5,a0
     250:	02078463          	beqz	a5,278 <_ZL12handle_inputhR14command_buffer+0x130>
     254:	fbf44783          	lbu	a5,-65(s0)
     258:	00078513          	mv	a0,a5
     25c:	00000097          	auipc	ra,0x0
     260:	5b8080e7          	jalr	1464(ra) # 814 <_ZL16action_inventoryh>
     264:	000037b7          	lui	a5,0x3
     268:	82c78513          	add	a0,a5,-2004 # 282c <_ZN4listIhLi8EE6removeEh+0x4c4>
     26c:	00001097          	auipc	ra,0x1
     270:	53c080e7          	jalr	1340(ra) # 17a8 <_ZL13uart_send_strPKc>
     274:	2780006f          	j	4ec <_ZL12handle_inputhR14command_buffer+0x3a4>
     278:	fc842703          	lw	a4,-56(s0)
     27c:	000037b7          	lui	a5,0x3
     280:	86078593          	add	a1,a5,-1952 # 2860 <_ZN4listIhLi8EE6removeEh+0x4f8>
     284:	00070513          	mv	a0,a4
     288:	00001097          	auipc	ra,0x1
     28c:	2ec080e7          	jalr	748(ra) # 1574 <_ZL13strings_equalPKcS0_>
     290:	00050793          	mv	a5,a0
     294:	04078063          	beqz	a5,2d4 <_ZL12handle_inputhR14command_buffer+0x18c>
     298:	fe842703          	lw	a4,-24(s0)
     29c:	00100793          	li	a5,1
     2a0:	00e7ec63          	bltu	a5,a4,2b8 <_ZL12handle_inputhR14command_buffer+0x170>
     2a4:	000037b7          	lui	a5,0x3
     2a8:	86478513          	add	a0,a5,-1948 # 2864 <_ZN4listIhLi8EE6removeEh+0x4fc>
     2ac:	00001097          	auipc	ra,0x1
     2b0:	4fc080e7          	jalr	1276(ra) # 17a8 <_ZL13uart_send_strPKc>
     2b4:	2380006f          	j	4ec <_ZL12handle_inputhR14command_buffer+0x3a4>
     2b8:	fcc42703          	lw	a4,-52(s0)
     2bc:	fbf44783          	lbu	a5,-65(s0)
     2c0:	00070593          	mv	a1,a4
     2c4:	00078513          	mv	a0,a5
     2c8:	00000097          	auipc	ra,0x0
     2cc:	678080e7          	jalr	1656(ra) # 940 <_ZL11action_takehPKc>
     2d0:	21c0006f          	j	4ec <_ZL12handle_inputhR14command_buffer+0x3a4>
     2d4:	fc842703          	lw	a4,-56(s0)
     2d8:	000037b7          	lui	a5,0x3
     2dc:	87478593          	add	a1,a5,-1932 # 2874 <_ZN4listIhLi8EE6removeEh+0x50c>
     2e0:	00070513          	mv	a0,a4
     2e4:	00001097          	auipc	ra,0x1
     2e8:	290080e7          	jalr	656(ra) # 1574 <_ZL13strings_equalPKcS0_>
     2ec:	00050793          	mv	a5,a0
     2f0:	04078063          	beqz	a5,330 <_ZL12handle_inputhR14command_buffer+0x1e8>
     2f4:	fe842703          	lw	a4,-24(s0)
     2f8:	00100793          	li	a5,1
     2fc:	00e7ec63          	bltu	a5,a4,314 <_ZL12handle_inputhR14command_buffer+0x1cc>
     300:	000037b7          	lui	a5,0x3
     304:	87878513          	add	a0,a5,-1928 # 2878 <_ZN4listIhLi8EE6removeEh+0x510>
     308:	00001097          	auipc	ra,0x1
     30c:	4a0080e7          	jalr	1184(ra) # 17a8 <_ZL13uart_send_strPKc>
     310:	1dc0006f          	j	4ec <_ZL12handle_inputhR14command_buffer+0x3a4>
     314:	fcc42703          	lw	a4,-52(s0)
     318:	fbf44783          	lbu	a5,-65(s0)
     31c:	00070593          	mv	a1,a4
     320:	00078513          	mv	a0,a5
     324:	00000097          	auipc	ra,0x0
     328:	784080e7          	jalr	1924(ra) # aa8 <_ZL11action_drophPKc>
     32c:	1c00006f          	j	4ec <_ZL12handle_inputhR14command_buffer+0x3a4>
     330:	fc842703          	lw	a4,-56(s0)
     334:	000037b7          	lui	a5,0x3
     338:	88878593          	add	a1,a5,-1912 # 2888 <_ZN4listIhLi8EE6removeEh+0x520>
     33c:	00070513          	mv	a0,a4
     340:	00001097          	auipc	ra,0x1
     344:	234080e7          	jalr	564(ra) # 1574 <_ZL13strings_equalPKcS0_>
     348:	00050793          	mv	a5,a0
     34c:	00078e63          	beqz	a5,368 <_ZL12handle_inputhR14command_buffer+0x220>
     350:	fbf44783          	lbu	a5,-65(s0)
     354:	00000593          	li	a1,0
     358:	00078513          	mv	a0,a5
     35c:	00001097          	auipc	ra,0x1
     360:	8c4080e7          	jalr	-1852(ra) # c20 <_ZL9action_gohh>
     364:	1880006f          	j	4ec <_ZL12handle_inputhR14command_buffer+0x3a4>
     368:	fc842703          	lw	a4,-56(s0)
     36c:	000037b7          	lui	a5,0x3
     370:	88c78593          	add	a1,a5,-1908 # 288c <_ZN4listIhLi8EE6removeEh+0x524>
     374:	00070513          	mv	a0,a4
     378:	00001097          	auipc	ra,0x1
     37c:	1fc080e7          	jalr	508(ra) # 1574 <_ZL13strings_equalPKcS0_>
     380:	00050793          	mv	a5,a0
     384:	00078e63          	beqz	a5,3a0 <_ZL12handle_inputhR14command_buffer+0x258>
     388:	fbf44783          	lbu	a5,-65(s0)
     38c:	00100593          	li	a1,1
     390:	00078513          	mv	a0,a5
     394:	00001097          	auipc	ra,0x1
     398:	88c080e7          	jalr	-1908(ra) # c20 <_ZL9action_gohh>
     39c:	1500006f          	j	4ec <_ZL12handle_inputhR14command_buffer+0x3a4>
     3a0:	fc842703          	lw	a4,-56(s0)
     3a4:	000037b7          	lui	a5,0x3
     3a8:	89078593          	add	a1,a5,-1904 # 2890 <_ZN4listIhLi8EE6removeEh+0x528>
     3ac:	00070513          	mv	a0,a4
     3b0:	00001097          	auipc	ra,0x1
     3b4:	1c4080e7          	jalr	452(ra) # 1574 <_ZL13strings_equalPKcS0_>
     3b8:	00050793          	mv	a5,a0
     3bc:	00078e63          	beqz	a5,3d8 <_ZL12handle_inputhR14command_buffer+0x290>
     3c0:	fbf44783          	lbu	a5,-65(s0)
     3c4:	00200593          	li	a1,2
     3c8:	00078513          	mv	a0,a5
     3cc:	00001097          	auipc	ra,0x1
     3d0:	854080e7          	jalr	-1964(ra) # c20 <_ZL9action_gohh>
     3d4:	1180006f          	j	4ec <_ZL12handle_inputhR14command_buffer+0x3a4>
     3d8:	fc842703          	lw	a4,-56(s0)
     3dc:	000037b7          	lui	a5,0x3
     3e0:	89478593          	add	a1,a5,-1900 # 2894 <_ZN4listIhLi8EE6removeEh+0x52c>
     3e4:	00070513          	mv	a0,a4
     3e8:	00001097          	auipc	ra,0x1
     3ec:	18c080e7          	jalr	396(ra) # 1574 <_ZL13strings_equalPKcS0_>
     3f0:	00050793          	mv	a5,a0
     3f4:	00078e63          	beqz	a5,410 <_ZL12handle_inputhR14command_buffer+0x2c8>
     3f8:	fbf44783          	lbu	a5,-65(s0)
     3fc:	00300593          	li	a1,3
     400:	00078513          	mv	a0,a5
     404:	00001097          	auipc	ra,0x1
     408:	81c080e7          	jalr	-2020(ra) # c20 <_ZL9action_gohh>
     40c:	0e00006f          	j	4ec <_ZL12handle_inputhR14command_buffer+0x3a4>
     410:	fc842703          	lw	a4,-56(s0)
     414:	000037b7          	lui	a5,0x3
     418:	89878593          	add	a1,a5,-1896 # 2898 <_ZN4listIhLi8EE6removeEh+0x530>
     41c:	00070513          	mv	a0,a4
     420:	00001097          	auipc	ra,0x1
     424:	154080e7          	jalr	340(ra) # 1574 <_ZL13strings_equalPKcS0_>
     428:	00050793          	mv	a5,a0
     42c:	06078463          	beqz	a5,494 <_ZL12handle_inputhR14command_buffer+0x34c>
     430:	fe842703          	lw	a4,-24(s0)
     434:	00100793          	li	a5,1
     438:	00e7ec63          	bltu	a5,a4,450 <_ZL12handle_inputhR14command_buffer+0x308>
     43c:	000037b7          	lui	a5,0x3
     440:	89c78513          	add	a0,a5,-1892 # 289c <_ZN4listIhLi8EE6removeEh+0x534>
     444:	00001097          	auipc	ra,0x1
     448:	364080e7          	jalr	868(ra) # 17a8 <_ZL13uart_send_strPKc>
     44c:	0a00006f          	j	4ec <_ZL12handle_inputhR14command_buffer+0x3a4>
     450:	fe842703          	lw	a4,-24(s0)
     454:	00200793          	li	a5,2
     458:	00e7ec63          	bltu	a5,a4,470 <_ZL12handle_inputhR14command_buffer+0x328>
     45c:	000037b7          	lui	a5,0x3
     460:	8ac78513          	add	a0,a5,-1876 # 28ac <_ZN4listIhLi8EE6removeEh+0x544>
     464:	00001097          	auipc	ra,0x1
     468:	344080e7          	jalr	836(ra) # 17a8 <_ZL13uart_send_strPKc>
     46c:	0800006f          	j	4ec <_ZL12handle_inputhR14command_buffer+0x3a4>
     470:	fcc42703          	lw	a4,-52(s0)
     474:	fd042683          	lw	a3,-48(s0)
     478:	fbf44783          	lbu	a5,-65(s0)
     47c:	00068613          	mv	a2,a3
     480:	00070593          	mv	a1,a4
     484:	00078513          	mv	a0,a5
     488:	00001097          	auipc	ra,0x1
     48c:	8d0080e7          	jalr	-1840(ra) # d58 <_ZL11action_givehPKcS0_>
     490:	05c0006f          	j	4ec <_ZL12handle_inputhR14command_buffer+0x3a4>
     494:	fc842703          	lw	a4,-56(s0)
     498:	000037b7          	lui	a5,0x3
     49c:	8c078593          	add	a1,a5,-1856 # 28c0 <_ZN4listIhLi8EE6removeEh+0x558>
     4a0:	00070513          	mv	a0,a4
     4a4:	00001097          	auipc	ra,0x1
     4a8:	0d0080e7          	jalr	208(ra) # 1574 <_ZL13strings_equalPKcS0_>
     4ac:	00050793          	mv	a5,a0
     4b0:	00078863          	beqz	a5,4c0 <_ZL12handle_inputhR14command_buffer+0x378>
     4b4:	00001097          	auipc	ra,0x1
     4b8:	3e8080e7          	jalr	1000(ra) # 189c <_ZL15action_mem_testv>
     4bc:	0300006f          	j	4ec <_ZL12handle_inputhR14command_buffer+0x3a4>
     4c0:	fc842703          	lw	a4,-56(s0)
     4c4:	000037b7          	lui	a5,0x3
     4c8:	8c478593          	add	a1,a5,-1852 # 28c4 <_ZN4listIhLi8EE6removeEh+0x55c>
     4cc:	00070513          	mv	a0,a4
     4d0:	00001097          	auipc	ra,0x1
     4d4:	0a4080e7          	jalr	164(ra) # 1574 <_ZL13strings_equalPKcS0_>
     4d8:	00050793          	mv	a5,a0
     4dc:	00078863          	beqz	a5,4ec <_ZL12handle_inputhR14command_buffer+0x3a4>
     4e0:	00000513          	li	a0,0
     4e4:	00001097          	auipc	ra,0x1
     4e8:	57c080e7          	jalr	1404(ra) # 1a60 <_ZL4exiti>
     4ec:	04c12083          	lw	ra,76(sp)
     4f0:	04812403          	lw	s0,72(sp)
     4f4:	05010113          	add	sp,sp,80
     4f8:	00008067          	ret

000004fc <_ZL14print_locationhh>:
     4fc:	fb010113          	add	sp,sp,-80
     500:	04112623          	sw	ra,76(sp)
     504:	04812423          	sw	s0,72(sp)
     508:	05010413          	add	s0,sp,80
     50c:	00050793          	mv	a5,a0
     510:	00058713          	mv	a4,a1
     514:	faf40fa3          	sb	a5,-65(s0)
     518:	00070793          	mv	a5,a4
     51c:	faf40f23          	sb	a5,-66(s0)
     520:	fbf44703          	lbu	a4,-65(s0)
     524:	00070793          	mv	a5,a4
     528:	00279793          	sll	a5,a5,0x2
     52c:	00e787b3          	add	a5,a5,a4
     530:	00579793          	sll	a5,a5,0x5
     534:	00003737          	lui	a4,0x3
     538:	3cc70713          	add	a4,a4,972 # 33cc <_ZL9locations>
     53c:	00e787b3          	add	a5,a5,a4
     540:	fcf42e23          	sw	a5,-36(s0)
     544:	000037b7          	lui	a5,0x3
     548:	8c878513          	add	a0,a5,-1848 # 28c8 <_ZN4listIhLi8EE6removeEh+0x560>
     54c:	00001097          	auipc	ra,0x1
     550:	25c080e7          	jalr	604(ra) # 17a8 <_ZL13uart_send_strPKc>
     554:	fdc42783          	lw	a5,-36(s0)
     558:	0007a783          	lw	a5,0(a5)
     55c:	00078513          	mv	a0,a5
     560:	00001097          	auipc	ra,0x1
     564:	248080e7          	jalr	584(ra) # 17a8 <_ZL13uart_send_strPKc>
     568:	000037b7          	lui	a5,0x3
     56c:	8d078513          	add	a0,a5,-1840 # 28d0 <_ZN4listIhLi8EE6removeEh+0x568>
     570:	00001097          	auipc	ra,0x1
     574:	238080e7          	jalr	568(ra) # 17a8 <_ZL13uart_send_strPKc>
     578:	fe042623          	sw	zero,-20(s0)
     57c:	fdc42783          	lw	a5,-36(s0)
     580:	00478793          	add	a5,a5,4
     584:	fcf42c23          	sw	a5,-40(s0)
     588:	fe042423          	sw	zero,-24(s0)
     58c:	07c0006f          	j	608 <_ZL14print_locationhh+0x10c>
     590:	fe842583          	lw	a1,-24(s0)
     594:	fd842503          	lw	a0,-40(s0)
     598:	00002097          	auipc	ra,0x2
     59c:	a34080e7          	jalr	-1484(ra) # 1fcc <_ZN4listIhLi128EE2atEj>
     5a0:	00050793          	mv	a5,a0
     5a4:	fcf40ba3          	sb	a5,-41(s0)
     5a8:	fd744783          	lbu	a5,-41(s0)
     5ac:	06078663          	beqz	a5,618 <_ZL14print_locationhh+0x11c>
     5b0:	fec42783          	lw	a5,-20(s0)
     5b4:	00178713          	add	a4,a5,1
     5b8:	fee42623          	sw	a4,-20(s0)
     5bc:	00f037b3          	snez	a5,a5
     5c0:	0ff7f793          	zext.b	a5,a5
     5c4:	00078a63          	beqz	a5,5d8 <_ZL14print_locationhh+0xdc>
     5c8:	000037b7          	lui	a5,0x3
     5cc:	8d878513          	add	a0,a5,-1832 # 28d8 <_ZN4listIhLi8EE6removeEh+0x570>
     5d0:	00001097          	auipc	ra,0x1
     5d4:	1d8080e7          	jalr	472(ra) # 17a8 <_ZL13uart_send_strPKc>
     5d8:	fd744783          	lbu	a5,-41(s0)
     5dc:	00003737          	lui	a4,0x3
     5e0:	33870713          	add	a4,a4,824 # 3338 <_ZL7objects>
     5e4:	00279793          	sll	a5,a5,0x2
     5e8:	00f707b3          	add	a5,a4,a5
     5ec:	0007a783          	lw	a5,0(a5)
     5f0:	00078513          	mv	a0,a5
     5f4:	00001097          	auipc	ra,0x1
     5f8:	1b4080e7          	jalr	436(ra) # 17a8 <_ZL13uart_send_strPKc>
     5fc:	fe842783          	lw	a5,-24(s0)
     600:	00178793          	add	a5,a5,1
     604:	fef42423          	sw	a5,-24(s0)
     608:	fe842703          	lw	a4,-24(s0)
     60c:	07f00793          	li	a5,127
     610:	f8e7f0e3          	bgeu	a5,a4,590 <_ZL14print_locationhh+0x94>
     614:	0080006f          	j	61c <_ZL14print_locationhh+0x120>
     618:	00000013          	nop
     61c:	fec42783          	lw	a5,-20(s0)
     620:	00079a63          	bnez	a5,634 <_ZL14print_locationhh+0x138>
     624:	000037b7          	lui	a5,0x3
     628:	8dc78513          	add	a0,a5,-1828 # 28dc <_ZN4listIhLi8EE6removeEh+0x574>
     62c:	00001097          	auipc	ra,0x1
     630:	17c080e7          	jalr	380(ra) # 17a8 <_ZL13uart_send_strPKc>
     634:	000037b7          	lui	a5,0x3
     638:	82c78513          	add	a0,a5,-2004 # 282c <_ZN4listIhLi8EE6removeEh+0x4c4>
     63c:	00001097          	auipc	ra,0x1
     640:	16c080e7          	jalr	364(ra) # 17a8 <_ZL13uart_send_strPKc>
     644:	fe042623          	sw	zero,-20(s0)
     648:	fdc42783          	lw	a5,-36(s0)
     64c:	08878793          	add	a5,a5,136
     650:	fcf42823          	sw	a5,-48(s0)
     654:	fe042223          	sw	zero,-28(s0)
     658:	0a40006f          	j	6fc <_ZL14print_locationhh+0x200>
     65c:	fe442583          	lw	a1,-28(s0)
     660:	fd042503          	lw	a0,-48(s0)
     664:	00002097          	auipc	ra,0x2
     668:	9b0080e7          	jalr	-1616(ra) # 2014 <_ZN4listIhLi8EE2atEj>
     66c:	00050793          	mv	a5,a0
     670:	fcf407a3          	sb	a5,-49(s0)
     674:	fcf44783          	lbu	a5,-49(s0)
     678:	08078a63          	beqz	a5,70c <_ZL14print_locationhh+0x210>
     67c:	fcf44703          	lbu	a4,-49(s0)
     680:	fbe44783          	lbu	a5,-66(s0)
     684:	06f70463          	beq	a4,a5,6ec <_ZL14print_locationhh+0x1f0>
     688:	fec42783          	lw	a5,-20(s0)
     68c:	00178713          	add	a4,a5,1
     690:	fee42623          	sw	a4,-20(s0)
     694:	00f037b3          	snez	a5,a5
     698:	0ff7f793          	zext.b	a5,a5
     69c:	00078a63          	beqz	a5,6b0 <_ZL14print_locationhh+0x1b4>
     6a0:	000037b7          	lui	a5,0x3
     6a4:	8d878513          	add	a0,a5,-1832 # 28d8 <_ZN4listIhLi8EE6removeEh+0x570>
     6a8:	00001097          	auipc	ra,0x1
     6ac:	100080e7          	jalr	256(ra) # 17a8 <_ZL13uart_send_strPKc>
     6b0:	fcf44703          	lbu	a4,-49(s0)
     6b4:	000037b7          	lui	a5,0x3
     6b8:	34878693          	add	a3,a5,840 # 3348 <_ZL8entities>
     6bc:	00070793          	mv	a5,a4
     6c0:	00179793          	sll	a5,a5,0x1
     6c4:	00e787b3          	add	a5,a5,a4
     6c8:	00279793          	sll	a5,a5,0x2
     6cc:	40e787b3          	sub	a5,a5,a4
     6d0:	00279793          	sll	a5,a5,0x2
     6d4:	00f687b3          	add	a5,a3,a5
     6d8:	0007a783          	lw	a5,0(a5)
     6dc:	00078513          	mv	a0,a5
     6e0:	00001097          	auipc	ra,0x1
     6e4:	0c8080e7          	jalr	200(ra) # 17a8 <_ZL13uart_send_strPKc>
     6e8:	0080006f          	j	6f0 <_ZL14print_locationhh+0x1f4>
     6ec:	00000013          	nop
     6f0:	fe442783          	lw	a5,-28(s0)
     6f4:	00178793          	add	a5,a5,1
     6f8:	fef42223          	sw	a5,-28(s0)
     6fc:	fe442703          	lw	a4,-28(s0)
     700:	00700793          	li	a5,7
     704:	f4e7fce3          	bgeu	a5,a4,65c <_ZL14print_locationhh+0x160>
     708:	0080006f          	j	710 <_ZL14print_locationhh+0x214>
     70c:	00000013          	nop
     710:	fec42783          	lw	a5,-20(s0)
     714:	00078a63          	beqz	a5,728 <_ZL14print_locationhh+0x22c>
     718:	000037b7          	lui	a5,0x3
     71c:	8e478513          	add	a0,a5,-1820 # 28e4 <_ZN4listIhLi8EE6removeEh+0x57c>
     720:	00001097          	auipc	ra,0x1
     724:	088080e7          	jalr	136(ra) # 17a8 <_ZL13uart_send_strPKc>
     728:	fe042623          	sw	zero,-20(s0)
     72c:	000037b7          	lui	a5,0x3
     730:	8f078513          	add	a0,a5,-1808 # 28f0 <_ZN4listIhLi8EE6removeEh+0x588>
     734:	00001097          	auipc	ra,0x1
     738:	074080e7          	jalr	116(ra) # 17a8 <_ZL13uart_send_strPKc>
     73c:	fe042023          	sw	zero,-32(s0)
     740:	08c0006f          	j	7cc <_ZL14print_locationhh+0x2d0>
     744:	fdc42783          	lw	a5,-36(s0)
     748:	09478793          	add	a5,a5,148
     74c:	fe042583          	lw	a1,-32(s0)
     750:	00078513          	mv	a0,a5
     754:	00002097          	auipc	ra,0x2
     758:	908080e7          	jalr	-1784(ra) # 205c <_ZN4listIhLi6EE2atEj>
     75c:	00050793          	mv	a5,a0
     760:	0017b793          	seqz	a5,a5
     764:	0ff7f793          	zext.b	a5,a5
     768:	04079a63          	bnez	a5,7bc <_ZL14print_locationhh+0x2c0>
     76c:	fec42783          	lw	a5,-20(s0)
     770:	00178713          	add	a4,a5,1
     774:	fee42623          	sw	a4,-20(s0)
     778:	00f037b3          	snez	a5,a5
     77c:	0ff7f793          	zext.b	a5,a5
     780:	00078a63          	beqz	a5,794 <_ZL14print_locationhh+0x298>
     784:	000037b7          	lui	a5,0x3
     788:	8d878513          	add	a0,a5,-1832 # 28d8 <_ZN4listIhLi8EE6removeEh+0x570>
     78c:	00001097          	auipc	ra,0x1
     790:	01c080e7          	jalr	28(ra) # 17a8 <_ZL13uart_send_strPKc>
     794:	000037b7          	lui	a5,0x3
     798:	6ec78713          	add	a4,a5,1772 # 36ec <_ZL10exit_names>
     79c:	fe042783          	lw	a5,-32(s0)
     7a0:	00279793          	sll	a5,a5,0x2
     7a4:	00f707b3          	add	a5,a4,a5
     7a8:	0007a783          	lw	a5,0(a5)
     7ac:	00078513          	mv	a0,a5
     7b0:	00001097          	auipc	ra,0x1
     7b4:	ff8080e7          	jalr	-8(ra) # 17a8 <_ZL13uart_send_strPKc>
     7b8:	0080006f          	j	7c0 <_ZL14print_locationhh+0x2c4>
     7bc:	00000013          	nop
     7c0:	fe042783          	lw	a5,-32(s0)
     7c4:	00178793          	add	a5,a5,1
     7c8:	fef42023          	sw	a5,-32(s0)
     7cc:	fe042703          	lw	a4,-32(s0)
     7d0:	00500793          	li	a5,5
     7d4:	f6e7f8e3          	bgeu	a5,a4,744 <_ZL14print_locationhh+0x248>
     7d8:	fec42783          	lw	a5,-20(s0)
     7dc:	00079a63          	bnez	a5,7f0 <_ZL14print_locationhh+0x2f4>
     7e0:	000037b7          	lui	a5,0x3
     7e4:	8f878513          	add	a0,a5,-1800 # 28f8 <_ZN4listIhLi8EE6removeEh+0x590>
     7e8:	00001097          	auipc	ra,0x1
     7ec:	fc0080e7          	jalr	-64(ra) # 17a8 <_ZL13uart_send_strPKc>
     7f0:	000037b7          	lui	a5,0x3
     7f4:	82c78513          	add	a0,a5,-2004 # 282c <_ZN4listIhLi8EE6removeEh+0x4c4>
     7f8:	00001097          	auipc	ra,0x1
     7fc:	fb0080e7          	jalr	-80(ra) # 17a8 <_ZL13uart_send_strPKc>
     800:	00000013          	nop
     804:	04c12083          	lw	ra,76(sp)
     808:	04812403          	lw	s0,72(sp)
     80c:	05010113          	add	sp,sp,80
     810:	00008067          	ret

00000814 <_ZL16action_inventoryh>:
     814:	fd010113          	add	sp,sp,-48
     818:	02112623          	sw	ra,44(sp)
     81c:	02812423          	sw	s0,40(sp)
     820:	03010413          	add	s0,sp,48
     824:	00050793          	mv	a5,a0
     828:	fcf40fa3          	sb	a5,-33(s0)
     82c:	000037b7          	lui	a5,0x3
     830:	90078513          	add	a0,a5,-1792 # 2900 <_ZN4listIhLi8EE6removeEh+0x598>
     834:	00001097          	auipc	ra,0x1
     838:	f74080e7          	jalr	-140(ra) # 17a8 <_ZL13uart_send_strPKc>
     83c:	fe042623          	sw	zero,-20(s0)
     840:	fdf44703          	lbu	a4,-33(s0)
     844:	00070793          	mv	a5,a4
     848:	00179793          	sll	a5,a5,0x1
     84c:	00e787b3          	add	a5,a5,a4
     850:	00279793          	sll	a5,a5,0x2
     854:	40e787b3          	sub	a5,a5,a4
     858:	00279793          	sll	a5,a5,0x2
     85c:	00003737          	lui	a4,0x3
     860:	34870713          	add	a4,a4,840 # 3348 <_ZL8entities>
     864:	00e787b3          	add	a5,a5,a4
     868:	00878793          	add	a5,a5,8
     86c:	fef42223          	sw	a5,-28(s0)
     870:	fe042423          	sw	zero,-24(s0)
     874:	07c0006f          	j	8f0 <_ZL16action_inventoryh+0xdc>
     878:	fe842583          	lw	a1,-24(s0)
     87c:	fe442503          	lw	a0,-28(s0)
     880:	00002097          	auipc	ra,0x2
     884:	824080e7          	jalr	-2012(ra) # 20a4 <_ZN4listIhLi32EE2atEj>
     888:	00050793          	mv	a5,a0
     88c:	fef401a3          	sb	a5,-29(s0)
     890:	fe344783          	lbu	a5,-29(s0)
     894:	06078663          	beqz	a5,900 <_ZL16action_inventoryh+0xec>
     898:	fec42783          	lw	a5,-20(s0)
     89c:	00178713          	add	a4,a5,1
     8a0:	fee42623          	sw	a4,-20(s0)
     8a4:	00f037b3          	snez	a5,a5
     8a8:	0ff7f793          	zext.b	a5,a5
     8ac:	00078a63          	beqz	a5,8c0 <_ZL16action_inventoryh+0xac>
     8b0:	000037b7          	lui	a5,0x3
     8b4:	8d878513          	add	a0,a5,-1832 # 28d8 <_ZN4listIhLi8EE6removeEh+0x570>
     8b8:	00001097          	auipc	ra,0x1
     8bc:	ef0080e7          	jalr	-272(ra) # 17a8 <_ZL13uart_send_strPKc>
     8c0:	fe344783          	lbu	a5,-29(s0)
     8c4:	00003737          	lui	a4,0x3
     8c8:	33870713          	add	a4,a4,824 # 3338 <_ZL7objects>
     8cc:	00279793          	sll	a5,a5,0x2
     8d0:	00f707b3          	add	a5,a4,a5
     8d4:	0007a783          	lw	a5,0(a5)
     8d8:	00078513          	mv	a0,a5
     8dc:	00001097          	auipc	ra,0x1
     8e0:	ecc080e7          	jalr	-308(ra) # 17a8 <_ZL13uart_send_strPKc>
     8e4:	fe842783          	lw	a5,-24(s0)
     8e8:	00178793          	add	a5,a5,1
     8ec:	fef42423          	sw	a5,-24(s0)
     8f0:	fe842703          	lw	a4,-24(s0)
     8f4:	01f00793          	li	a5,31
     8f8:	f8e7f0e3          	bgeu	a5,a4,878 <_ZL16action_inventoryh+0x64>
     8fc:	0080006f          	j	904 <_ZL16action_inventoryh+0xf0>
     900:	00000013          	nop
     904:	fec42783          	lw	a5,-20(s0)
     908:	00079a63          	bnez	a5,91c <_ZL16action_inventoryh+0x108>
     90c:	000037b7          	lui	a5,0x3
     910:	8dc78513          	add	a0,a5,-1828 # 28dc <_ZN4listIhLi8EE6removeEh+0x574>
     914:	00001097          	auipc	ra,0x1
     918:	e94080e7          	jalr	-364(ra) # 17a8 <_ZL13uart_send_strPKc>
     91c:	000037b7          	lui	a5,0x3
     920:	82c78513          	add	a0,a5,-2004 # 282c <_ZN4listIhLi8EE6removeEh+0x4c4>
     924:	00001097          	auipc	ra,0x1
     928:	e84080e7          	jalr	-380(ra) # 17a8 <_ZL13uart_send_strPKc>
     92c:	00000013          	nop
     930:	02c12083          	lw	ra,44(sp)
     934:	02812403          	lw	s0,40(sp)
     938:	03010113          	add	sp,sp,48
     93c:	00008067          	ret

00000940 <_ZL11action_takehPKc>:
     940:	fd010113          	add	sp,sp,-48
     944:	02112623          	sw	ra,44(sp)
     948:	02812423          	sw	s0,40(sp)
     94c:	03010413          	add	s0,sp,48
     950:	00050793          	mv	a5,a0
     954:	fcb42c23          	sw	a1,-40(s0)
     958:	fcf40fa3          	sb	a5,-33(s0)
     95c:	fdf44703          	lbu	a4,-33(s0)
     960:	00070793          	mv	a5,a4
     964:	00179793          	sll	a5,a5,0x1
     968:	00e787b3          	add	a5,a5,a4
     96c:	00279793          	sll	a5,a5,0x2
     970:	40e787b3          	sub	a5,a5,a4
     974:	00279793          	sll	a5,a5,0x2
     978:	00003737          	lui	a4,0x3
     97c:	34870713          	add	a4,a4,840 # 3348 <_ZL8entities>
     980:	00e787b3          	add	a5,a5,a4
     984:	fef42423          	sw	a5,-24(s0)
     988:	fe842783          	lw	a5,-24(s0)
     98c:	0047c783          	lbu	a5,4(a5)
     990:	00078713          	mv	a4,a5
     994:	00070793          	mv	a5,a4
     998:	00279793          	sll	a5,a5,0x2
     99c:	00e787b3          	add	a5,a5,a4
     9a0:	00579793          	sll	a5,a5,0x5
     9a4:	00003737          	lui	a4,0x3
     9a8:	3cc70713          	add	a4,a4,972 # 33cc <_ZL9locations>
     9ac:	00e787b3          	add	a5,a5,a4
     9b0:	00478793          	add	a5,a5,4
     9b4:	fef42223          	sw	a5,-28(s0)
     9b8:	fe042623          	sw	zero,-20(s0)
     9bc:	0a40006f          	j	a60 <_ZL11action_takehPKc+0x120>
     9c0:	fec42583          	lw	a1,-20(s0)
     9c4:	fe442503          	lw	a0,-28(s0)
     9c8:	00001097          	auipc	ra,0x1
     9cc:	604080e7          	jalr	1540(ra) # 1fcc <_ZN4listIhLi128EE2atEj>
     9d0:	00050793          	mv	a5,a0
     9d4:	fef401a3          	sb	a5,-29(s0)
     9d8:	fe344783          	lbu	a5,-29(s0)
     9dc:	08078a63          	beqz	a5,a70 <_ZL11action_takehPKc+0x130>
     9e0:	fe344783          	lbu	a5,-29(s0)
     9e4:	00003737          	lui	a4,0x3
     9e8:	33870713          	add	a4,a4,824 # 3338 <_ZL7objects>
     9ec:	00279793          	sll	a5,a5,0x2
     9f0:	00f707b3          	add	a5,a4,a5
     9f4:	0007a783          	lw	a5,0(a5)
     9f8:	fd842583          	lw	a1,-40(s0)
     9fc:	00078513          	mv	a0,a5
     a00:	00001097          	auipc	ra,0x1
     a04:	b74080e7          	jalr	-1164(ra) # 1574 <_ZL13strings_equalPKcS0_>
     a08:	00050793          	mv	a5,a0
     a0c:	0017c793          	xor	a5,a5,1
     a10:	0ff7f793          	zext.b	a5,a5
     a14:	02079e63          	bnez	a5,a50 <_ZL11action_takehPKc+0x110>
     a18:	fe842783          	lw	a5,-24(s0)
     a1c:	00878793          	add	a5,a5,8
     a20:	fe344703          	lbu	a4,-29(s0)
     a24:	00070593          	mv	a1,a4
     a28:	00078513          	mv	a0,a5
     a2c:	00001097          	auipc	ra,0x1
     a30:	6c0080e7          	jalr	1728(ra) # 20ec <_ZN4listIhLi32EE3addEh>
     a34:	00050793          	mv	a5,a0
     a38:	04078e63          	beqz	a5,a94 <_ZL11action_takehPKc+0x154>
     a3c:	fec42583          	lw	a1,-20(s0)
     a40:	fe442503          	lw	a0,-28(s0)
     a44:	00001097          	auipc	ra,0x1
     a48:	72c080e7          	jalr	1836(ra) # 2170 <_ZN4listIhLi128EE15remove_by_indexEj>
     a4c:	0480006f          	j	a94 <_ZL11action_takehPKc+0x154>
     a50:	00000013          	nop
     a54:	fec42783          	lw	a5,-20(s0)
     a58:	00178793          	add	a5,a5,1
     a5c:	fef42623          	sw	a5,-20(s0)
     a60:	fec42703          	lw	a4,-20(s0)
     a64:	07f00793          	li	a5,127
     a68:	f4e7fce3          	bgeu	a5,a4,9c0 <_ZL11action_takehPKc+0x80>
     a6c:	0080006f          	j	a74 <_ZL11action_takehPKc+0x134>
     a70:	00000013          	nop
     a74:	fd842503          	lw	a0,-40(s0)
     a78:	00001097          	auipc	ra,0x1
     a7c:	d30080e7          	jalr	-720(ra) # 17a8 <_ZL13uart_send_strPKc>
     a80:	000037b7          	lui	a5,0x3
     a84:	90c78513          	add	a0,a5,-1780 # 290c <_ZN4listIhLi8EE6removeEh+0x5a4>
     a88:	00001097          	auipc	ra,0x1
     a8c:	d20080e7          	jalr	-736(ra) # 17a8 <_ZL13uart_send_strPKc>
     a90:	0080006f          	j	a98 <_ZL11action_takehPKc+0x158>
     a94:	00000013          	nop
     a98:	02c12083          	lw	ra,44(sp)
     a9c:	02812403          	lw	s0,40(sp)
     aa0:	03010113          	add	sp,sp,48
     aa4:	00008067          	ret

00000aa8 <_ZL11action_drophPKc>:
     aa8:	fd010113          	add	sp,sp,-48
     aac:	02112623          	sw	ra,44(sp)
     ab0:	02812423          	sw	s0,40(sp)
     ab4:	03010413          	add	s0,sp,48
     ab8:	00050793          	mv	a5,a0
     abc:	fcb42c23          	sw	a1,-40(s0)
     ac0:	fcf40fa3          	sb	a5,-33(s0)
     ac4:	fdf44703          	lbu	a4,-33(s0)
     ac8:	00070793          	mv	a5,a4
     acc:	00179793          	sll	a5,a5,0x1
     ad0:	00e787b3          	add	a5,a5,a4
     ad4:	00279793          	sll	a5,a5,0x2
     ad8:	40e787b3          	sub	a5,a5,a4
     adc:	00279793          	sll	a5,a5,0x2
     ae0:	00003737          	lui	a4,0x3
     ae4:	34870713          	add	a4,a4,840 # 3348 <_ZL8entities>
     ae8:	00e787b3          	add	a5,a5,a4
     aec:	fef42423          	sw	a5,-24(s0)
     af0:	fe842783          	lw	a5,-24(s0)
     af4:	00878793          	add	a5,a5,8
     af8:	fef42223          	sw	a5,-28(s0)
     afc:	fe042623          	sw	zero,-20(s0)
     b00:	0c80006f          	j	bc8 <_ZL11action_drophPKc+0x120>
     b04:	fec42583          	lw	a1,-20(s0)
     b08:	fe442503          	lw	a0,-28(s0)
     b0c:	00001097          	auipc	ra,0x1
     b10:	598080e7          	jalr	1432(ra) # 20a4 <_ZN4listIhLi32EE2atEj>
     b14:	00050793          	mv	a5,a0
     b18:	fef401a3          	sb	a5,-29(s0)
     b1c:	fe344783          	lbu	a5,-29(s0)
     b20:	0a078c63          	beqz	a5,bd8 <_ZL11action_drophPKc+0x130>
     b24:	fe344783          	lbu	a5,-29(s0)
     b28:	00003737          	lui	a4,0x3
     b2c:	33870713          	add	a4,a4,824 # 3338 <_ZL7objects>
     b30:	00279793          	sll	a5,a5,0x2
     b34:	00f707b3          	add	a5,a4,a5
     b38:	0007a783          	lw	a5,0(a5)
     b3c:	fd842583          	lw	a1,-40(s0)
     b40:	00078513          	mv	a0,a5
     b44:	00001097          	auipc	ra,0x1
     b48:	a30080e7          	jalr	-1488(ra) # 1574 <_ZL13strings_equalPKcS0_>
     b4c:	00050793          	mv	a5,a0
     b50:	0017c793          	xor	a5,a5,1
     b54:	0ff7f793          	zext.b	a5,a5
     b58:	06079063          	bnez	a5,bb8 <_ZL11action_drophPKc+0x110>
     b5c:	fe842783          	lw	a5,-24(s0)
     b60:	0047c783          	lbu	a5,4(a5)
     b64:	00078713          	mv	a4,a5
     b68:	00070793          	mv	a5,a4
     b6c:	00279793          	sll	a5,a5,0x2
     b70:	00e787b3          	add	a5,a5,a4
     b74:	00579793          	sll	a5,a5,0x5
     b78:	00003737          	lui	a4,0x3
     b7c:	3cc70713          	add	a4,a4,972 # 33cc <_ZL9locations>
     b80:	00e787b3          	add	a5,a5,a4
     b84:	00478793          	add	a5,a5,4
     b88:	fe344703          	lbu	a4,-29(s0)
     b8c:	00070593          	mv	a1,a4
     b90:	00078513          	mv	a0,a5
     b94:	00001097          	auipc	ra,0x1
     b98:	654080e7          	jalr	1620(ra) # 21e8 <_ZN4listIhLi128EE3addEh>
     b9c:	00050793          	mv	a5,a0
     ba0:	06078663          	beqz	a5,c0c <_ZL11action_drophPKc+0x164>
     ba4:	fec42583          	lw	a1,-20(s0)
     ba8:	fe442503          	lw	a0,-28(s0)
     bac:	00001097          	auipc	ra,0x1
     bb0:	6c0080e7          	jalr	1728(ra) # 226c <_ZN4listIhLi32EE15remove_by_indexEj>
     bb4:	0580006f          	j	c0c <_ZL11action_drophPKc+0x164>
     bb8:	00000013          	nop
     bbc:	fec42783          	lw	a5,-20(s0)
     bc0:	00178793          	add	a5,a5,1
     bc4:	fef42623          	sw	a5,-20(s0)
     bc8:	fec42703          	lw	a4,-20(s0)
     bcc:	01f00793          	li	a5,31
     bd0:	f2e7fae3          	bgeu	a5,a4,b04 <_ZL11action_drophPKc+0x5c>
     bd4:	0080006f          	j	bdc <_ZL11action_drophPKc+0x134>
     bd8:	00000013          	nop
     bdc:	000037b7          	lui	a5,0x3
     be0:	91c78513          	add	a0,a5,-1764 # 291c <_ZN4listIhLi8EE6removeEh+0x5b4>
     be4:	00001097          	auipc	ra,0x1
     be8:	bc4080e7          	jalr	-1084(ra) # 17a8 <_ZL13uart_send_strPKc>
     bec:	fd842503          	lw	a0,-40(s0)
     bf0:	00001097          	auipc	ra,0x1
     bf4:	bb8080e7          	jalr	-1096(ra) # 17a8 <_ZL13uart_send_strPKc>
     bf8:	000037b7          	lui	a5,0x3
     bfc:	92c78513          	add	a0,a5,-1748 # 292c <_ZN4listIhLi8EE6removeEh+0x5c4>
     c00:	00001097          	auipc	ra,0x1
     c04:	ba8080e7          	jalr	-1112(ra) # 17a8 <_ZL13uart_send_strPKc>
     c08:	0080006f          	j	c10 <_ZL11action_drophPKc+0x168>
     c0c:	00000013          	nop
     c10:	02c12083          	lw	ra,44(sp)
     c14:	02812403          	lw	s0,40(sp)
     c18:	03010113          	add	sp,sp,48
     c1c:	00008067          	ret

00000c20 <_ZL9action_gohh>:
     c20:	fd010113          	add	sp,sp,-48
     c24:	02112623          	sw	ra,44(sp)
     c28:	02812423          	sw	s0,40(sp)
     c2c:	03010413          	add	s0,sp,48
     c30:	00050793          	mv	a5,a0
     c34:	00058713          	mv	a4,a1
     c38:	fcf40fa3          	sb	a5,-33(s0)
     c3c:	00070793          	mv	a5,a4
     c40:	fcf40f23          	sb	a5,-34(s0)
     c44:	fdf44703          	lbu	a4,-33(s0)
     c48:	00070793          	mv	a5,a4
     c4c:	00179793          	sll	a5,a5,0x1
     c50:	00e787b3          	add	a5,a5,a4
     c54:	00279793          	sll	a5,a5,0x2
     c58:	40e787b3          	sub	a5,a5,a4
     c5c:	00279793          	sll	a5,a5,0x2
     c60:	00003737          	lui	a4,0x3
     c64:	34870713          	add	a4,a4,840 # 3348 <_ZL8entities>
     c68:	00e787b3          	add	a5,a5,a4
     c6c:	fef42623          	sw	a5,-20(s0)
     c70:	fec42783          	lw	a5,-20(s0)
     c74:	0047c783          	lbu	a5,4(a5)
     c78:	00078713          	mv	a4,a5
     c7c:	00070793          	mv	a5,a4
     c80:	00279793          	sll	a5,a5,0x2
     c84:	00e787b3          	add	a5,a5,a4
     c88:	00579793          	sll	a5,a5,0x5
     c8c:	00003737          	lui	a4,0x3
     c90:	3cc70713          	add	a4,a4,972 # 33cc <_ZL9locations>
     c94:	00e787b3          	add	a5,a5,a4
     c98:	fef42423          	sw	a5,-24(s0)
     c9c:	fe842783          	lw	a5,-24(s0)
     ca0:	09478793          	add	a5,a5,148
     ca4:	fde44703          	lbu	a4,-34(s0)
     ca8:	00070593          	mv	a1,a4
     cac:	00078513          	mv	a0,a5
     cb0:	00001097          	auipc	ra,0x1
     cb4:	3ac080e7          	jalr	940(ra) # 205c <_ZN4listIhLi6EE2atEj>
     cb8:	00050793          	mv	a5,a0
     cbc:	fef403a3          	sb	a5,-25(s0)
     cc0:	fe744783          	lbu	a5,-25(s0)
     cc4:	00079c63          	bnez	a5,cdc <_ZL9action_gohh+0xbc>
     cc8:	000037b7          	lui	a5,0x3
     ccc:	93478513          	add	a0,a5,-1740 # 2934 <_ZN4listIhLi8EE6removeEh+0x5cc>
     cd0:	00001097          	auipc	ra,0x1
     cd4:	ad8080e7          	jalr	-1320(ra) # 17a8 <_ZL13uart_send_strPKc>
     cd8:	0700006f          	j	d48 <_ZL9action_gohh+0x128>
     cdc:	fe744703          	lbu	a4,-25(s0)
     ce0:	00070793          	mv	a5,a4
     ce4:	00279793          	sll	a5,a5,0x2
     ce8:	00e787b3          	add	a5,a5,a4
     cec:	00579793          	sll	a5,a5,0x5
     cf0:	08078713          	add	a4,a5,128
     cf4:	000037b7          	lui	a5,0x3
     cf8:	3cc78793          	add	a5,a5,972 # 33cc <_ZL9locations>
     cfc:	00f707b3          	add	a5,a4,a5
     d00:	00878793          	add	a5,a5,8
     d04:	fdf44703          	lbu	a4,-33(s0)
     d08:	00070593          	mv	a1,a4
     d0c:	00078513          	mv	a0,a5
     d10:	00001097          	auipc	ra,0x1
     d14:	5d4080e7          	jalr	1492(ra) # 22e4 <_ZN4listIhLi8EE3addEh>
     d18:	00050793          	mv	a5,a0
     d1c:	02078663          	beqz	a5,d48 <_ZL9action_gohh+0x128>
     d20:	fe842783          	lw	a5,-24(s0)
     d24:	08878793          	add	a5,a5,136
     d28:	fdf44703          	lbu	a4,-33(s0)
     d2c:	00070593          	mv	a1,a4
     d30:	00078513          	mv	a0,a5
     d34:	00001097          	auipc	ra,0x1
     d38:	634080e7          	jalr	1588(ra) # 2368 <_ZN4listIhLi8EE6removeEh>
     d3c:	fec42783          	lw	a5,-20(s0)
     d40:	fe744703          	lbu	a4,-25(s0)
     d44:	00e78223          	sb	a4,4(a5)
     d48:	02c12083          	lw	ra,44(sp)
     d4c:	02812403          	lw	s0,40(sp)
     d50:	03010113          	add	sp,sp,48
     d54:	00008067          	ret

00000d58 <_ZL11action_givehPKcS0_>:
     d58:	fc010113          	add	sp,sp,-64
     d5c:	02112e23          	sw	ra,60(sp)
     d60:	02812c23          	sw	s0,56(sp)
     d64:	04010413          	add	s0,sp,64
     d68:	00050793          	mv	a5,a0
     d6c:	fcb42423          	sw	a1,-56(s0)
     d70:	fcc42223          	sw	a2,-60(s0)
     d74:	fcf407a3          	sb	a5,-49(s0)
     d78:	fcf44703          	lbu	a4,-49(s0)
     d7c:	00070793          	mv	a5,a4
     d80:	00179793          	sll	a5,a5,0x1
     d84:	00e787b3          	add	a5,a5,a4
     d88:	00279793          	sll	a5,a5,0x2
     d8c:	40e787b3          	sub	a5,a5,a4
     d90:	00279793          	sll	a5,a5,0x2
     d94:	00003737          	lui	a4,0x3
     d98:	34870713          	add	a4,a4,840 # 3348 <_ZL8entities>
     d9c:	00e787b3          	add	a5,a5,a4
     da0:	fef42223          	sw	a5,-28(s0)
     da4:	fe442783          	lw	a5,-28(s0)
     da8:	0047c783          	lbu	a5,4(a5)
     dac:	00078713          	mv	a4,a5
     db0:	00070793          	mv	a5,a4
     db4:	00279793          	sll	a5,a5,0x2
     db8:	00e787b3          	add	a5,a5,a4
     dbc:	00579793          	sll	a5,a5,0x5
     dc0:	00003737          	lui	a4,0x3
     dc4:	3cc70713          	add	a4,a4,972 # 33cc <_ZL9locations>
     dc8:	00e787b3          	add	a5,a5,a4
     dcc:	fef42023          	sw	a5,-32(s0)
     dd0:	fe042783          	lw	a5,-32(s0)
     dd4:	08878793          	add	a5,a5,136
     dd8:	fcf42e23          	sw	a5,-36(s0)
     ddc:	fe042623          	sw	zero,-20(s0)
     de0:	1840006f          	j	f64 <_ZL11action_givehPKcS0_+0x20c>
     de4:	fec42583          	lw	a1,-20(s0)
     de8:	fdc42503          	lw	a0,-36(s0)
     dec:	00001097          	auipc	ra,0x1
     df0:	228080e7          	jalr	552(ra) # 2014 <_ZN4listIhLi8EE2atEj>
     df4:	00050793          	mv	a5,a0
     df8:	0017b793          	seqz	a5,a5
     dfc:	0ff7f793          	zext.b	a5,a5
     e00:	16079a63          	bnez	a5,f74 <_ZL11action_givehPKcS0_+0x21c>
     e04:	fec42583          	lw	a1,-20(s0)
     e08:	fdc42503          	lw	a0,-36(s0)
     e0c:	00001097          	auipc	ra,0x1
     e10:	208080e7          	jalr	520(ra) # 2014 <_ZN4listIhLi8EE2atEj>
     e14:	00050793          	mv	a5,a0
     e18:	00078713          	mv	a4,a5
     e1c:	00070793          	mv	a5,a4
     e20:	00179793          	sll	a5,a5,0x1
     e24:	00e787b3          	add	a5,a5,a4
     e28:	00279793          	sll	a5,a5,0x2
     e2c:	40e787b3          	sub	a5,a5,a4
     e30:	00279793          	sll	a5,a5,0x2
     e34:	00003737          	lui	a4,0x3
     e38:	34870713          	add	a4,a4,840 # 3348 <_ZL8entities>
     e3c:	00e787b3          	add	a5,a5,a4
     e40:	fcf42c23          	sw	a5,-40(s0)
     e44:	fd842783          	lw	a5,-40(s0)
     e48:	0007a783          	lw	a5,0(a5)
     e4c:	fc442583          	lw	a1,-60(s0)
     e50:	00078513          	mv	a0,a5
     e54:	00000097          	auipc	ra,0x0
     e58:	720080e7          	jalr	1824(ra) # 1574 <_ZL13strings_equalPKcS0_>
     e5c:	00050793          	mv	a5,a0
     e60:	0017c793          	xor	a5,a5,1
     e64:	0ff7f793          	zext.b	a5,a5
     e68:	0e079663          	bnez	a5,f54 <_ZL11action_givehPKcS0_+0x1fc>
     e6c:	fe442783          	lw	a5,-28(s0)
     e70:	00878793          	add	a5,a5,8
     e74:	fcf42a23          	sw	a5,-44(s0)
     e78:	fe042423          	sw	zero,-24(s0)
     e7c:	0a40006f          	j	f20 <_ZL11action_givehPKcS0_+0x1c8>
     e80:	fe842583          	lw	a1,-24(s0)
     e84:	fd442503          	lw	a0,-44(s0)
     e88:	00001097          	auipc	ra,0x1
     e8c:	21c080e7          	jalr	540(ra) # 20a4 <_ZN4listIhLi32EE2atEj>
     e90:	00050793          	mv	a5,a0
     e94:	fcf409a3          	sb	a5,-45(s0)
     e98:	fd344783          	lbu	a5,-45(s0)
     e9c:	08078a63          	beqz	a5,f30 <_ZL11action_givehPKcS0_+0x1d8>
     ea0:	fd344783          	lbu	a5,-45(s0)
     ea4:	00003737          	lui	a4,0x3
     ea8:	33870713          	add	a4,a4,824 # 3338 <_ZL7objects>
     eac:	00279793          	sll	a5,a5,0x2
     eb0:	00f707b3          	add	a5,a4,a5
     eb4:	0007a783          	lw	a5,0(a5)
     eb8:	fc842583          	lw	a1,-56(s0)
     ebc:	00078513          	mv	a0,a5
     ec0:	00000097          	auipc	ra,0x0
     ec4:	6b4080e7          	jalr	1716(ra) # 1574 <_ZL13strings_equalPKcS0_>
     ec8:	00050793          	mv	a5,a0
     ecc:	0017c793          	xor	a5,a5,1
     ed0:	0ff7f793          	zext.b	a5,a5
     ed4:	02079e63          	bnez	a5,f10 <_ZL11action_givehPKcS0_+0x1b8>
     ed8:	fd842783          	lw	a5,-40(s0)
     edc:	00878793          	add	a5,a5,8
     ee0:	fd344703          	lbu	a4,-45(s0)
     ee4:	00070593          	mv	a1,a4
     ee8:	00078513          	mv	a0,a5
     eec:	00001097          	auipc	ra,0x1
     ef0:	200080e7          	jalr	512(ra) # 20ec <_ZN4listIhLi32EE3addEh>
     ef4:	00050793          	mv	a5,a0
     ef8:	0a078063          	beqz	a5,f98 <_ZL11action_givehPKcS0_+0x240>
     efc:	fe842583          	lw	a1,-24(s0)
     f00:	fd442503          	lw	a0,-44(s0)
     f04:	00001097          	auipc	ra,0x1
     f08:	368080e7          	jalr	872(ra) # 226c <_ZN4listIhLi32EE15remove_by_indexEj>
     f0c:	08c0006f          	j	f98 <_ZL11action_givehPKcS0_+0x240>
     f10:	00000013          	nop
     f14:	fe842783          	lw	a5,-24(s0)
     f18:	00178793          	add	a5,a5,1
     f1c:	fef42423          	sw	a5,-24(s0)
     f20:	fe842703          	lw	a4,-24(s0)
     f24:	01f00793          	li	a5,31
     f28:	f4e7fce3          	bgeu	a5,a4,e80 <_ZL11action_givehPKcS0_+0x128>
     f2c:	0080006f          	j	f34 <_ZL11action_givehPKcS0_+0x1dc>
     f30:	00000013          	nop
     f34:	fc842503          	lw	a0,-56(s0)
     f38:	00001097          	auipc	ra,0x1
     f3c:	870080e7          	jalr	-1936(ra) # 17a8 <_ZL13uart_send_strPKc>
     f40:	000037b7          	lui	a5,0x3
     f44:	94878513          	add	a0,a5,-1720 # 2948 <_ZN4listIhLi8EE6removeEh+0x5e0>
     f48:	00001097          	auipc	ra,0x1
     f4c:	860080e7          	jalr	-1952(ra) # 17a8 <_ZL13uart_send_strPKc>
     f50:	04c0006f          	j	f9c <_ZL11action_givehPKcS0_+0x244>
     f54:	00000013          	nop
     f58:	fec42783          	lw	a5,-20(s0)
     f5c:	00178793          	add	a5,a5,1
     f60:	fef42623          	sw	a5,-20(s0)
     f64:	fec42703          	lw	a4,-20(s0)
     f68:	00700793          	li	a5,7
     f6c:	e6e7fce3          	bgeu	a5,a4,de4 <_ZL11action_givehPKcS0_+0x8c>
     f70:	0080006f          	j	f78 <_ZL11action_givehPKcS0_+0x220>
     f74:	00000013          	nop
     f78:	fc442503          	lw	a0,-60(s0)
     f7c:	00001097          	auipc	ra,0x1
     f80:	82c080e7          	jalr	-2004(ra) # 17a8 <_ZL13uart_send_strPKc>
     f84:	000037b7          	lui	a5,0x3
     f88:	96078513          	add	a0,a5,-1696 # 2960 <_ZN4listIhLi8EE6removeEh+0x5f8>
     f8c:	00001097          	auipc	ra,0x1
     f90:	81c080e7          	jalr	-2020(ra) # 17a8 <_ZL13uart_send_strPKc>
     f94:	0080006f          	j	f9c <_ZL11action_givehPKcS0_+0x244>
     f98:	00000013          	nop
     f9c:	03c12083          	lw	ra,60(sp)
     fa0:	03812403          	lw	s0,56(sp)
     fa4:	04010113          	add	sp,sp,64
     fa8:	00008067          	ret

00000fac <_ZL10print_helpv>:
     fac:	ff010113          	add	sp,sp,-16
     fb0:	00112623          	sw	ra,12(sp)
     fb4:	00812423          	sw	s0,8(sp)
     fb8:	01010413          	add	s0,sp,16
     fbc:	000037b7          	lui	a5,0x3
     fc0:	97478513          	add	a0,a5,-1676 # 2974 <_ZN4listIhLi8EE6removeEh+0x60c>
     fc4:	00000097          	auipc	ra,0x0
     fc8:	7e4080e7          	jalr	2020(ra) # 17a8 <_ZL13uart_send_strPKc>
     fcc:	00000013          	nop
     fd0:	00c12083          	lw	ra,12(sp)
     fd4:	00812403          	lw	s0,8(sp)
     fd8:	01010113          	add	sp,sp,16
     fdc:	00008067          	ret

00000fe0 <_ZL27input_escape_sequence_clearv>:
     fe0:	fe010113          	add	sp,sp,-32
     fe4:	00812e23          	sw	s0,28(sp)
     fe8:	02010413          	add	s0,sp,32
     fec:	fe042623          	sw	zero,-20(s0)
     ff0:	0280006f          	j	1018 <_ZL27input_escape_sequence_clearv+0x38>
     ff4:	000037b7          	lui	a5,0x3
     ff8:	70c78713          	add	a4,a5,1804 # 370c <_ZL21input_escape_sequence>
     ffc:	fec42783          	lw	a5,-20(s0)
    1000:	00f707b3          	add	a5,a4,a5
    1004:	03000713          	li	a4,48
    1008:	00e78023          	sb	a4,0(a5)
    100c:	fec42783          	lw	a5,-20(s0)
    1010:	00178793          	add	a5,a5,1
    1014:	fef42623          	sw	a5,-20(s0)
    1018:	fec42703          	lw	a4,-20(s0)
    101c:	00700793          	li	a5,7
    1020:	fce7fae3          	bgeu	a5,a4,ff4 <_ZL27input_escape_sequence_clearv+0x14>
    1024:	00000013          	nop
    1028:	00000013          	nop
    102c:	01c12403          	lw	s0,28(sp)
    1030:	02010113          	add	sp,sp,32
    1034:	00008067          	ret

00001038 <_ZZL5inputR14command_bufferENKUlcE_clEc>:
    1038:	fe010113          	add	sp,sp,-32
    103c:	00112e23          	sw	ra,28(sp)
    1040:	00812c23          	sw	s0,24(sp)
    1044:	02010413          	add	s0,sp,32
    1048:	fea42623          	sw	a0,-20(s0)
    104c:	00058793          	mv	a5,a1
    1050:	fef405a3          	sb	a5,-21(s0)
    1054:	feb44783          	lbu	a5,-21(s0)
    1058:	00078513          	mv	a0,a5
    105c:	00000097          	auipc	ra,0x0
    1060:	7b4080e7          	jalr	1972(ra) # 1810 <_ZL14uart_send_charc>
    1064:	00000013          	nop
    1068:	01c12083          	lw	ra,28(sp)
    106c:	01812403          	lw	s0,24(sp)
    1070:	02010113          	add	sp,sp,32
    1074:	00008067          	ret

00001078 <_ZZL5inputR14command_bufferENUlcE_4_FUNEc>:
    1078:	fe010113          	add	sp,sp,-32
    107c:	00112e23          	sw	ra,28(sp)
    1080:	00812c23          	sw	s0,24(sp)
    1084:	02010413          	add	s0,sp,32
    1088:	00050793          	mv	a5,a0
    108c:	fef407a3          	sb	a5,-17(s0)
    1090:	fef44783          	lbu	a5,-17(s0)
    1094:	00078593          	mv	a1,a5
    1098:	00000513          	li	a0,0
    109c:	00000097          	auipc	ra,0x0
    10a0:	f9c080e7          	jalr	-100(ra) # 1038 <_ZZL5inputR14command_bufferENKUlcE_clEc>
    10a4:	01c12083          	lw	ra,28(sp)
    10a8:	01812403          	lw	s0,24(sp)
    10ac:	02010113          	add	sp,sp,32
    10b0:	00008067          	ret

000010b4 <_ZZL5inputR14command_bufferENKUlcE_cvPFvcEEv>:
    10b4:	fe010113          	add	sp,sp,-32
    10b8:	00812e23          	sw	s0,28(sp)
    10bc:	02010413          	add	s0,sp,32
    10c0:	fea42623          	sw	a0,-20(s0)
    10c4:	000017b7          	lui	a5,0x1
    10c8:	07878793          	add	a5,a5,120 # 1078 <_ZZL5inputR14command_bufferENUlcE_4_FUNEc>
    10cc:	00078513          	mv	a0,a5
    10d0:	01c12403          	lw	s0,28(sp)
    10d4:	02010113          	add	sp,sp,32
    10d8:	00008067          	ret

000010dc <_ZZL5inputR14command_bufferENKUlcE0_clEc>:
    10dc:	fe010113          	add	sp,sp,-32
    10e0:	00112e23          	sw	ra,28(sp)
    10e4:	00812c23          	sw	s0,24(sp)
    10e8:	02010413          	add	s0,sp,32
    10ec:	fea42623          	sw	a0,-20(s0)
    10f0:	00058793          	mv	a5,a1
    10f4:	fef405a3          	sb	a5,-21(s0)
    10f8:	feb44783          	lbu	a5,-21(s0)
    10fc:	00078513          	mv	a0,a5
    1100:	00000097          	auipc	ra,0x0
    1104:	710080e7          	jalr	1808(ra) # 1810 <_ZL14uart_send_charc>
    1108:	00000013          	nop
    110c:	01c12083          	lw	ra,28(sp)
    1110:	01812403          	lw	s0,24(sp)
    1114:	02010113          	add	sp,sp,32
    1118:	00008067          	ret

0000111c <_ZZL5inputR14command_bufferENUlcE0_4_FUNEc>:
    111c:	fe010113          	add	sp,sp,-32
    1120:	00112e23          	sw	ra,28(sp)
    1124:	00812c23          	sw	s0,24(sp)
    1128:	02010413          	add	s0,sp,32
    112c:	00050793          	mv	a5,a0
    1130:	fef407a3          	sb	a5,-17(s0)
    1134:	fef44783          	lbu	a5,-17(s0)
    1138:	00078593          	mv	a1,a5
    113c:	00000513          	li	a0,0
    1140:	00000097          	auipc	ra,0x0
    1144:	f9c080e7          	jalr	-100(ra) # 10dc <_ZZL5inputR14command_bufferENKUlcE0_clEc>
    1148:	01c12083          	lw	ra,28(sp)
    114c:	01812403          	lw	s0,24(sp)
    1150:	02010113          	add	sp,sp,32
    1154:	00008067          	ret

00001158 <_ZZL5inputR14command_bufferENKUlcE0_cvPFvcEEv>:
    1158:	fe010113          	add	sp,sp,-32
    115c:	00812e23          	sw	s0,28(sp)
    1160:	02010413          	add	s0,sp,32
    1164:	fea42623          	sw	a0,-20(s0)
    1168:	000017b7          	lui	a5,0x1
    116c:	11c78793          	add	a5,a5,284 # 111c <_ZZL5inputR14command_bufferENUlcE0_4_FUNEc>
    1170:	00078513          	mv	a0,a5
    1174:	01c12403          	lw	s0,28(sp)
    1178:	02010113          	add	sp,sp,32
    117c:	00008067          	ret

00001180 <_ZZL5inputR14command_bufferENKUlcE1_clEc>:
    1180:	fe010113          	add	sp,sp,-32
    1184:	00112e23          	sw	ra,28(sp)
    1188:	00812c23          	sw	s0,24(sp)
    118c:	02010413          	add	s0,sp,32
    1190:	fea42623          	sw	a0,-20(s0)
    1194:	00058793          	mv	a5,a1
    1198:	fef405a3          	sb	a5,-21(s0)
    119c:	feb44783          	lbu	a5,-21(s0)
    11a0:	00078513          	mv	a0,a5
    11a4:	00000097          	auipc	ra,0x0
    11a8:	66c080e7          	jalr	1644(ra) # 1810 <_ZL14uart_send_charc>
    11ac:	00000013          	nop
    11b0:	01c12083          	lw	ra,28(sp)
    11b4:	01812403          	lw	s0,24(sp)
    11b8:	02010113          	add	sp,sp,32
    11bc:	00008067          	ret

000011c0 <_ZZL5inputR14command_bufferENUlcE1_4_FUNEc>:
    11c0:	fe010113          	add	sp,sp,-32
    11c4:	00112e23          	sw	ra,28(sp)
    11c8:	00812c23          	sw	s0,24(sp)
    11cc:	02010413          	add	s0,sp,32
    11d0:	00050793          	mv	a5,a0
    11d4:	fef407a3          	sb	a5,-17(s0)
    11d8:	fef44783          	lbu	a5,-17(s0)
    11dc:	00078593          	mv	a1,a5
    11e0:	00000513          	li	a0,0
    11e4:	00000097          	auipc	ra,0x0
    11e8:	f9c080e7          	jalr	-100(ra) # 1180 <_ZZL5inputR14command_bufferENKUlcE1_clEc>
    11ec:	01c12083          	lw	ra,28(sp)
    11f0:	01812403          	lw	s0,24(sp)
    11f4:	02010113          	add	sp,sp,32
    11f8:	00008067          	ret

000011fc <_ZZL5inputR14command_bufferENKUlcE1_cvPFvcEEv>:
    11fc:	fe010113          	add	sp,sp,-32
    1200:	00812e23          	sw	s0,28(sp)
    1204:	02010413          	add	s0,sp,32
    1208:	fea42623          	sw	a0,-20(s0)
    120c:	000017b7          	lui	a5,0x1
    1210:	1c078793          	add	a5,a5,448 # 11c0 <_ZZL5inputR14command_bufferENUlcE1_4_FUNEc>
    1214:	00078513          	mv	a0,a5
    1218:	01c12403          	lw	s0,28(sp)
    121c:	02010113          	add	sp,sp,32
    1220:	00008067          	ret

00001224 <_ZL5inputR14command_buffer>:
    1224:	fd010113          	add	sp,sp,-48
    1228:	02112623          	sw	ra,44(sp)
    122c:	02812423          	sw	s0,40(sp)
    1230:	03010413          	add	s0,sp,48
    1234:	fca42e23          	sw	a0,-36(s0)
    1238:	fdc42503          	lw	a0,-36(s0)
    123c:	00001097          	auipc	ra,0x1
    1240:	b44080e7          	jalr	-1212(ra) # 1d80 <_ZN14command_buffer5resetEv>
    1244:	00000097          	auipc	ra,0x0
    1248:	618080e7          	jalr	1560(ra) # 185c <_ZL14uart_read_charv>
    124c:	00050793          	mv	a5,a0
    1250:	fef407a3          	sb	a5,-17(s0)
    1254:	fef44703          	lbu	a4,-17(s0)
    1258:	01b00793          	li	a5,27
    125c:	00f71c63          	bne	a4,a5,1274 <_ZL5inputR14command_buffer+0x50>
    1260:	000037b7          	lui	a5,0x3
    1264:	70c78793          	add	a5,a5,1804 # 370c <_ZL21input_escape_sequence>
    1268:	01b00713          	li	a4,27
    126c:	00e78023          	sb	a4,0(a5)
    1270:	2f00006f          	j	1560 <_ZL5inputR14command_buffer+0x33c>
    1274:	000037b7          	lui	a5,0x3
    1278:	70c78793          	add	a5,a5,1804 # 370c <_ZL21input_escape_sequence>
    127c:	0007c703          	lbu	a4,0(a5)
    1280:	01b00793          	li	a5,27
    1284:	18f71663          	bne	a4,a5,1410 <_ZL5inputR14command_buffer+0x1ec>
    1288:	fef44703          	lbu	a4,-17(s0)
    128c:	05b00793          	li	a5,91
    1290:	00f71c63          	bne	a4,a5,12a8 <_ZL5inputR14command_buffer+0x84>
    1294:	000037b7          	lui	a5,0x3
    1298:	70c78793          	add	a5,a5,1804 # 370c <_ZL21input_escape_sequence>
    129c:	05b00713          	li	a4,91
    12a0:	00e780a3          	sb	a4,1(a5)
    12a4:	2bc0006f          	j	1560 <_ZL5inputR14command_buffer+0x33c>
    12a8:	000037b7          	lui	a5,0x3
    12ac:	70c78793          	add	a5,a5,1804 # 370c <_ZL21input_escape_sequence>
    12b0:	0017c703          	lbu	a4,1(a5)
    12b4:	05b00793          	li	a5,91
    12b8:	14f71c63          	bne	a4,a5,1410 <_ZL5inputR14command_buffer+0x1ec>
    12bc:	fef44703          	lbu	a4,-17(s0)
    12c0:	04400793          	li	a5,68
    12c4:	04f71463          	bne	a4,a5,130c <_ZL5inputR14command_buffer+0xe8>
    12c8:	fdc42503          	lw	a0,-36(s0)
    12cc:	00001097          	auipc	ra,0x1
    12d0:	b58080e7          	jalr	-1192(ra) # 1e24 <_ZN14command_buffer16move_cursor_leftEv>
    12d4:	00050793          	mv	a5,a0
    12d8:	02078463          	beqz	a5,1300 <_ZL5inputR14command_buffer+0xdc>
    12dc:	01b00513          	li	a0,27
    12e0:	00000097          	auipc	ra,0x0
    12e4:	530080e7          	jalr	1328(ra) # 1810 <_ZL14uart_send_charc>
    12e8:	05b00513          	li	a0,91
    12ec:	00000097          	auipc	ra,0x0
    12f0:	524080e7          	jalr	1316(ra) # 1810 <_ZL14uart_send_charc>
    12f4:	04400513          	li	a0,68
    12f8:	00000097          	auipc	ra,0x0
    12fc:	518080e7          	jalr	1304(ra) # 1810 <_ZL14uart_send_charc>
    1300:	00000097          	auipc	ra,0x0
    1304:	ce0080e7          	jalr	-800(ra) # fe0 <_ZL27input_escape_sequence_clearv>
    1308:	2580006f          	j	1560 <_ZL5inputR14command_buffer+0x33c>
    130c:	fef44703          	lbu	a4,-17(s0)
    1310:	04300793          	li	a5,67
    1314:	04f71463          	bne	a4,a5,135c <_ZL5inputR14command_buffer+0x138>
    1318:	fdc42503          	lw	a0,-36(s0)
    131c:	00001097          	auipc	ra,0x1
    1320:	b58080e7          	jalr	-1192(ra) # 1e74 <_ZN14command_buffer17move_cursor_rightEv>
    1324:	00050793          	mv	a5,a0
    1328:	02078463          	beqz	a5,1350 <_ZL5inputR14command_buffer+0x12c>
    132c:	01b00513          	li	a0,27
    1330:	00000097          	auipc	ra,0x0
    1334:	4e0080e7          	jalr	1248(ra) # 1810 <_ZL14uart_send_charc>
    1338:	05b00513          	li	a0,91
    133c:	00000097          	auipc	ra,0x0
    1340:	4d4080e7          	jalr	1236(ra) # 1810 <_ZL14uart_send_charc>
    1344:	04300513          	li	a0,67
    1348:	00000097          	auipc	ra,0x0
    134c:	4c8080e7          	jalr	1224(ra) # 1810 <_ZL14uart_send_charc>
    1350:	00000097          	auipc	ra,0x0
    1354:	c90080e7          	jalr	-880(ra) # fe0 <_ZL27input_escape_sequence_clearv>
    1358:	2080006f          	j	1560 <_ZL5inputR14command_buffer+0x33c>
    135c:	fef44703          	lbu	a4,-17(s0)
    1360:	03300793          	li	a5,51
    1364:	00f71c63          	bne	a4,a5,137c <_ZL5inputR14command_buffer+0x158>
    1368:	000037b7          	lui	a5,0x3
    136c:	70c78793          	add	a5,a5,1804 # 370c <_ZL21input_escape_sequence>
    1370:	03300713          	li	a4,51
    1374:	00e78123          	sb	a4,2(a5)
    1378:	1e80006f          	j	1560 <_ZL5inputR14command_buffer+0x33c>
    137c:	000037b7          	lui	a5,0x3
    1380:	70c78793          	add	a5,a5,1804 # 370c <_ZL21input_escape_sequence>
    1384:	0027c703          	lbu	a4,2(a5)
    1388:	03300793          	li	a5,51
    138c:	06f71c63          	bne	a4,a5,1404 <_ZL5inputR14command_buffer+0x1e0>
    1390:	fef44703          	lbu	a4,-17(s0)
    1394:	07e00793          	li	a5,126
    1398:	06f71063          	bne	a4,a5,13f8 <_ZL5inputR14command_buffer+0x1d4>
    139c:	fdc42503          	lw	a0,-36(s0)
    13a0:	00001097          	auipc	ra,0x1
    13a4:	938080e7          	jalr	-1736(ra) # 1cd8 <_ZN14command_buffer3delEv>
    13a8:	fe440793          	add	a5,s0,-28
    13ac:	00078513          	mv	a0,a5
    13b0:	00000097          	auipc	ra,0x0
    13b4:	d04080e7          	jalr	-764(ra) # 10b4 <_ZZL5inputR14command_bufferENKUlcE_cvPFvcEEv>
    13b8:	00050793          	mv	a5,a0
    13bc:	00078593          	mv	a1,a5
    13c0:	fdc42503          	lw	a0,-36(s0)
    13c4:	00001097          	auipc	ra,0x1
    13c8:	b08080e7          	jalr	-1272(ra) # 1ecc <_ZN14command_buffer33apply_on_chars_from_cursor_to_endEPFvcE>
    13cc:	02000513          	li	a0,32
    13d0:	00000097          	auipc	ra,0x0
    13d4:	440080e7          	jalr	1088(ra) # 1810 <_ZL14uart_send_charc>
    13d8:	fdc42503          	lw	a0,-36(s0)
    13dc:	00001097          	auipc	ra,0x1
    13e0:	b6c080e7          	jalr	-1172(ra) # 1f48 <_ZN14command_buffer23characters_after_cursorEv>
    13e4:	00050793          	mv	a5,a0
    13e8:	00178793          	add	a5,a5,1
    13ec:	00078513          	mv	a0,a5
    13f0:	00000097          	auipc	ra,0x0
    13f4:	330080e7          	jalr	816(ra) # 1720 <_ZL19uart_send_move_backj>
    13f8:	00000097          	auipc	ra,0x0
    13fc:	be8080e7          	jalr	-1048(ra) # fe0 <_ZL27input_escape_sequence_clearv>
    1400:	1600006f          	j	1560 <_ZL5inputR14command_buffer+0x33c>
    1404:	00000097          	auipc	ra,0x0
    1408:	bdc080e7          	jalr	-1060(ra) # fe0 <_ZL27input_escape_sequence_clearv>
    140c:	1540006f          	j	1560 <_ZL5inputR14command_buffer+0x33c>
    1410:	fef44703          	lbu	a4,-17(s0)
    1414:	07f00793          	li	a5,127
    1418:	06f71e63          	bne	a4,a5,1494 <_ZL5inputR14command_buffer+0x270>
    141c:	fdc42503          	lw	a0,-36(s0)
    1420:	00000097          	auipc	ra,0x0
    1424:	7ac080e7          	jalr	1964(ra) # 1bcc <_ZN14command_buffer9backspaceEv>
    1428:	00050793          	mv	a5,a0
    142c:	10078663          	beqz	a5,1538 <_ZL5inputR14command_buffer+0x314>
    1430:	fef44783          	lbu	a5,-17(s0)
    1434:	00078513          	mv	a0,a5
    1438:	00000097          	auipc	ra,0x0
    143c:	3d8080e7          	jalr	984(ra) # 1810 <_ZL14uart_send_charc>
    1440:	fe840793          	add	a5,s0,-24
    1444:	00078513          	mv	a0,a5
    1448:	00000097          	auipc	ra,0x0
    144c:	d10080e7          	jalr	-752(ra) # 1158 <_ZZL5inputR14command_bufferENKUlcE0_cvPFvcEEv>
    1450:	00050793          	mv	a5,a0
    1454:	00078593          	mv	a1,a5
    1458:	fdc42503          	lw	a0,-36(s0)
    145c:	00001097          	auipc	ra,0x1
    1460:	a70080e7          	jalr	-1424(ra) # 1ecc <_ZN14command_buffer33apply_on_chars_from_cursor_to_endEPFvcE>
    1464:	02000513          	li	a0,32
    1468:	00000097          	auipc	ra,0x0
    146c:	3a8080e7          	jalr	936(ra) # 1810 <_ZL14uart_send_charc>
    1470:	fdc42503          	lw	a0,-36(s0)
    1474:	00001097          	auipc	ra,0x1
    1478:	ad4080e7          	jalr	-1324(ra) # 1f48 <_ZN14command_buffer23characters_after_cursorEv>
    147c:	00050793          	mv	a5,a0
    1480:	00178793          	add	a5,a5,1
    1484:	00078513          	mv	a0,a5
    1488:	00000097          	auipc	ra,0x0
    148c:	298080e7          	jalr	664(ra) # 1720 <_ZL19uart_send_move_backj>
    1490:	0a80006f          	j	1538 <_ZL5inputR14command_buffer+0x314>
    1494:	fef44703          	lbu	a4,-17(s0)
    1498:	00d00793          	li	a5,13
    149c:	00f70c63          	beq	a4,a5,14b4 <_ZL5inputR14command_buffer+0x290>
    14a0:	fdc42503          	lw	a0,-36(s0)
    14a4:	00001097          	auipc	ra,0x1
    14a8:	94c080e7          	jalr	-1716(ra) # 1df0 <_ZN14command_buffer7is_fullEv>
    14ac:	00050793          	mv	a5,a0
    14b0:	00078663          	beqz	a5,14bc <_ZL5inputR14command_buffer+0x298>
    14b4:	00100793          	li	a5,1
    14b8:	0080006f          	j	14c0 <_ZL5inputR14command_buffer+0x29c>
    14bc:	00000793          	li	a5,0
    14c0:	00078a63          	beqz	a5,14d4 <_ZL5inputR14command_buffer+0x2b0>
    14c4:	fdc42503          	lw	a0,-36(s0)
    14c8:	00001097          	auipc	ra,0x1
    14cc:	8f0080e7          	jalr	-1808(ra) # 1db8 <_ZN14command_buffer7set_eosEv>
    14d0:	0940006f          	j	1564 <_ZL5inputR14command_buffer+0x340>
    14d4:	fef44783          	lbu	a5,-17(s0)
    14d8:	00078513          	mv	a0,a5
    14dc:	00000097          	auipc	ra,0x0
    14e0:	334080e7          	jalr	820(ra) # 1810 <_ZL14uart_send_charc>
    14e4:	fef44783          	lbu	a5,-17(s0)
    14e8:	00078593          	mv	a1,a5
    14ec:	fdc42503          	lw	a0,-36(s0)
    14f0:	00000097          	auipc	ra,0x0
    14f4:	590080e7          	jalr	1424(ra) # 1a80 <_ZN14command_buffer6insertEc>
    14f8:	fec40793          	add	a5,s0,-20
    14fc:	00078513          	mv	a0,a5
    1500:	00000097          	auipc	ra,0x0
    1504:	cfc080e7          	jalr	-772(ra) # 11fc <_ZZL5inputR14command_bufferENKUlcE1_cvPFvcEEv>
    1508:	00050793          	mv	a5,a0
    150c:	00078593          	mv	a1,a5
    1510:	fdc42503          	lw	a0,-36(s0)
    1514:	00001097          	auipc	ra,0x1
    1518:	9b8080e7          	jalr	-1608(ra) # 1ecc <_ZN14command_buffer33apply_on_chars_from_cursor_to_endEPFvcE>
    151c:	fdc42503          	lw	a0,-36(s0)
    1520:	00001097          	auipc	ra,0x1
    1524:	a28080e7          	jalr	-1496(ra) # 1f48 <_ZN14command_buffer23characters_after_cursorEv>
    1528:	00050793          	mv	a5,a0
    152c:	00078513          	mv	a0,a5
    1530:	00000097          	auipc	ra,0x0
    1534:	1f0080e7          	jalr	496(ra) # 1720 <_ZL19uart_send_move_backj>
    1538:	fdc42503          	lw	a0,-36(s0)
    153c:	00001097          	auipc	ra,0x1
    1540:	a68080e7          	jalr	-1432(ra) # 1fa4 <_ZN14command_buffer12input_lengthEv>
    1544:	00050793          	mv	a5,a0
    1548:	0ff7f793          	zext.b	a5,a5
    154c:	fff7c793          	not	a5,a5
    1550:	0ff7f793          	zext.b	a5,a5
    1554:	00078513          	mv	a0,a5
    1558:	00000097          	auipc	ra,0x0
    155c:	220080e7          	jalr	544(ra) # 1778 <_ZL7led_seth>
    1560:	ce5ff06f          	j	1244 <_ZL5inputR14command_buffer+0x20>
    1564:	02c12083          	lw	ra,44(sp)
    1568:	02812403          	lw	s0,40(sp)
    156c:	03010113          	add	sp,sp,48
    1570:	00008067          	ret

00001574 <_ZL13strings_equalPKcS0_>:
    1574:	fe010113          	add	sp,sp,-32
    1578:	00812e23          	sw	s0,28(sp)
    157c:	02010413          	add	s0,sp,32
    1580:	fea42623          	sw	a0,-20(s0)
    1584:	feb42423          	sw	a1,-24(s0)
    1588:	fec42783          	lw	a5,-20(s0)
    158c:	0007c703          	lbu	a4,0(a5)
    1590:	fe842783          	lw	a5,-24(s0)
    1594:	0007c783          	lbu	a5,0(a5)
    1598:	00f70663          	beq	a4,a5,15a4 <_ZL13strings_equalPKcS0_+0x30>
    159c:	00000793          	li	a5,0
    15a0:	0400006f          	j	15e0 <_ZL13strings_equalPKcS0_+0x6c>
    15a4:	fec42783          	lw	a5,-20(s0)
    15a8:	0007c783          	lbu	a5,0(a5)
    15ac:	00079c63          	bnez	a5,15c4 <_ZL13strings_equalPKcS0_+0x50>
    15b0:	fe842783          	lw	a5,-24(s0)
    15b4:	0007c783          	lbu	a5,0(a5)
    15b8:	00079663          	bnez	a5,15c4 <_ZL13strings_equalPKcS0_+0x50>
    15bc:	00100793          	li	a5,1
    15c0:	0200006f          	j	15e0 <_ZL13strings_equalPKcS0_+0x6c>
    15c4:	fec42783          	lw	a5,-20(s0)
    15c8:	00178793          	add	a5,a5,1
    15cc:	fef42623          	sw	a5,-20(s0)
    15d0:	fe842783          	lw	a5,-24(s0)
    15d4:	00178793          	add	a5,a5,1
    15d8:	fef42423          	sw	a5,-24(s0)
    15dc:	fadff06f          	j	1588 <_ZL13strings_equalPKcS0_+0x14>
    15e0:	00078513          	mv	a0,a5
    15e4:	01c12403          	lw	s0,28(sp)
    15e8:	02010113          	add	sp,sp,32
    15ec:	00008067          	ret

000015f0 <_ZL11string_copyPKcjPc>:
    15f0:	fe010113          	add	sp,sp,-32
    15f4:	00812e23          	sw	s0,28(sp)
    15f8:	02010413          	add	s0,sp,32
    15fc:	fea42623          	sw	a0,-20(s0)
    1600:	feb42423          	sw	a1,-24(s0)
    1604:	fec42223          	sw	a2,-28(s0)
    1608:	0240006f          	j	162c <_ZL11string_copyPKcjPc+0x3c>
    160c:	fec42783          	lw	a5,-20(s0)
    1610:	00178713          	add	a4,a5,1
    1614:	fee42623          	sw	a4,-20(s0)
    1618:	0007c703          	lbu	a4,0(a5)
    161c:	fe442783          	lw	a5,-28(s0)
    1620:	00178693          	add	a3,a5,1
    1624:	fed42223          	sw	a3,-28(s0)
    1628:	00e78023          	sb	a4,0(a5)
    162c:	fe842783          	lw	a5,-24(s0)
    1630:	fff78713          	add	a4,a5,-1
    1634:	fee42423          	sw	a4,-24(s0)
    1638:	00f037b3          	snez	a5,a5
    163c:	0ff7f793          	zext.b	a5,a5
    1640:	fc0796e3          	bnez	a5,160c <_ZL11string_copyPKcjPc+0x1c>
    1644:	00000013          	nop
    1648:	00000013          	nop
    164c:	01c12403          	lw	s0,28(sp)
    1650:	02010113          	add	sp,sp,32
    1654:	00008067          	ret

00001658 <_ZL18uart_send_hex_bytec>:
    1658:	fe010113          	add	sp,sp,-32
    165c:	00112e23          	sw	ra,28(sp)
    1660:	00812c23          	sw	s0,24(sp)
    1664:	02010413          	add	s0,sp,32
    1668:	00050793          	mv	a5,a0
    166c:	fef407a3          	sb	a5,-17(s0)
    1670:	fef44783          	lbu	a5,-17(s0)
    1674:	0047d793          	srl	a5,a5,0x4
    1678:	0ff7f793          	zext.b	a5,a5
    167c:	00078513          	mv	a0,a5
    1680:	00000097          	auipc	ra,0x0
    1684:	034080e7          	jalr	52(ra) # 16b4 <_ZL20uart_send_hex_nibblec>
    1688:	fef44783          	lbu	a5,-17(s0)
    168c:	00f7f793          	and	a5,a5,15
    1690:	0ff7f793          	zext.b	a5,a5
    1694:	00078513          	mv	a0,a5
    1698:	00000097          	auipc	ra,0x0
    169c:	01c080e7          	jalr	28(ra) # 16b4 <_ZL20uart_send_hex_nibblec>
    16a0:	00000013          	nop
    16a4:	01c12083          	lw	ra,28(sp)
    16a8:	01812403          	lw	s0,24(sp)
    16ac:	02010113          	add	sp,sp,32
    16b0:	00008067          	ret

000016b4 <_ZL20uart_send_hex_nibblec>:
    16b4:	fe010113          	add	sp,sp,-32
    16b8:	00112e23          	sw	ra,28(sp)
    16bc:	00812c23          	sw	s0,24(sp)
    16c0:	02010413          	add	s0,sp,32
    16c4:	00050793          	mv	a5,a0
    16c8:	fef407a3          	sb	a5,-17(s0)
    16cc:	fef44703          	lbu	a4,-17(s0)
    16d0:	00900793          	li	a5,9
    16d4:	02e7e063          	bltu	a5,a4,16f4 <_ZL20uart_send_hex_nibblec+0x40>
    16d8:	fef44783          	lbu	a5,-17(s0)
    16dc:	03078793          	add	a5,a5,48
    16e0:	0ff7f793          	zext.b	a5,a5
    16e4:	00078513          	mv	a0,a5
    16e8:	00000097          	auipc	ra,0x0
    16ec:	128080e7          	jalr	296(ra) # 1810 <_ZL14uart_send_charc>
    16f0:	01c0006f          	j	170c <_ZL20uart_send_hex_nibblec+0x58>
    16f4:	fef44783          	lbu	a5,-17(s0)
    16f8:	03778793          	add	a5,a5,55
    16fc:	0ff7f793          	zext.b	a5,a5
    1700:	00078513          	mv	a0,a5
    1704:	00000097          	auipc	ra,0x0
    1708:	10c080e7          	jalr	268(ra) # 1810 <_ZL14uart_send_charc>
    170c:	00000013          	nop
    1710:	01c12083          	lw	ra,28(sp)
    1714:	01812403          	lw	s0,24(sp)
    1718:	02010113          	add	sp,sp,32
    171c:	00008067          	ret

00001720 <_ZL19uart_send_move_backj>:
    1720:	fd010113          	add	sp,sp,-48
    1724:	02112623          	sw	ra,44(sp)
    1728:	02812423          	sw	s0,40(sp)
    172c:	03010413          	add	s0,sp,48
    1730:	fca42e23          	sw	a0,-36(s0)
    1734:	fe042623          	sw	zero,-20(s0)
    1738:	01c0006f          	j	1754 <_ZL19uart_send_move_backj+0x34>
    173c:	00800513          	li	a0,8
    1740:	00000097          	auipc	ra,0x0
    1744:	0d0080e7          	jalr	208(ra) # 1810 <_ZL14uart_send_charc>
    1748:	fec42783          	lw	a5,-20(s0)
    174c:	00178793          	add	a5,a5,1
    1750:	fef42623          	sw	a5,-20(s0)
    1754:	fec42703          	lw	a4,-20(s0)
    1758:	fdc42783          	lw	a5,-36(s0)
    175c:	fef760e3          	bltu	a4,a5,173c <_ZL19uart_send_move_backj+0x1c>
    1760:	00000013          	nop
    1764:	00000013          	nop
    1768:	02c12083          	lw	ra,44(sp)
    176c:	02812403          	lw	s0,40(sp)
    1770:	03010113          	add	sp,sp,48
    1774:	00008067          	ret

00001778 <_ZL7led_seth>:
# static auto led_set(uint8_t bits) -> void { *LED = bits; }
    1778:	fe010113          	add	sp,sp,-32
    177c:	00812e23          	sw	s0,28(sp)
    1780:	02010413          	add	s0,sp,32
    1784:	00050793          	mv	a5,a0
    1788:	fef407a3          	sb	a5,-17(s0)
    178c:	fff00793          	li	a5,-1
    1790:	fef44703          	lbu	a4,-17(s0)
    1794:	00e78023          	sb	a4,0(a5)
    1798:	00000013          	nop
    179c:	01c12403          	lw	s0,28(sp)
    17a0:	02010113          	add	sp,sp,32
    17a4:	00008067          	ret

000017a8 <_ZL13uart_send_strPKc>:
# static auto uart_send_str(char const *str) -> void {
    17a8:	fe010113          	add	sp,sp,-32
    17ac:	00812e23          	sw	s0,28(sp)
    17b0:	02010413          	add	s0,sp,32
    17b4:	fea42623          	sw	a0,-20(s0)
#   while (*str) {
    17b8:	0380006f          	j	17f0 <_ZL13uart_send_strPKc+0x48>
#     while (*UART_OUT)
    17bc:	00000013          	nop
    17c0:	ffe00793          	li	a5,-2
    17c4:	0007c783          	lbu	a5,0(a5)
    17c8:	0ff7f793          	zext.b	a5,a5
    17cc:	00f037b3          	snez	a5,a5
    17d0:	0ff7f793          	zext.b	a5,a5
    17d4:	fe0796e3          	bnez	a5,17c0 <_ZL13uart_send_strPKc+0x18>
#     *UART_OUT = *str++;
    17d8:	fec42783          	lw	a5,-20(s0)
    17dc:	00178713          	add	a4,a5,1
    17e0:	fee42623          	sw	a4,-20(s0)
    17e4:	ffe00713          	li	a4,-2
    17e8:	0007c783          	lbu	a5,0(a5)
    17ec:	00f70023          	sb	a5,0(a4)
#   while (*str) {
    17f0:	fec42783          	lw	a5,-20(s0)
    17f4:	0007c783          	lbu	a5,0(a5)
    17f8:	fc0792e3          	bnez	a5,17bc <_ZL13uart_send_strPKc+0x14>
# }
    17fc:	00000013          	nop
    1800:	00000013          	nop
    1804:	01c12403          	lw	s0,28(sp)
    1808:	02010113          	add	sp,sp,32
    180c:	00008067          	ret

00001810 <_ZL14uart_send_charc>:
# static auto uart_send_char(char const ch) -> void {
    1810:	fe010113          	add	sp,sp,-32
    1814:	00812e23          	sw	s0,28(sp)
    1818:	02010413          	add	s0,sp,32
    181c:	00050793          	mv	a5,a0
    1820:	fef407a3          	sb	a5,-17(s0)
#   while (*UART_OUT)
    1824:	00000013          	nop
    1828:	ffe00793          	li	a5,-2
    182c:	0007c783          	lbu	a5,0(a5)
    1830:	0ff7f793          	zext.b	a5,a5
    1834:	00f037b3          	snez	a5,a5
    1838:	0ff7f793          	zext.b	a5,a5
    183c:	fe0796e3          	bnez	a5,1828 <_ZL14uart_send_charc+0x18>
#   *UART_OUT = ch;
    1840:	ffe00793          	li	a5,-2
    1844:	fef44703          	lbu	a4,-17(s0)
    1848:	00e78023          	sb	a4,0(a5)
# }
    184c:	00000013          	nop
    1850:	01c12403          	lw	s0,28(sp)
    1854:	02010113          	add	sp,sp,32
    1858:	00008067          	ret

0000185c <_ZL14uart_read_charv>:
# static auto uart_read_char() -> char {
    185c:	fe010113          	add	sp,sp,-32
    1860:	00812e23          	sw	s0,28(sp)
    1864:	02010413          	add	s0,sp,32
#   while ((ch = *UART_IN) == 0)
    1868:	00000013          	nop
    186c:	ffd00793          	li	a5,-3
    1870:	0007c783          	lbu	a5,0(a5)
    1874:	fef407a3          	sb	a5,-17(s0)
    1878:	fef44783          	lbu	a5,-17(s0)
    187c:	0017b793          	seqz	a5,a5
    1880:	0ff7f793          	zext.b	a5,a5
    1884:	fe0794e3          	bnez	a5,186c <_ZL14uart_read_charv+0x10>
#   return ch;
    1888:	fef44783          	lbu	a5,-17(s0)
# }
    188c:	00078513          	mv	a0,a5
    1890:	01c12403          	lw	s0,28(sp)
    1894:	02010113          	add	sp,sp,32
    1898:	00008067          	ret

0000189c <_ZL15action_mem_testv>:
# static auto action_mem_test() -> void {
    189c:	fe010113          	add	sp,sp,-32
    18a0:	00112e23          	sw	ra,28(sp)
    18a4:	00812c23          	sw	s0,24(sp)
    18a8:	02010413          	add	s0,sp,32
#   uart_send_str("testing memory (write)\r\n");
    18ac:	000037b7          	lui	a5,0x3
    18b0:	a5078513          	add	a0,a5,-1456 # 2a50 <_ZN4listIhLi8EE6removeEh+0x6e8>
    18b4:	00000097          	auipc	ra,0x0
    18b8:	ef4080e7          	jalr	-268(ra) # 17a8 <_ZL13uart_send_strPKc>
#   char *ptr = reinterpret_cast<char *>(0x10000);
    18bc:	000107b7          	lui	a5,0x10
    18c0:	fef42623          	sw	a5,-20(s0)
#   char const *end = reinterpret_cast<char *>(MEMORY_TOP - 1024);
    18c4:	002007b7          	lui	a5,0x200
    18c8:	c0078793          	add	a5,a5,-1024 # 1ffc00 <__bss_end+0x1fc4ec>
    18cc:	fef42223          	sw	a5,-28(s0)
#   char ch = 0;
    18d0:	fe0405a3          	sb	zero,-21(s0)
#   while (ptr < end) {
    18d4:	0200006f          	j	18f4 <_ZL15action_mem_testv+0x58>
#     *ptr++ = ch++;
    18d8:	feb44703          	lbu	a4,-21(s0)
    18dc:	00170793          	add	a5,a4,1
    18e0:	fef405a3          	sb	a5,-21(s0)
    18e4:	fec42783          	lw	a5,-20(s0)
    18e8:	00178693          	add	a3,a5,1
    18ec:	fed42623          	sw	a3,-20(s0)
    18f0:	00e78023          	sb	a4,0(a5)
#   while (ptr < end) {
    18f4:	fec42703          	lw	a4,-20(s0)
    18f8:	fe442783          	lw	a5,-28(s0)
    18fc:	fcf76ee3          	bltu	a4,a5,18d8 <_ZL15action_mem_testv+0x3c>
#   uart_send_str("testing memory (read)\r\n");
    1900:	000037b7          	lui	a5,0x3
    1904:	a6c78513          	add	a0,a5,-1428 # 2a6c <_ZN4listIhLi8EE6removeEh+0x704>
    1908:	00000097          	auipc	ra,0x0
    190c:	ea0080e7          	jalr	-352(ra) # 17a8 <_ZL13uart_send_strPKc>
#   ptr = reinterpret_cast<char *>(0x10000);
    1910:	000107b7          	lui	a5,0x10
    1914:	fef42623          	sw	a5,-20(s0)
#   ch = 0;
    1918:	fe0405a3          	sb	zero,-21(s0)
#   while (ptr < end) {
    191c:	0440006f          	j	1960 <_ZL15action_mem_testv+0xc4>
#     if (*ptr++ != ch++) {
    1920:	fec42783          	lw	a5,-20(s0)
    1924:	00178713          	add	a4,a5,1 # 10001 <__bss_end+0xc8ed>
    1928:	fee42623          	sw	a4,-20(s0)
    192c:	0007c703          	lbu	a4,0(a5)
    1930:	feb44783          	lbu	a5,-21(s0)
    1934:	00178693          	add	a3,a5,1
    1938:	fed405a3          	sb	a3,-21(s0)
    193c:	40f707b3          	sub	a5,a4,a5
    1940:	00f037b3          	snez	a5,a5
    1944:	0ff7f793          	zext.b	a5,a5
    1948:	00078c63          	beqz	a5,1960 <_ZL15action_mem_testv+0xc4>
#       uart_send_str("!!! test memory failed\r\n");
    194c:	000037b7          	lui	a5,0x3
    1950:	a8478513          	add	a0,a5,-1404 # 2a84 <_ZN4listIhLi8EE6removeEh+0x71c>
    1954:	00000097          	auipc	ra,0x0
    1958:	e54080e7          	jalr	-428(ra) # 17a8 <_ZL13uart_send_strPKc>
#       return;
    195c:	0200006f          	j	197c <_ZL15action_mem_testv+0xe0>
#   while (ptr < end) {
    1960:	fec42703          	lw	a4,-20(s0)
    1964:	fe442783          	lw	a5,-28(s0)
    1968:	faf76ce3          	bltu	a4,a5,1920 <_ZL15action_mem_testv+0x84>
#   uart_send_str("testing memory succeeded\r\n");
    196c:	000037b7          	lui	a5,0x3
    1970:	aa078513          	add	a0,a5,-1376 # 2aa0 <_ZN4listIhLi8EE6removeEh+0x738>
    1974:	00000097          	auipc	ra,0x0
    1978:	e34080e7          	jalr	-460(ra) # 17a8 <_ZL13uart_send_strPKc>
# }
    197c:	01c12083          	lw	ra,28(sp)
    1980:	01812403          	lw	s0,24(sp)
    1984:	02010113          	add	sp,sp,32
    1988:	00008067          	ret

0000198c <memset>:
# extern "C" auto memset(void *str, int ch, int n) -> void * {
    198c:	fd010113          	add	sp,sp,-48
    1990:	02812623          	sw	s0,44(sp)
    1994:	03010413          	add	s0,sp,48
    1998:	fca42e23          	sw	a0,-36(s0)
    199c:	fcb42c23          	sw	a1,-40(s0)
    19a0:	fcc42a23          	sw	a2,-44(s0)
#   char *ptr = reinterpret_cast<char *>(str);
    19a4:	fdc42783          	lw	a5,-36(s0)
    19a8:	fef42623          	sw	a5,-20(s0)
#   while (n--) {
    19ac:	01c0006f          	j	19c8 <memset+0x3c>
#     *ptr++ = char(ch);
    19b0:	fd842783          	lw	a5,-40(s0)
    19b4:	0ff7f713          	zext.b	a4,a5
    19b8:	fec42783          	lw	a5,-20(s0)
    19bc:	00178693          	add	a3,a5,1
    19c0:	fed42623          	sw	a3,-20(s0)
    19c4:	00e78023          	sb	a4,0(a5)
#   while (n--) {
    19c8:	fd442783          	lw	a5,-44(s0)
    19cc:	fff78713          	add	a4,a5,-1
    19d0:	fce42a23          	sw	a4,-44(s0)
    19d4:	00f037b3          	snez	a5,a5
    19d8:	0ff7f793          	zext.b	a5,a5
    19dc:	fc079ae3          	bnez	a5,19b0 <memset+0x24>
#   return str;
    19e0:	fdc42783          	lw	a5,-36(s0)
# }
    19e4:	00078513          	mv	a0,a5
    19e8:	02c12403          	lw	s0,44(sp)
    19ec:	03010113          	add	sp,sp,48
    19f0:	00008067          	ret

000019f4 <_ZL16startup_init_bssv>:
# static auto startup_init_bss() -> void {
    19f4:	ff010113          	add	sp,sp,-16
    19f8:	00112623          	sw	ra,12(sp)
    19fc:	00812423          	sw	s0,8(sp)
    1a00:	01010413          	add	s0,sp,16
#   memset(&__bss_start, 0, &__bss_end - &__bss_start);
    1a04:	000037b7          	lui	a5,0x3
    1a08:	71478713          	add	a4,a5,1812 # 3714 <__bss_end>
    1a0c:	000037b7          	lui	a5,0x3
    1a10:	70c78793          	add	a5,a5,1804 # 370c <_ZL21input_escape_sequence>
    1a14:	40f707b3          	sub	a5,a4,a5
    1a18:	00078613          	mv	a2,a5
    1a1c:	00000593          	li	a1,0
    1a20:	000037b7          	lui	a5,0x3
    1a24:	70c78513          	add	a0,a5,1804 # 370c <_ZL21input_escape_sequence>
    1a28:	00000097          	auipc	ra,0x0
    1a2c:	f64080e7          	jalr	-156(ra) # 198c <memset>
# }
    1a30:	00000013          	nop
    1a34:	00c12083          	lw	ra,12(sp)
    1a38:	00812403          	lw	s0,8(sp)
    1a3c:	01010113          	add	sp,sp,16
    1a40:	00008067          	ret

00001a44 <_ZL20startup_init_staticsv>:
# static auto startup_init_statics() -> void {}
    1a44:	ff010113          	add	sp,sp,-16
    1a48:	00812623          	sw	s0,12(sp)
    1a4c:	01010413          	add	s0,sp,16
    1a50:	00000013          	nop
    1a54:	00c12403          	lw	s0,12(sp)
    1a58:	01010113          	add	sp,sp,16
    1a5c:	00008067          	ret

00001a60 <_ZL4exiti>:
    1a60:	fe010113          	add	sp,sp,-32
    1a64:	00812e23          	sw	s0,28(sp)
    1a68:	02010413          	add	s0,sp,32
    1a6c:	fea42623          	sw	a0,-20(s0)
    1a70:	00000013          	nop
    1a74:	01c12403          	lw	s0,28(sp)
    1a78:	02010113          	add	sp,sp,32
    1a7c:	00008067          	ret

00001a80 <_ZN14command_buffer6insertEc>:
#   char ch;
    1a80:	fd010113          	add	sp,sp,-48
    1a84:	02812623          	sw	s0,44(sp)
    1a88:	03010413          	add	s0,sp,48
    1a8c:	fca42e23          	sw	a0,-36(s0)
    1a90:	00058793          	mv	a5,a1
    1a94:	fcf40da3          	sb	a5,-37(s0)
#   while ((ch = *UART_IN) == 0)
    1a98:	fdc42783          	lw	a5,-36(s0)
    1a9c:	0517c703          	lbu	a4,81(a5)
    1aa0:	04f00793          	li	a5,79
    1aa4:	00f71663          	bne	a4,a5,1ab0 <_ZN14command_buffer6insertEc+0x30>
#     ;
    1aa8:	00000793          	li	a5,0
    1aac:	1100006f          	j	1bbc <_ZN14command_buffer6insertEc+0x13c>
# 
    1ab0:	fdc42783          	lw	a5,-36(s0)
    1ab4:	0507c703          	lbu	a4,80(a5)
    1ab8:	fdc42783          	lw	a5,-36(s0)
    1abc:	0517c783          	lbu	a5,81(a5)
    1ac0:	04f71c63          	bne	a4,a5,1b18 <_ZN14command_buffer6insertEc+0x98>
# // simple test of FPGA memory
    1ac4:	fdc42783          	lw	a5,-36(s0)
    1ac8:	0507c783          	lbu	a5,80(a5)
    1acc:	00078713          	mv	a4,a5
    1ad0:	fdc42783          	lw	a5,-36(s0)
    1ad4:	00e787b3          	add	a5,a5,a4
    1ad8:	fdb44703          	lbu	a4,-37(s0)
    1adc:	00e78023          	sb	a4,0(a5)
# static auto action_mem_test() -> void {
    1ae0:	fdc42783          	lw	a5,-36(s0)
    1ae4:	0507c783          	lbu	a5,80(a5)
    1ae8:	00178793          	add	a5,a5,1
    1aec:	0ff7f713          	zext.b	a4,a5
    1af0:	fdc42783          	lw	a5,-36(s0)
    1af4:	04e78823          	sb	a4,80(a5)
#   uart_send_str("testing memory (write)\r\n");
    1af8:	fdc42783          	lw	a5,-36(s0)
    1afc:	0517c783          	lbu	a5,81(a5)
    1b00:	00178793          	add	a5,a5,1
    1b04:	0ff7f713          	zext.b	a4,a5
    1b08:	fdc42783          	lw	a5,-36(s0)
    1b0c:	04e788a3          	sb	a4,81(a5)
#   char *ptr = reinterpret_cast<char *>(0x10000);
    1b10:	00100793          	li	a5,1
    1b14:	0a80006f          	j	1bbc <_ZN14command_buffer6insertEc+0x13c>
#   // ?? don't forget about this when the application grows
    1b18:	fdc42783          	lw	a5,-36(s0)
    1b1c:	0517c783          	lbu	a5,81(a5)
    1b20:	00178793          	add	a5,a5,1
    1b24:	0ff7f713          	zext.b	a4,a5
    1b28:	fdc42783          	lw	a5,-36(s0)
    1b2c:	04e788a3          	sb	a4,81(a5)
#   char ch = 0;
    1b30:	fdc42783          	lw	a5,-36(s0)
    1b34:	0517c783          	lbu	a5,81(a5)
    1b38:	fef42623          	sw	a5,-20(s0)
    1b3c:	0340006f          	j	1b70 <_ZN14command_buffer6insertEc+0xf0>
#   while (ptr < end) {
    1b40:	fec42783          	lw	a5,-20(s0)
    1b44:	fff78793          	add	a5,a5,-1
    1b48:	fdc42703          	lw	a4,-36(s0)
    1b4c:	00f707b3          	add	a5,a4,a5
    1b50:	0007c703          	lbu	a4,0(a5)
    1b54:	fdc42683          	lw	a3,-36(s0)
    1b58:	fec42783          	lw	a5,-20(s0)
    1b5c:	00f687b3          	add	a5,a3,a5
    1b60:	00e78023          	sb	a4,0(a5)
#   char ch = 0;
    1b64:	fec42783          	lw	a5,-20(s0)
    1b68:	fff78793          	add	a5,a5,-1
    1b6c:	fef42623          	sw	a5,-20(s0)
    1b70:	fdc42783          	lw	a5,-36(s0)
    1b74:	0507c783          	lbu	a5,80(a5)
    1b78:	00078713          	mv	a4,a5
    1b7c:	fec42783          	lw	a5,-20(s0)
    1b80:	fcf760e3          	bltu	a4,a5,1b40 <_ZN14command_buffer6insertEc+0xc0>
#   }
    1b84:	fdc42783          	lw	a5,-36(s0)
    1b88:	0507c783          	lbu	a5,80(a5)
    1b8c:	00078713          	mv	a4,a5
    1b90:	fdc42783          	lw	a5,-36(s0)
    1b94:	00e787b3          	add	a5,a5,a4
    1b98:	fdb44703          	lbu	a4,-37(s0)
    1b9c:	00e78023          	sb	a4,0(a5)
#   uart_send_str("testing memory (read)\r\n");
    1ba0:	fdc42783          	lw	a5,-36(s0)
    1ba4:	0507c783          	lbu	a5,80(a5)
    1ba8:	00178793          	add	a5,a5,1
    1bac:	0ff7f713          	zext.b	a4,a5
    1bb0:	fdc42783          	lw	a5,-36(s0)
    1bb4:	04e78823          	sb	a4,80(a5)
#   ptr = reinterpret_cast<char *>(0x10000);
    1bb8:	00100793          	li	a5,1
#   ch = 0;
    1bbc:	00078513          	mv	a0,a5
    1bc0:	02c12403          	lw	s0,44(sp)
    1bc4:	03010113          	add	sp,sp,48
    1bc8:	00008067          	ret

00001bcc <_ZN14command_buffer9backspaceEv>:
#     if (*ptr++ != ch++) {
    1bcc:	fd010113          	add	sp,sp,-48
    1bd0:	02812623          	sw	s0,44(sp)
    1bd4:	03010413          	add	s0,sp,48
    1bd8:	fca42e23          	sw	a0,-36(s0)
#       uart_send_str("!!! test memory failed\r\n");
    1bdc:	fdc42783          	lw	a5,-36(s0)
    1be0:	0507c783          	lbu	a5,80(a5)
    1be4:	00079663          	bnez	a5,1bf0 <_ZN14command_buffer9backspaceEv+0x24>
#       return;
    1be8:	00000793          	li	a5,0
    1bec:	0dc0006f          	j	1cc8 <_ZN14command_buffer9backspaceEv+0xfc>
#   uart_send_str("testing memory succeeded\r\n");
    1bf0:	fdc42783          	lw	a5,-36(s0)
    1bf4:	0507c703          	lbu	a4,80(a5)
    1bf8:	fdc42783          	lw	a5,-36(s0)
    1bfc:	0517c783          	lbu	a5,81(a5)
    1c00:	02f71e63          	bne	a4,a5,1c3c <_ZN14command_buffer9backspaceEv+0x70>
# }
    1c04:	fdc42783          	lw	a5,-36(s0)
    1c08:	0517c783          	lbu	a5,81(a5)
    1c0c:	fff78793          	add	a5,a5,-1
    1c10:	0ff7f713          	zext.b	a4,a5
    1c14:	fdc42783          	lw	a5,-36(s0)
    1c18:	04e788a3          	sb	a4,81(a5)
# 
    1c1c:	fdc42783          	lw	a5,-36(s0)
    1c20:	0507c783          	lbu	a5,80(a5)
    1c24:	fff78793          	add	a5,a5,-1
    1c28:	0ff7f713          	zext.b	a4,a5
    1c2c:	fdc42783          	lw	a5,-36(s0)
    1c30:	04e78823          	sb	a4,80(a5)
# // built-in function called by compiler
    1c34:	00100793          	li	a5,1
    1c38:	0900006f          	j	1cc8 <_ZN14command_buffer9backspaceEv+0xfc>
#   while (n--) {
    1c3c:	fdc42783          	lw	a5,-36(s0)
    1c40:	0507c783          	lbu	a5,80(a5)
    1c44:	fff78793          	add	a5,a5,-1
    1c48:	fef42623          	sw	a5,-20(s0)
    1c4c:	0340006f          	j	1c80 <_ZN14command_buffer9backspaceEv+0xb4>
#     *ptr++ = char(ch);
    1c50:	fec42783          	lw	a5,-20(s0)
    1c54:	00178793          	add	a5,a5,1
    1c58:	fdc42703          	lw	a4,-36(s0)
    1c5c:	00f707b3          	add	a5,a4,a5
    1c60:	0007c703          	lbu	a4,0(a5)
    1c64:	fdc42683          	lw	a3,-36(s0)
    1c68:	fec42783          	lw	a5,-20(s0)
    1c6c:	00f687b3          	add	a5,a3,a5
    1c70:	00e78023          	sb	a4,0(a5)
#   while (n--) {
    1c74:	fec42783          	lw	a5,-20(s0)
    1c78:	00178793          	add	a5,a5,1
    1c7c:	fef42623          	sw	a5,-20(s0)
    1c80:	fdc42783          	lw	a5,-36(s0)
    1c84:	0517c783          	lbu	a5,81(a5)
    1c88:	00078713          	mv	a4,a5
    1c8c:	fec42783          	lw	a5,-20(s0)
    1c90:	fce7e0e3          	bltu	a5,a4,1c50 <_ZN14command_buffer9backspaceEv+0x84>
#   return str;
    1c94:	fdc42783          	lw	a5,-36(s0)
    1c98:	0507c783          	lbu	a5,80(a5)
    1c9c:	fff78793          	add	a5,a5,-1
    1ca0:	0ff7f713          	zext.b	a4,a5
    1ca4:	fdc42783          	lw	a5,-36(s0)
    1ca8:	04e78823          	sb	a4,80(a5)
# }
    1cac:	fdc42783          	lw	a5,-36(s0)
    1cb0:	0517c783          	lbu	a5,81(a5)
    1cb4:	fff78793          	add	a5,a5,-1
    1cb8:	0ff7f713          	zext.b	a4,a5
    1cbc:	fdc42783          	lw	a5,-36(s0)
    1cc0:	04e788a3          	sb	a4,81(a5)
# 
    1cc4:	00100793          	li	a5,1
# // symbols to mark start and end of bss section
    1cc8:	00078513          	mv	a0,a5
    1ccc:	02c12403          	lw	s0,44(sp)
    1cd0:	03010113          	add	sp,sp,48
    1cd4:	00008067          	ret

00001cd8 <_ZN14command_buffer3delEv>:
# extern char __bss_end;
    1cd8:	fd010113          	add	sp,sp,-48
    1cdc:	02812623          	sw	s0,44(sp)
    1ce0:	03010413          	add	s0,sp,48
    1ce4:	fca42e23          	sw	a0,-36(s0)
# 
    1ce8:	fdc42783          	lw	a5,-36(s0)
    1cec:	0507c703          	lbu	a4,80(a5)
    1cf0:	fdc42783          	lw	a5,-36(s0)
    1cf4:	0517c783          	lbu	a5,81(a5)
    1cf8:	06f70c63          	beq	a4,a5,1d70 <_ZN14command_buffer3delEv+0x98>
# }
    1cfc:	fdc42783          	lw	a5,-36(s0)
    1d00:	0507c783          	lbu	a5,80(a5)
    1d04:	00178793          	add	a5,a5,1
    1d08:	fef42623          	sw	a5,-20(s0)
    1d0c:	0340006f          	j	1d40 <_ZN14command_buffer3delEv+0x68>
# 
    1d10:	fec42783          	lw	a5,-20(s0)
    1d14:	fff78793          	add	a5,a5,-1
    1d18:	fdc42683          	lw	a3,-36(s0)
    1d1c:	fec42703          	lw	a4,-20(s0)
    1d20:	00e68733          	add	a4,a3,a4
    1d24:	00074703          	lbu	a4,0(a4)
    1d28:	fdc42683          	lw	a3,-36(s0)
    1d2c:	00f687b3          	add	a5,a3,a5
    1d30:	00e78023          	sb	a4,0(a5)
# }
    1d34:	fec42783          	lw	a5,-20(s0)
    1d38:	00178793          	add	a5,a5,1
    1d3c:	fef42623          	sw	a5,-20(s0)
    1d40:	fdc42783          	lw	a5,-36(s0)
    1d44:	0517c783          	lbu	a5,81(a5)
    1d48:	00078713          	mv	a4,a5
    1d4c:	fec42783          	lw	a5,-20(s0)
    1d50:	fce7e0e3          	bltu	a5,a4,1d10 <_ZN14command_buffer3delEv+0x38>
# 
    1d54:	fdc42783          	lw	a5,-36(s0)
    1d58:	0517c783          	lbu	a5,81(a5)
    1d5c:	fff78793          	add	a5,a5,-1
    1d60:	0ff7f713          	zext.b	a4,a5
    1d64:	fdc42783          	lw	a5,-36(s0)
    1d68:	04e788a3          	sb	a4,81(a5)
    1d6c:	0080006f          	j	1d74 <_ZN14command_buffer3delEv+0x9c>
# // zero bss section
    1d70:	00000013          	nop
    1d74:	02c12403          	lw	s0,44(sp)
    1d78:	03010113          	add	sp,sp,48
    1d7c:	00008067          	ret

00001d80 <_ZN14command_buffer5resetEv>:
    1d80:	fe010113          	add	sp,sp,-32
    1d84:	00812e23          	sw	s0,28(sp)
    1d88:	02010413          	add	s0,sp,32
    1d8c:	fea42623          	sw	a0,-20(s0)
    1d90:	fec42783          	lw	a5,-20(s0)
    1d94:	040788a3          	sb	zero,81(a5)
    1d98:	fec42783          	lw	a5,-20(s0)
    1d9c:	0517c703          	lbu	a4,81(a5)
    1da0:	fec42783          	lw	a5,-20(s0)
    1da4:	04e78823          	sb	a4,80(a5)
    1da8:	00000013          	nop
    1dac:	01c12403          	lw	s0,28(sp)
    1db0:	02010113          	add	sp,sp,32
    1db4:	00008067          	ret

00001db8 <_ZN14command_buffer7set_eosEv>:
    1db8:	fe010113          	add	sp,sp,-32
    1dbc:	00812e23          	sw	s0,28(sp)
    1dc0:	02010413          	add	s0,sp,32
    1dc4:	fea42623          	sw	a0,-20(s0)
    1dc8:	fec42783          	lw	a5,-20(s0)
    1dcc:	0517c783          	lbu	a5,81(a5)
    1dd0:	00078713          	mv	a4,a5
    1dd4:	fec42783          	lw	a5,-20(s0)
    1dd8:	00e787b3          	add	a5,a5,a4
    1ddc:	00078023          	sb	zero,0(a5)
    1de0:	00000013          	nop
    1de4:	01c12403          	lw	s0,28(sp)
    1de8:	02010113          	add	sp,sp,32
    1dec:	00008067          	ret

00001df0 <_ZN14command_buffer7is_fullEv>:
    1df0:	fe010113          	add	sp,sp,-32
    1df4:	00812e23          	sw	s0,28(sp)
    1df8:	02010413          	add	s0,sp,32
    1dfc:	fea42623          	sw	a0,-20(s0)
    1e00:	fec42783          	lw	a5,-20(s0)
    1e04:	0517c783          	lbu	a5,81(a5)
    1e08:	fb178793          	add	a5,a5,-79
    1e0c:	0017b793          	seqz	a5,a5
    1e10:	0ff7f793          	zext.b	a5,a5
    1e14:	00078513          	mv	a0,a5
    1e18:	01c12403          	lw	s0,28(sp)
    1e1c:	02010113          	add	sp,sp,32
    1e20:	00008067          	ret

00001e24 <_ZN14command_buffer16move_cursor_leftEv>:
    1e24:	fe010113          	add	sp,sp,-32
    1e28:	00812e23          	sw	s0,28(sp)
    1e2c:	02010413          	add	s0,sp,32
    1e30:	fea42623          	sw	a0,-20(s0)
    1e34:	fec42783          	lw	a5,-20(s0)
    1e38:	0507c783          	lbu	a5,80(a5)
    1e3c:	00079663          	bnez	a5,1e48 <_ZN14command_buffer16move_cursor_leftEv+0x24>
    1e40:	00000793          	li	a5,0
    1e44:	0200006f          	j	1e64 <_ZN14command_buffer16move_cursor_leftEv+0x40>
    1e48:	fec42783          	lw	a5,-20(s0)
    1e4c:	0507c783          	lbu	a5,80(a5)
    1e50:	fff78793          	add	a5,a5,-1
    1e54:	0ff7f713          	zext.b	a4,a5
    1e58:	fec42783          	lw	a5,-20(s0)
    1e5c:	04e78823          	sb	a4,80(a5)
    1e60:	00100793          	li	a5,1
    1e64:	00078513          	mv	a0,a5
    1e68:	01c12403          	lw	s0,28(sp)
    1e6c:	02010113          	add	sp,sp,32
    1e70:	00008067          	ret

00001e74 <_ZN14command_buffer17move_cursor_rightEv>:
    1e74:	fe010113          	add	sp,sp,-32
    1e78:	00812e23          	sw	s0,28(sp)
    1e7c:	02010413          	add	s0,sp,32
    1e80:	fea42623          	sw	a0,-20(s0)
    1e84:	fec42783          	lw	a5,-20(s0)
    1e88:	0507c703          	lbu	a4,80(a5)
    1e8c:	fec42783          	lw	a5,-20(s0)
    1e90:	0517c783          	lbu	a5,81(a5)
    1e94:	00f71663          	bne	a4,a5,1ea0 <_ZN14command_buffer17move_cursor_rightEv+0x2c>
    1e98:	00000793          	li	a5,0
    1e9c:	0200006f          	j	1ebc <_ZN14command_buffer17move_cursor_rightEv+0x48>
    1ea0:	fec42783          	lw	a5,-20(s0)
    1ea4:	0507c783          	lbu	a5,80(a5)
    1ea8:	00178793          	add	a5,a5,1
    1eac:	0ff7f713          	zext.b	a4,a5
    1eb0:	fec42783          	lw	a5,-20(s0)
    1eb4:	04e78823          	sb	a4,80(a5)
    1eb8:	00100793          	li	a5,1
    1ebc:	00078513          	mv	a0,a5
    1ec0:	01c12403          	lw	s0,28(sp)
    1ec4:	02010113          	add	sp,sp,32
    1ec8:	00008067          	ret

00001ecc <_ZN14command_buffer33apply_on_chars_from_cursor_to_endEPFvcE>:
    1ecc:	fd010113          	add	sp,sp,-48
    1ed0:	02112623          	sw	ra,44(sp)
    1ed4:	02812423          	sw	s0,40(sp)
    1ed8:	03010413          	add	s0,sp,48
    1edc:	fca42e23          	sw	a0,-36(s0)
    1ee0:	fcb42c23          	sw	a1,-40(s0)
    1ee4:	fdc42783          	lw	a5,-36(s0)
    1ee8:	0507c783          	lbu	a5,80(a5)
    1eec:	fef42623          	sw	a5,-20(s0)
    1ef0:	02c0006f          	j	1f1c <_ZN14command_buffer33apply_on_chars_from_cursor_to_endEPFvcE+0x50>
    1ef4:	fd842783          	lw	a5,-40(s0)
    1ef8:	fdc42683          	lw	a3,-36(s0)
    1efc:	fec42703          	lw	a4,-20(s0)
    1f00:	00e68733          	add	a4,a3,a4
    1f04:	00074703          	lbu	a4,0(a4)
    1f08:	00070513          	mv	a0,a4
    1f0c:	000780e7          	jalr	a5
    1f10:	fec42783          	lw	a5,-20(s0)
    1f14:	00178793          	add	a5,a5,1
    1f18:	fef42623          	sw	a5,-20(s0)
    1f1c:	fdc42783          	lw	a5,-36(s0)
    1f20:	0517c783          	lbu	a5,81(a5)
    1f24:	00078713          	mv	a4,a5
    1f28:	fec42783          	lw	a5,-20(s0)
    1f2c:	fce7e4e3          	bltu	a5,a4,1ef4 <_ZN14command_buffer33apply_on_chars_from_cursor_to_endEPFvcE+0x28>
    1f30:	00000013          	nop
    1f34:	00000013          	nop
    1f38:	02c12083          	lw	ra,44(sp)
    1f3c:	02812403          	lw	s0,40(sp)
    1f40:	03010113          	add	sp,sp,48
    1f44:	00008067          	ret

00001f48 <_ZN14command_buffer23characters_after_cursorEv>:
    1f48:	fe010113          	add	sp,sp,-32
    1f4c:	00812e23          	sw	s0,28(sp)
    1f50:	02010413          	add	s0,sp,32
    1f54:	fea42623          	sw	a0,-20(s0)
    1f58:	fec42783          	lw	a5,-20(s0)
    1f5c:	0517c783          	lbu	a5,81(a5)
    1f60:	00078713          	mv	a4,a5
    1f64:	fec42783          	lw	a5,-20(s0)
    1f68:	0507c783          	lbu	a5,80(a5)
    1f6c:	40f707b3          	sub	a5,a4,a5
    1f70:	00078513          	mv	a0,a5
    1f74:	01c12403          	lw	s0,28(sp)
    1f78:	02010113          	add	sp,sp,32
    1f7c:	00008067          	ret

00001f80 <_ZN14command_buffer12command_lineEv>:
    1f80:	fe010113          	add	sp,sp,-32
    1f84:	00812e23          	sw	s0,28(sp)
    1f88:	02010413          	add	s0,sp,32
    1f8c:	fea42623          	sw	a0,-20(s0)
    1f90:	fec42783          	lw	a5,-20(s0)
    1f94:	00078513          	mv	a0,a5
    1f98:	01c12403          	lw	s0,28(sp)
    1f9c:	02010113          	add	sp,sp,32
    1fa0:	00008067          	ret

00001fa4 <_ZN14command_buffer12input_lengthEv>:
    1fa4:	fe010113          	add	sp,sp,-32
    1fa8:	00812e23          	sw	s0,28(sp)
    1fac:	02010413          	add	s0,sp,32
    1fb0:	fea42623          	sw	a0,-20(s0)
    1fb4:	fec42783          	lw	a5,-20(s0)
    1fb8:	0517c783          	lbu	a5,81(a5)
    1fbc:	00078513          	mv	a0,a5
    1fc0:	01c12403          	lw	s0,28(sp)
    1fc4:	02010113          	add	sp,sp,32
    1fc8:	00008067          	ret

00001fcc <_ZN4listIhLi128EE2atEj>:
    1fcc:	fe010113          	add	sp,sp,-32
    1fd0:	00812e23          	sw	s0,28(sp)
    1fd4:	02010413          	add	s0,sp,32
    1fd8:	fea42623          	sw	a0,-20(s0)
    1fdc:	feb42423          	sw	a1,-24(s0)
    1fe0:	fe842703          	lw	a4,-24(s0)
    1fe4:	07f00793          	li	a5,127
    1fe8:	00e7f663          	bgeu	a5,a4,1ff4 <_ZN4listIhLi128EE2atEj+0x28>
    1fec:	00000793          	li	a5,0
    1ff0:	0140006f          	j	2004 <_ZN4listIhLi128EE2atEj+0x38>
    1ff4:	fec42703          	lw	a4,-20(s0)
    1ff8:	fe842783          	lw	a5,-24(s0)
    1ffc:	00f707b3          	add	a5,a4,a5
    2000:	0007c783          	lbu	a5,0(a5)
    2004:	00078513          	mv	a0,a5
    2008:	01c12403          	lw	s0,28(sp)
    200c:	02010113          	add	sp,sp,32
    2010:	00008067          	ret

00002014 <_ZN4listIhLi8EE2atEj>:
    2014:	fe010113          	add	sp,sp,-32
    2018:	00812e23          	sw	s0,28(sp)
    201c:	02010413          	add	s0,sp,32
    2020:	fea42623          	sw	a0,-20(s0)
    2024:	feb42423          	sw	a1,-24(s0)
    2028:	fe842703          	lw	a4,-24(s0)
    202c:	00700793          	li	a5,7
    2030:	00e7f663          	bgeu	a5,a4,203c <_ZN4listIhLi8EE2atEj+0x28>
    2034:	00000793          	li	a5,0
    2038:	0140006f          	j	204c <_ZN4listIhLi8EE2atEj+0x38>
    203c:	fec42703          	lw	a4,-20(s0)
    2040:	fe842783          	lw	a5,-24(s0)
    2044:	00f707b3          	add	a5,a4,a5
    2048:	0007c783          	lbu	a5,0(a5)
    204c:	00078513          	mv	a0,a5
    2050:	01c12403          	lw	s0,28(sp)
    2054:	02010113          	add	sp,sp,32
    2058:	00008067          	ret

0000205c <_ZN4listIhLi6EE2atEj>:
    205c:	fe010113          	add	sp,sp,-32
    2060:	00812e23          	sw	s0,28(sp)
    2064:	02010413          	add	s0,sp,32
    2068:	fea42623          	sw	a0,-20(s0)
    206c:	feb42423          	sw	a1,-24(s0)
    2070:	fe842703          	lw	a4,-24(s0)
    2074:	00500793          	li	a5,5
    2078:	00e7f663          	bgeu	a5,a4,2084 <_ZN4listIhLi6EE2atEj+0x28>
    207c:	00000793          	li	a5,0
    2080:	0140006f          	j	2094 <_ZN4listIhLi6EE2atEj+0x38>
    2084:	fec42703          	lw	a4,-20(s0)
    2088:	fe842783          	lw	a5,-24(s0)
    208c:	00f707b3          	add	a5,a4,a5
    2090:	0007c783          	lbu	a5,0(a5)
    2094:	00078513          	mv	a0,a5
    2098:	01c12403          	lw	s0,28(sp)
    209c:	02010113          	add	sp,sp,32
    20a0:	00008067          	ret

000020a4 <_ZN4listIhLi32EE2atEj>:
    20a4:	fe010113          	add	sp,sp,-32
    20a8:	00812e23          	sw	s0,28(sp)
    20ac:	02010413          	add	s0,sp,32
    20b0:	fea42623          	sw	a0,-20(s0)
    20b4:	feb42423          	sw	a1,-24(s0)
    20b8:	fe842703          	lw	a4,-24(s0)
    20bc:	01f00793          	li	a5,31
    20c0:	00e7f663          	bgeu	a5,a4,20cc <_ZN4listIhLi32EE2atEj+0x28>
    20c4:	00000793          	li	a5,0
    20c8:	0140006f          	j	20dc <_ZN4listIhLi32EE2atEj+0x38>
    20cc:	fec42703          	lw	a4,-20(s0)
    20d0:	fe842783          	lw	a5,-24(s0)
    20d4:	00f707b3          	add	a5,a4,a5
    20d8:	0007c783          	lbu	a5,0(a5)
    20dc:	00078513          	mv	a0,a5
    20e0:	01c12403          	lw	s0,28(sp)
    20e4:	02010113          	add	sp,sp,32
    20e8:	00008067          	ret

000020ec <_ZN4listIhLi32EE3addEh>:
    20ec:	fe010113          	add	sp,sp,-32
    20f0:	00812e23          	sw	s0,28(sp)
    20f4:	02010413          	add	s0,sp,32
    20f8:	fea42623          	sw	a0,-20(s0)
    20fc:	00058793          	mv	a5,a1
    2100:	fef405a3          	sb	a5,-21(s0)
    2104:	fec42783          	lw	a5,-20(s0)
    2108:	0207a703          	lw	a4,32(a5)
    210c:	01f00793          	li	a5,31
    2110:	00f71663          	bne	a4,a5,211c <_ZN4listIhLi32EE3addEh+0x30>
    2114:	00000793          	li	a5,0
    2118:	0480006f          	j	2160 <_ZN4listIhLi32EE3addEh+0x74>
    211c:	fec42783          	lw	a5,-20(s0)
    2120:	0207a783          	lw	a5,32(a5)
    2124:	fec42703          	lw	a4,-20(s0)
    2128:	00f707b3          	add	a5,a4,a5
    212c:	feb44703          	lbu	a4,-21(s0)
    2130:	00e78023          	sb	a4,0(a5)
    2134:	fec42783          	lw	a5,-20(s0)
    2138:	0207a783          	lw	a5,32(a5)
    213c:	00178713          	add	a4,a5,1
    2140:	fec42783          	lw	a5,-20(s0)
    2144:	02e7a023          	sw	a4,32(a5)
    2148:	fec42783          	lw	a5,-20(s0)
    214c:	0207a783          	lw	a5,32(a5)
    2150:	fec42703          	lw	a4,-20(s0)
    2154:	00f707b3          	add	a5,a4,a5
    2158:	00078023          	sb	zero,0(a5)
    215c:	00100793          	li	a5,1
    2160:	00078513          	mv	a0,a5
    2164:	01c12403          	lw	s0,28(sp)
    2168:	02010113          	add	sp,sp,32
    216c:	00008067          	ret

00002170 <_ZN4listIhLi128EE15remove_by_indexEj>:
    2170:	fe010113          	add	sp,sp,-32
    2174:	00812e23          	sw	s0,28(sp)
    2178:	02010413          	add	s0,sp,32
    217c:	fea42623          	sw	a0,-20(s0)
    2180:	feb42423          	sw	a1,-24(s0)
    2184:	fe842783          	lw	a5,-24(s0)
    2188:	00178793          	add	a5,a5,1
    218c:	fec42703          	lw	a4,-20(s0)
    2190:	00f707b3          	add	a5,a4,a5
    2194:	0007c703          	lbu	a4,0(a5)
    2198:	fec42683          	lw	a3,-20(s0)
    219c:	fe842783          	lw	a5,-24(s0)
    21a0:	00f687b3          	add	a5,a3,a5
    21a4:	00e78023          	sb	a4,0(a5)
    21a8:	fec42703          	lw	a4,-20(s0)
    21ac:	fe842783          	lw	a5,-24(s0)
    21b0:	00f707b3          	add	a5,a4,a5
    21b4:	0007c783          	lbu	a5,0(a5)
    21b8:	00079a63          	bnez	a5,21cc <_ZN4listIhLi128EE15remove_by_indexEj+0x5c>
    21bc:	fec42783          	lw	a5,-20(s0)
    21c0:	fe842703          	lw	a4,-24(s0)
    21c4:	08e7a023          	sw	a4,128(a5)
    21c8:	0140006f          	j	21dc <_ZN4listIhLi128EE15remove_by_indexEj+0x6c>
    21cc:	fe842783          	lw	a5,-24(s0)
    21d0:	00178793          	add	a5,a5,1
    21d4:	fef42423          	sw	a5,-24(s0)
    21d8:	fadff06f          	j	2184 <_ZN4listIhLi128EE15remove_by_indexEj+0x14>
    21dc:	01c12403          	lw	s0,28(sp)
    21e0:	02010113          	add	sp,sp,32
    21e4:	00008067          	ret

000021e8 <_ZN4listIhLi128EE3addEh>:
    21e8:	fe010113          	add	sp,sp,-32
    21ec:	00812e23          	sw	s0,28(sp)
    21f0:	02010413          	add	s0,sp,32
    21f4:	fea42623          	sw	a0,-20(s0)
    21f8:	00058793          	mv	a5,a1
    21fc:	fef405a3          	sb	a5,-21(s0)
    2200:	fec42783          	lw	a5,-20(s0)
    2204:	0807a703          	lw	a4,128(a5)
    2208:	07f00793          	li	a5,127
    220c:	00f71663          	bne	a4,a5,2218 <_ZN4listIhLi128EE3addEh+0x30>
    2210:	00000793          	li	a5,0
    2214:	0480006f          	j	225c <_ZN4listIhLi128EE3addEh+0x74>
    2218:	fec42783          	lw	a5,-20(s0)
    221c:	0807a783          	lw	a5,128(a5)
    2220:	fec42703          	lw	a4,-20(s0)
    2224:	00f707b3          	add	a5,a4,a5
    2228:	feb44703          	lbu	a4,-21(s0)
    222c:	00e78023          	sb	a4,0(a5)
    2230:	fec42783          	lw	a5,-20(s0)
    2234:	0807a783          	lw	a5,128(a5)
    2238:	00178713          	add	a4,a5,1
    223c:	fec42783          	lw	a5,-20(s0)
    2240:	08e7a023          	sw	a4,128(a5)
    2244:	fec42783          	lw	a5,-20(s0)
    2248:	0807a783          	lw	a5,128(a5)
    224c:	fec42703          	lw	a4,-20(s0)
    2250:	00f707b3          	add	a5,a4,a5
    2254:	00078023          	sb	zero,0(a5)
    2258:	00100793          	li	a5,1
    225c:	00078513          	mv	a0,a5
    2260:	01c12403          	lw	s0,28(sp)
    2264:	02010113          	add	sp,sp,32
    2268:	00008067          	ret

0000226c <_ZN4listIhLi32EE15remove_by_indexEj>:
    226c:	fe010113          	add	sp,sp,-32
    2270:	00812e23          	sw	s0,28(sp)
    2274:	02010413          	add	s0,sp,32
    2278:	fea42623          	sw	a0,-20(s0)
    227c:	feb42423          	sw	a1,-24(s0)
    2280:	fe842783          	lw	a5,-24(s0)
    2284:	00178793          	add	a5,a5,1
    2288:	fec42703          	lw	a4,-20(s0)
    228c:	00f707b3          	add	a5,a4,a5
    2290:	0007c703          	lbu	a4,0(a5)
    2294:	fec42683          	lw	a3,-20(s0)
    2298:	fe842783          	lw	a5,-24(s0)
    229c:	00f687b3          	add	a5,a3,a5
    22a0:	00e78023          	sb	a4,0(a5)
    22a4:	fec42703          	lw	a4,-20(s0)
    22a8:	fe842783          	lw	a5,-24(s0)
    22ac:	00f707b3          	add	a5,a4,a5
    22b0:	0007c783          	lbu	a5,0(a5)
    22b4:	00079a63          	bnez	a5,22c8 <_ZN4listIhLi32EE15remove_by_indexEj+0x5c>
    22b8:	fec42783          	lw	a5,-20(s0)
    22bc:	fe842703          	lw	a4,-24(s0)
    22c0:	02e7a023          	sw	a4,32(a5)
    22c4:	0140006f          	j	22d8 <_ZN4listIhLi32EE15remove_by_indexEj+0x6c>
    22c8:	fe842783          	lw	a5,-24(s0)
    22cc:	00178793          	add	a5,a5,1
    22d0:	fef42423          	sw	a5,-24(s0)
    22d4:	fadff06f          	j	2280 <_ZN4listIhLi32EE15remove_by_indexEj+0x14>
    22d8:	01c12403          	lw	s0,28(sp)
    22dc:	02010113          	add	sp,sp,32
    22e0:	00008067          	ret

000022e4 <_ZN4listIhLi8EE3addEh>:
    22e4:	fe010113          	add	sp,sp,-32
    22e8:	00812e23          	sw	s0,28(sp)
    22ec:	02010413          	add	s0,sp,32
    22f0:	fea42623          	sw	a0,-20(s0)
    22f4:	00058793          	mv	a5,a1
    22f8:	fef405a3          	sb	a5,-21(s0)
    22fc:	fec42783          	lw	a5,-20(s0)
    2300:	0087a703          	lw	a4,8(a5)
    2304:	00700793          	li	a5,7
    2308:	00f71663          	bne	a4,a5,2314 <_ZN4listIhLi8EE3addEh+0x30>
    230c:	00000793          	li	a5,0
    2310:	0480006f          	j	2358 <_ZN4listIhLi8EE3addEh+0x74>
    2314:	fec42783          	lw	a5,-20(s0)
    2318:	0087a783          	lw	a5,8(a5)
    231c:	fec42703          	lw	a4,-20(s0)
    2320:	00f707b3          	add	a5,a4,a5
    2324:	feb44703          	lbu	a4,-21(s0)
    2328:	00e78023          	sb	a4,0(a5)
    232c:	fec42783          	lw	a5,-20(s0)
    2330:	0087a783          	lw	a5,8(a5)
    2334:	00178713          	add	a4,a5,1
    2338:	fec42783          	lw	a5,-20(s0)
    233c:	00e7a423          	sw	a4,8(a5)
    2340:	fec42783          	lw	a5,-20(s0)
    2344:	0087a783          	lw	a5,8(a5)
    2348:	fec42703          	lw	a4,-20(s0)
    234c:	00f707b3          	add	a5,a4,a5
    2350:	00078023          	sb	zero,0(a5)
    2354:	00100793          	li	a5,1
    2358:	00078513          	mv	a0,a5
    235c:	01c12403          	lw	s0,28(sp)
    2360:	02010113          	add	sp,sp,32
    2364:	00008067          	ret

00002368 <_ZN4listIhLi8EE6removeEh>:
    2368:	fd010113          	add	sp,sp,-48
    236c:	02812623          	sw	s0,44(sp)
    2370:	03010413          	add	s0,sp,48
    2374:	fca42e23          	sw	a0,-36(s0)
    2378:	00058793          	mv	a5,a1
    237c:	fcf40da3          	sb	a5,-37(s0)
    2380:	fe042623          	sw	zero,-20(s0)
    2384:	0a00006f          	j	2424 <_ZN4listIhLi8EE6removeEh+0xbc>
    2388:	fdc42703          	lw	a4,-36(s0)
    238c:	fec42783          	lw	a5,-20(s0)
    2390:	00f707b3          	add	a5,a4,a5
    2394:	0007c783          	lbu	a5,0(a5)
    2398:	fdb44703          	lbu	a4,-37(s0)
    239c:	06f71c63          	bne	a4,a5,2414 <_ZN4listIhLi8EE6removeEh+0xac>
    23a0:	fec42783          	lw	a5,-20(s0)
    23a4:	fef42423          	sw	a5,-24(s0)
    23a8:	05c0006f          	j	2404 <_ZN4listIhLi8EE6removeEh+0x9c>
    23ac:	fe842783          	lw	a5,-24(s0)
    23b0:	00178793          	add	a5,a5,1
    23b4:	fdc42703          	lw	a4,-36(s0)
    23b8:	00f707b3          	add	a5,a4,a5
    23bc:	0007c703          	lbu	a4,0(a5)
    23c0:	fdc42683          	lw	a3,-36(s0)
    23c4:	fe842783          	lw	a5,-24(s0)
    23c8:	00f687b3          	add	a5,a3,a5
    23cc:	00e78023          	sb	a4,0(a5)
    23d0:	fdc42703          	lw	a4,-36(s0)
    23d4:	fe842783          	lw	a5,-24(s0)
    23d8:	00f707b3          	add	a5,a4,a5
    23dc:	0007c783          	lbu	a5,0(a5)
    23e0:	00079c63          	bnez	a5,23f8 <_ZN4listIhLi8EE6removeEh+0x90>
    23e4:	fdc42783          	lw	a5,-36(s0)
    23e8:	fe842703          	lw	a4,-24(s0)
    23ec:	00e7a423          	sw	a4,8(a5)
    23f0:	00100793          	li	a5,1
    23f4:	0400006f          	j	2434 <_ZN4listIhLi8EE6removeEh+0xcc>
    23f8:	fe842783          	lw	a5,-24(s0)
    23fc:	00178793          	add	a5,a5,1
    2400:	fef42423          	sw	a5,-24(s0)
    2404:	fe842703          	lw	a4,-24(s0)
    2408:	00600793          	li	a5,6
    240c:	fae7f0e3          	bgeu	a5,a4,23ac <_ZN4listIhLi8EE6removeEh+0x44>
    2410:	0080006f          	j	2418 <_ZN4listIhLi8EE6removeEh+0xb0>
    2414:	00000013          	nop
    2418:	fec42783          	lw	a5,-20(s0)
    241c:	00178793          	add	a5,a5,1
    2420:	fef42623          	sw	a5,-20(s0)
    2424:	fec42703          	lw	a4,-20(s0)
    2428:	00600793          	li	a5,6
    242c:	f4e7fee3          	bgeu	a5,a4,2388 <_ZN4listIhLi8EE6removeEh+0x20>
    2430:	00000793          	li	a5,0
    2434:	00078513          	mv	a0,a5
    2438:	02c12403          	lw	s0,44(sp)
    243c:	03010113          	add	sp,sp,48
    2440:	00008067          	ret
