
os:     file format elf32-littleriscv


Disassembly of section .text:

00000000 <_start>:
# # generated - do not edit (see `configuration.py`)
# .global _start
# _start:
#     li sp, 0x200000
       0:	00200137          	lui	sp,0x200
#     j run
       4:	0040006f          	j	8 <run>

00000008 <run>:
# }
# 
# static auto action_sdcard_test_write(string const args) -> void {
#   let w1 = string_next_word(args);
#   if (w1.word.is_empty()) {
#     uart_send_cstr("<sector> <text>\r\n");
       8:	f8010113          	addi	sp,sp,-128 # 1fff80 <__bss_end+0x1fdc14>
       c:	06112e23          	sw	ra,124(sp)
      10:	06812c23          	sw	s0,120(sp)
      14:	07212823          	sw	s2,112(sp)
      18:	07312623          	sw	s3,108(sp)
      1c:	07412423          	sw	s4,104(sp)
      20:	07512223          	sw	s5,100(sp)
      24:	06912a23          	sw	s1,116(sp)
#     return;
      28:	788010ef          	jal	17b0 <_ZL12initiate_bssv>
#   // initiate statics in freestanding build
# 
#   led_set(0b0000);
#   // turn on all leds
# 
#   uart_send_cstr(ascii_art);
      2c:	000027b7          	lui	a5,0x2
# static auto led_set(int32_t const bits) -> void { *LED = bits; }
      30:	fe002e23          	sw	zero,-4(zero) # fffffffc <__bss_end+0xffffdc90>
      34:	3607a503          	lw	a0,864(a5) # 2360 <_ZL9ascii_art>
#   uart_send_cstr(hello);
# 
#   mut active_entity = entity_id_t{1};
      38:	00100413          	li	s0,1
#   mut cmd_buf = command_buffer{};
# 
#   while (true) {
#     mut &ent = entity_by_id(active_entity);
#     print_location(ent.location, active_entity);
      3c:	00002ab7          	lui	s5,0x2
#   uart_send_cstr(ascii_art);
      40:	3e4010ef          	jal	1424 <_ZL14uart_send_cstrPKc>
#   uart_send_cstr(hello);
      44:	000027b7          	lui	a5,0x2
      48:	35c7a503          	lw	a0,860(a5) # 235c <_ZL5hello>
#     uart_send_cstr(ent.name);
#     uart_send_cstr(" > ");
      4c:	00002a37          	lui	s4,0x2
#     input(cmd_buf);
#     uart_send_cstr("\r\n");
      50:	000029b7          	lui	s3,0x2
#   uart_send_cstr(hello);
      54:	3d0010ef          	jal	1424 <_ZL14uart_send_cstrPKc>
#   mut cmd_buf = command_buffer{};
      58:	05200613          	li	a2,82
      5c:	00000593          	li	a1,0
      60:	00c10513          	addi	a0,sp,12
      64:	70c010ef          	jal	1770 <memset>
#     handle_input(active_entity, cmd_buf);
#     active_entity = active_entity == 1 ? 2 : 1;
      68:	00300913          	li	s2,3
#     print_location(ent.location, active_entity);
      6c:	00141793          	slli	a5,s0,0x1
      70:	008787b3          	add	a5,a5,s0
      74:	00279793          	slli	a5,a5,0x2
      78:	408787b3          	sub	a5,a5,s0
      7c:	00279793          	slli	a5,a5,0x2
      80:	fa0a8493          	addi	s1,s5,-96 # 1fa0 <_ZL8entities>
      84:	00f484b3          	add	s1,s1,a5
      88:	0044c503          	lbu	a0,4(s1)
      8c:	00040593          	mv	a1,s0
      90:	4b8000ef          	jal	548 <_ZL14print_locationhh>
#     uart_send_cstr(ent.name);
      94:	0004a503          	lw	a0,0(s1)
      98:	38c010ef          	jal	1424 <_ZL14uart_send_cstrPKc>
#     uart_send_cstr(" > ");
      9c:	bd0a0513          	addi	a0,s4,-1072 # 1bd0 <_ZNK4spanIcE8for_eachIZL12string_printS0_EUlT_E_EEvS2_.isra.0+0x3b0>
      a0:	384010ef          	jal	1424 <_ZL14uart_send_cstrPKc>
#     input(cmd_buf);
      a4:	00c10513          	addi	a0,sp,12
      a8:	6d1000ef          	jal	f78 <_ZL5inputR14command_buffer>
#     uart_send_cstr("\r\n");
      ac:	bd498513          	addi	a0,s3,-1068 # 1bd4 <_ZNK4spanIcE8for_eachIZL12string_printS0_EUlT_E_EEvS2_.isra.0+0x3b4>
      b0:	374010ef          	jal	1424 <_ZL14uart_send_cstrPKc>
#     handle_input(active_entity, cmd_buf);
      b4:	00040513          	mv	a0,s0
      b8:	00c10593          	addi	a1,sp,12
#     active_entity = active_entity == 1 ? 2 : 1;
      bc:	40890433          	sub	s0,s2,s0
#     handle_input(active_entity, cmd_buf);
      c0:	124000ef          	jal	1e4 <_ZL12handle_inputhR14command_buffer>
#     active_entity = active_entity == 1 ? 2 : 1;
      c4:	0ff47413          	zext.b	s0,s0
      c8:	fa5ff06f          	j	6c <run+0x64>

000000cc <_ZL18string_equals_cstr4spanIcEPKc>:
#   }
# }
# 
# static auto string_equals_cstr(string const str, cstr s) -> bool {
      cc:	ff010113          	addi	sp,sp,-16
      d0:	00a12423          	sw	a0,8(sp)
      d4:	00b12623          	sw	a1,12(sp)
#   mut e = str.for_each_until_false([&s](let ch) {
#     if (*s != '\0' && *s == ch) {
      d8:	00064783          	lbu	a5,0(a2)
#   }
# 
#   auto
#   for_each_until_false(callable_returns_bool<Type> auto f) const -> position {
#     Type *it = begin_;
#     for (; it < end_; ++it) {
      dc:	00b56e63          	bltu	a0,a1,f8 <_ZL18string_equals_cstr4spanIcEPKc+0x2c>
#       ++s;
#       return true;
#     }
#     return false;
#   });
#   return *s == '\0' && str.is_at_end(e);
      e0:	40b50533          	sub	a0,a0,a1
      e4:	00153593          	seqz	a1,a0
      e8:	0017b513          	seqz	a0,a5
# }
      ec:	00a5f533          	and	a0,a1,a0
      f0:	01010113          	addi	sp,sp,16
      f4:	00008067          	ret
#     if (*s != '\0' && *s == ch) {
      f8:	fe0784e3          	beqz	a5,e0 <_ZL18string_equals_cstr4spanIcEPKc+0x14>
      fc:	00054703          	lbu	a4,0(a0)
     100:	fef710e3          	bne	a4,a5,e0 <_ZL18string_equals_cstr4spanIcEPKc+0x14>
#       ++s;
     104:	00160613          	addi	a2,a2,1
     108:	00150513          	addi	a0,a0,1
     10c:	fcdff06f          	j	d8 <_ZL18string_equals_cstr4spanIcEPKc+0xc>

00000110 <_ZL12string_print4spanIcE>:
# 
# static auto string_print(string const str) -> void {
     110:	fe010113          	addi	sp,sp,-32
     114:	00a12423          	sw	a0,8(sp)
#   str.for_each([](let ch) { uart_send_char(ch); });
     118:	00810513          	addi	a0,sp,8
# static auto string_print(string const str) -> void {
     11c:	00112e23          	sw	ra,28(sp)
     120:	00b12623          	sw	a1,12(sp)
#   str.for_each([](let ch) { uart_send_char(ch); });
     124:	6fc010ef          	jal	1820 <_ZNK4spanIcE8for_eachIZL12string_printS0_EUlT_E_EEvS2_.isra.0>
# }
     128:	01c12083          	lw	ra,28(sp)
     12c:	02010113          	addi	sp,sp,32
     130:	00008067          	ret

00000134 <_ZL16string_next_word4spanIcE>:
#   string word{};
#   string rem{};
# };
# 
# static auto
# string_next_word(string const str) -> struct string_next_word_return {
     134:	fe010113          	addi	sp,sp,-32
     138:	00b12423          	sw	a1,8(sp)
     13c:	00c12623          	sw	a2,12(sp)
#     Type *it = begin_;
     140:	00058713          	mv	a4,a1
#     for (; it < end_; ++it) {
     144:	02c76e63          	bltu	a4,a2,180 <_ZL16string_next_word4spanIcE+0x4c>
#         return {};
     148:	00000793          	li	a5,0
     14c:	00000693          	li	a3,0
#       if (pos.ptr > end_ || pos.ptr < begin_) {
     150:	02e67e63          	bgeu	a2,a4,18c <_ZL16string_next_word4spanIcE+0x58>
     154:	00d12823          	sw	a3,16(sp)
     158:	00f12a23          	sw	a5,20(sp)
#       if (pos.ptr > end_ || pos.ptr < begin_) {
     15c:	00e66c63          	bltu	a2,a4,174 <_ZL16string_next_word4spanIcE+0x40>
     160:	00b76a63          	bltu	a4,a1,174 <_ZL16string_next_word4spanIcE+0x40>
#     Type *it = begin_;
     164:	00070793          	mv	a5,a4
#       if (!f(*it)) {
     168:	02000693          	li	a3,32
#     for (; it < end_; ++it) {
     16c:	04c7e263          	bltu	a5,a2,1b0 <_ZL16string_next_word4spanIcE+0x7c>
#       if (pos.ptr > end_ || pos.ptr < begin_) {
     170:	04f67463          	bgeu	a2,a5,1b8 <_ZL16string_next_word4spanIcE+0x84>
#         return {};
     174:	00000613          	li	a2,0
     178:	00000793          	li	a5,0
     17c:	0400006f          	j	1bc <_ZL16string_next_word4spanIcE+0x88>
#   mut ce =
#       str.for_each_until_false([](let ch) { return ch != ' ' && ch != '\0'; });
     180:	00074783          	lbu	a5,0(a4)
     184:	0df7f793          	andi	a5,a5,223
     188:	00079a63          	bnez	a5,19c <_ZL16string_next_word4spanIcE+0x68>
#       if (pos.ptr > end_ || pos.ptr < begin_) {
     18c:	00b76c63          	bltu	a4,a1,1a4 <_ZL16string_next_word4spanIcE+0x70>
#     return {begin_, pos.ptr};
     190:	00070793          	mv	a5,a4
     194:	00058693          	mv	a3,a1
     198:	fbdff06f          	j	154 <_ZL16string_next_word4spanIcE+0x20>
#     for (; it < end_; ++it) {
     19c:	00170713          	addi	a4,a4,1
     1a0:	fa5ff06f          	j	144 <_ZL16string_next_word4spanIcE+0x10>
#         return {};
     1a4:	00000793          	li	a5,0
     1a8:	00000693          	li	a3,0
     1ac:	fa9ff06f          	j	154 <_ZL16string_next_word4spanIcE+0x20>
#       if (!f(*it)) {
     1b0:	0007c583          	lbu	a1,0(a5)
     1b4:	02d58463          	beq	a1,a3,1dc <_ZL16string_next_word4spanIcE+0xa8>
#       if (pos.ptr > end_ || pos.ptr < begin_) {
     1b8:	fae7eee3          	bltu	a5,a4,174 <_ZL16string_next_word4spanIcE+0x40>
#   let word = str.subspan_ending_at(ce);
#   let rem = str.subspan_starting_at(ce);
#   let rem_trimmed = rem.subspan_starting_at(
#       rem.for_each_until_false([](let ch) { return ch == ' '; }));
#   return {word, rem_trimmed};
     1bc:	01012703          	lw	a4,16(sp)
     1c0:	00f52423          	sw	a5,8(a0)
     1c4:	00c52623          	sw	a2,12(a0)
     1c8:	00e52023          	sw	a4,0(a0)
     1cc:	01412703          	lw	a4,20(sp)
     1d0:	00e52223          	sw	a4,4(a0)
# }
     1d4:	02010113          	addi	sp,sp,32
     1d8:	00008067          	ret
#     for (; it < end_; ++it) {
     1dc:	00178793          	addi	a5,a5,1
     1e0:	f8dff06f          	j	16c <_ZL16string_next_word4spanIcE+0x38>

000001e4 <_ZL12handle_inputhR14command_buffer>:
# 
# static auto
# handle_input(entity_id_t const eid, command_buffer &cmd_buf) -> void {
     1e4:	fb010113          	addi	sp,sp,-80
     1e8:	04812423          	sw	s0,72(sp)
     1ec:	04912223          	sw	s1,68(sp)
     1f0:	05212023          	sw	s2,64(sp)
     1f4:	03312e23          	sw	s3,60(sp)
     1f8:	03412c23          	sw	s4,56(sp)
     1fc:	04112623          	sw	ra,76(sp)
#     }
#   }
# 
#   auto characters_after_cursor() const -> size_t { return end_ - cursor_; }
# 
#   auto input_length() const -> size_t { return end_; }
     200:	0515c603          	lbu	a2,81(a1)
     204:	00050913          	mv	s2,a0
# 
#   let line = cmd_buf.string();
#   let w1 = string_next_word(line);
     208:	02010513          	addi	a0,sp,32
     20c:	00c58633          	add	a2,a1,a2
     210:	f25ff0ef          	jal	134 <_ZL16string_next_word4spanIcE>
#   let cmd = w1.word;
     214:	02012483          	lw	s1,32(sp)
     218:	02412403          	lw	s0,36(sp)
#   let args = w1.rem;
     21c:	02812a03          	lw	s4,40(sp)
     220:	02c12983          	lw	s3,44(sp)
# 
#   if (string_equals_cstr(cmd, "help")) {
     224:	00002637          	lui	a2,0x2
     228:	bd860613          	addi	a2,a2,-1064 # 1bd8 <_ZNK4spanIcE8for_eachIZL12string_printS0_EUlT_E_EEvS2_.isra.0+0x3b8>
     22c:	00048513          	mv	a0,s1
     230:	00040593          	mv	a1,s0
#   let cmd = w1.word;
     234:	00912823          	sw	s1,16(sp)
     238:	00812a23          	sw	s0,20(sp)
#   let args = w1.rem;
     23c:	01412c23          	sw	s4,24(sp)
     240:	01312e23          	sw	s3,28(sp)
#   if (string_equals_cstr(cmd, "help")) {
     244:	e89ff0ef          	jal	cc <_ZL18string_equals_cstr4spanIcEPKc>
     248:	02050263          	beqz	a0,26c <_ZL12handle_inputhR14command_buffer+0x88>
#   } else if (string_equals_cstr(cmd, "q")) {
#     exit(0);
#   } else {
#     uart_send_cstr("not understood\r\n\r\n");
#   }
# }
     24c:	04812403          	lw	s0,72(sp)
     250:	04c12083          	lw	ra,76(sp)
     254:	04412483          	lw	s1,68(sp)
     258:	04012903          	lw	s2,64(sp)
     25c:	03c12983          	lw	s3,60(sp)
     260:	03812a03          	lw	s4,56(sp)
     264:	05010113          	addi	sp,sp,80
#     print_help();
     268:	4f10006f          	j	f58 <_ZL10print_helpv>
#   } else if (string_equals_cstr(cmd, "i")) {
     26c:	00002637          	lui	a2,0x2
     270:	be060613          	addi	a2,a2,-1056 # 1be0 <_ZNK4spanIcE8for_eachIZL12string_printS0_EUlT_E_EEvS2_.isra.0+0x3c0>
     274:	00048513          	mv	a0,s1
     278:	00040593          	mv	a1,s0
     27c:	e51ff0ef          	jal	cc <_ZL18string_equals_cstr4spanIcEPKc>
     280:	02050a63          	beqz	a0,2b4 <_ZL12handle_inputhR14command_buffer+0xd0>
#     action_inventory(eid);
     284:	00090513          	mv	a0,s2
     288:	4bc000ef          	jal	744 <_ZL16action_inventoryh>
#     uart_send_cstr("\r\n");
     28c:	00002537          	lui	a0,0x2
     290:	bd450513          	addi	a0,a0,-1068 # 1bd4 <_ZNK4spanIcE8for_eachIZL12string_printS0_EUlT_E_EEvS2_.isra.0+0x3b4>
# }
     294:	04812403          	lw	s0,72(sp)
     298:	04c12083          	lw	ra,76(sp)
     29c:	04412483          	lw	s1,68(sp)
     2a0:	04012903          	lw	s2,64(sp)
     2a4:	03c12983          	lw	s3,60(sp)
     2a8:	03812a03          	lw	s4,56(sp)
     2ac:	05010113          	addi	sp,sp,80
#     uart_send_cstr("not understood\r\n\r\n");
     2b0:	1740106f          	j	1424 <_ZL14uart_send_cstrPKc>
#   } else if (string_equals_cstr(cmd, "t")) {
     2b4:	00002637          	lui	a2,0x2
     2b8:	be460613          	addi	a2,a2,-1052 # 1be4 <_ZNK4spanIcE8for_eachIZL12string_printS0_EUlT_E_EEvS2_.isra.0+0x3c4>
     2bc:	00048513          	mv	a0,s1
     2c0:	00040593          	mv	a1,s0
     2c4:	e09ff0ef          	jal	cc <_ZL18string_equals_cstr4spanIcEPKc>
     2c8:	02050863          	beqz	a0,2f8 <_ZL12handle_inputhR14command_buffer+0x114>
# }
     2cc:	04812403          	lw	s0,72(sp)
     2d0:	04c12083          	lw	ra,76(sp)
     2d4:	04412483          	lw	s1,68(sp)
#     action_take(eid, args);
     2d8:	000a0593          	mv	a1,s4
     2dc:	00098613          	mv	a2,s3
# }
     2e0:	03812a03          	lw	s4,56(sp)
     2e4:	03c12983          	lw	s3,60(sp)
#     action_take(eid, args);
     2e8:	00090513          	mv	a0,s2
# }
     2ec:	04012903          	lw	s2,64(sp)
     2f0:	05010113          	addi	sp,sp,80
#     action_take(eid, args);
     2f4:	53c0006f          	j	830 <_ZL11action_takeh4spanIcE>
#   } else if (string_equals_cstr(cmd, "d")) {
     2f8:	00002637          	lui	a2,0x2
     2fc:	be860613          	addi	a2,a2,-1048 # 1be8 <_ZNK4spanIcE8for_eachIZL12string_printS0_EUlT_E_EEvS2_.isra.0+0x3c8>
     300:	00048513          	mv	a0,s1
     304:	00040593          	mv	a1,s0
     308:	dc5ff0ef          	jal	cc <_ZL18string_equals_cstr4spanIcEPKc>
     30c:	02050863          	beqz	a0,33c <_ZL12handle_inputhR14command_buffer+0x158>
# }
     310:	04812403          	lw	s0,72(sp)
     314:	04c12083          	lw	ra,76(sp)
     318:	04412483          	lw	s1,68(sp)
#     action_drop(eid, args);
     31c:	000a0593          	mv	a1,s4
     320:	00098613          	mv	a2,s3
# }
     324:	03812a03          	lw	s4,56(sp)
     328:	03c12983          	lw	s3,60(sp)
#     action_drop(eid, args);
     32c:	00090513          	mv	a0,s2
# }
     330:	04012903          	lw	s2,64(sp)
     334:	05010113          	addi	sp,sp,80
#     action_drop(eid, args);
     338:	6ac0006f          	j	9e4 <_ZL11action_droph4spanIcE>
#   } else if (string_equals_cstr(cmd, "n")) {
     33c:	00002637          	lui	a2,0x2
     340:	00040593          	mv	a1,s0
     344:	bec60613          	addi	a2,a2,-1044 # 1bec <_ZNK4spanIcE8for_eachIZL12string_printS0_EUlT_E_EEvS2_.isra.0+0x3cc>
     348:	00048513          	mv	a0,s1
     34c:	d81ff0ef          	jal	cc <_ZL18string_equals_cstr4spanIcEPKc>
#     action_go(eid, 0);
     350:	00000593          	li	a1,0
#   } else if (string_equals_cstr(cmd, "n")) {
     354:	02051063          	bnez	a0,374 <_ZL12handle_inputhR14command_buffer+0x190>
#   } else if (string_equals_cstr(cmd, "e")) {
     358:	00002637          	lui	a2,0x2
     35c:	bf060613          	addi	a2,a2,-1040 # 1bf0 <_ZNK4spanIcE8for_eachIZL12string_printS0_EUlT_E_EEvS2_.isra.0+0x3d0>
     360:	00048513          	mv	a0,s1
     364:	00040593          	mv	a1,s0
     368:	d65ff0ef          	jal	cc <_ZL18string_equals_cstr4spanIcEPKc>
     36c:	02050663          	beqz	a0,398 <_ZL12handle_inputhR14command_buffer+0x1b4>
#     action_go(eid, 1);
     370:	00100593          	li	a1,1
# }
     374:	04812403          	lw	s0,72(sp)
     378:	04c12083          	lw	ra,76(sp)
     37c:	04412483          	lw	s1,68(sp)
     380:	03c12983          	lw	s3,60(sp)
     384:	03812a03          	lw	s4,56(sp)
#     action_go(eid, 1);
     388:	00090513          	mv	a0,s2
# }
     38c:	04012903          	lw	s2,64(sp)
     390:	05010113          	addi	sp,sp,80
#     action_go(eid, 1);
     394:	0050006f          	j	b98 <_ZL9action_gohh>
#   } else if (string_equals_cstr(cmd, "s")) {
     398:	00002637          	lui	a2,0x2
     39c:	00040593          	mv	a1,s0
     3a0:	bf460613          	addi	a2,a2,-1036 # 1bf4 <_ZNK4spanIcE8for_eachIZL12string_printS0_EUlT_E_EEvS2_.isra.0+0x3d4>
     3a4:	00048513          	mv	a0,s1
     3a8:	d25ff0ef          	jal	cc <_ZL18string_equals_cstr4spanIcEPKc>
#     action_go(eid, 2);
     3ac:	00200593          	li	a1,2
#   } else if (string_equals_cstr(cmd, "s")) {
     3b0:	fc0512e3          	bnez	a0,374 <_ZL12handle_inputhR14command_buffer+0x190>
#   } else if (string_equals_cstr(cmd, "w")) {
     3b4:	00002637          	lui	a2,0x2
     3b8:	00040593          	mv	a1,s0
     3bc:	bf860613          	addi	a2,a2,-1032 # 1bf8 <_ZNK4spanIcE8for_eachIZL12string_printS0_EUlT_E_EEvS2_.isra.0+0x3d8>
     3c0:	00048513          	mv	a0,s1
     3c4:	d09ff0ef          	jal	cc <_ZL18string_equals_cstr4spanIcEPKc>
#     action_go(eid, 3);
     3c8:	00300593          	li	a1,3
#   } else if (string_equals_cstr(cmd, "w")) {
     3cc:	fa0514e3          	bnez	a0,374 <_ZL12handle_inputhR14command_buffer+0x190>
#   } else if (string_equals_cstr(cmd, "g")) {
     3d0:	00002637          	lui	a2,0x2
     3d4:	bfc60613          	addi	a2,a2,-1028 # 1bfc <_ZNK4spanIcE8for_eachIZL12string_printS0_EUlT_E_EEvS2_.isra.0+0x3dc>
     3d8:	00048513          	mv	a0,s1
     3dc:	00040593          	mv	a1,s0
     3e0:	cedff0ef          	jal	cc <_ZL18string_equals_cstr4spanIcEPKc>
     3e4:	02050863          	beqz	a0,414 <_ZL12handle_inputhR14command_buffer+0x230>
# }
     3e8:	04812403          	lw	s0,72(sp)
     3ec:	04c12083          	lw	ra,76(sp)
     3f0:	04412483          	lw	s1,68(sp)
#     action_give(eid, args);
     3f4:	000a0593          	mv	a1,s4
     3f8:	00098613          	mv	a2,s3
# }
     3fc:	03812a03          	lw	s4,56(sp)
     400:	03c12983          	lw	s3,60(sp)
#     action_give(eid, args);
     404:	00090513          	mv	a0,s2
# }
     408:	04012903          	lw	s2,64(sp)
     40c:	05010113          	addi	sp,sp,80
#     action_give(eid, args);
     410:	0850006f          	j	c94 <_ZL11action_giveh4spanIcE>
#   } else if (string_equals_cstr(cmd, "m")) {
     414:	00002637          	lui	a2,0x2
     418:	c0060613          	addi	a2,a2,-1024 # 1c00 <_ZNK4spanIcE8for_eachIZL12string_printS0_EUlT_E_EEvS2_.isra.0+0x3e0>
     41c:	00048513          	mv	a0,s1
     420:	00040593          	mv	a1,s0
     424:	ca9ff0ef          	jal	cc <_ZL18string_equals_cstr4spanIcEPKc>
     428:	02050263          	beqz	a0,44c <_ZL12handle_inputhR14command_buffer+0x268>
# }
     42c:	04812403          	lw	s0,72(sp)
     430:	04c12083          	lw	ra,76(sp)
     434:	04412483          	lw	s1,68(sp)
     438:	04012903          	lw	s2,64(sp)
     43c:	03c12983          	lw	s3,60(sp)
     440:	03812a03          	lw	s4,56(sp)
     444:	05010113          	addi	sp,sp,80
#     action_mem_test();
     448:	0280106f          	j	1470 <_ZL15action_mem_testv>
#   } else if (string_equals_cstr(cmd, "sds")) {
     44c:	01012503          	lw	a0,16(sp)
     450:	01412583          	lw	a1,20(sp)
     454:	00002637          	lui	a2,0x2
     458:	c0460613          	addi	a2,a2,-1020 # 1c04 <_ZNK4spanIcE8for_eachIZL12string_printS0_EUlT_E_EEvS2_.isra.0+0x3e4>
     45c:	c71ff0ef          	jal	cc <_ZL18string_equals_cstr4spanIcEPKc>
     460:	02050263          	beqz	a0,484 <_ZL12handle_inputhR14command_buffer+0x2a0>
# }
     464:	04812403          	lw	s0,72(sp)
     468:	04c12083          	lw	ra,76(sp)
     46c:	04412483          	lw	s1,68(sp)
     470:	04012903          	lw	s2,64(sp)
     474:	03c12983          	lw	s3,60(sp)
     478:	03812a03          	lw	s4,56(sp)
     47c:	05010113          	addi	sp,sp,80
#     action_sdcard_status();
     480:	2340106f          	j	16b4 <_ZL20action_sdcard_statusv>
#   } else if (string_equals_cstr(cmd, "sdr")) {
     484:	01012503          	lw	a0,16(sp)
     488:	01412583          	lw	a1,20(sp)
     48c:	00002637          	lui	a2,0x2
     490:	c0860613          	addi	a2,a2,-1016 # 1c08 <_ZNK4spanIcE8for_eachIZL12string_printS0_EUlT_E_EEvS2_.isra.0+0x3e8>
     494:	c39ff0ef          	jal	cc <_ZL18string_equals_cstr4spanIcEPKc>
     498:	02050663          	beqz	a0,4c4 <_ZL12handle_inputhR14command_buffer+0x2e0>
# }
     49c:	04812403          	lw	s0,72(sp)
#     action_sdcard_test_read(args);
     4a0:	01812503          	lw	a0,24(sp)
     4a4:	01c12583          	lw	a1,28(sp)
# }
     4a8:	04c12083          	lw	ra,76(sp)
     4ac:	04412483          	lw	s1,68(sp)
     4b0:	04012903          	lw	s2,64(sp)
     4b4:	03c12983          	lw	s3,60(sp)
     4b8:	03812a03          	lw	s4,56(sp)
     4bc:	05010113          	addi	sp,sp,80
#     action_sdcard_test_read(args);
     4c0:	0d00106f          	j	1590 <_ZL23action_sdcard_test_read4spanIcE>
#   } else if (string_equals_cstr(cmd, "sdw")) {
     4c4:	01012503          	lw	a0,16(sp)
     4c8:	01412583          	lw	a1,20(sp)
     4cc:	00002637          	lui	a2,0x2
     4d0:	c0c60613          	addi	a2,a2,-1012 # 1c0c <_ZNK4spanIcE8for_eachIZL12string_printS0_EUlT_E_EEvS2_.isra.0+0x3ec>
     4d4:	bf9ff0ef          	jal	cc <_ZL18string_equals_cstr4spanIcEPKc>
     4d8:	02050663          	beqz	a0,504 <_ZL12handle_inputhR14command_buffer+0x320>
# }
     4dc:	04812403          	lw	s0,72(sp)
#     action_sdcard_test_write(args);
     4e0:	01812503          	lw	a0,24(sp)
     4e4:	01c12583          	lw	a1,28(sp)
# }
     4e8:	04c12083          	lw	ra,76(sp)
     4ec:	04412483          	lw	s1,68(sp)
     4f0:	04012903          	lw	s2,64(sp)
     4f4:	03c12983          	lw	s3,60(sp)
     4f8:	03812a03          	lw	s4,56(sp)
     4fc:	05010113          	addi	sp,sp,80
#     action_sdcard_test_write(args);
     500:	1200106f          	j	1620 <_ZL24action_sdcard_test_write4spanIcE>
#   } else if (string_equals_cstr(cmd, "q")) {
     504:	01012503          	lw	a0,16(sp)
     508:	01412583          	lw	a1,20(sp)
     50c:	00002637          	lui	a2,0x2
     510:	c1060613          	addi	a2,a2,-1008 # 1c10 <_ZNK4spanIcE8for_eachIZL12string_printS0_EUlT_E_EEvS2_.isra.0+0x3f0>
     514:	bb9ff0ef          	jal	cc <_ZL18string_equals_cstr4spanIcEPKc>
     518:	00051863          	bnez	a0,528 <_ZL12handle_inputhR14command_buffer+0x344>
#     uart_send_cstr("not understood\r\n\r\n");
     51c:	00002537          	lui	a0,0x2
     520:	c1450513          	addi	a0,a0,-1004 # 1c14 <_ZNK4spanIcE8for_eachIZL12string_printS0_EUlT_E_EEvS2_.isra.0+0x3f4>
     524:	d71ff06f          	j	294 <_ZL12handle_inputhR14command_buffer+0xb0>
# }
     528:	04c12083          	lw	ra,76(sp)
     52c:	04812403          	lw	s0,72(sp)
     530:	04412483          	lw	s1,68(sp)
     534:	04012903          	lw	s2,64(sp)
     538:	03c12983          	lw	s3,60(sp)
     53c:	03812a03          	lw	s4,56(sp)
     540:	05010113          	addi	sp,sp,80
     544:	00008067          	ret

00000548 <_ZL14print_locationhh>:
# 
# static auto print_location(location_id_t const lid,
#                            entity_id_t const eid_excluded_from_output) -> void {
     548:	fd010113          	addi	sp,sp,-48
     54c:	02812423          	sw	s0,40(sp)
     550:	03212023          	sw	s2,32(sp)
     554:	02112623          	sw	ra,44(sp)
     558:	02912223          	sw	s1,36(sp)
     55c:	01312e23          	sw	s3,28(sp)
     560:	01412c23          	sw	s4,24(sp)
     564:	01512a23          	sw	s5,20(sp)
     568:	01612823          	sw	s6,16(sp)
     56c:	01712623          	sw	s7,12(sp)
     570:	01812423          	sw	s8,8(sp)
#   return objects[id];
# }
# 
# static auto location_by_id(location_id_t const id) -> location & {
#   if constexpr (safe_arrays) {
#     if (id >= sizeof(locations) / sizeof(location)) {
     574:	00400713          	li	a4,4
#                            entity_id_t const eid_excluded_from_output) -> void {
     578:	00058913          	mv	s2,a1
     57c:	00002437          	lui	s0,0x2
#     if (id >= sizeof(locations) / sizeof(location)) {
     580:	10a76263          	bltu	a4,a0,684 <_ZL14print_locationhh+0x13c>
     584:	02440793          	addi	a5,s0,36 # 2024 <_ZL9locations>
#       return locations[0];
#     }
#   }
#   return locations[id];
     588:	00251413          	slli	s0,a0,0x2
     58c:	00a40433          	add	s0,s0,a0
     590:	00541413          	slli	s0,s0,0x5
     594:	00878433          	add	s0,a5,s0
#   uart_send_cstr("u r in ");
     598:	00002537          	lui	a0,0x2
     59c:	c2850513          	addi	a0,a0,-984 # 1c28 <_ZNK4spanIcE8for_eachIZL12string_printS0_EUlT_E_EEvS2_.isra.0+0x408>
     5a0:	685000ef          	jal	1424 <_ZL14uart_send_cstrPKc>
#   uart_send_cstr(loc.name);
     5a4:	00042503          	lw	a0,0(s0)
     5a8:	000029b7          	lui	s3,0x2
#     }
#     return {i};
#   }
# 
#   auto for_each(callable_returns_void<Type> auto f) const -> void {
#     for (size_t i = 0; i < len; ++i) {
     5ac:	00000493          	li	s1,0
     5b0:	675000ef          	jal	1424 <_ZL14uart_send_cstrPKc>
#   uart_send_cstr("\r\nu c: ");
     5b4:	00002537          	lui	a0,0x2
     5b8:	c3050513          	addi	a0,a0,-976 # 1c30 <_ZNK4spanIcE8for_eachIZL12string_printS0_EUlT_E_EEvS2_.isra.0+0x410>
     5bc:	669000ef          	jal	1424 <_ZL14uart_send_cstrPKc>
#         uart_send_cstr(", ");
     5c0:	00002ab7          	lui	s5,0x2
#     if (id >= sizeof(objects) / sizeof(object)) {
     5c4:	00300b13          	li	s6,3
     5c8:	f9098993          	addi	s3,s3,-112 # 1f90 <_ZL7objects>
     5cc:	08442783          	lw	a5,132(s0)
     5d0:	0af4ee63          	bltu	s1,a5,68c <_ZL14print_locationhh+0x144>
#     if (!counter) {
     5d4:	00049863          	bnez	s1,5e4 <_ZL14print_locationhh+0x9c>
#       uart_send_cstr("nothing");
     5d8:	00002537          	lui	a0,0x2
     5dc:	c3c50513          	addi	a0,a0,-964 # 1c3c <_ZNK4spanIcE8for_eachIZL12string_printS0_EUlT_E_EEvS2_.isra.0+0x41c>
     5e0:	645000ef          	jal	1424 <_ZL14uart_send_cstrPKc>
#     uart_send_cstr("\r\n");
     5e4:	000029b7          	lui	s3,0x2
     5e8:	bd498513          	addi	a0,s3,-1068 # 1bd4 <_ZNK4spanIcE8for_eachIZL12string_printS0_EUlT_E_EEvS2_.isra.0+0x3b4>
     5ec:	639000ef          	jal	1424 <_ZL14uart_send_cstrPKc>
#     loc.entities.for_each([&counter, eid_excluded_from_output](let id) {
     5f0:	000024b7          	lui	s1,0x2
#     mut counter = 0;
     5f4:	00000793          	li	a5,0
     5f8:	00000c13          	li	s8,0
#     if (id >= sizeof(entities) / sizeof(entity)) {
     5fc:	00200a13          	li	s4,2
     600:	fa048493          	addi	s1,s1,-96 # 1fa0 <_ZL8entities>
#         uart_send_cstr(", ");
     604:	00002ab7          	lui	s5,0x2
     608:	09042703          	lw	a4,144(s0)
     60c:	0aec6a63          	bltu	s8,a4,6c0 <_ZL14print_locationhh+0x178>
#     if (counter != 0) {
     610:	00078863          	beqz	a5,620 <_ZL14print_locationhh+0xd8>
#       uart_send_cstr(" is here\r\n");
     614:	00002537          	lui	a0,0x2
     618:	c4450513          	addi	a0,a0,-956 # 1c44 <_ZNK4spanIcE8for_eachIZL12string_printS0_EUlT_E_EEvS2_.isra.0+0x424>
     61c:	609000ef          	jal	1424 <_ZL14uart_send_cstrPKc>
#     uart_send_cstr("exits: ");
     620:	00002537          	lui	a0,0x2
     624:	c5050513          	addi	a0,a0,-944 # 1c50 <_ZNK4spanIcE8for_eachIZL12string_printS0_EUlT_E_EEvS2_.isra.0+0x430>
     628:	5fd000ef          	jal	1424 <_ZL14uart_send_cstrPKc>
#     mut counter = 0;
     62c:	00000793          	li	a5,0
     630:	00000493          	li	s1,0
#         uart_send_cstr(", ");
     634:	00002937          	lui	s2,0x2
     638:	09c42703          	lw	a4,156(s0)
     63c:	0ce4ea63          	bltu	s1,a4,710 <_ZL14print_locationhh+0x1c8>
#     if (counter == 0) {
     640:	00079863          	bnez	a5,650 <_ZL14print_locationhh+0x108>
#       uart_send_cstr("none");
     644:	00002537          	lui	a0,0x2
     648:	c5850513          	addi	a0,a0,-936 # 1c58 <_ZNK4spanIcE8for_eachIZL12string_printS0_EUlT_E_EEvS2_.isra.0+0x438>
     64c:	5d9000ef          	jal	1424 <_ZL14uart_send_cstrPKc>
# }
     650:	02812403          	lw	s0,40(sp)
     654:	02c12083          	lw	ra,44(sp)
     658:	02412483          	lw	s1,36(sp)
     65c:	02012903          	lw	s2,32(sp)
     660:	01812a03          	lw	s4,24(sp)
     664:	01412a83          	lw	s5,20(sp)
     668:	01012b03          	lw	s6,16(sp)
     66c:	00c12b83          	lw	s7,12(sp)
     670:	00812c03          	lw	s8,8(sp)
#     uart_send_cstr("\r\n");
     674:	bd498513          	addi	a0,s3,-1068
# }
     678:	01c12983          	lw	s3,28(sp)
     67c:	03010113          	addi	sp,sp,48
#     uart_send_cstr("\r\n");
     680:	5a50006f          	j	1424 <_ZL14uart_send_cstrPKc>
     684:	02440413          	addi	s0,s0,36
     688:	f11ff06f          	j	598 <_ZL14print_locationhh+0x50>
#       f(data[i]);
     68c:	009407b3          	add	a5,s0,s1
     690:	0047ca03          	lbu	s4,4(a5)
#       if (counter++) {
     694:	00048663          	beqz	s1,6a0 <_ZL14print_locationhh+0x158>
#         uart_send_cstr(", ");
     698:	c38a8513          	addi	a0,s5,-968 # 1c38 <_ZNK4spanIcE8for_eachIZL12string_printS0_EUlT_E_EEvS2_.isra.0+0x418>
     69c:	589000ef          	jal	1424 <_ZL14uart_send_cstrPKc>
#       return objects[0];
     6a0:	00098793          	mv	a5,s3
#     if (id >= sizeof(objects) / sizeof(object)) {
     6a4:	014b6663          	bltu	s6,s4,6b0 <_ZL14print_locationhh+0x168>
#   return objects[id];
     6a8:	002a1a13          	slli	s4,s4,0x2
     6ac:	014987b3          	add	a5,s3,s4
#       uart_send_cstr(object_by_id(id).name);
     6b0:	0007a503          	lw	a0,0(a5)
#     for (size_t i = 0; i < len; ++i) {
     6b4:	00148493          	addi	s1,s1,1
     6b8:	56d000ef          	jal	1424 <_ZL14uart_send_cstrPKc>
     6bc:	f11ff06f          	j	5cc <_ZL14print_locationhh+0x84>
#       f(data[i]);
     6c0:	01840733          	add	a4,s0,s8
     6c4:	08874b83          	lbu	s7,136(a4)
#       if (id == eid_excluded_from_output) {
     6c8:	05790063          	beq	s2,s7,708 <_ZL14print_locationhh+0x1c0>
#       if (counter++) {
     6cc:	00178b13          	addi	s6,a5,1
     6d0:	00078663          	beqz	a5,6dc <_ZL14print_locationhh+0x194>
#         uart_send_cstr(", ");
     6d4:	c38a8513          	addi	a0,s5,-968
     6d8:	54d000ef          	jal	1424 <_ZL14uart_send_cstrPKc>
#       return entities[0];
     6dc:	00048793          	mv	a5,s1
#     if (id >= sizeof(entities) / sizeof(entity)) {
     6e0:	017a6e63          	bltu	s4,s7,6fc <_ZL14print_locationhh+0x1b4>
#   return entities[id];
     6e4:	001b9793          	slli	a5,s7,0x1
     6e8:	017787b3          	add	a5,a5,s7
     6ec:	00279793          	slli	a5,a5,0x2
     6f0:	417787b3          	sub	a5,a5,s7
     6f4:	00279793          	slli	a5,a5,0x2
     6f8:	00f487b3          	add	a5,s1,a5
#       uart_send_cstr(entity_by_id(id).name);
     6fc:	0007a503          	lw	a0,0(a5)
     700:	525000ef          	jal	1424 <_ZL14uart_send_cstrPKc>
#       if (counter++) {
     704:	000b0793          	mv	a5,s6
#     for (size_t i = 0; i < len; ++i) {
     708:	001c0c13          	addi	s8,s8,1
     70c:	efdff06f          	j	608 <_ZL14print_locationhh+0xc0>
#       f(data[i]);
     710:	00940733          	add	a4,s0,s1
#       if (id == 0) {
     714:	09474703          	lbu	a4,148(a4)
     718:	02070263          	beqz	a4,73c <_ZL14print_locationhh+0x1f4>
#       if (counter++) {
     71c:	00178a13          	addi	s4,a5,1
     720:	00078663          	beqz	a5,72c <_ZL14print_locationhh+0x1e4>
#         uart_send_cstr(", ");
     724:	c3890513          	addi	a0,s2,-968 # 1c38 <_ZNK4spanIcE8for_eachIZL12string_printS0_EUlT_E_EEvS2_.isra.0+0x418>
     728:	4fd000ef          	jal	1424 <_ZL14uart_send_cstrPKc>
#       uart_send_cstr(exit_by_id(i));
     72c:	0ff4f513          	zext.b	a0,s1
     730:	4c9000ef          	jal	13f8 <_ZL10exit_by_idh>
     734:	4f1000ef          	jal	1424 <_ZL14uart_send_cstrPKc>
#       if (counter++) {
     738:	000a0793          	mv	a5,s4
#     for (size_t i = 0; i < len; ++i) {
     73c:	00148493          	addi	s1,s1,1
     740:	ef9ff06f          	j	638 <_ZL14print_locationhh+0xf0>

00000744 <_ZL16action_inventoryh>:
# static auto action_inventory(entity_id_t const eid) -> void {
     744:	fe010113          	addi	sp,sp,-32
     748:	00912a23          	sw	s1,20(sp)
     74c:	00050493          	mv	s1,a0
#   uart_send_cstr("u have: ");
     750:	00002537          	lui	a0,0x2
     754:	c6050513          	addi	a0,a0,-928 # 1c60 <_ZNK4spanIcE8for_eachIZL12string_printS0_EUlT_E_EEvS2_.isra.0+0x440>
# static auto action_inventory(entity_id_t const eid) -> void {
     758:	00812c23          	sw	s0,24(sp)
     75c:	00112e23          	sw	ra,28(sp)
     760:	01212823          	sw	s2,16(sp)
     764:	01312623          	sw	s3,12(sp)
     768:	01412423          	sw	s4,8(sp)
     76c:	01512223          	sw	s5,4(sp)
#   uart_send_cstr("u have: ");
     770:	4b5000ef          	jal	1424 <_ZL14uart_send_cstrPKc>
#     if (id >= sizeof(entities) / sizeof(entity)) {
     774:	00200713          	li	a4,2
     778:	00002437          	lui	s0,0x2
     77c:	06976c63          	bltu	a4,s1,7f4 <_ZL16action_inventoryh+0xb0>
     780:	fa040793          	addi	a5,s0,-96 # 1fa0 <_ZL8entities>
#   return entities[id];
     784:	00149413          	slli	s0,s1,0x1
     788:	00940433          	add	s0,s0,s1
     78c:	00241413          	slli	s0,s0,0x2
     790:	40940433          	sub	s0,s0,s1
     794:	00241413          	slli	s0,s0,0x2
     798:	00878433          	add	s0,a5,s0
     79c:	00002937          	lui	s2,0x2
     7a0:	00000493          	li	s1,0
#       uart_send_cstr(", ");
     7a4:	00002a37          	lui	s4,0x2
#     if (id >= sizeof(objects) / sizeof(object)) {
     7a8:	00300a93          	li	s5,3
     7ac:	f9090913          	addi	s2,s2,-112 # 1f90 <_ZL7objects>
     7b0:	02842783          	lw	a5,40(s0)
     7b4:	04f4e463          	bltu	s1,a5,7fc <_ZL16action_inventoryh+0xb8>
#   if (counter == 0) {
     7b8:	00049863          	bnez	s1,7c8 <_ZL16action_inventoryh+0x84>
#     uart_send_cstr("nothing");
     7bc:	00002537          	lui	a0,0x2
     7c0:	c3c50513          	addi	a0,a0,-964 # 1c3c <_ZNK4spanIcE8for_eachIZL12string_printS0_EUlT_E_EEvS2_.isra.0+0x41c>
     7c4:	461000ef          	jal	1424 <_ZL14uart_send_cstrPKc>
# }
     7c8:	01812403          	lw	s0,24(sp)
     7cc:	01c12083          	lw	ra,28(sp)
     7d0:	01412483          	lw	s1,20(sp)
     7d4:	01012903          	lw	s2,16(sp)
     7d8:	00c12983          	lw	s3,12(sp)
     7dc:	00812a03          	lw	s4,8(sp)
     7e0:	00412a83          	lw	s5,4(sp)
#   uart_send_cstr("\r\n");
     7e4:	00002537          	lui	a0,0x2
     7e8:	bd450513          	addi	a0,a0,-1068 # 1bd4 <_ZNK4spanIcE8for_eachIZL12string_printS0_EUlT_E_EEvS2_.isra.0+0x3b4>
# }
     7ec:	02010113          	addi	sp,sp,32
#   uart_send_cstr("\r\n");
     7f0:	4350006f          	j	1424 <_ZL14uart_send_cstrPKc>
     7f4:	fa040413          	addi	s0,s0,-96
     7f8:	fa5ff06f          	j	79c <_ZL16action_inventoryh+0x58>
#       f(data[i]);
     7fc:	009407b3          	add	a5,s0,s1
     800:	0087c983          	lbu	s3,8(a5)
#     if (counter++) {
     804:	00048663          	beqz	s1,810 <_ZL16action_inventoryh+0xcc>
#       uart_send_cstr(", ");
     808:	c38a0513          	addi	a0,s4,-968 # 1c38 <_ZNK4spanIcE8for_eachIZL12string_printS0_EUlT_E_EEvS2_.isra.0+0x418>
     80c:	419000ef          	jal	1424 <_ZL14uart_send_cstrPKc>
#       return objects[0];
     810:	00090793          	mv	a5,s2
#     if (id >= sizeof(objects) / sizeof(object)) {
     814:	013ae663          	bltu	s5,s3,820 <_ZL16action_inventoryh+0xdc>
#   return objects[id];
     818:	00299993          	slli	s3,s3,0x2
     81c:	013907b3          	add	a5,s2,s3
#     uart_send_cstr(object_by_id(id).name);
     820:	0007a503          	lw	a0,0(a5)
#     for (size_t i = 0; i < len; ++i) {
     824:	00148493          	addi	s1,s1,1
     828:	3fd000ef          	jal	1424 <_ZL14uart_send_cstrPKc>
     82c:	f85ff06f          	j	7b0 <_ZL16action_inventoryh+0x6c>

00000830 <_ZL11action_takeh4spanIcE>:
# static auto action_take(entity_id_t const eid, string const args) -> void {
     830:	fb010113          	addi	sp,sp,-80
     834:	04112623          	sw	ra,76(sp)
     838:	04812423          	sw	s0,72(sp)
     83c:	04912223          	sw	s1,68(sp)
     840:	05212023          	sw	s2,64(sp)
     844:	03312e23          	sw	s3,60(sp)
     848:	03412c23          	sw	s4,56(sp)
     84c:	03512a23          	sw	s5,52(sp)
     850:	03612823          	sw	s6,48(sp)
     854:	03712623          	sw	s7,44(sp)
     858:	03812423          	sw	s8,40(sp)
     85c:	00b12423          	sw	a1,8(sp)
     860:	00c12623          	sw	a2,12(sp)
#   if (args.is_empty()) {
     864:	02b61e63          	bne	a2,a1,8a0 <_ZL11action_takeh4spanIcE+0x70>
#     uart_send_cstr("take what\r\n\r\n");
     868:	00002537          	lui	a0,0x2
     86c:	c6c50513          	addi	a0,a0,-916 # 1c6c <_ZNK4spanIcE8for_eachIZL12string_printS0_EUlT_E_EEvS2_.isra.0+0x44c>
# }
     870:	04812403          	lw	s0,72(sp)
     874:	04c12083          	lw	ra,76(sp)
     878:	04412483          	lw	s1,68(sp)
     87c:	04012903          	lw	s2,64(sp)
     880:	03c12983          	lw	s3,60(sp)
     884:	03812a03          	lw	s4,56(sp)
     888:	03412a83          	lw	s5,52(sp)
     88c:	03012b03          	lw	s6,48(sp)
     890:	02c12b83          	lw	s7,44(sp)
     894:	02812c03          	lw	s8,40(sp)
     898:	05010113          	addi	sp,sp,80
#     uart_send_cstr(" not here\r\n\r\n");
     89c:	3890006f          	j	1424 <_ZL14uart_send_cstrPKc>
     8a0:	00002437          	lui	s0,0x2
#     if (id >= sizeof(entities) / sizeof(entity)) {
     8a4:	00200713          	li	a4,2
     8a8:	fa040793          	addi	a5,s0,-96 # 1fa0 <_ZL8entities>
     8ac:	00058b93          	mv	s7,a1
     8b0:	00060b13          	mv	s6,a2
#       return entities[0];
     8b4:	fa040413          	addi	s0,s0,-96
#     if (id >= sizeof(entities) / sizeof(entity)) {
     8b8:	00a76e63          	bltu	a4,a0,8d4 <_ZL11action_takeh4spanIcE+0xa4>
#   return entities[id];
     8bc:	00151413          	slli	s0,a0,0x1
     8c0:	00a40433          	add	s0,s0,a0
     8c4:	00241413          	slli	s0,s0,0x2
     8c8:	40a40433          	sub	s0,s0,a0
     8cc:	00241413          	slli	s0,s0,0x2
     8d0:	00878433          	add	s0,a5,s0
#   mut &lso = location_by_id(ent.location).objects;
     8d4:	00444783          	lbu	a5,4(s0)
#     if (id >= sizeof(locations) / sizeof(location)) {
     8d8:	000024b7          	lui	s1,0x2
     8dc:	00400693          	li	a3,4
     8e0:	02448713          	addi	a4,s1,36 # 2024 <_ZL9locations>
#       return locations[0];
     8e4:	02448493          	addi	s1,s1,36
#     if (id >= sizeof(locations) / sizeof(location)) {
     8e8:	00f6ea63          	bltu	a3,a5,8fc <_ZL11action_takeh4spanIcE+0xcc>
#   return locations[id];
     8ec:	00279493          	slli	s1,a5,0x2
     8f0:	00f484b3          	add	s1,s1,a5
     8f4:	00549493          	slli	s1,s1,0x5
     8f8:	009704b3          	add	s1,a4,s1
#     for (; i < len; ++i) {
     8fc:	0844a983          	lw	s3,132(s1)
     900:	00002ab7          	lui	s5,0x2
#     size_t i = 0;
     904:	00000a13          	li	s4,0
#     if (id >= sizeof(objects) / sizeof(object)) {
     908:	00300c13          	li	s8,3
     90c:	f90a8a93          	addi	s5,s5,-112 # 1f90 <_ZL7objects>
#     for (; i < len; ++i) {
     910:	033a1063          	bne	s4,s3,930 <_ZL11action_takeh4spanIcE+0x100>
#   str.for_each([](let ch) { uart_send_char(ch); });
     914:	01810513          	addi	a0,sp,24
     918:	01712c23          	sw	s7,24(sp)
     91c:	01612e23          	sw	s6,28(sp)
     920:	701000ef          	jal	1820 <_ZNK4spanIcE8for_eachIZL12string_printS0_EUlT_E_EEvS2_.isra.0>
#     uart_send_cstr(" not here\r\n\r\n");
     924:	00002537          	lui	a0,0x2
     928:	c7c50513          	addi	a0,a0,-900 # 1c7c <_ZNK4spanIcE8for_eachIZL12string_printS0_EUlT_E_EEvS2_.isra.0+0x45c>
     92c:	f45ff06f          	j	870 <_ZL11action_takeh4spanIcE+0x40>
#       if (!f(data[i])) {
     930:	01448933          	add	s2,s1,s4
     934:	00494783          	lbu	a5,4(s2)
#       return objects[0];
     938:	000a8713          	mv	a4,s5
#     if (id >= sizeof(objects) / sizeof(object)) {
     93c:	00fc6663          	bltu	s8,a5,948 <_ZL11action_takeh4spanIcE+0x118>
#   return objects[id];
     940:	00279793          	slli	a5,a5,0x2
     944:	00fa8733          	add	a4,s5,a5
#     if (string_equals_cstr(args, object_by_id(id).name)) {
     948:	00072603          	lw	a2,0(a4)
     94c:	00812503          	lw	a0,8(sp)
     950:	00c12583          	lw	a1,12(sp)
     954:	f78ff0ef          	jal	cc <_ZL18string_equals_cstr4spanIcEPKc>
     958:	00051663          	bnez	a0,964 <_ZL11action_takeh4spanIcE+0x134>
#     for (; i < len; ++i) {
     95c:	001a0a13          	addi	s4,s4,1
     960:	fb1ff06f          	j	910 <_ZL11action_takeh4spanIcE+0xe0>
#     return {};
     964:	00000713          	li	a4,0
#     if (pos.index < len) {
     968:	013a7463          	bgeu	s4,s3,970 <_ZL11action_takeh4spanIcE+0x140>
#       return data[pos.index];
     96c:	00494703          	lbu	a4,4(s2)
#     if (len == Size - 1) {
     970:	02842783          	lw	a5,40(s0)
     974:	01f00693          	li	a3,31
     978:	02d78863          	beq	a5,a3,9a8 <_ZL11action_takeh4spanIcE+0x178>
#     data[len] = elem;
     97c:	00f406b3          	add	a3,s0,a5
     980:	00e68423          	sb	a4,8(a3)
#     ++len;
     984:	00178793          	addi	a5,a5,1
     988:	02f42423          	sw	a5,40(s0)
#     if (pos.index >= len) {
     98c:	013a7e63          	bgeu	s4,s3,9a8 <_ZL11action_takeh4spanIcE+0x178>
#     --len;
     990:	fff98793          	addi	a5,s3,-1
     994:	08f4a223          	sw	a5,132(s1)
     998:	009989b3          	add	s3,s3,s1
     99c:	00090793          	mv	a5,s2
#     for (size_t i = pos.index; i < len; ++i) {
     9a0:	00178793          	addi	a5,a5,1
     9a4:	03379a63          	bne	a5,s3,9d8 <_ZL11action_takeh4spanIcE+0x1a8>
# }
     9a8:	04c12083          	lw	ra,76(sp)
     9ac:	04812403          	lw	s0,72(sp)
     9b0:	04412483          	lw	s1,68(sp)
     9b4:	04012903          	lw	s2,64(sp)
     9b8:	03c12983          	lw	s3,60(sp)
     9bc:	03812a03          	lw	s4,56(sp)
     9c0:	03412a83          	lw	s5,52(sp)
     9c4:	03012b03          	lw	s6,48(sp)
     9c8:	02c12b83          	lw	s7,44(sp)
     9cc:	02812c03          	lw	s8,40(sp)
     9d0:	05010113          	addi	sp,sp,80
     9d4:	00008067          	ret
#       data[i] = data[i + 1];
     9d8:	0047c703          	lbu	a4,4(a5)
     9dc:	00e781a3          	sb	a4,3(a5)
#     for (size_t i = pos.index; i < len; ++i) {
     9e0:	fc1ff06f          	j	9a0 <_ZL11action_takeh4spanIcE+0x170>

000009e4 <_ZL11action_droph4spanIcE>:
# static auto action_drop(entity_id_t const eid, string const args) -> void {
     9e4:	fb010113          	addi	sp,sp,-80
     9e8:	04112623          	sw	ra,76(sp)
     9ec:	04812423          	sw	s0,72(sp)
     9f0:	04912223          	sw	s1,68(sp)
     9f4:	05212023          	sw	s2,64(sp)
     9f8:	03312e23          	sw	s3,60(sp)
     9fc:	03412c23          	sw	s4,56(sp)
     a00:	03512a23          	sw	s5,52(sp)
     a04:	03612823          	sw	s6,48(sp)
     a08:	03712623          	sw	s7,44(sp)
     a0c:	00b12423          	sw	a1,8(sp)
     a10:	00c12623          	sw	a2,12(sp)
#   if (args.size() == 0) {
     a14:	02b61c63          	bne	a2,a1,a4c <_ZL11action_droph4spanIcE+0x68>
#     uart_send_cstr("drop what\r\n\r\n");
     a18:	00002537          	lui	a0,0x2
     a1c:	c8c50513          	addi	a0,a0,-884 # 1c8c <_ZNK4spanIcE8for_eachIZL12string_printS0_EUlT_E_EEvS2_.isra.0+0x46c>
# }
     a20:	04812403          	lw	s0,72(sp)
     a24:	04c12083          	lw	ra,76(sp)
     a28:	04412483          	lw	s1,68(sp)
     a2c:	04012903          	lw	s2,64(sp)
     a30:	03c12983          	lw	s3,60(sp)
     a34:	03812a03          	lw	s4,56(sp)
     a38:	03412a83          	lw	s5,52(sp)
     a3c:	03012b03          	lw	s6,48(sp)
     a40:	02c12b83          	lw	s7,44(sp)
     a44:	05010113          	addi	sp,sp,80
#     uart_send_cstr("\r\n\r\n");
     a48:	1dd0006f          	j	1424 <_ZL14uart_send_cstrPKc>
     a4c:	00002437          	lui	s0,0x2
#     if (id >= sizeof(entities) / sizeof(entity)) {
     a50:	00200713          	li	a4,2
     a54:	fa040793          	addi	a5,s0,-96 # 1fa0 <_ZL8entities>
     a58:	00058a93          	mv	s5,a1
     a5c:	00060a13          	mv	s4,a2
#       return entities[0];
     a60:	fa040413          	addi	s0,s0,-96
#     if (id >= sizeof(entities) / sizeof(entity)) {
     a64:	00a76e63          	bltu	a4,a0,a80 <_ZL11action_droph4spanIcE+0x9c>
#   return entities[id];
     a68:	00151413          	slli	s0,a0,0x1
     a6c:	00a40433          	add	s0,s0,a0
     a70:	00241413          	slli	s0,s0,0x2
     a74:	40a40433          	sub	s0,s0,a0
     a78:	00241413          	slli	s0,s0,0x2
     a7c:	00878433          	add	s0,a5,s0
#     for (; i < len; ++i) {
     a80:	02842903          	lw	s2,40(s0)
     a84:	00002b37          	lui	s6,0x2
#     size_t i = 0;
     a88:	00000993          	li	s3,0
#     if (id >= sizeof(objects) / sizeof(object)) {
     a8c:	00300b93          	li	s7,3
     a90:	f90b0b13          	addi	s6,s6,-112 # 1f90 <_ZL7objects>
#     for (; i < len; ++i) {
     a94:	03299663          	bne	s3,s2,ac0 <_ZL11action_droph4spanIcE+0xdc>
#     uart_send_cstr("u don't have ");
     a98:	00002537          	lui	a0,0x2
     a9c:	c9c50513          	addi	a0,a0,-868 # 1c9c <_ZNK4spanIcE8for_eachIZL12string_printS0_EUlT_E_EEvS2_.isra.0+0x47c>
     aa0:	185000ef          	jal	1424 <_ZL14uart_send_cstrPKc>
#   str.for_each([](let ch) { uart_send_char(ch); });
     aa4:	01810513          	addi	a0,sp,24
     aa8:	01512c23          	sw	s5,24(sp)
     aac:	01412e23          	sw	s4,28(sp)
     ab0:	571000ef          	jal	1820 <_ZNK4spanIcE8for_eachIZL12string_printS0_EUlT_E_EEvS2_.isra.0>
#     uart_send_cstr("\r\n\r\n");
     ab4:	00002537          	lui	a0,0x2
     ab8:	88c50513          	addi	a0,a0,-1908 # 188c <_ZNK4spanIcE8for_eachIZL12string_printS0_EUlT_E_EEvS2_.isra.0+0x6c>
     abc:	f65ff06f          	j	a20 <_ZL11action_droph4spanIcE+0x3c>
#       if (!f(data[i])) {
     ac0:	013404b3          	add	s1,s0,s3
     ac4:	0084c783          	lbu	a5,8(s1)
#       return objects[0];
     ac8:	000b0713          	mv	a4,s6
#     if (id >= sizeof(objects) / sizeof(object)) {
     acc:	00fbe663          	bltu	s7,a5,ad8 <_ZL11action_droph4spanIcE+0xf4>
#   return objects[id];
     ad0:	00279793          	slli	a5,a5,0x2
     ad4:	00fb0733          	add	a4,s6,a5
#     if (string_equals_cstr(args, object_by_id(id).name)) {
     ad8:	00072603          	lw	a2,0(a4)
     adc:	00812503          	lw	a0,8(sp)
     ae0:	00c12583          	lw	a1,12(sp)
     ae4:	de8ff0ef          	jal	cc <_ZL18string_equals_cstr4spanIcEPKc>
     ae8:	00051663          	bnez	a0,af4 <_ZL11action_droph4spanIcE+0x110>
#     for (; i < len; ++i) {
     aec:	00198993          	addi	s3,s3,1
     af0:	fa5ff06f          	j	a94 <_ZL11action_droph4spanIcE+0xb0>
#   if (location_by_id(ent.location).objects.add(lso.at(pos))) {
     af4:	00444703          	lbu	a4,4(s0)
#     if (id >= sizeof(locations) / sizeof(location)) {
     af8:	000027b7          	lui	a5,0x2
     afc:	00400613          	li	a2,4
     b00:	02478693          	addi	a3,a5,36 # 2024 <_ZL9locations>
#       return locations[0];
     b04:	02478793          	addi	a5,a5,36
#     if (id >= sizeof(locations) / sizeof(location)) {
     b08:	00e66a63          	bltu	a2,a4,b1c <_ZL11action_droph4spanIcE+0x138>
#   return locations[id];
     b0c:	00271793          	slli	a5,a4,0x2
     b10:	00e787b3          	add	a5,a5,a4
     b14:	00579793          	slli	a5,a5,0x5
     b18:	00f687b3          	add	a5,a3,a5
#     return {};
     b1c:	00000693          	li	a3,0
#     if (pos.index < len) {
     b20:	0129f463          	bgeu	s3,s2,b28 <_ZL11action_droph4spanIcE+0x144>
#       return data[pos.index];
     b24:	0084c683          	lbu	a3,8(s1)
#     if (len == Size - 1) {
     b28:	0847a703          	lw	a4,132(a5)
     b2c:	07f00613          	li	a2,127
     b30:	02c70863          	beq	a4,a2,b60 <_ZL11action_droph4spanIcE+0x17c>
#     data[len] = elem;
     b34:	00e78633          	add	a2,a5,a4
     b38:	00d60223          	sb	a3,4(a2)
#     ++len;
     b3c:	00170713          	addi	a4,a4,1
     b40:	08e7a223          	sw	a4,132(a5)
#     if (pos.index >= len) {
     b44:	0129fe63          	bgeu	s3,s2,b60 <_ZL11action_droph4spanIcE+0x17c>
#     --len;
     b48:	fff90793          	addi	a5,s2,-1
     b4c:	02f42423          	sw	a5,40(s0)
     b50:	00890933          	add	s2,s2,s0
     b54:	00048793          	mv	a5,s1
#     for (size_t i = pos.index; i < len; ++i) {
     b58:	00178793          	addi	a5,a5,1
     b5c:	03279863          	bne	a5,s2,b8c <_ZL11action_droph4spanIcE+0x1a8>
# }
     b60:	04c12083          	lw	ra,76(sp)
     b64:	04812403          	lw	s0,72(sp)
     b68:	04412483          	lw	s1,68(sp)
     b6c:	04012903          	lw	s2,64(sp)
     b70:	03c12983          	lw	s3,60(sp)
     b74:	03812a03          	lw	s4,56(sp)
     b78:	03412a83          	lw	s5,52(sp)
     b7c:	03012b03          	lw	s6,48(sp)
     b80:	02c12b83          	lw	s7,44(sp)
     b84:	05010113          	addi	sp,sp,80
     b88:	00008067          	ret
#       data[i] = data[i + 1];
     b8c:	0087c703          	lbu	a4,8(a5)
     b90:	00e783a3          	sb	a4,7(a5)
#     for (size_t i = pos.index; i < len; ++i) {
     b94:	fc5ff06f          	j	b58 <_ZL11action_droph4spanIcE+0x174>

00000b98 <_ZL9action_gohh>:
#     if (id >= sizeof(entities) / sizeof(entity)) {
     b98:	000027b7          	lui	a5,0x2
     b9c:	00200693          	li	a3,2
     ba0:	fa078713          	addi	a4,a5,-96 # 1fa0 <_ZL8entities>
#       return entities[0];
     ba4:	fa078793          	addi	a5,a5,-96
#     if (id >= sizeof(entities) / sizeof(entity)) {
     ba8:	00a6ee63          	bltu	a3,a0,bc4 <_ZL9action_gohh+0x2c>
#   return entities[id];
     bac:	00151793          	slli	a5,a0,0x1
     bb0:	00a787b3          	add	a5,a5,a0
     bb4:	00279793          	slli	a5,a5,0x2
     bb8:	40a787b3          	sub	a5,a5,a0
     bbc:	00279793          	slli	a5,a5,0x2
     bc0:	00f707b3          	add	a5,a4,a5
#   mut &loc = location_by_id(ent.location);
     bc4:	0047c683          	lbu	a3,4(a5)
#     if (id >= sizeof(locations) / sizeof(location)) {
     bc8:	00002737          	lui	a4,0x2
     bcc:	00400613          	li	a2,4
     bd0:	02470813          	addi	a6,a4,36 # 2024 <_ZL9locations>
#       return locations[0];
     bd4:	02470713          	addi	a4,a4,36
#     if (id >= sizeof(locations) / sizeof(location)) {
     bd8:	00d66a63          	bltu	a2,a3,bec <_ZL9action_gohh+0x54>
#   return locations[id];
     bdc:	00269713          	slli	a4,a3,0x2
     be0:	00d70733          	add	a4,a4,a3
     be4:	00571713          	slli	a4,a4,0x5
     be8:	00e80733          	add	a4,a6,a4
#     if (ix < len) {
     bec:	09c72683          	lw	a3,156(a4)
     bf0:	00d5f863          	bgeu	a1,a3,c00 <_ZL9action_gohh+0x68>
#       return data[ix];
     bf4:	00b705b3          	add	a1,a4,a1
     bf8:	0945c603          	lbu	a2,148(a1)
#   if (!to) {
     bfc:	00061863          	bnez	a2,c0c <_ZL9action_gohh+0x74>
#     uart_send_cstr("cannot go there\r\n\r\n");
     c00:	00002537          	lui	a0,0x2
     c04:	cac50513          	addi	a0,a0,-852 # 1cac <_ZNK4spanIcE8for_eachIZL12string_printS0_EUlT_E_EEvS2_.isra.0+0x48c>
     c08:	01d0006f          	j	1424 <_ZL14uart_send_cstrPKc>
#     if (id >= sizeof(locations) / sizeof(location)) {
     c0c:	00400593          	li	a1,4
#       return locations[0];
     c10:	00080693          	mv	a3,a6
#     if (id >= sizeof(locations) / sizeof(location)) {
     c14:	00c5ea63          	bltu	a1,a2,c28 <_ZL9action_gohh+0x90>
#   return locations[id];
     c18:	00261693          	slli	a3,a2,0x2
     c1c:	00c686b3          	add	a3,a3,a2
     c20:	00569693          	slli	a3,a3,0x5
     c24:	00d806b3          	add	a3,a6,a3
#     if (len == Size - 1) {
     c28:	0906a583          	lw	a1,144(a3)
     c2c:	00700813          	li	a6,7
     c30:	07058063          	beq	a1,a6,c90 <_ZL9action_gohh+0xf8>
#     data[len] = elem;
     c34:	00b68833          	add	a6,a3,a1
     c38:	08a80423          	sb	a0,136(a6)
#     ++len;
     c3c:	00158593          	addi	a1,a1,1
     c40:	08b6a823          	sw	a1,144(a3)
#     for (size_t i = 0; i < len; ++i) {
     c44:	00000813          	li	a6,0
     c48:	09072583          	lw	a1,144(a4)
     c4c:	02b87663          	bgeu	a6,a1,c78 <_ZL9action_gohh+0xe0>
#       if (data[i] != elem) {
     c50:	010706b3          	add	a3,a4,a6
     c54:	0886c883          	lbu	a7,136(a3)
     c58:	00a88663          	beq	a7,a0,c64 <_ZL9action_gohh+0xcc>
#     for (size_t i = 0; i < len; ++i) {
     c5c:	00180813          	addi	a6,a6,1
     c60:	fe9ff06f          	j	c48 <_ZL9action_gohh+0xb0>
#       --len;
     c64:	fff58593          	addi	a1,a1,-1
     c68:	08b72823          	sw	a1,144(a4)
#       for (size_t j = i; j < len; ++j) {
     c6c:	00168513          	addi	a0,a3,1
     c70:	40e686b3          	sub	a3,a3,a4
     c74:	00b6e663          	bltu	a3,a1,c80 <_ZL9action_gohh+0xe8>
#     ent.location = to;
     c78:	00c78223          	sb	a2,4(a5)
     c7c:	00008067          	ret
#         data[j] = data[j + 1];
     c80:	08854683          	lbu	a3,136(a0)
     c84:	08d503a3          	sb	a3,135(a0)
     c88:	00050693          	mv	a3,a0
     c8c:	fe1ff06f          	j	c6c <_ZL9action_gohh+0xd4>
# }
     c90:	00008067          	ret

00000c94 <_ZL11action_giveh4spanIcE>:
# static auto action_give(entity_id_t const eid, string const args) -> void {
     c94:	f8010113          	addi	sp,sp,-128
     c98:	06912a23          	sw	s1,116(sp)
     c9c:	00050493          	mv	s1,a0
#   let w1 = string_next_word(args);
     ca0:	03010513          	addi	a0,sp,48
# static auto action_give(entity_id_t const eid, string const args) -> void {
     ca4:	07212823          	sw	s2,112(sp)
     ca8:	07312623          	sw	s3,108(sp)
     cac:	06112e23          	sw	ra,124(sp)
     cb0:	06812c23          	sw	s0,120(sp)
     cb4:	07412423          	sw	s4,104(sp)
     cb8:	07512223          	sw	s5,100(sp)
     cbc:	07612023          	sw	s6,96(sp)
     cc0:	05712e23          	sw	s7,92(sp)
     cc4:	05812c23          	sw	s8,88(sp)
     cc8:	05912a23          	sw	s9,84(sp)
     ccc:	05a12823          	sw	s10,80(sp)
     cd0:	00b12423          	sw	a1,8(sp)
     cd4:	00c12623          	sw	a2,12(sp)
#   let w1 = string_next_word(args);
     cd8:	c5cff0ef          	jal	134 <_ZL16string_next_word4spanIcE>
#   let obj_nm = w1.word;
     cdc:	03012903          	lw	s2,48(sp)
     ce0:	03412983          	lw	s3,52(sp)
     ce4:	01212c23          	sw	s2,24(sp)
     ce8:	01312e23          	sw	s3,28(sp)
#   if (obj_nm.is_empty()) {
     cec:	05299263          	bne	s3,s2,d30 <_ZL11action_giveh4spanIcE+0x9c>
#     uart_send_cstr("give what\r\n\r\n");
     cf0:	00002537          	lui	a0,0x2
     cf4:	cc050513          	addi	a0,a0,-832 # 1cc0 <_ZNK4spanIcE8for_eachIZL12string_printS0_EUlT_E_EEvS2_.isra.0+0x4a0>
# }
     cf8:	07812403          	lw	s0,120(sp)
     cfc:	07c12083          	lw	ra,124(sp)
     d00:	07412483          	lw	s1,116(sp)
     d04:	07012903          	lw	s2,112(sp)
     d08:	06c12983          	lw	s3,108(sp)
     d0c:	06812a03          	lw	s4,104(sp)
     d10:	06412a83          	lw	s5,100(sp)
     d14:	06012b03          	lw	s6,96(sp)
     d18:	05c12b83          	lw	s7,92(sp)
     d1c:	05812c03          	lw	s8,88(sp)
     d20:	05412c83          	lw	s9,84(sp)
     d24:	05012d03          	lw	s10,80(sp)
     d28:	08010113          	addi	sp,sp,128
#     uart_send_cstr(" is not here\r\n\r\n");
     d2c:	6f80006f          	j	1424 <_ZL14uart_send_cstrPKc>
#   let w2 = string_next_word(w1.rem);
     d30:	03812583          	lw	a1,56(sp)
     d34:	03c12603          	lw	a2,60(sp)
     d38:	04010513          	addi	a0,sp,64
     d3c:	bf8ff0ef          	jal	134 <_ZL16string_next_word4spanIcE>
#   let to_ent_nm = w2.word;
     d40:	04012b83          	lw	s7,64(sp)
     d44:	04412b03          	lw	s6,68(sp)
     d48:	03712023          	sw	s7,32(sp)
     d4c:	03612223          	sw	s6,36(sp)
#   if (to_ent_nm.is_empty()) {
     d50:	017b1863          	bne	s6,s7,d60 <_ZL11action_giveh4spanIcE+0xcc>
#     uart_send_cstr("give to whom\r\n\r\n");
     d54:	00002537          	lui	a0,0x2
     d58:	cd050513          	addi	a0,a0,-816 # 1cd0 <_ZNK4spanIcE8for_eachIZL12string_printS0_EUlT_E_EEvS2_.isra.0+0x4b0>
     d5c:	f9dff06f          	j	cf8 <_ZL11action_giveh4spanIcE+0x64>
#     if (id >= sizeof(entities) / sizeof(entity)) {
     d60:	00002437          	lui	s0,0x2
     d64:	00200793          	li	a5,2
     d68:	fa040a13          	addi	s4,s0,-96 # 1fa0 <_ZL8entities>
#       return entities[0];
     d6c:	fa040413          	addi	s0,s0,-96
#     if (id >= sizeof(entities) / sizeof(entity)) {
     d70:	0097ee63          	bltu	a5,s1,d8c <_ZL11action_giveh4spanIcE+0xf8>
#   return entities[id];
     d74:	00149413          	slli	s0,s1,0x1
     d78:	00940433          	add	s0,s0,s1
     d7c:	00241413          	slli	s0,s0,0x2
     d80:	40940433          	sub	s0,s0,s1
     d84:	00241413          	slli	s0,s0,0x2
     d88:	008a0433          	add	s0,s4,s0
#   let &loc = location_by_id(from_entity.location);
     d8c:	00444783          	lbu	a5,4(s0)
#     if (id >= sizeof(locations) / sizeof(location)) {
     d90:	000024b7          	lui	s1,0x2
     d94:	00400693          	li	a3,4
     d98:	02448713          	addi	a4,s1,36 # 2024 <_ZL9locations>
#       return locations[0];
     d9c:	02448493          	addi	s1,s1,36
#     if (id >= sizeof(locations) / sizeof(location)) {
     da0:	00f6ea63          	bltu	a3,a5,db4 <_ZL11action_giveh4spanIcE+0x120>
#   return locations[id];
     da4:	00279493          	slli	s1,a5,0x2
     da8:	00f484b3          	add	s1,s1,a5
     dac:	00549493          	slli	s1,s1,0x5
     db0:	009704b3          	add	s1,a4,s1
#     for (; i < len; ++i) {
     db4:	0904ac03          	lw	s8,144(s1)
#     size_t i = 0;
     db8:	00000a93          	li	s5,0
#     if (id >= sizeof(entities) / sizeof(entity)) {
     dbc:	00200d13          	li	s10,2
#     for (; i < len; ++i) {
     dc0:	038a9063          	bne	s5,s8,de0 <_ZL11action_giveh4spanIcE+0x14c>
#   str.for_each([](let ch) { uart_send_char(ch); });
     dc4:	02810513          	addi	a0,sp,40
     dc8:	03712423          	sw	s7,40(sp)
     dcc:	03612623          	sw	s6,44(sp)
     dd0:	251000ef          	jal	1820 <_ZNK4spanIcE8for_eachIZL12string_printS0_EUlT_E_EEvS2_.isra.0>
#     uart_send_cstr(" is not here\r\n\r\n");
     dd4:	00002537          	lui	a0,0x2
     dd8:	cfc50513          	addi	a0,a0,-772 # 1cfc <_ZNK4spanIcE8for_eachIZL12string_printS0_EUlT_E_EEvS2_.isra.0+0x4dc>
     ddc:	f1dff06f          	j	cf8 <_ZL11action_giveh4spanIcE+0x64>
#       if (!f(data[i])) {
     de0:	01548cb3          	add	s9,s1,s5
     de4:	088cc703          	lbu	a4,136(s9)
#       return entities[0];
     de8:	000a0793          	mv	a5,s4
#     if (id >= sizeof(entities) / sizeof(entity)) {
     dec:	00ed6e63          	bltu	s10,a4,e08 <_ZL11action_giveh4spanIcE+0x174>
#   return entities[id];
     df0:	00171793          	slli	a5,a4,0x1
     df4:	00e787b3          	add	a5,a5,a4
     df8:	00279793          	slli	a5,a5,0x2
     dfc:	40e787b3          	sub	a5,a5,a4
     e00:	00279793          	slli	a5,a5,0x2
     e04:	00fa07b3          	add	a5,s4,a5
#     if (string_equals_cstr(to_ent_nm, entity_by_id(id).name)) {
     e08:	0007a603          	lw	a2,0(a5)
     e0c:	000b8513          	mv	a0,s7
     e10:	000b0593          	mv	a1,s6
     e14:	03712023          	sw	s7,32(sp)
     e18:	03612223          	sw	s6,36(sp)
     e1c:	ab0ff0ef          	jal	cc <_ZL18string_equals_cstr4spanIcEPKc>
     e20:	0c051a63          	bnez	a0,ef4 <_ZL11action_giveh4spanIcE+0x260>
#     for (; i < len; ++i) {
     e24:	001a8a93          	addi	s5,s5,1
     e28:	f99ff06f          	j	dc0 <_ZL11action_giveh4spanIcE+0x12c>
#       if (!f(data[i])) {
     e2c:	01540a33          	add	s4,s0,s5
     e30:	008a4783          	lbu	a5,8(s4)
#       return objects[0];
     e34:	000b0713          	mv	a4,s6
#     if (id >= sizeof(objects) / sizeof(object)) {
     e38:	00fc6663          	bltu	s8,a5,e44 <_ZL11action_giveh4spanIcE+0x1b0>
#   return objects[id];
     e3c:	00279793          	slli	a5,a5,0x2
     e40:	00fb0733          	add	a4,s6,a5
#     if (string_equals_cstr(obj_nm, object_by_id(id).name)) {
     e44:	00072603          	lw	a2,0(a4)
     e48:	00090513          	mv	a0,s2
     e4c:	00098593          	mv	a1,s3
     e50:	01212c23          	sw	s2,24(sp)
     e54:	01312e23          	sw	s3,28(sp)
     e58:	a74ff0ef          	jal	cc <_ZL18string_equals_cstr4spanIcEPKc>
     e5c:	00051c63          	bnez	a0,e74 <_ZL11action_giveh4spanIcE+0x1e0>
#     for (; i < len; ++i) {
     e60:	001a8a93          	addi	s5,s5,1
     e64:	0d40006f          	j	f38 <_ZL11action_giveh4spanIcE+0x2a4>
#       data[i] = data[i + 1];
     e68:	0087c683          	lbu	a3,8(a5)
     e6c:	00d783a3          	sb	a3,7(a5)
#     for (size_t i = pos.index; i < len; ++i) {
     e70:	0440006f          	j	eb4 <_ZL11action_giveh4spanIcE+0x220>
#     return {};
     e74:	00000713          	li	a4,0
#     if (pos.index < len) {
     e78:	017af463          	bgeu	s5,s7,e80 <_ZL11action_giveh4spanIcE+0x1ec>
#       return data[pos.index];
     e7c:	008a4703          	lbu	a4,8(s4)
#     if (len == Size - 1) {
     e80:	0284a783          	lw	a5,40(s1)
     e84:	01f00693          	li	a3,31
     e88:	02d78a63          	beq	a5,a3,ebc <_ZL11action_giveh4spanIcE+0x228>
#     data[len] = elem;
     e8c:	00f486b3          	add	a3,s1,a5
     e90:	00e68423          	sb	a4,8(a3)
#     ++len;
     e94:	00178793          	addi	a5,a5,1
     e98:	02f4a423          	sw	a5,40(s1)
#     if (pos.index >= len) {
     e9c:	02842703          	lw	a4,40(s0)
     ea0:	00eafe63          	bgeu	s5,a4,ebc <_ZL11action_giveh4spanIcE+0x228>
#     --len;
     ea4:	fff70793          	addi	a5,a4,-1
     ea8:	02f42423          	sw	a5,40(s0)
     eac:	00e40733          	add	a4,s0,a4
     eb0:	000a0793          	mv	a5,s4
#     for (size_t i = pos.index; i < len; ++i) {
     eb4:	00178793          	addi	a5,a5,1
     eb8:	fae798e3          	bne	a5,a4,e68 <_ZL11action_giveh4spanIcE+0x1d4>
# }
     ebc:	07c12083          	lw	ra,124(sp)
     ec0:	07812403          	lw	s0,120(sp)
     ec4:	07412483          	lw	s1,116(sp)
     ec8:	07012903          	lw	s2,112(sp)
     ecc:	06c12983          	lw	s3,108(sp)
     ed0:	06812a03          	lw	s4,104(sp)
     ed4:	06412a83          	lw	s5,100(sp)
     ed8:	06012b03          	lw	s6,96(sp)
     edc:	05c12b83          	lw	s7,92(sp)
     ee0:	05812c03          	lw	s8,88(sp)
     ee4:	05412c83          	lw	s9,84(sp)
     ee8:	05012d03          	lw	s10,80(sp)
     eec:	08010113          	addi	sp,sp,128
     ef0:	00008067          	ret
#     return {};
     ef4:	00000793          	li	a5,0
#     if (pos.index < len) {
     ef8:	018afa63          	bgeu	s5,s8,f0c <_ZL11action_giveh4spanIcE+0x278>
#       return data[pos.index];
     efc:	088cc783          	lbu	a5,136(s9)
#     if (id >= sizeof(entities) / sizeof(entity)) {
     f00:	00200713          	li	a4,2
#       return entities[0];
     f04:	000a0493          	mv	s1,s4
#     if (id >= sizeof(entities) / sizeof(entity)) {
     f08:	00f76e63          	bltu	a4,a5,f24 <_ZL11action_giveh4spanIcE+0x290>
#   return entities[id];
     f0c:	00179493          	slli	s1,a5,0x1
     f10:	00f484b3          	add	s1,s1,a5
     f14:	00249493          	slli	s1,s1,0x2
     f18:	40f484b3          	sub	s1,s1,a5
     f1c:	00249493          	slli	s1,s1,0x2
     f20:	009a04b3          	add	s1,s4,s1
#     for (; i < len; ++i) {
     f24:	02842b83          	lw	s7,40(s0)
     f28:	00002b37          	lui	s6,0x2
#     size_t i = 0;
     f2c:	00000a93          	li	s5,0
#     if (id >= sizeof(objects) / sizeof(object)) {
     f30:	00300c13          	li	s8,3
     f34:	f90b0b13          	addi	s6,s6,-112 # 1f90 <_ZL7objects>
#     for (; i < len; ++i) {
     f38:	ef7a9ae3          	bne	s5,s7,e2c <_ZL11action_giveh4spanIcE+0x198>
#   str.for_each([](let ch) { uart_send_char(ch); });
     f3c:	02810513          	addi	a0,sp,40
     f40:	03212423          	sw	s2,40(sp)
     f44:	03312623          	sw	s3,44(sp)
     f48:	0d9000ef          	jal	1820 <_ZNK4spanIcE8for_eachIZL12string_printS0_EUlT_E_EEvS2_.isra.0>
#     uart_send_cstr(" not in inventory\r\n\r\n");
     f4c:	00002537          	lui	a0,0x2
     f50:	ce450513          	addi	a0,a0,-796 # 1ce4 <_ZNK4spanIcE8for_eachIZL12string_printS0_EUlT_E_EEvS2_.isra.0+0x4c4>
     f54:	da5ff06f          	j	cf8 <_ZL11action_giveh4spanIcE+0x64>

00000f58 <_ZL10print_helpv>:
#   uart_send_cstr(
     f58:	00002537          	lui	a0,0x2
     f5c:	d1050513          	addi	a0,a0,-752 # 1d10 <_ZNK4spanIcE8for_eachIZL12string_printS0_EUlT_E_EEvS2_.isra.0+0x4f0>
     f60:	4c40006f          	j	1424 <_ZL14uart_send_cstrPKc>

00000f64 <_ZL27input_escape_sequence_clearv>:
#     input_escape_sequence[i] = '\0';
     f64:	000027b7          	lui	a5,0x2
     f68:	3607a223          	sw	zero,868(a5) # 2364 <_ZL21input_escape_sequence>
     f6c:	36478793          	addi	a5,a5,868
     f70:	0007a223          	sw	zero,4(a5)
# }
     f74:	00008067          	ret

00000f78 <_ZL5inputR14command_buffer>:
# static auto input(command_buffer &cmd_buf) -> void {
     f78:	fd010113          	addi	sp,sp,-48
     f7c:	02812423          	sw	s0,40(sp)
     f80:	02912223          	sw	s1,36(sp)
     f84:	01312e23          	sw	s3,28(sp)
     f88:	01412c23          	sw	s4,24(sp)
     f8c:	01512a23          	sw	s5,20(sp)
     f90:	01612823          	sw	s6,16(sp)
     f94:	01712623          	sw	s7,12(sp)
     f98:	01812423          	sw	s8,8(sp)
     f9c:	01912223          	sw	s9,4(sp)
     fa0:	01a12023          	sw	s10,0(sp)
     fa4:	02112623          	sw	ra,44(sp)
     fa8:	03212023          	sw	s2,32(sp)
     fac:	00050413          	mv	s0,a0
#   auto reset() -> void { cursor_ = end_ = 0; }
     fb0:	040508a3          	sb	zero,81(a0)
     fb4:	04050823          	sb	zero,80(a0)
#   mut escape_sequence_parameter = 0;
     fb8:	00000d13          	li	s10,0
#   mut state = input_state::NORMAL;
     fbc:	00000493          	li	s1,0
#     switch (state) {
     fc0:	00100993          	li	s3,1
     fc4:	00200a13          	li	s4,2
#       if (ch >= '0' && ch <= '9') {
     fc8:	00900a93          	li	s5,9
#         switch (ch) {
     fcc:	04400b13          	li	s6,68
#             uart_send_cstr("\x1B[D");
     fd0:	00002bb7          	lui	s7,0x2
#         switch (ch) {
     fd4:	07e00c13          	li	s8,126
#           if (escape_sequence_parameter == 3) {
     fd8:	00300c93          	li	s9,3
#     let ch = uart_read_char();
     fdc:	480000ef          	jal	145c <_ZL14uart_read_charv>
#     led_set(~ch);
     fe0:	fff54793          	not	a5,a0
     fe4:	fef02e23          	sw	a5,-4(zero) # fffffffc <__bss_end+0xffffdc90>
#     let ch = uart_read_char();
     fe8:	00050913          	mv	s2,a0
#     switch (state) {
     fec:	17348863          	beq	s1,s3,115c <_ZL5inputR14command_buffer+0x1e4>
     ff0:	17448e63          	beq	s1,s4,116c <_ZL5inputR14command_buffer+0x1f4>
#       if (ch == 0x1B) {
     ff4:	01b00793          	li	a5,27
     ff8:	06f50663          	beq	a0,a5,1064 <_ZL5inputR14command_buffer+0xec>
#       } else if (ch == char_backspace) {
     ffc:	07f00793          	li	a5,127
    1000:	08f51863          	bne	a0,a5,1090 <_ZL5inputR14command_buffer+0x118>
#     if (cursor_ == 0) {
    1004:	05044603          	lbu	a2,80(s0)
    1008:	00000493          	li	s1,0
    100c:	fc0608e3          	beqz	a2,fdc <_ZL5inputR14command_buffer+0x64>
#     if (cursor_ == end_) {
    1010:	05144583          	lbu	a1,81(s0)
#       --cursor_;
    1014:	fff60693          	addi	a3,a2,-1
    1018:	0ff6f693          	zext.b	a3,a3
#       --end_;
    101c:	fff58713          	addi	a4,a1,-1
    1020:	0ff77713          	zext.b	a4,a4
    1024:	00c407b3          	add	a5,s0,a2
#     if (cursor_ == end_) {
    1028:	04b61863          	bne	a2,a1,1078 <_ZL5inputR14command_buffer+0x100>
#       --end_;
    102c:	04e408a3          	sb	a4,81(s0)
#       --cursor_;
    1030:	04d40823          	sb	a3,80(s0)
#           uart_send_char(ch);
    1034:	07f00513          	li	a0,127
    1038:	410000ef          	jal	1448 <_ZL14uart_send_charc>
#           cmd_buf.apply_on_chars_from_cursor_to_end(
    103c:	00040513          	mv	a0,s0
    1040:	798000ef          	jal	17d8 <_ZNK14command_buffer33apply_on_chars_from_cursor_to_endIZL5inputRS_EUlcE_EEvOT_.isra.0>
#           uart_send_char(' ');
    1044:	02000513          	li	a0,32
    1048:	400000ef          	jal	1448 <_ZL14uart_send_charc>
#   auto characters_after_cursor() const -> size_t { return end_ - cursor_; }
    104c:	05144503          	lbu	a0,81(s0)
    1050:	05044783          	lbu	a5,80(s0)
    1054:	40f50533          	sub	a0,a0,a5
#           uart_send_move_back(cmd_buf.characters_after_cursor() + 1);
    1058:	00150513          	addi	a0,a0,1
#         uart_send_move_back(cmd_buf.characters_after_cursor());
    105c:	2d8000ef          	jal	1334 <_ZL19uart_send_move_backj>
    1060:	1400006f          	j	11a0 <_ZL5inputR14command_buffer+0x228>
#         state = input_state::ESCAPE;
    1064:	00100493          	li	s1,1
    1068:	f75ff06f          	j	fdc <_ZL5inputR14command_buffer+0x64>
#       line_[i] = line_[i + 1];
    106c:	0007c603          	lbu	a2,0(a5)
    1070:	00178793          	addi	a5,a5,1
    1074:	fec78f23          	sb	a2,-2(a5)
#     for (size_t i = cursor_ - 1; i < end_; ++i) {
    1078:	40878633          	sub	a2,a5,s0
    107c:	fff60613          	addi	a2,a2,-1
    1080:	feb666e3          	bltu	a2,a1,106c <_ZL5inputR14command_buffer+0xf4>
#     --cursor_;
    1084:	04d40823          	sb	a3,80(s0)
#     --end_;
    1088:	04e408a3          	sb	a4,81(s0)
#     return true;
    108c:	fa9ff06f          	j	1034 <_ZL5inputR14command_buffer+0xbc>
#       } else if (ch == CHAR_CARRIAGE_RETURN || cmd_buf.is_full()) {
    1090:	00d00713          	li	a4,13
#     if (cursor_ == end_) {
    1094:	05144783          	lbu	a5,81(s0)
    1098:	00e50663          	beq	a0,a4,10a4 <_ZL5inputR14command_buffer+0x12c>
    109c:	04f00493          	li	s1,79
    10a0:	04979263          	bne	a5,s1,10e4 <_ZL5inputR14command_buffer+0x16c>
#   auto set_eos() -> void { line_[end_] = '\0'; }
    10a4:	00f407b3          	add	a5,s0,a5
    10a8:	00078023          	sb	zero,0(a5)
# }
    10ac:	02c12083          	lw	ra,44(sp)
    10b0:	02812403          	lw	s0,40(sp)
    10b4:	02412483          	lw	s1,36(sp)
    10b8:	02012903          	lw	s2,32(sp)
    10bc:	01c12983          	lw	s3,28(sp)
    10c0:	01812a03          	lw	s4,24(sp)
    10c4:	01412a83          	lw	s5,20(sp)
    10c8:	01012b03          	lw	s6,16(sp)
    10cc:	00c12b83          	lw	s7,12(sp)
    10d0:	00812c03          	lw	s8,8(sp)
    10d4:	00412c83          	lw	s9,4(sp)
    10d8:	00012d03          	lw	s10,0(sp)
    10dc:	03010113          	addi	sp,sp,48
    10e0:	00008067          	ret
#         uart_send_char(ch);
    10e4:	364000ef          	jal	1448 <_ZL14uart_send_charc>
#     if (end_ == sizeof(line_) - 1) {
    10e8:	05144683          	lbu	a3,81(s0)
    10ec:	02968663          	beq	a3,s1,1118 <_ZL5inputR14command_buffer+0x1a0>
#     if (cursor_ == end_) {
    10f0:	05044703          	lbu	a4,80(s0)
#       ++end_;
    10f4:	00168793          	addi	a5,a3,1
    10f8:	0ff7f793          	zext.b	a5,a5
#       ++cursor_;
    10fc:	00170613          	addi	a2,a4,1
    1100:	0ff67613          	zext.b	a2,a2
#     if (cursor_ == end_) {
    1104:	02e69663          	bne	a3,a4,1130 <_ZL5inputR14command_buffer+0x1b8>
#       line_[cursor_] = ch;
    1108:	00d406b3          	add	a3,s0,a3
    110c:	01268023          	sb	s2,0(a3)
#       ++cursor_;
    1110:	04c40823          	sb	a2,80(s0)
#       ++end_;
    1114:	04f408a3          	sb	a5,81(s0)
#         cmd_buf.apply_on_chars_from_cursor_to_end(
    1118:	00040513          	mv	a0,s0
    111c:	6bc000ef          	jal	17d8 <_ZNK14command_buffer33apply_on_chars_from_cursor_to_endIZL5inputRS_EUlcE_EEvOT_.isra.0>
#   auto characters_after_cursor() const -> size_t { return end_ - cursor_; }
    1120:	05144503          	lbu	a0,81(s0)
    1124:	05044783          	lbu	a5,80(s0)
#         uart_send_move_back(cmd_buf.characters_after_cursor());
    1128:	40f50533          	sub	a0,a0,a5
    112c:	f31ff06f          	j	105c <_ZL5inputR14command_buffer+0xe4>
#     ++end_;
    1130:	04f408a3          	sb	a5,81(s0)
#     for (size_t i = end_; i > cursor_; --i) {
    1134:	00f76a63          	bltu	a4,a5,1148 <_ZL5inputR14command_buffer+0x1d0>
#     line_[cursor_] = ch;
    1138:	00e40733          	add	a4,s0,a4
    113c:	01270023          	sb	s2,0(a4)
#     ++cursor_;
    1140:	04c40823          	sb	a2,80(s0)
#     return true;
    1144:	fd5ff06f          	j	1118 <_ZL5inputR14command_buffer+0x1a0>
#       line_[i] = line_[i - 1];
    1148:	fff78793          	addi	a5,a5,-1
    114c:	00f406b3          	add	a3,s0,a5
    1150:	0006c583          	lbu	a1,0(a3)
    1154:	00b680a3          	sb	a1,1(a3)
#     for (size_t i = end_; i > cursor_; --i) {
    1158:	fddff06f          	j	1134 <_ZL5inputR14command_buffer+0x1bc>
#       if (ch == 0x5B) {
    115c:	fa550493          	addi	s1,a0,-91
    1160:	0014b493          	seqz	s1,s1
    1164:	00149493          	slli	s1,s1,0x1
    1168:	e75ff06f          	j	fdc <_ZL5inputR14command_buffer+0x64>
#       if (ch >= '0' && ch <= '9') {
    116c:	fd050713          	addi	a4,a0,-48
    1170:	0ff77793          	zext.b	a5,a4
    1174:	00faec63          	bltu	s5,a5,118c <_ZL5inputR14command_buffer+0x214>
#         escape_sequence_parameter = escape_sequence_parameter * 10 + (ch - '0');
    1178:	002d1793          	slli	a5,s10,0x2
    117c:	01a787b3          	add	a5,a5,s10
    1180:	00179793          	slli	a5,a5,0x1
    1184:	00f70d33          	add	s10,a4,a5
    1188:	e55ff06f          	j	fdc <_ZL5inputR14command_buffer+0x64>
#         switch (ch) {
    118c:	01650e63          	beq	a0,s6,11a8 <_ZL5inputR14command_buffer+0x230>
    1190:	05850a63          	beq	a0,s8,11e4 <_ZL5inputR14command_buffer+0x26c>
    1194:	04300793          	li	a5,67
    1198:	02f50663          	beq	a0,a5,11c4 <_ZL5inputR14command_buffer+0x24c>
#         escape_sequence_parameter = 0;
    119c:	00000d13          	li	s10,0
#         state = input_state::NORMAL;
    11a0:	00000493          	li	s1,0
    11a4:	e39ff06f          	j	fdc <_ZL5inputR14command_buffer+0x64>
#     if (cursor_ == 0) {
    11a8:	05044783          	lbu	a5,80(s0)
    11ac:	fe0788e3          	beqz	a5,119c <_ZL5inputR14command_buffer+0x224>
#     --cursor_;
    11b0:	fff78793          	addi	a5,a5,-1
    11b4:	04f40823          	sb	a5,80(s0)
#             uart_send_cstr("\x1B[D");
    11b8:	e48b8513          	addi	a0,s7,-440 # 1e48 <_ZNK4spanIcE8for_eachIZL12string_printS0_EUlT_E_EEvS2_.isra.0+0x628>
#             uart_send_cstr("\x1B[C");
    11bc:	268000ef          	jal	1424 <_ZL14uart_send_cstrPKc>
    11c0:	fddff06f          	j	119c <_ZL5inputR14command_buffer+0x224>
#     if (cursor_ == end_) {
    11c4:	05044783          	lbu	a5,80(s0)
    11c8:	05144703          	lbu	a4,81(s0)
    11cc:	fcf708e3          	beq	a4,a5,119c <_ZL5inputR14command_buffer+0x224>
#     ++cursor_;
    11d0:	00178793          	addi	a5,a5,1
    11d4:	00002537          	lui	a0,0x2
    11d8:	04f40823          	sb	a5,80(s0)
    11dc:	e4c50513          	addi	a0,a0,-436 # 1e4c <_ZNK4spanIcE8for_eachIZL12string_printS0_EUlT_E_EEvS2_.isra.0+0x62c>
    11e0:	fddff06f          	j	11bc <_ZL5inputR14command_buffer+0x244>
#           if (escape_sequence_parameter == 3) {
    11e4:	fb9d1ce3          	bne	s10,s9,119c <_ZL5inputR14command_buffer+0x224>
#     if (cursor_ == end_) {
    11e8:	05044783          	lbu	a5,80(s0)
    11ec:	05144703          	lbu	a4,81(s0)
    11f0:	00e78e63          	beq	a5,a4,120c <_ZL5inputR14command_buffer+0x294>
#     for (size_t i = cursor_ + 1; i < end_; ++i) {
    11f4:	00f407b3          	add	a5,s0,a5
    11f8:	00178793          	addi	a5,a5,1
    11fc:	408786b3          	sub	a3,a5,s0
    1200:	02e6ea63          	bltu	a3,a4,1234 <_ZL5inputR14command_buffer+0x2bc>
#     --end_;
    1204:	fff70713          	addi	a4,a4,-1
    1208:	04e408a3          	sb	a4,81(s0)
#             cmd_buf.apply_on_chars_from_cursor_to_end(
    120c:	00040513          	mv	a0,s0
    1210:	5c8000ef          	jal	17d8 <_ZNK14command_buffer33apply_on_chars_from_cursor_to_endIZL5inputRS_EUlcE_EEvOT_.isra.0>
#             uart_send_char(' ');
    1214:	02000513          	li	a0,32
    1218:	230000ef          	jal	1448 <_ZL14uart_send_charc>
#   auto characters_after_cursor() const -> size_t { return end_ - cursor_; }
    121c:	05144503          	lbu	a0,81(s0)
    1220:	05044783          	lbu	a5,80(s0)
    1224:	40f50533          	sub	a0,a0,a5
#             uart_send_move_back(cmd_buf.characters_after_cursor() + 1);
    1228:	00150513          	addi	a0,a0,1
    122c:	108000ef          	jal	1334 <_ZL19uart_send_move_backj>
    1230:	f6dff06f          	j	119c <_ZL5inputR14command_buffer+0x224>
#       line_[i - 1] = line_[i];
    1234:	0007c683          	lbu	a3,0(a5)
    1238:	fed78fa3          	sb	a3,-1(a5)
#     for (size_t i = cursor_ + 1; i < end_; ++i) {
    123c:	fbdff06f          	j	11f8 <_ZL5inputR14command_buffer+0x280>

00001240 <_ZL16string_to_uint324spanIcE>:
# static auto string_to_uint32(string const str) -> uint32_t {
    1240:	ff010113          	addi	sp,sp,-16
    1244:	00a12423          	sw	a0,8(sp)
#     Type *it = begin_;
    1248:	00050713          	mv	a4,a0
    124c:	00b12623          	sw	a1,12(sp)
#   mut num = 0u;
    1250:	00000513          	li	a0,0
#     if (ch <= '0' || ch >= '9') {
    1254:	00700613          	li	a2,7
#     for (; it < end_; ++it) {
    1258:	00b76663          	bltu	a4,a1,1264 <_ZL16string_to_uint324spanIcE+0x24>
# }
    125c:	01010113          	addi	sp,sp,16
    1260:	00008067          	ret
#       if (!f(*it)) {
    1264:	00074683          	lbu	a3,0(a4)
#     if (ch <= '0' || ch >= '9') {
    1268:	fcf68793          	addi	a5,a3,-49
    126c:	0ff7f793          	zext.b	a5,a5
    1270:	fef666e3          	bltu	a2,a5,125c <_ZL16string_to_uint324spanIcE+0x1c>
#     num = num * 10 + uint32_t(ch - '0');
    1274:	00251793          	slli	a5,a0,0x2
    1278:	00a787b3          	add	a5,a5,a0
    127c:	00179793          	slli	a5,a5,0x1
    1280:	fd078793          	addi	a5,a5,-48
    1284:	00d78533          	add	a0,a5,a3
#     for (; it < end_; ++it) {
    1288:	00170713          	addi	a4,a4,1
    128c:	fcdff06f          	j	1258 <_ZL16string_to_uint324spanIcE+0x18>

00001290 <_ZL20uart_send_hex_uint32jb>:
#                      bool const separate_half_words = false) -> void {
    1290:	ff010113          	addi	sp,sp,-16
    1294:	00812423          	sw	s0,8(sp)
    1298:	00050413          	mv	s0,a0
#   uart_send_hex_byte(char(i >> 24));
    129c:	01855513          	srli	a0,a0,0x18
#                      bool const separate_half_words = false) -> void {
    12a0:	00912223          	sw	s1,4(sp)
    12a4:	00112623          	sw	ra,12(sp)
    12a8:	00058493          	mv	s1,a1
#   uart_send_hex_byte(char(i >> 24));
    12ac:	040000ef          	jal	12ec <_ZL18uart_send_hex_bytec>
#   uart_send_hex_byte(char(i >> 16));
    12b0:	01045513          	srli	a0,s0,0x10
    12b4:	0ff57513          	zext.b	a0,a0
    12b8:	034000ef          	jal	12ec <_ZL18uart_send_hex_bytec>
#   if (separate_half_words) {
    12bc:	00048663          	beqz	s1,12c8 <_ZL20uart_send_hex_uint32jb+0x38>
#     uart_send_char(':');
    12c0:	03a00513          	li	a0,58
    12c4:	184000ef          	jal	1448 <_ZL14uart_send_charc>
#   uart_send_hex_byte(char(i >> 8));
    12c8:	00845513          	srli	a0,s0,0x8
    12cc:	0ff57513          	zext.b	a0,a0
    12d0:	01c000ef          	jal	12ec <_ZL18uart_send_hex_bytec>
#   uart_send_hex_byte(char(i));
    12d4:	0ff47513          	zext.b	a0,s0
# }
    12d8:	00812403          	lw	s0,8(sp)
    12dc:	00c12083          	lw	ra,12(sp)
    12e0:	00412483          	lw	s1,4(sp)
    12e4:	01010113          	addi	sp,sp,16
#   uart_send_hex_byte(char(i));
    12e8:	0040006f          	j	12ec <_ZL18uart_send_hex_bytec>

000012ec <_ZL18uart_send_hex_bytec>:
# static auto uart_send_hex_byte(char const ch) -> void {
    12ec:	ff010113          	addi	sp,sp,-16
    12f0:	00812423          	sw	s0,8(sp)
    12f4:	00050413          	mv	s0,a0
#   uart_send_hex_nibble(ch >> 4);
    12f8:	00455513          	srli	a0,a0,0x4
# static auto uart_send_hex_byte(char const ch) -> void {
    12fc:	00112623          	sw	ra,12(sp)
#   uart_send_hex_nibble(ch >> 4);
    1300:	018000ef          	jal	1318 <_ZL20uart_send_hex_nibblec>
#   uart_send_hex_nibble(ch & 0x0f);
    1304:	00f47513          	andi	a0,s0,15
# }
    1308:	00812403          	lw	s0,8(sp)
    130c:	00c12083          	lw	ra,12(sp)
    1310:	01010113          	addi	sp,sp,16
#   uart_send_hex_nibble(ch & 0x0f);
    1314:	0040006f          	j	1318 <_ZL20uart_send_hex_nibblec>

00001318 <_ZL20uart_send_hex_nibblec>:
#   if (nibble < 10) {
    1318:	00900793          	li	a5,9
    131c:	00a7e863          	bltu	a5,a0,132c <_ZL20uart_send_hex_nibblec+0x14>
#     uart_send_char('0' + nibble);
    1320:	03050513          	addi	a0,a0,48
#     uart_send_char('A' + (nibble - 10));
    1324:	0ff57513          	zext.b	a0,a0
    1328:	1200006f          	j	1448 <_ZL14uart_send_charc>
    132c:	03750513          	addi	a0,a0,55
    1330:	ff5ff06f          	j	1324 <_ZL20uart_send_hex_nibblec+0xc>

00001334 <_ZL19uart_send_move_backj>:
# static auto uart_send_move_back(size_t const n) -> void {
    1334:	ff010113          	addi	sp,sp,-16
    1338:	00812423          	sw	s0,8(sp)
    133c:	00912223          	sw	s1,4(sp)
    1340:	00112623          	sw	ra,12(sp)
    1344:	00050413          	mv	s0,a0
#   for (mut i = 0u; i < n; ++i) {
    1348:	00000493          	li	s1,0
    134c:	00849c63          	bne	s1,s0,1364 <_ZL19uart_send_move_backj+0x30>
# }
    1350:	00c12083          	lw	ra,12(sp)
    1354:	00812403          	lw	s0,8(sp)
    1358:	00412483          	lw	s1,4(sp)
    135c:	01010113          	addi	sp,sp,16
    1360:	00008067          	ret
#     uart_send_char('\b');
    1364:	00800513          	li	a0,8
    1368:	0e0000ef          	jal	1448 <_ZL14uart_send_charc>
#   for (mut i = 0u; i < n; ++i) {
    136c:	00148493          	addi	s1,s1,1
    1370:	fddff06f          	j	134c <_ZL19uart_send_move_backj+0x18>

00001374 <_ZL12entity_by_idh>:
#     if (id >= sizeof(entities) / sizeof(entity)) {
    1374:	000027b7          	lui	a5,0x2
    1378:	00200693          	li	a3,2
    137c:	fa078713          	addi	a4,a5,-96 # 1fa0 <_ZL8entities>
    1380:	02a6e063          	bltu	a3,a0,13a0 <_ZL12entity_by_idh+0x2c>
#   return entities[id];
    1384:	00151793          	slli	a5,a0,0x1
    1388:	00a787b3          	add	a5,a5,a0
    138c:	00279793          	slli	a5,a5,0x2
    1390:	40a78533          	sub	a0,a5,a0
    1394:	00251513          	slli	a0,a0,0x2
    1398:	00a70533          	add	a0,a4,a0
    139c:	00008067          	ret
#       return entities[0];
    13a0:	fa078513          	addi	a0,a5,-96
# }
    13a4:	00008067          	ret

000013a8 <_ZL12object_by_idh>:
#     if (id >= sizeof(objects) / sizeof(object)) {
    13a8:	000027b7          	lui	a5,0x2
    13ac:	00300693          	li	a3,3
    13b0:	f9078713          	addi	a4,a5,-112 # 1f90 <_ZL7objects>
    13b4:	00a6e863          	bltu	a3,a0,13c4 <_ZL12object_by_idh+0x1c>
#   return objects[id];
    13b8:	00251513          	slli	a0,a0,0x2
    13bc:	00a70533          	add	a0,a4,a0
    13c0:	00008067          	ret
#       return objects[0];
    13c4:	f9078513          	addi	a0,a5,-112
# }
    13c8:	00008067          	ret

000013cc <_ZL14location_by_idh>:
#     if (id >= sizeof(locations) / sizeof(location)) {
    13cc:	000027b7          	lui	a5,0x2
    13d0:	00400693          	li	a3,4
    13d4:	02478713          	addi	a4,a5,36 # 2024 <_ZL9locations>
    13d8:	00a6ec63          	bltu	a3,a0,13f0 <_ZL14location_by_idh+0x24>
#   return locations[id];
    13dc:	00251793          	slli	a5,a0,0x2
    13e0:	00a78533          	add	a0,a5,a0
    13e4:	00551513          	slli	a0,a0,0x5
    13e8:	00a70533          	add	a0,a4,a0
    13ec:	00008067          	ret
#       return locations[0];
    13f0:	02478513          	addi	a0,a5,36
# }
    13f4:	00008067          	ret

000013f8 <_ZL10exit_by_idh>:
# 
# static auto exit_by_id(exit_id_t const id) -> cstr {
#   if constexpr (safe_arrays) {
#     if (id >= sizeof(exits) / sizeof(cstr)) {
    13f8:	000027b7          	lui	a5,0x2
    13fc:	00500713          	li	a4,5
    1400:	34478793          	addi	a5,a5,836 # 2344 <_ZL5exits>
    1404:	00a77663          	bgeu	a4,a0,1410 <_ZL10exit_by_idh+0x18>
#       return exits[0];
#     }
#   }
#   return exits[id];
    1408:	0007a503          	lw	a0,0(a5)
# }
    140c:	00008067          	ret
#   return exits[id];
    1410:	00251513          	slli	a0,a0,0x2
    1414:	00a787b3          	add	a5,a5,a0
    1418:	ff1ff06f          	j	1408 <_ZL10exit_by_idh+0x10>

0000141c <_ZL7led_seti>:
    141c:	fea02e23          	sw	a0,-4(zero) # fffffffc <__bss_end+0xffffdc90>
    1420:	00008067          	ret

00001424 <_ZL14uart_send_cstrPKc>:
#     while (*UART_OUT != -1)
    1424:	fff00713          	li	a4,-1
#   while (*str) {
    1428:	00054783          	lbu	a5,0(a0)
    142c:	00079463          	bnez	a5,1434 <_ZL14uart_send_cstrPKc+0x10>
# }
    1430:	00008067          	ret
#     while (*UART_OUT != -1)
    1434:	ff802683          	lw	a3,-8(zero) # fffffff8 <__bss_end+0xffffdc8c>
    1438:	fee69ee3          	bne	a3,a4,1434 <_ZL14uart_send_cstrPKc+0x10>
#     *UART_OUT = *str++;
    143c:	00150513          	addi	a0,a0,1
    1440:	fef02c23          	sw	a5,-8(zero) # fffffff8 <__bss_end+0xffffdc8c>
    1444:	fe5ff06f          	j	1428 <_ZL14uart_send_cstrPKc+0x4>

00001448 <_ZL14uart_send_charc>:
#   while (*UART_OUT != -1)
    1448:	fff00793          	li	a5,-1
    144c:	ff802703          	lw	a4,-8(zero) # fffffff8 <__bss_end+0xffffdc8c>
    1450:	fef71ee3          	bne	a4,a5,144c <_ZL14uart_send_charc+0x4>
#   *UART_OUT = ch;
    1454:	fea02c23          	sw	a0,-8(zero) # fffffff8 <__bss_end+0xffffdc8c>
# }
    1458:	00008067          	ret

0000145c <_ZL14uart_read_charv>:
#   while ((ch = *UART_IN) == -1)
    145c:	fff00793          	li	a5,-1
    1460:	ff402503          	lw	a0,-12(zero) # fffffff4 <__bss_end+0xffffdc88>
    1464:	fef50ee3          	beq	a0,a5,1460 <_ZL14uart_read_charv+0x4>
# }
    1468:	0ff57513          	zext.b	a0,a0
    146c:	00008067          	ret

00001470 <_ZL15action_mem_testv>:
#   uart_send_cstr("testing memory (write)\r\n");
    1470:	00002537          	lui	a0,0x2
# static auto action_mem_test() -> void {
    1474:	fe010113          	addi	sp,sp,-32
#   uart_send_cstr("testing memory (write)\r\n");
    1478:	ec450513          	addi	a0,a0,-316 # 1ec4 <_ZNK4spanIcE8for_eachIZL12string_printS0_EUlT_E_EEvS2_.isra.0+0x6a4>
# static auto action_mem_test() -> void {
    147c:	00812c23          	sw	s0,24(sp)
    1480:	00112e23          	sw	ra,28(sp)
#   char *ptr = &__heap_start;
    1484:	00002437          	lui	s0,0x2
# static auto action_mem_test() -> void {
    1488:	00912a23          	sw	s1,20(sp)
    148c:	01212823          	sw	s2,16(sp)
    1490:	01312623          	sw	s3,12(sp)
    1494:	01412423          	sw	s4,8(sp)
    1498:	01512223          	sw	s5,4(sp)
    149c:	01612023          	sw	s6,0(sp)
#   uart_send_cstr("testing memory (write)\r\n");
    14a0:	f85ff0ef          	jal	1424 <_ZL14uart_send_cstrPKc>
#   char *ptr = &__heap_start;
    14a4:	36c40713          	addi	a4,s0,876 # 236c <__bss_end>
#   char ch = 0;
    14a8:	00000793          	li	a5,0
    14ac:	36c40413          	addi	s0,s0,876
#   while (ptr < end) {
    14b0:	001f06b7          	lui	a3,0x1f0
    14b4:	06d76263          	bltu	a4,a3,1518 <_ZL15action_mem_testv+0xa8>
#   uart_send_cstr("testing memory (read)\r\n");
    14b8:	00002537          	lui	a0,0x2
    14bc:	ee050513          	addi	a0,a0,-288 # 1ee0 <_ZNK4spanIcE8for_eachIZL12string_printS0_EUlT_E_EEvS2_.isra.0+0x6c0>
    14c0:	f65ff0ef          	jal	1424 <_ZL14uart_send_cstrPKc>
#   bool failed = false;
    14c4:	00000793          	li	a5,0
#   ch = 0;
    14c8:	00000493          	li	s1,0
#   while (ptr < end) {
    14cc:	001f0937          	lui	s2,0x1f0
#       uart_send_cstr("at ");
    14d0:	000029b7          	lui	s3,0x2
#       uart_send_cstr(" expected ");
    14d4:	00002a37          	lui	s4,0x2
#       uart_send_cstr(" got ");
    14d8:	00002ab7          	lui	s5,0x2
#       uart_send_cstr("\r\n");
    14dc:	00002b37          	lui	s6,0x2
#   while (ptr < end) {
    14e0:	05246663          	bltu	s0,s2,152c <_ZL15action_mem_testv+0xbc>
#   if (failed) {
    14e4:	0a078063          	beqz	a5,1584 <_ZL15action_mem_testv+0x114>
#     uart_send_cstr("testing memory FAILED\r\n");
    14e8:	00002537          	lui	a0,0x2
    14ec:	f1050513          	addi	a0,a0,-240 # 1f10 <_ZNK4spanIcE8for_eachIZL12string_printS0_EUlT_E_EEvS2_.isra.0+0x6f0>
# }
    14f0:	01812403          	lw	s0,24(sp)
    14f4:	01c12083          	lw	ra,28(sp)
    14f8:	01412483          	lw	s1,20(sp)
    14fc:	01012903          	lw	s2,16(sp)
    1500:	00c12983          	lw	s3,12(sp)
    1504:	00812a03          	lw	s4,8(sp)
    1508:	00412a83          	lw	s5,4(sp)
    150c:	00012b03          	lw	s6,0(sp)
    1510:	02010113          	addi	sp,sp,32
#     uart_send_cstr("testing memory succeeded\r\n");
    1514:	f11ff06f          	j	1424 <_ZL14uart_send_cstrPKc>
#     *ptr = ch;
    1518:	00f70023          	sb	a5,0(a4)
#     ++ch;
    151c:	00178793          	addi	a5,a5,1
#     ++ptr;
    1520:	00170713          	addi	a4,a4,1
#     ++ch;
    1524:	0ff7f793          	zext.b	a5,a5
    1528:	f8dff06f          	j	14b4 <_ZL15action_mem_testv+0x44>
#     if (*ptr != ch) {
    152c:	00044703          	lbu	a4,0(s0)
    1530:	04970263          	beq	a4,s1,1574 <_ZL15action_mem_testv+0x104>
#       uart_send_cstr("at ");
    1534:	ef898513          	addi	a0,s3,-264 # 1ef8 <_ZNK4spanIcE8for_eachIZL12string_printS0_EUlT_E_EEvS2_.isra.0+0x6d8>
    1538:	eedff0ef          	jal	1424 <_ZL14uart_send_cstrPKc>
#       uart_send_hex_uint32(uint32_t(ptr), true);
    153c:	00100593          	li	a1,1
    1540:	00040513          	mv	a0,s0
    1544:	d4dff0ef          	jal	1290 <_ZL20uart_send_hex_uint32jb>
#       uart_send_cstr(" expected ");
    1548:	efca0513          	addi	a0,s4,-260 # 1efc <_ZNK4spanIcE8for_eachIZL12string_printS0_EUlT_E_EEvS2_.isra.0+0x6dc>
    154c:	ed9ff0ef          	jal	1424 <_ZL14uart_send_cstrPKc>
#       uart_send_hex_byte(ch);
    1550:	00048513          	mv	a0,s1
    1554:	d99ff0ef          	jal	12ec <_ZL18uart_send_hex_bytec>
#       uart_send_cstr(" got ");
    1558:	f08a8513          	addi	a0,s5,-248 # 1f08 <_ZNK4spanIcE8for_eachIZL12string_printS0_EUlT_E_EEvS2_.isra.0+0x6e8>
    155c:	ec9ff0ef          	jal	1424 <_ZL14uart_send_cstrPKc>
#       uart_send_hex_byte(*ptr);
    1560:	00044503          	lbu	a0,0(s0)
    1564:	d89ff0ef          	jal	12ec <_ZL18uart_send_hex_bytec>
#       uart_send_cstr("\r\n");
    1568:	bd4b0513          	addi	a0,s6,-1068 # 1bd4 <_ZNK4spanIcE8for_eachIZL12string_printS0_EUlT_E_EEvS2_.isra.0+0x3b4>
    156c:	eb9ff0ef          	jal	1424 <_ZL14uart_send_cstrPKc>
#       failed = true;
    1570:	00100793          	li	a5,1
#     ++ch;
    1574:	00148493          	addi	s1,s1,1
#     ++ptr;
    1578:	00140413          	addi	s0,s0,1
#     ++ch;
    157c:	0ff4f493          	zext.b	s1,s1
    1580:	f61ff06f          	j	14e0 <_ZL15action_mem_testv+0x70>
#     uart_send_cstr("testing memory succeeded\r\n");
    1584:	00002537          	lui	a0,0x2
    1588:	f2850513          	addi	a0,a0,-216 # 1f28 <_ZNK4spanIcE8for_eachIZL12string_printS0_EUlT_E_EEvS2_.isra.0+0x708>
    158c:	f65ff06f          	j	14f0 <_ZL15action_mem_testv+0x80>

00001590 <_ZL23action_sdcard_test_read4spanIcE>:
# static auto action_sdcard_test_read(string const args) -> void {
    1590:	dd010113          	addi	sp,sp,-560
    1594:	00a12423          	sw	a0,8(sp)
    1598:	00058613          	mv	a2,a1
    159c:	00b12623          	sw	a1,12(sp)
#   let w1 = string_next_word(args);
    15a0:	00050593          	mv	a1,a0
    15a4:	01010513          	addi	a0,sp,16
# static auto action_sdcard_test_read(string const args) -> void {
    15a8:	22112623          	sw	ra,556(sp)
    15ac:	22812423          	sw	s0,552(sp)
    15b0:	22912223          	sw	s1,548(sp)
    15b4:	23212023          	sw	s2,544(sp)
#   let w1 = string_next_word(args);
    15b8:	b7dfe0ef          	jal	134 <_ZL16string_next_word4spanIcE>
#   if (w1.word.is_empty()) {
    15bc:	01012503          	lw	a0,16(sp)
    15c0:	01412583          	lw	a1,20(sp)
    15c4:	02b51263          	bne	a0,a1,15e8 <_ZL23action_sdcard_test_read4spanIcE+0x58>
#     uart_send_cstr("<sector>\r\n");
    15c8:	00002537          	lui	a0,0x2
    15cc:	f4450513          	addi	a0,a0,-188 # 1f44 <_ZNK4spanIcE8for_eachIZL12string_printS0_EUlT_E_EEvS2_.isra.0+0x724>
# }
    15d0:	22812403          	lw	s0,552(sp)
    15d4:	22c12083          	lw	ra,556(sp)
    15d8:	22412483          	lw	s1,548(sp)
    15dc:	22012903          	lw	s2,544(sp)
    15e0:	23010113          	addi	sp,sp,560
#   uart_send_cstr("\r\n");
    15e4:	e41ff06f          	j	1424 <_ZL14uart_send_cstrPKc>
#   let sector = string_to_uint32(w1.word);
    15e8:	c59ff0ef          	jal	1240 <_ZL16string_to_uint324spanIcE>
#   sdcard_read_blocking(sector, buf);
    15ec:	02010493          	addi	s1,sp,32
    15f0:	00048593          	mv	a1,s1
    15f4:	124000ef          	jal	1718 <_ZL20sdcard_read_blockingjPc>
#   for (mut i = 0u; i < sizeof(buf); ++i) {
    15f8:	00000413          	li	s0,0
    15fc:	20000913          	li	s2,512
#     uart_send_char(buf[i]);
    1600:	008487b3          	add	a5,s1,s0
    1604:	0007c503          	lbu	a0,0(a5)
#   for (mut i = 0u; i < sizeof(buf); ++i) {
    1608:	00140413          	addi	s0,s0,1
#     uart_send_char(buf[i]);
    160c:	e3dff0ef          	jal	1448 <_ZL14uart_send_charc>
#   for (mut i = 0u; i < sizeof(buf); ++i) {
    1610:	ff2418e3          	bne	s0,s2,1600 <_ZL23action_sdcard_test_read4spanIcE+0x70>
#   uart_send_cstr("\r\n");
    1614:	00002537          	lui	a0,0x2
    1618:	bd450513          	addi	a0,a0,-1068 # 1bd4 <_ZNK4spanIcE8for_eachIZL12string_printS0_EUlT_E_EEvS2_.isra.0+0x3b4>
    161c:	fb5ff06f          	j	15d0 <_ZL23action_sdcard_test_read4spanIcE+0x40>

00001620 <_ZL24action_sdcard_test_write4spanIcE>:
# static auto action_sdcard_test_write(string const args) -> void {
    1620:	dd010113          	addi	sp,sp,-560
    1624:	00a12423          	sw	a0,8(sp)
    1628:	00058613          	mv	a2,a1
    162c:	00b12623          	sw	a1,12(sp)
#   let w1 = string_next_word(args);
    1630:	00050593          	mv	a1,a0
    1634:	01010513          	addi	a0,sp,16
# static auto action_sdcard_test_write(string const args) -> void {
    1638:	22112623          	sw	ra,556(sp)
#   let w1 = string_next_word(args);
    163c:	af9fe0ef          	jal	134 <_ZL16string_next_word4spanIcE>
#   if (w1.word.is_empty()) {
    1640:	01012703          	lw	a4,16(sp)
    1644:	01412783          	lw	a5,20(sp)
    1648:	00f71c63          	bne	a4,a5,1660 <_ZL24action_sdcard_test_write4spanIcE+0x40>
#     *buf_ptr = ch;
#     ++buf_ptr;
#   });
#   size_t const sector = string_to_uint32(w1.word);
#   sdcard_write_blocking(sector, buf);
# }
    164c:	22c12083          	lw	ra,556(sp)
#     uart_send_cstr("<sector> <text>\r\n");
    1650:	00002537          	lui	a0,0x2
    1654:	f5050513          	addi	a0,a0,-176 # 1f50 <_ZNK4spanIcE8for_eachIZL12string_printS0_EUlT_E_EEvS2_.isra.0+0x730>
# }
    1658:	23010113          	addi	sp,sp,560
#     uart_send_cstr("<sector> <text>\r\n");
    165c:	dc9ff06f          	j	1424 <_ZL14uart_send_cstrPKc>
#   char buf[512]{};
    1660:	20000613          	li	a2,512
    1664:	00000593          	li	a1,0
    1668:	02010513          	addi	a0,sp,32
    166c:	104000ef          	jal	1770 <memset>
#     for (Type *it = begin_; it < end_; ++it) {
    1670:	01812783          	lw	a5,24(sp)
    1674:	01c12683          	lw	a3,28(sp)
#   mut *buf_ptr = buf;
    1678:	02010713          	addi	a4,sp,32
    167c:	02d7e263          	bltu	a5,a3,16a0 <_ZL24action_sdcard_test_write4spanIcE+0x80>
#   size_t const sector = string_to_uint32(w1.word);
    1680:	01412583          	lw	a1,20(sp)
    1684:	01012503          	lw	a0,16(sp)
    1688:	bb9ff0ef          	jal	1240 <_ZL16string_to_uint324spanIcE>
#   sdcard_write_blocking(sector, buf);
    168c:	02010593          	addi	a1,sp,32
    1690:	0b4000ef          	jal	1744 <_ZL21sdcard_write_blockingjPKc>
# }
    1694:	22c12083          	lw	ra,556(sp)
    1698:	23010113          	addi	sp,sp,560
    169c:	00008067          	ret
#     *buf_ptr = ch;
    16a0:	0007c603          	lbu	a2,0(a5)
#     ++buf_ptr;
    16a4:	00170713          	addi	a4,a4,1
    16a8:	00178793          	addi	a5,a5,1
#     *buf_ptr = ch;
    16ac:	fec70fa3          	sb	a2,-1(a4)
    16b0:	fcdff06f          	j	167c <_ZL24action_sdcard_test_write4spanIcE+0x5c>

000016b4 <_ZL20action_sdcard_statusv>:
# 
# static auto action_sdcard_status() -> void {
    16b4:	ff010113          	addi	sp,sp,-16
    16b8:	00812423          	sw	s0,8(sp)
#   uint32_t const status = *SDCARD_STATUS;
#   uart_send_cstr("SDCARD_STATUS: 0x");
    16bc:	00002537          	lui	a0,0x2
#   uint32_t const status = *SDCARD_STATUS;
    16c0:	fe402403          	lw	s0,-28(zero) # ffffffe4 <__bss_end+0xffffdc78>
#   uart_send_cstr("SDCARD_STATUS: 0x");
    16c4:	f6450513          	addi	a0,a0,-156 # 1f64 <_ZNK4spanIcE8for_eachIZL12string_printS0_EUlT_E_EEvS2_.isra.0+0x744>
# static auto action_sdcard_status() -> void {
    16c8:	00112623          	sw	ra,12(sp)
#   uart_send_cstr("SDCARD_STATUS: 0x");
    16cc:	d59ff0ef          	jal	1424 <_ZL14uart_send_cstrPKc>
#   uart_send_hex_byte(char(status >> 24));
    16d0:	01845513          	srli	a0,s0,0x18
    16d4:	c19ff0ef          	jal	12ec <_ZL18uart_send_hex_bytec>
#   uart_send_hex_byte(char(status >> 16));
    16d8:	01045513          	srli	a0,s0,0x10
    16dc:	0ff57513          	zext.b	a0,a0
    16e0:	c0dff0ef          	jal	12ec <_ZL18uart_send_hex_bytec>
#   uart_send_char(':');
    16e4:	03a00513          	li	a0,58
    16e8:	d61ff0ef          	jal	1448 <_ZL14uart_send_charc>
#   uart_send_hex_byte(char(status >> 8));
    16ec:	00845513          	srli	a0,s0,0x8
    16f0:	0ff57513          	zext.b	a0,a0
    16f4:	bf9ff0ef          	jal	12ec <_ZL18uart_send_hex_bytec>
#   uart_send_hex_byte(char(status));
    16f8:	0ff47513          	zext.b	a0,s0
    16fc:	bf1ff0ef          	jal	12ec <_ZL18uart_send_hex_bytec>
#   uart_send_cstr("\r\n");
# }
    1700:	00812403          	lw	s0,8(sp)
    1704:	00c12083          	lw	ra,12(sp)
#   uart_send_cstr("\r\n");
    1708:	00002537          	lui	a0,0x2
    170c:	bd450513          	addi	a0,a0,-1068 # 1bd4 <_ZNK4spanIcE8for_eachIZL12string_printS0_EUlT_E_EEvS2_.isra.0+0x3b4>
# }
    1710:	01010113          	addi	sp,sp,16
#   uart_send_cstr("\r\n");
    1714:	d11ff06f          	j	1424 <_ZL14uart_send_cstrPKc>

00001718 <_ZL20sdcard_read_blockingjPc>:
# 
# static auto sdcard_read_blocking(size_t const sector,
#                                  int8_t *buffer512B) -> void {
#   while (*SDCARD_BUSY)
    1718:	ff002783          	lw	a5,-16(zero) # fffffff0 <__bss_end+0xffffdc84>
    171c:	fe079ee3          	bnez	a5,1718 <_ZL20sdcard_read_blockingjPc>
#     ;
#   *SDCARD_READ_SECTOR = sector;
    1720:	fea02623          	sw	a0,-20(zero) # ffffffec <__bss_end+0xffffdc80>
#   while (*SDCARD_BUSY)
    1724:	ff002783          	lw	a5,-16(zero) # fffffff0 <__bss_end+0xffffdc84>
    1728:	fe079ee3          	bnez	a5,1724 <_ZL20sdcard_read_blockingjPc+0xc>
    172c:	20058793          	addi	a5,a1,512
#     ;
#   for (size_t i = 0; i < 512; ++i) {
#     *buffer512B = char(*SDCARD_NEXT_BYTE);
    1730:	fe802703          	lw	a4,-24(zero) # ffffffe8 <__bss_end+0xffffdc7c>
#     ++buffer512B;
    1734:	00158593          	addi	a1,a1,1
#     *buffer512B = char(*SDCARD_NEXT_BYTE);
    1738:	fee58fa3          	sb	a4,-1(a1)
#   for (size_t i = 0; i < 512; ++i) {
    173c:	feb79ae3          	bne	a5,a1,1730 <_ZL20sdcard_read_blockingjPc+0x18>
#   }
# }
    1740:	00008067          	ret

00001744 <_ZL21sdcard_write_blockingjPKc>:
# 
# static auto sdcard_write_blocking(size_t const sector,
#                                   int8_t const *buffer512B) -> void {
#   while (*SDCARD_BUSY)
    1744:	ff002783          	lw	a5,-16(zero) # fffffff0 <__bss_end+0xffffdc84>
    1748:	fe079ee3          	bnez	a5,1744 <_ZL21sdcard_write_blockingjPKc>
    174c:	20058793          	addi	a5,a1,512
#     ;
#   for (size_t i = 0; i < 512; ++i) {
#     *SDCARD_NEXT_BYTE = *buffer512B;
    1750:	0005c703          	lbu	a4,0(a1)
#     ++buffer512B;
    1754:	00158593          	addi	a1,a1,1
#     *SDCARD_NEXT_BYTE = *buffer512B;
    1758:	fee02423          	sw	a4,-24(zero) # ffffffe8 <__bss_end+0xffffdc7c>
#   for (size_t i = 0; i < 512; ++i) {
    175c:	feb79ae3          	bne	a5,a1,1750 <_ZL21sdcard_write_blockingjPKc+0xc>
#   }
#   *SDCARD_WRITE_SECTOR = sector;
    1760:	fea02023          	sw	a0,-32(zero) # ffffffe0 <__bss_end+0xffffdc74>
#   while (*SDCARD_BUSY)
    1764:	ff002783          	lw	a5,-16(zero) # fffffff0 <__bss_end+0xffffdc84>
    1768:	fe079ee3          	bnez	a5,1764 <_ZL21sdcard_write_blockingjPKc+0x20>
#     ;
# }
    176c:	00008067          	ret

00001770 <memset>:
# 
# // built-in function called by compiler
# extern "C" auto memset(void *str, int ch, int n) -> void * {
#   char *ptr = reinterpret_cast<char *>(str);
#   while (n--) {
    1770:	00c50633          	add	a2,a0,a2
#   char *ptr = reinterpret_cast<char *>(str);
    1774:	00050793          	mv	a5,a0
#   while (n--) {
    1778:	00c79463          	bne	a5,a2,1780 <memset+0x10>
#     *ptr = char(ch);
#     ++ptr;
#   }
#   return str;
# }
    177c:	00008067          	ret
#     *ptr = char(ch);
    1780:	00b78023          	sb	a1,0(a5)
#     ++ptr;
    1784:	00178793          	addi	a5,a5,1
    1788:	ff1ff06f          	j	1778 <memset+0x8>

0000178c <memcpy>:
# 
# // built-in function called by compiler
# extern "C" auto memcpy(void *dst, void const *src, size_t n) -> void * {
#   char *p1 = reinterpret_cast<char *>(dst);
#   char const *p2 = reinterpret_cast<char const *>(src);
#   while (n--) {
    178c:	00000793          	li	a5,0
    1790:	00f61463          	bne	a2,a5,1798 <memcpy+0xc>
#     *p1 = *p2;
#     ++p1;
#     ++p2;
#   }
#   return dst;
# }
    1794:	00008067          	ret
#     *p1 = *p2;
    1798:	00f58733          	add	a4,a1,a5
    179c:	00074683          	lbu	a3,0(a4)
    17a0:	00f50733          	add	a4,a0,a5
    17a4:	00178793          	addi	a5,a5,1
    17a8:	00d70023          	sb	a3,0(a4)
#     ++p2;
    17ac:	fe5ff06f          	j	1790 <memcpy+0x4>

000017b0 <_ZL12initiate_bssv>:
# 
# // zero bss section
# static auto initiate_bss() -> void {
#   memset(&__bss_start, 0, &__bss_end - &__bss_start);
    17b0:	00002537          	lui	a0,0x2
    17b4:	000027b7          	lui	a5,0x2
    17b8:	36450613          	addi	a2,a0,868 # 2364 <_ZL21input_escape_sequence>
    17bc:	36c78793          	addi	a5,a5,876 # 236c <__bss_end>
    17c0:	40c78633          	sub	a2,a5,a2
    17c4:	00000593          	li	a1,0
    17c8:	36450513          	addi	a0,a0,868
    17cc:	fa5ff06f          	j	1770 <memset>

000017d0 <_ZL16initiate_staticsv>:
# }
# 
# static auto initiate_statics() -> void {}
    17d0:	00008067          	ret

000017d4 <_ZL4exiti>:
# 
    17d4:	00008067          	ret

000017d8 <_ZNK14command_buffer33apply_on_chars_from_cursor_to_endIZL5inputRS_EUlcE_EEvOT_.isra.0>:
#   auto apply_on_chars_from_cursor_to_end(
    17d8:	ff010113          	addi	sp,sp,-16
    17dc:	00812423          	sw	s0,8(sp)
    17e0:	00112623          	sw	ra,12(sp)
    17e4:	00912223          	sw	s1,4(sp)
#     for (size_t i = cursor_; i < end_; ++i) {
    17e8:	05054483          	lbu	s1,80(a0)
#   auto apply_on_chars_from_cursor_to_end(
    17ec:	00050413          	mv	s0,a0
#     for (size_t i = cursor_; i < end_; ++i) {
    17f0:	05144783          	lbu	a5,81(s0)
    17f4:	00f4ec63          	bltu	s1,a5,180c <_ZNK14command_buffer33apply_on_chars_from_cursor_to_endIZL5inputRS_EUlcE_EEvOT_.isra.0+0x34>
#   }
    17f8:	00c12083          	lw	ra,12(sp)
    17fc:	00812403          	lw	s0,8(sp)
    1800:	00412483          	lw	s1,4(sp)
    1804:	01010113          	addi	sp,sp,16
    1808:	00008067          	ret
#       f(line_[i]);
    180c:	009407b3          	add	a5,s0,s1
#               [](char const c) { uart_send_char(c); });
    1810:	0007c503          	lbu	a0,0(a5)
#     for (size_t i = cursor_; i < end_; ++i) {
    1814:	00148493          	addi	s1,s1,1
    1818:	c31ff0ef          	jal	1448 <_ZL14uart_send_charc>
    181c:	fd5ff06f          	j	17f0 <_ZNK14command_buffer33apply_on_chars_from_cursor_to_endIZL5inputRS_EUlcE_EEvOT_.isra.0+0x18>

00001820 <_ZNK4spanIcE8for_eachIZL12string_printS0_EUlT_E_EEvS2_.isra.0>:
#   auto for_each(callable_returns_void<Type> auto f) const -> void {
    1820:	ff010113          	addi	sp,sp,-16
    1824:	00812423          	sw	s0,8(sp)
#     for (Type *it = begin_; it < end_; ++it) {
    1828:	00052403          	lw	s0,0(a0)
#   auto for_each(callable_returns_void<Type> auto f) const -> void {
    182c:	00912223          	sw	s1,4(sp)
    1830:	00112623          	sw	ra,12(sp)
    1834:	00050493          	mv	s1,a0
#     for (Type *it = begin_; it < end_; ++it) {
    1838:	0044a783          	lw	a5,4(s1)
    183c:	00f46c63          	bltu	s0,a5,1854 <_ZNK4spanIcE8for_eachIZL12string_printS0_EUlT_E_EEvS2_.isra.0+0x34>
#   }
    1840:	00c12083          	lw	ra,12(sp)
    1844:	00812403          	lw	s0,8(sp)
    1848:	00412483          	lw	s1,4(sp)
    184c:	01010113          	addi	sp,sp,16
    1850:	00008067          	ret
#   str.for_each([](let ch) { uart_send_char(ch); });
    1854:	00044503          	lbu	a0,0(s0)
#     for (Type *it = begin_; it < end_; ++it) {
    1858:	00140413          	addi	s0,s0,1
    185c:	bedff0ef          	jal	1448 <_ZL14uart_send_charc>
    1860:	fd9ff06f          	j	1838 <_ZNK4spanIcE8for_eachIZL12string_printS0_EUlT_E_EEvS2_.isra.0+0x18>
